	.cpu cortex-m4
	.arch armv7e-m
	.fpu fpv4-sp-d16
	.eabi_attribute 27, 1
	.eabi_attribute 28, 1
	.eabi_attribute 20, 1
	.eabi_attribute 21, 1
	.eabi_attribute 23, 3
	.eabi_attribute 24, 1
	.eabi_attribute 25, 1
	.eabi_attribute 26, 1
	.eabi_attribute 30, 6
	.eabi_attribute 34, 1
	.eabi_attribute 18, 4
	.file	"drv_common.c"
	.text
.Ltext0:
	.cfi_sections	.debug_frame
	.section	.text.reboot,"ax",%progbits
	.align	1
	.syntax unified
	.thumb
	.thumb_func
	.type	reboot, %function
reboot:
.LFB1040:
	.file 1 "libraries\\HAL_Drivers\\drv_common.c"
	.loc 1 24 1
	.cfi_startproc
	@ args = 0, pretend = 0, frame = 8
	@ frame_needed = 1, uses_anonymous_args = 0
	push	{r7, lr}
.LCFI0:
	.cfi_def_cfa_offset 8
	.cfi_offset 7, -8
	.cfi_offset 14, -4
	sub	sp, sp, #8
.LCFI1:
	.cfi_def_cfa_offset 16
	add	r7, sp, #0
.LCFI2:
	.cfi_def_cfa_register 7
	mov	r3, r0
	str	r1, [r7]
	strb	r3, [r7, #7]
	.loc 1 25 5
	bl	rt_hw_cpu_reset
	.loc 1 26 1
	nop
	adds	r7, r7, #8
.LCFI3:
	.cfi_def_cfa_offset 8
	mov	sp, r7
.LCFI4:
	.cfi_def_cfa_register 13
	@ sp needed
	pop	{r7, pc}
	.cfi_endproc
.LFE1040:
	.size	reboot, .-reboot
	.global	__fsym_reboot_name
	.section	.rodata.name,"a"
	.align	2
	.type	__fsym_reboot_name, %object
	.size	__fsym_reboot_name, 7
__fsym_reboot_name:
	.ascii	"reboot\000"
	.global	__fsym_reboot_desc
	.align	2
	.type	__fsym_reboot_desc, %object
	.size	__fsym_reboot_desc, 14
__fsym_reboot_desc:
	.ascii	"Reboot System\000"
	.global	__fsym_reboot
	.section	FSymTab,"a"
	.align	2
	.type	__fsym_reboot, %object
	.size	__fsym_reboot, 12
__fsym_reboot:
	.word	__fsym_reboot_name
	.word	__fsym_reboot_desc
	.word	reboot
	.section	.text.SysTick_Handler_CB,"ax",%progbits
	.align	1
	.global	SysTick_Handler_CB
	.syntax unified
	.thumb
	.thumb_func
	.type	SysTick_Handler_CB, %function
SysTick_Handler_CB:
.LFB1041:
	.loc 1 34 1
	.cfi_startproc
	@ args = 0, pretend = 0, frame = 0
	@ frame_needed = 1, uses_anonymous_args = 0
	push	{r7, lr}
.LCFI5:
	.cfi_def_cfa_offset 8
	.cfi_offset 7, -8
	.cfi_offset 14, -4
	add	r7, sp, #0
.LCFI6:
	.cfi_def_cfa_register 7
	.loc 1 36 5
	bl	rt_interrupt_enter
	.loc 1 38 5
	bl	rt_tick_increase
	.loc 1 41 5
	bl	rt_interrupt_leave
	.loc 1 42 1
	nop
	pop	{r7, pc}
	.cfi_endproc
.LFE1041:
	.size	SysTick_Handler_CB, .-SysTick_Handler_CB
	.section	.text.rt_hw_systick_init,"ax",%progbits
	.align	1
	.global	rt_hw_systick_init
	.syntax unified
	.thumb
	.thumb_func
	.type	rt_hw_systick_init, %function
rt_hw_systick_init:
.LFB1042:
	.loc 1 46 1
	.cfi_startproc
	@ args = 0, pretend = 0, frame = 0
	@ frame_needed = 1, uses_anonymous_args = 0
	push	{r7, lr}
.LCFI7:
	.cfi_def_cfa_offset 8
	.cfi_offset 7, -8
	.cfi_offset 14, -4
	add	r7, sp, #0
.LCFI8:
	.cfi_def_cfa_register 7
	.loc 1 47 5
	ldr	r3, .L4
	ldr	r3, [r3]
	ldr	r2, .L4+4
	umull	r2, r3, r2, r3
	lsrs	r3, r3, #6
	mov	r1, r3
	movs	r0, #4
	bl	Cy_SysTick_Init
	.loc 1 48 5
	ldr	r1, .L4+8
	movs	r0, #0
	bl	Cy_SysTick_SetCallback
	.loc 1 49 5
	bl	Cy_SysTick_EnableInterrupt
	.loc 1 50 1
	nop
	pop	{r7, pc}
.L5:
	.align	2
.L4:
	.word	SystemCoreClock
	.word	274877907
	.word	SysTick_Handler_CB
	.cfi_endproc
.LFE1042:
	.size	rt_hw_systick_init, .-rt_hw_systick_init
	.section	.rodata
	.align	2
.LC0:
	.ascii	"[E/drv_common] \000"
	.align	2
.LC1:
	.ascii	"Error_Handler at file:%s num:%d\000"
	.align	2
.LC2:
	.ascii	"\012\000"
	.section	.text._Error_Handler,"ax",%progbits
	.align	1
	.global	_Error_Handler
	.syntax unified
	.thumb
	.thumb_func
	.type	_Error_Handler, %function
_Error_Handler:
.LFB1043:
	.loc 1 58 1
	.cfi_startproc
	@ args = 0, pretend = 0, frame = 8
	@ frame_needed = 1, uses_anonymous_args = 0
	push	{r7, lr}
.LCFI9:
	.cfi_def_cfa_offset 8
	.cfi_offset 7, -8
	.cfi_offset 14, -4
	sub	sp, sp, #8
.LCFI10:
	.cfi_def_cfa_offset 16
	add	r7, sp, #0
.LCFI11:
	.cfi_def_cfa_register 7
	str	r0, [r7, #4]
	str	r1, [r7]
	.loc 1 60 10
	ldr	r0, .L8
	bl	rt_kprintf
	.loc 1 60 53
	ldr	r2, [r7]
	ldr	r1, [r7, #4]
	ldr	r0, .L8+4
	bl	rt_kprintf
	.loc 1 60 108
	ldr	r0, .L8+8
	bl	rt_kprintf
.L7:
	.loc 1 62 11 discriminator 1
	b	.L7
.L9:
	.align	2
.L8:
	.word	.LC0
	.word	.LC1
	.word	.LC2
	.cfi_endproc
.LFE1043:
	.size	_Error_Handler, .-_Error_Handler
	.section	.text.rt_hw_us_delay,"ax",%progbits
	.align	1
	.global	rt_hw_us_delay
	.syntax unified
	.thumb
	.thumb_func
	.type	rt_hw_us_delay, %function
rt_hw_us_delay:
.LFB1044:
	.loc 1 73 1
	.cfi_startproc
	@ args = 0, pretend = 0, frame = 32
	@ frame_needed = 1, uses_anonymous_args = 0
	@ link register save eliminated.
	push	{r7}
.LCFI12:
	.cfi_def_cfa_offset 4
	.cfi_offset 7, -4
	sub	sp, sp, #36
.LCFI13:
	.cfi_def_cfa_offset 40
	add	r7, sp, #0
.LCFI14:
	.cfi_def_cfa_register 7
	str	r0, [r7, #4]
	.loc 1 75 60
	ldr	r3, .L14
	.loc 1 75 11
	ldr	r3, [r3, #8]
	str	r3, [r7, #28]
	.loc 1 76 61
	ldr	r3, .L14
	.loc 1 76 12
	ldr	r3, [r3, #4]
	str	r3, [r7, #24]
	.loc 1 77 31
	ldr	r3, .L14+4
	ldr	r3, [r3]
	.loc 1 77 13
	ldr	r2, .L14+8
	umull	r2, r3, r2, r3
	lsrs	r3, r3, #18
	str	r3, [r7, #20]
.L13:
	.loc 1 81 62
	ldr	r3, .L14
	.loc 1 81 13
	ldr	r3, [r3, #8]
	str	r3, [r7, #16]
	.loc 1 82 43
	ldr	r2, [r7, #28]
	ldr	r3, [r7, #16]
	cmp	r2, r3
	bls	.L11
	.loc 1 82 43 is_stmt 0 discriminator 1
	ldr	r2, [r7, #28]
	ldr	r3, [r7, #16]
	subs	r3, r2, r3
	b	.L12
.L11:
	.loc 1 82 52 is_stmt 1 discriminator 2
	ldr	r2, [r7, #24]
	ldr	r3, [r7, #28]
	add	r2, r2, r3
	.loc 1 82 43 discriminator 2
	ldr	r3, [r7, #16]
	subs	r3, r2, r3
.L12:
	.loc 1 82 15 discriminator 4
	str	r3, [r7, #12]
	.loc 1 84 27 discriminator 4
	ldr	r3, [r7, #20]
	ldr	r2, [r7, #4]
	mul	r3, r2, r3
	.loc 1 84 5 discriminator 4
	ldr	r2, [r7, #12]
	cmp	r2, r3
	bcc	.L13
	.loc 1 85 1
	nop
	nop
	adds	r7, r7, #36
.LCFI15:
	.cfi_def_cfa_offset 4
	mov	sp, r7
.LCFI16:
	.cfi_def_cfa_register 13
	@ sp needed
	ldr	r7, [sp], #4
.LCFI17:
	.cfi_restore 7
	.cfi_def_cfa_offset 0
	bx	lr
.L15:
	.align	2
.L14:
	.word	-536813552
	.word	SystemCoreClock
	.word	1125899907
	.cfi_endproc
.LFE1044:
	.size	rt_hw_us_delay, .-rt_hw_us_delay
	.section	.rodata
	.align	2
.LC3:
	.ascii	"uart6\000"
	.section	.text.rt_hw_board_init,"ax",%progbits
	.align	1
	.weak	rt_hw_board_init
	.syntax unified
	.thumb
	.thumb_func
	.type	rt_hw_board_init, %function
rt_hw_board_init:
.LFB1045:
	.loc 1 91 1
	.cfi_startproc
	@ args = 0, pretend = 0, frame = 0
	@ frame_needed = 1, uses_anonymous_args = 0
	push	{r7, lr}
.LCFI18:
	.cfi_def_cfa_offset 8
	.cfi_offset 7, -8
	.cfi_offset 14, -4
	add	r7, sp, #0
.LCFI19:
	.cfi_def_cfa_register 7
	.loc 1 92 5
	bl	cy_bsp_all_init
	.loc 1 95 5
	bl	rt_hw_systick_init
	.loc 1 99 5
	ldr	r1, .L17
	ldr	r0, .L17+4
	bl	rt_system_heap_init
	.loc 1 104 5
	bl	rt_hw_pin_init
	.loc 1 109 5
	bl	rt_hw_uart_init
	.loc 1 114 5
	ldr	r0, .L17+8
	bl	rt_console_set_device
	.loc 1 119 5
	bl	rt_components_board_init
	.loc 1 121 1
	nop
	pop	{r7, pc}
.L18:
	.align	2
.L17:
	.word	__HeapLimit
	.word	__end__
	.word	.LC3
	.cfi_endproc
.LFE1045:
	.size	rt_hw_board_init, .-rt_hw_board_init
	.text
.Letext0:
	.file 2 "d:\\llc\\softwares\\env-windows-v1.3.5\\tools\\gnu_gcc\\arm_gcc\\mingw\\arm-none-eabi\\include\\machine\\_default_types.h"
	.file 3 "d:\\llc\\softwares\\env-windows-v1.3.5\\tools\\gnu_gcc\\arm_gcc\\mingw\\arm-none-eabi\\include\\sys\\_stdint.h"
	.file 4 "D:\\llc\\git_repos\\xiotman\\rtos\\rt-thread\\5.0.x\\include/rtdef.h"
	.file 5 "D:\\llc\\git_repos\\xiotman\\rtos\\rt-thread\\5.0.x\\components\\finsh/finsh.h"
	.file 6 "libraries\\IFX_PSOC6_HAL\\mtb-pdl-cat1\\cmsis\\include/core_cm4.h"
	.file 7 "libraries\\IFX_PSOC6_HAL\\core-lib\\include/cy_result.h"
	.file 8 "libraries\\IFX_PSOC6_HAL\\mtb-pdl-cat1\\drivers\\include/cy_systick.h"
	.file 9 "libraries\\IFX_PSOC6_HAL\\mtb-pdl-cat1\\drivers\\include/cy_sysclk.h"
	.file 10 "libraries\\IFX_PSOC6_HAL\\mtb-hal-cat1\\include/cyhal_general_types.h"
	.file 11 "libraries\\IFX_PSOC6_HAL\\mtb-hal-cat1\\include_pvt/cyhal_pin_package.h"
	.file 12 "libraries\\IFX_PSOC6_HAL\\mtb-hal-cat1\\COMPONENT_CAT1A\\include/triggers/cyhal_triggers_psoc6_02.h"
	.file 13 "libs\\TARGET_RTT-062S2/system_psoc6.h"
	.file 14 "board/board.h"