	.cpu cortex-m4
	.arch armv7e-m
	.fpu fpv4-sp-d16
	.eabi_attribute 27, 1
	.eabi_attribute 28, 1
	.eabi_attribute 20, 1
	.eabi_attribute 21, 1
	.eabi_attribute 23, 3
	.eabi_attribute 24, 1
	.eabi_attribute 25, 1
	.eabi_attribute 26, 1
	.eabi_attribute 30, 6
	.eabi_attribute 34, 1
	.eabi_attribute 18, 4
	.file	"drv_gpio.c"
	.text
.Ltext0:
	.cfi_sections	.debug_frame
	.section	.text.__NVIC_DisableIRQ,"ax",%progbits
	.align	1
	.syntax unified
	.thumb
	.thumb_func
	.type	__NVIC_DisableIRQ, %function
__NVIC_DisableIRQ:
.LFB128:
	.file 1 "libraries\\IFX_PSOC6_HAL\\mtb-pdl-cat1\\cmsis\\include/core_cm4.h"
	.loc 1 1723 1
	.cfi_startproc
	@ args = 0, pretend = 0, frame = 8
	@ frame_needed = 1, uses_anonymous_args = 0
	@ link register save eliminated.
	push	{r7}
.LCFI0:
	.cfi_def_cfa_offset 4
	.cfi_offset 7, -4
	sub	sp, sp, #12
.LCFI1:
	.cfi_def_cfa_offset 16
	add	r7, sp, #0
.LCFI2:
	.cfi_def_cfa_register 7
	mov	r3, r0
	strh	r3, [r7, #6]	@ movhi
	.loc 1 1724 6
	ldrsh	r3, [r7, #6]
	cmp	r3, #0
	blt	.L3
	.loc 1 1726 121
	ldrh	r3, [r7, #6]
	and	r2, r3, #31
	.loc 1 1726 49
	ldr	r1, .L4
	.loc 1 1726 58
	ldrsh	r3, [r7, #6]
	.loc 1 1726 74
	lsrs	r3, r3, #5
	.loc 1 1726 85
	movs	r0, #1
	lsl	r2, r0, r2
	.loc 1 1726 83
	adds	r3, r3, #32
	str	r2, [r1, r3, lsl #2]
.LBB6:
.LBB7:
	.file 2 "libraries\\IFX_PSOC6_HAL\\mtb-pdl-cat1\\cmsis\\include/cmsis_gcc.h"
	.loc 2 946 3
	.syntax unified
@ 946 "libraries\IFX_PSOC6_HAL\mtb-pdl-cat1\cmsis\include/cmsis_gcc.h" 1
	dsb 0xF
@ 0 "" 2
	.loc 2 947 1
	.thumb
	.syntax unified
	nop
.LBE7:
.LBE6:
.LBB8:
.LBB9:
	.loc 2 935 3
	.syntax unified
@ 935 "libraries\IFX_PSOC6_HAL\mtb-pdl-cat1\cmsis\include/cmsis_gcc.h" 1
	isb 0xF
@ 0 "" 2
	.loc 2 936 1
	.thumb
	.syntax unified
	nop
.L3:
.LBE9:
.LBE8:
	.loc 1 1730 1
	nop
	adds	r7, r7, #12
.LCFI3:
	.cfi_def_cfa_offset 4
	mov	sp, r7
.LCFI4:
	.cfi_def_cfa_register 13
	@ sp needed
	ldr	r7, [sp], #4
.LCFI5:
	.cfi_restore 7
	.cfi_def_cfa_offset 0
	bx	lr
.L5:
	.align	2
.L4:
	.word	-536813312
	.cfi_endproc
.LFE128:
	.size	__NVIC_DisableIRQ, .-__NVIC_DisableIRQ
	.section	.text.Cy_GPIO_PortToAddr,"ax",%progbits
	.align	1
	.syntax unified
	.thumb
	.thumb_func
	.type	Cy_GPIO_PortToAddr, %function
Cy_GPIO_PortToAddr:
.LFB156:
	.file 3 "libraries\\IFX_PSOC6_HAL\\mtb-pdl-cat1\\drivers\\include/cy_gpio.h"
	.loc 3 989 1
	.cfi_startproc
	@ args = 0, pretend = 0, frame = 16
	@ frame_needed = 1, uses_anonymous_args = 0
	@ link register save eliminated.
	push	{r7}
.LCFI6:
	.cfi_def_cfa_offset 4
	.cfi_offset 7, -4
	sub	sp, sp, #20
.LCFI7:
	.cfi_def_cfa_offset 24
	add	r7, sp, #0
.LCFI8:
	.cfi_def_cfa_register 7
	str	r0, [r7, #4]
	.loc 3 992 7
	ldr	r3, [r7, #4]
	cmp	r3, #14
	bhi	.L7
	.loc 3 994 59
	ldr	r3, .L10
	ldr	r3, [r3]
	ldr	r2, [r3, #24]
	.loc 3 994 88
	ldr	r3, [r7, #4]
	lsls	r3, r3, #7
	.loc 3 994 72
	add	r3, r3, r2
	.loc 3 994 18
	str	r3, [r7, #12]
	b	.L8
.L7:
	.loc 3 999 59
	ldr	r3, .L10
	ldr	r3, [r3]
	ldr	r3, [r3, #24]
	.loc 3 999 18
	str	r3, [r7, #12]
.L8:
	.loc 3 1002 12
	ldr	r3, [r7, #12]
	.loc 3 1003 1
	mov	r0, r3
	adds	r7, r7, #20
.LCFI9:
	.cfi_def_cfa_offset 4
	mov	sp, r7
.LCFI10:
	.cfi_def_cfa_register 13
	@ sp needed
	ldr	r7, [sp], #4
.LCFI11:
	.cfi_restore 7
	.cfi_def_cfa_offset 0
	bx	lr
.L11:
	.align	2
.L10:
	.word	cy_device
	.cfi_endproc
.LFE156:
	.size	Cy_GPIO_PortToAddr, .-Cy_GPIO_PortToAddr
	.section	.text.cyhal_gpio_write_internal,"ax",%progbits
	.align	1
	.syntax unified
	.thumb
	.thumb_func
	.type	cyhal_gpio_write_internal, %function
cyhal_gpio_write_internal:
.LFB1012:
	.file 4 "libraries\\IFX_PSOC6_HAL\\mtb-hal-cat1\\include_pvt/cyhal_gpio_impl.h"
	.loc 4 96 1
	.cfi_startproc
	@ args = 0, pretend = 0, frame = 8
	@ frame_needed = 1, uses_anonymous_args = 0
	push	{r7, lr}
.LCFI12:
	.cfi_def_cfa_offset 8
	.cfi_offset 7, -8
	.cfi_offset 14, -4
	sub	sp, sp, #8
.LCFI13:
	.cfi_def_cfa_offset 16
	add	r7, sp, #0
.LCFI14:
	.cfi_def_cfa_register 7
	mov	r3, r0
	mov	r2, r1
	strb	r3, [r7, #7]
	mov	r3, r2
	strb	r3, [r7, #6]
	.loc 4 97 5
	ldrb	r3, [r7, #7]	@ zero_extendqisi2
	lsrs	r3, r3, #3
	uxtb	r3, r3
	mov	r0, r3
	bl	Cy_GPIO_PortToAddr
	.loc 4 97 77
	ldrb	r3, [r7, #7]	@ zero_extendqisi2
	.loc 4 97 5
	and	r3, r3, #7
	ldrb	r2, [r7, #6]	@ zero_extendqisi2
	mov	r1, r3
	bl	Cy_GPIO_Write
	.loc 4 98 1
	nop
	adds	r7, r7, #8
.LCFI15:
	.cfi_def_cfa_offset 8
	mov	sp, r7
.LCFI16:
	.cfi_def_cfa_register 13
	@ sp needed
	pop	{r7, pc}
	.cfi_endproc
.LFE1012:
	.size	cyhal_gpio_write_internal, .-cyhal_gpio_write_internal
	.section	.text.cyhal_gpio_read_internal,"ax",%progbits
	.align	1
	.syntax unified
	.thumb
	.thumb_func
	.type	cyhal_gpio_read_internal, %function
cyhal_gpio_read_internal:
.LFB1013:
	.loc 4 103 1
	.cfi_startproc
	@ args = 0, pretend = 0, frame = 8
	@ frame_needed = 1, uses_anonymous_args = 0
	push	{r7, lr}
.LCFI17:
	.cfi_def_cfa_offset 8
	.cfi_offset 7, -8
	.cfi_offset 14, -4
	sub	sp, sp, #8
.LCFI18:
	.cfi_def_cfa_offset 16
	add	r7, sp, #0
.LCFI19:
	.cfi_def_cfa_register 7
	mov	r3, r0
	strb	r3, [r7, #7]
	.loc 4 104 17
	ldrb	r3, [r7, #7]	@ zero_extendqisi2
	lsrs	r3, r3, #3
	uxtb	r3, r3
	mov	r0, r3
	bl	Cy_GPIO_PortToAddr
	mov	r2, r0
	.loc 4 104 88
	ldrb	r3, [r7, #7]	@ zero_extendqisi2
	.loc 4 104 17
	and	r3, r3, #7
	mov	r1, r3
	mov	r0, r2
	bl	Cy_GPIO_Read
	mov	r3, r0
	.loc 4 104 14
	cmp	r3, #0
	ite	ne
	movne	r3, #1
	moveq	r3, #0
	uxtb	r3, r3
	.loc 4 105 1
	mov	r0, r3
	adds	r7, r7, #8
.LCFI20:
	.cfi_def_cfa_offset 8
	mov	sp, r7
.LCFI21:
	.cfi_def_cfa_register 13
	@ sp needed
	pop	{r7, pc}
	.cfi_endproc
.LFE1013:
	.size	cyhal_gpio_read_internal, .-cyhal_gpio_read_internal
	.section	.text._cyhal_irq_disable,"ax",%progbits
	.align	1
	.syntax unified
	.thumb
	.thumb_func
	.type	_cyhal_irq_disable, %function
_cyhal_irq_disable:
.LFB1036:
	.file 5 "libraries\\IFX_PSOC6_HAL\\mtb-hal-cat1\\include_pvt/cyhal_irq_impl.h"
	.loc 5 164 1
	.cfi_startproc
	@ args = 0, pretend = 0, frame = 8
	@ frame_needed = 1, uses_anonymous_args = 0
	push	{r7, lr}
.LCFI22:
	.cfi_def_cfa_offset 8
	.cfi_offset 7, -8
	.cfi_offset 14, -4
	sub	sp, sp, #8
.LCFI23:
	.cfi_def_cfa_offset 16
	add	r7, sp, #0
.LCFI24:
	.cfi_def_cfa_register 7
	mov	r3, r0
	strh	r3, [r7, #6]	@ movhi
	.loc 5 174 5
	ldrsh	r3, [r7, #6]
	mov	r0, r3
	bl	__NVIC_DisableIRQ
	.loc 5 176 1
	nop
	adds	r7, r7, #8
.LCFI25:
	.cfi_def_cfa_offset 8
	mov	sp, r7
.LCFI26:
	.cfi_def_cfa_register 13
	@ sp needed
	pop	{r7, pc}
	.cfi_endproc
.LFE1036:
	.size	_cyhal_irq_disable, .-_cyhal_irq_disable
	.section	.bss.irq_cb_data,"aw",%nobits
	.align	2
	.type	irq_cb_data, %object
	.size	irq_cb_data, 240
irq_cb_data:
	.space	240
	.section	.rodata.pin_irq_map,"a"
	.align	2
	.type	pin_irq_map, %object
	.size	pin_irq_map, 60
pin_irq_map:
	.short	0
	.short	0
	.short	1
	.short	1
	.short	2
	.short	2
	.short	3
	.short	3
	.short	4
	.short	4
	.short	5
	.short	5
	.short	6
	.short	6
	.short	7
	.short	7
	.short	8
	.short	8
	.short	9
	.short	9
	.short	10
	.short	10
	.short	11
	.short	11
	.short	12
	.short	12
	.short	13
	.short	13
	.short	14
	.short	14
	.section	.data.pin_irq_handler_tab,"aw"
	.align	2
	.type	pin_irq_handler_tab, %object
	.size	pin_irq_handler_tab, 192
pin_irq_handler_tab:
	.short	-1
	.short	0
	.word	0
	.word	0
	.short	-1
	.short	0
	.word	0
	.word	0
	.short	-1
	.short	0
	.word	0
	.word	0
	.short	-1
	.short	0
	.word	0
	.word	0
	.short	-1
	.short	0
	.word	0
	.word	0
	.short	-1
	.short	0
	.word	0
	.word	0
	.short	-1
	.short	0
	.word	0
	.word	0
	.short	-1
	.short	0
	.word	0
	.word	0
	.short	-1
	.short	0
	.word	0
	.word	0
	.short	-1
	.short	0
	.word	0
	.word	0
	.short	-1
	.short	0
	.word	0
	.word	0
	.short	-1
	.short	0
	.word	0
	.word	0
	.short	-1
	.short	0
	.word	0
	.word	0
	.short	-1
	.short	0
	.word	0
	.word	0
	.short	-1
	.short	0
	.word	0
	.word	0
	.short	-1
	.short	0
	.word	0
	.word	0
	.section	.text.pin_irq_handler,"ax",%progbits
	.align	1
	.syntax unified
	.thumb
	.thumb_func
	.type	pin_irq_handler, %function
pin_irq_handler:
.LFB1040:
	.file 6 "libraries\\HAL_Drivers\\drv_gpio.c"
	.loc 6 70 1
	.cfi_startproc
	@ args = 0, pretend = 0, frame = 8
	@ frame_needed = 1, uses_anonymous_args = 0
	push	{r7, lr}
.LCFI27:
	.cfi_def_cfa_offset 8
	.cfi_offset 7, -8
	.cfi_offset 14, -4
	sub	sp, sp, #8
.LCFI28:
	.cfi_def_cfa_offset 16
	add	r7, sp, #0
.LCFI29:
	.cfi_def_cfa_register 7
	str	r0, [r7, #4]
	.loc 6 71 60
	ldr	r3, [r7, #4]
	uxtb	r3, r3
	.loc 6 71 49
	lsrs	r3, r3, #3
	uxtb	r3, r3
	.loc 6 71 5
	mov	r0, r3
	bl	Cy_GPIO_PortToAddr
	mov	r2, r0
	.loc 6 71 99
	ldr	r3, [r7, #4]
	uxtb	r3, r3
	.loc 6 71 5
	and	r3, r3, #7
	mov	r1, r3
	mov	r0, r2
	bl	Cy_GPIO_ClearInterrupt
	.loc 6 73 35
	ldr	r1, .L19
	ldr	r2, [r7, #4]
	mov	r3, r2
	lsls	r3, r3, #1
	add	r3, r3, r2
	lsls	r3, r3, #2
	add	r3, r3, r1
	adds	r3, r3, #4
	ldr	r3, [r3]
	.loc 6 73 8
	cmp	r3, #0
	beq	.L18
	.loc 6 75 35
	ldr	r1, .L19
	ldr	r2, [r7, #4]
	mov	r3, r2
	lsls	r3, r3, #1
	add	r3, r3, r2
	lsls	r3, r3, #2
	add	r3, r3, r1
	adds	r3, r3, #4
	ldr	r1, [r3]
	.loc 6 75 9
	ldr	r0, .L19
	ldr	r2, [r7, #4]
	mov	r3, r2
	lsls	r3, r3, #1
	add	r3, r3, r2
	lsls	r3, r3, #2
	add	r3, r3, r0
	adds	r3, r3, #8
	ldr	r3, [r3]
	mov	r0, r3
	blx	r1
.LVL0:
.L18:
	.loc 6 77 1
	nop
	adds	r7, r7, #8
.LCFI30:
	.cfi_def_cfa_offset 8
	mov	sp, r7
.LCFI31:
	.cfi_def_cfa_register 13
	@ sp needed
	pop	{r7, pc}
.L20:
	.align	2
.L19:
	.word	pin_irq_handler_tab
	.cfi_endproc
.LFE1040:
	.size	pin_irq_handler, .-pin_irq_handler
	.section	.text.gpio_exint_handler,"ax",%progbits
	.align	1
	.global	gpio_exint_handler
	.syntax unified
	.thumb
	.thumb_func
	.type	gpio_exint_handler, %function
gpio_exint_handler:
.LFB1041:
	.loc 6 80 1
	.cfi_startproc
	@ args = 0, pretend = 0, frame = 8
	@ frame_needed = 1, uses_anonymous_args = 0
	push	{r7, lr}
.LCFI32:
	.cfi_def_cfa_offset 8
	.cfi_offset 7, -8
	.cfi_offset 14, -4
	sub	sp, sp, #8
.LCFI33:
	.cfi_def_cfa_offset 16
	add	r7, sp, #0
.LCFI34:
	.cfi_def_cfa_register 7
	mov	r3, r0
	strh	r3, [r7, #6]	@ movhi
	.loc 6 81 5
	ldrh	r3, [r7, #6]
	mov	r0, r3
	bl	pin_irq_handler
	.loc 6 82 1
	nop
	adds	r7, r7, #8
.LCFI35:
	.cfi_def_cfa_offset 8
	mov	sp, r7
.LCFI36:
	.cfi_def_cfa_register 13
	@ sp needed
	pop	{r7, pc}
	.cfi_endproc
.LFE1041:
	.size	gpio_exint_handler, .-gpio_exint_handler
	.section	.text.irq_callback,"ax",%progbits
	.align	1
	.syntax unified
	.thumb
	.thumb_func
	.type	irq_callback, %function
irq_callback:
.LFB1042:
	.loc 6 86 1
	.cfi_startproc
	@ args = 0, pretend = 0, frame = 8
	@ frame_needed = 1, uses_anonymous_args = 0
	push	{r7, lr}
.LCFI37:
	.cfi_def_cfa_offset 8
	.cfi_offset 7, -8
	.cfi_offset 14, -4
	sub	sp, sp, #8
.LCFI38:
	.cfi_def_cfa_offset 16
	add	r7, sp, #0
.LCFI39:
	.cfi_def_cfa_register 7
	str	r0, [r7, #4]
	mov	r3, r1
	strb	r3, [r7, #3]
	.loc 6 92 5
	bl	rt_interrupt_enter
	.loc 6 94 5
	ldr	r3, [r7, #4]
	ldrh	r3, [r3]
	mov	r0, r3
	bl	gpio_exint_handler
	.loc 6 97 5
	bl	rt_interrupt_leave
	.loc 6 98 1
	nop
	adds	r7, r7, #8
.LCFI40:
	.cfi_def_cfa_offset 8
	mov	sp, r7
.LCFI41:
	.cfi_def_cfa_register 13
	@ sp needed
	pop	{r7, pc}
	.cfi_endproc
.LFE1042:
	.size	irq_callback, .-irq_callback
	.section	.text.ifx_pin_mode,"ax",%progbits
	.align	1
	.syntax unified
	.thumb
	.thumb_func
	.type	ifx_pin_mode, %function
ifx_pin_mode:
.LFB1043:
	.loc 6 101 1
	.cfi_startproc
	@ args = 0, pretend = 0, frame = 24
	@ frame_needed = 1, uses_anonymous_args = 0
	push	{r7, lr}
.LCFI42:
	.cfi_def_cfa_offset 8
	.cfi_offset 7, -8
	.cfi_offset 14, -4
	sub	sp, sp, #24
.LCFI43:
	.cfi_def_cfa_offset 32
	add	r7, sp, #0
.LCFI44:
	.cfi_def_cfa_register 7
	str	r0, [r7, #12]
	str	r1, [r7, #8]
	mov	r3, r2
	strb	r3, [r7, #7]
	.loc 6 104 21
	ldr	r3, [r7, #8]
	uxtb	r3, r3
	.loc 6 104 10
	lsrs	r3, r3, #3
	uxtb	r3, r3
	.loc 6 104 8
	cmp	r3, #14
	bhi	.L33
	.loc 6 106 18
	ldr	r3, [r7, #8]
	strh	r3, [r7, #22]	@ movhi
	.loc 6 113 5
	ldrb	r3, [r7, #7]	@ zero_extendqisi2
	cmp	r3, #4
	bhi	.L23
	adr	r2, .L28
	ldr	pc, [r2, r3, lsl #2]
	.p2align 2
.L28:
	.word	.L32+1
	.word	.L31+1
	.word	.L30+1
	.word	.L29+1
	.word	.L27+1
	.p2align 1
.L32:
	.loc 6 116 9
	ldrh	r3, [r7, #22]	@ movhi
	uxtb	r0, r3
	movs	r3, #1
	movs	r2, #6
	movs	r1, #1
	bl	cyhal_gpio_init
	.loc 6 117 9
	b	.L23
.L31:
	.loc 6 120 9
	ldrh	r3, [r7, #22]	@ movhi
	uxtb	r0, r3
	movs	r3, #0
	movs	r2, #0
	movs	r1, #0
	bl	cyhal_gpio_init
	.loc 6 121 9
	b	.L23
.L30:
	.loc 6 124 9
	ldrh	r3, [r7, #22]	@ movhi
	uxtb	r0, r3
	movs	r3, #1
	movs	r2, #2
	movs	r1, #2
	bl	cyhal_gpio_init
	.loc 6 125 9
	b	.L23
.L29:
	.loc 6 128 9
	ldrh	r3, [r7, #22]	@ movhi
	uxtb	r0, r3
	movs	r3, #0
	movs	r2, #3
	movs	r1, #2
	bl	cyhal_gpio_init
	.loc 6 129 9
	b	.L23
.L27:
	.loc 6 132 9
	ldrh	r3, [r7, #22]	@ movhi
	uxtb	r0, r3
	movs	r3, #1
	movs	r2, #2
	movs	r1, #2
	bl	cyhal_gpio_init
	.loc 6 133 9
	b	.L23
.L33:
	.loc 6 110 9
	nop
.L23:
	.loc 6 135 1
	adds	r7, r7, #24
.LCFI45:
	.cfi_def_cfa_offset 8
	mov	sp, r7
.LCFI46:
	.cfi_def_cfa_register 13
	@ sp needed
	pop	{r7, pc}
	.cfi_endproc
.LFE1043:
	.size	ifx_pin_mode, .-ifx_pin_mode
	.section	.text.ifx_pin_write,"ax",%progbits
	.align	1
	.syntax unified
	.thumb
	.thumb_func
	.type	ifx_pin_write, %function
ifx_pin_write:
.LFB1044:
	.loc 6 138 1
	.cfi_startproc
	@ args = 0, pretend = 0, frame = 24
	@ frame_needed = 1, uses_anonymous_args = 0
	push	{r7, lr}
.LCFI47:
	.cfi_def_cfa_offset 8
	.cfi_offset 7, -8
	.cfi_offset 14, -4
	sub	sp, sp, #24
.LCFI48:
	.cfi_def_cfa_offset 32
	add	r7, sp, #0
.LCFI49:
	.cfi_def_cfa_register 7
	str	r0, [r7, #12]
	str	r1, [r7, #8]
	mov	r3, r2
	strb	r3, [r7, #7]
	.loc 6 141 21
	ldr	r3, [r7, #8]
	uxtb	r3, r3
	.loc 6 141 10
	lsrs	r3, r3, #3
	uxtb	r3, r3
	.loc 6 141 8
	cmp	r3, #14
	bhi	.L38
	.loc 6 143 18
	ldr	r3, [r7, #8]
	strh	r3, [r7, #22]	@ movhi
	.loc 6 150 5
	ldrh	r3, [r7, #22]	@ movhi
	uxtb	r2, r3
	ldrb	r3, [r7, #7]	@ zero_extendqisi2
	cmp	r3, #0
	ite	ne
	movne	r3, #1
	moveq	r3, #0
	uxtb	r3, r3
	mov	r1, r3
	mov	r0, r2
	bl	cyhal_gpio_write_internal
	b	.L34
.L38:
	.loc 6 147 9
	nop
.L34:
	.loc 6 151 1
	adds	r7, r7, #24
.LCFI50:
	.cfi_def_cfa_offset 8
	mov	sp, r7
.LCFI51:
	.cfi_def_cfa_register 13
	@ sp needed
	pop	{r7, pc}
	.cfi_endproc
.LFE1044:
	.size	ifx_pin_write, .-ifx_pin_write
	.section	.text.ifx_pin_read,"ax",%progbits
	.align	1
	.syntax unified
	.thumb
	.thumb_func
	.type	ifx_pin_read, %function
ifx_pin_read:
.LFB1045:
	.loc 6 154 1
	.cfi_startproc
	@ args = 0, pretend = 0, frame = 16
	@ frame_needed = 1, uses_anonymous_args = 0
	push	{r7, lr}
.LCFI52:
	.cfi_def_cfa_offset 8
	.cfi_offset 7, -8
	.cfi_offset 14, -4
	sub	sp, sp, #16
.LCFI53:
	.cfi_def_cfa_offset 24
	add	r7, sp, #0
.LCFI54:
	.cfi_def_cfa_register 7
	str	r0, [r7, #4]
	str	r1, [r7]
	.loc 6 157 21
	ldr	r3, [r7]
	uxtb	r3, r3
	.loc 6 157 10
	lsrs	r3, r3, #3
	uxtb	r3, r3
	.loc 6 157 8
	cmp	r3, #14
	bhi	.L40
	.loc 6 159 18
	ldr	r3, [r7]
	strh	r3, [r7, #14]	@ movhi
	.loc 6 166 12
	ldrh	r3, [r7, #14]	@ movhi
	uxtb	r3, r3
	mov	r0, r3
	bl	cyhal_gpio_read_internal
	mov	r3, r0
	sxtb	r3, r3
	b	.L42
.L40:
	.loc 6 163 16
	mov	r3, #-1
.L42:
	.loc 6 167 1
	mov	r0, r3
	adds	r7, r7, #16
.LCFI55:
	.cfi_def_cfa_offset 8
	mov	sp, r7
.LCFI56:
	.cfi_def_cfa_register 13
	@ sp needed
	pop	{r7, pc}
	.cfi_endproc
.LFE1045:
	.size	ifx_pin_read, .-ifx_pin_read
	.section	.text.ifx_pin_attach_irq,"ax",%progbits
	.align	1
	.syntax unified
	.thumb
	.thumb_func
	.type	ifx_pin_attach_irq, %function
ifx_pin_attach_irq:
.LFB1046:
	.loc 6 171 1
	.cfi_startproc
	@ args = 4, pretend = 0, frame = 24
	@ frame_needed = 1, uses_anonymous_args = 0
	push	{r7, lr}
.LCFI57:
	.cfi_def_cfa_offset 8
	.cfi_offset 7, -8
	.cfi_offset 14, -4
	sub	sp, sp, #24
.LCFI58:
	.cfi_def_cfa_offset 32
	add	r7, sp, #0
.LCFI59:
	.cfi_def_cfa_register 7
	str	r0, [r7, #12]
	str	r1, [r7, #8]
	str	r3, [r7]
	mov	r3, r2
	strb	r3, [r7, #7]
	.loc 6 176 21
	ldr	r3, [r7, #8]
	uxtb	r3, r3
	.loc 6 176 10
	lsrs	r3, r3, #3
	uxtb	r3, r3
	.loc 6 176 8
	cmp	r3, #14
	bhi	.L44
	.loc 6 178 33
	ldr	r3, [r7, #8]
	uxtb	r3, r3
	.loc 6 178 22
	lsrs	r3, r3, #3
	uxtb	r3, r3
	.loc 6 178 19
	strh	r3, [r7, #22]	@ movhi
	.loc 6 179 18
	ldr	r3, [r7, #8]
	strh	r3, [r7, #20]	@ movhi
	.loc 6 186 13
	bl	rt_hw_interrupt_disable
	str	r0, [r7, #16]
	.loc 6 188 39
	ldrh	r2, [r7, #22]
	ldr	r1, .L50
	mov	r3, r2
	lsls	r3, r3, #1
	add	r3, r3, r2
	lsls	r3, r3, #2
	add	r3, r3, r1
	ldrsh	r3, [r3]
	mov	r2, r3
	.loc 6 188 8
	ldr	r3, [r7, #8]
	cmp	r3, r2
	bne	.L47
	b	.L49
.L44:
	.loc 6 183 16
	mov	r3, #-1
	b	.L46
.L49:
	.loc 6 189 43 discriminator 1
	ldrh	r2, [r7, #22]
	ldr	r1, .L50
	mov	r3, r2
	lsls	r3, r3, #1
	add	r3, r3, r2
	lsls	r3, r3, #2
	add	r3, r3, r1
	adds	r3, r3, #4
	ldr	r3, [r3]
	.loc 6 188 51 discriminator 1
	ldr	r2, [r7]
	cmp	r2, r3
	bne	.L47
	.loc 6 190 43
	ldrh	r2, [r7, #22]
	ldr	r1, .L50
	mov	r3, r2
	lsls	r3, r3, #1
	add	r3, r3, r2
	lsls	r3, r3, #2
	add	r3, r3, r1
	adds	r3, r3, #2
	ldrh	r2, [r3]
	.loc 6 190 49
	ldrb	r3, [r7, #7]	@ zero_extendqisi2
	uxth	r3, r3
	.loc 6 189 55
	cmp	r2, r3
	bne	.L47
	.loc 6 191 43
	ldrh	r2, [r7, #22]
	ldr	r1, .L50
	mov	r3, r2
	lsls	r3, r3, #1
	add	r3, r3, r2
	lsls	r3, r3, #2
	add	r3, r3, r1
	adds	r3, r3, #8
	ldr	r3, [r3]
	.loc 6 190 57
	ldr	r2, [r7, #32]
	cmp	r2, r3
	bne	.L47
	.loc 6 193 9
	ldr	r0, [r7, #16]
	bl	rt_hw_interrupt_enable
	.loc 6 194 16
	movs	r3, #0
	b	.L46
.L47:
	.loc 6 197 39
	ldrh	r2, [r7, #22]
	ldr	r1, .L50
	mov	r3, r2
	lsls	r3, r3, #1
	add	r3, r3, r2
	lsls	r3, r3, #2
	add	r3, r3, r1
	ldrsh	r3, [r3]
	.loc 6 197 8
	cmp	r3, #-1
	beq	.L48
	.loc 6 199 9
	ldr	r0, [r7, #16]
	bl	rt_hw_interrupt_enable
	.loc 6 200 16
	mvn	r3, #6
	b	.L46
.L48:
	.loc 6 203 35
	ldrh	r2, [r7, #22]
	.loc 6 203 40
	ldr	r3, [r7, #8]
	sxth	r0, r3
	ldr	r1, .L50
	mov	r3, r2
	lsls	r3, r3, #1
	add	r3, r3, r2
	lsls	r3, r3, #2
	add	r3, r3, r1
	mov	r2, r0	@ movhi
	strh	r2, [r3]	@ movhi
	.loc 6 204 35
	ldrh	r2, [r7, #22]
	.loc 6 204 40
	ldr	r1, .L50
	mov	r3, r2
	lsls	r3, r3, #1
	add	r3, r3, r2
	lsls	r3, r3, #2
	add	r3, r3, r1
	adds	r3, r3, #4
	ldr	r2, [r7]
	str	r2, [r3]
	.loc 6 205 35
	ldrh	r2, [r7, #22]
	.loc 6 205 41
	ldrb	r3, [r7, #7]	@ zero_extendqisi2
	uxth	r0, r3
	ldr	r1, .L50
	mov	r3, r2
	lsls	r3, r3, #1
	add	r3, r3, r2
	lsls	r3, r3, #2
	add	r3, r3, r1
	adds	r3, r3, #2
	mov	r2, r0	@ movhi
	strh	r2, [r3]	@ movhi
	.loc 6 206 35
	ldrh	r2, [r7, #22]
	.loc 6 206 41
	ldr	r1, .L50
	mov	r3, r2
	lsls	r3, r3, #1
	add	r3, r3, r2
	lsls	r3, r3, #2
	add	r3, r3, r1
	adds	r3, r3, #8
	ldr	r2, [r7, #32]
	str	r2, [r3]
	.loc 6 207 5
	ldr	r0, [r7, #16]
	bl	rt_hw_interrupt_enable
	.loc 6 209 12
	movs	r3, #0
.L46:
	.loc 6 210 1
	mov	r0, r3
	adds	r7, r7, #24
.LCFI60:
	.cfi_def_cfa_offset 8
	mov	sp, r7
.LCFI61:
	.cfi_def_cfa_register 13
	@ sp needed
	pop	{r7, pc}
.L51:
	.align	2
.L50:
	.word	pin_irq_handler_tab
	.cfi_endproc
.LFE1046:
	.size	ifx_pin_attach_irq, .-ifx_pin_attach_irq
	.section	.text.ifx_pin_dettach_irq,"ax",%progbits
	.align	1
	.syntax unified
	.thumb
	.thumb_func
	.type	ifx_pin_dettach_irq, %function
ifx_pin_dettach_irq:
.LFB1047:
	.loc 6 213 1
	.cfi_startproc
	@ args = 0, pretend = 0, frame = 16
	@ frame_needed = 1, uses_anonymous_args = 0
	push	{r7, lr}
.LCFI62:
	.cfi_def_cfa_offset 8
	.cfi_offset 7, -8
	.cfi_offset 14, -4
	sub	sp, sp, #16
.LCFI63:
	.cfi_def_cfa_offset 24
	add	r7, sp, #0
.LCFI64:
	.cfi_def_cfa_register 7
	str	r0, [r7, #4]
	str	r1, [r7]
	.loc 6 218 21
	ldr	r3, [r7]
	uxtb	r3, r3
	.loc 6 218 10
	lsrs	r3, r3, #3
	uxtb	r3, r3
	.loc 6 218 8
	cmp	r3, #14
	bhi	.L53
	.loc 6 220 33
	ldr	r3, [r7]
	uxtb	r3, r3
	.loc 6 220 22
	lsrs	r3, r3, #3
	uxtb	r3, r3
	.loc 6 220 19
	strh	r3, [r7, #14]	@ movhi
	.loc 6 221 18
	ldr	r3, [r7]
	strh	r3, [r7, #12]	@ movhi
	.loc 6 228 13
	bl	rt_hw_interrupt_disable
	str	r0, [r7, #8]
	.loc 6 230 39
	ldrh	r2, [r7, #14]
	ldr	r1, .L58
	mov	r3, r2
	lsls	r3, r3, #1
	add	r3, r3, r2
	lsls	r3, r3, #2
	add	r3, r3, r1
	ldrsh	r3, [r3]
	.loc 6 230 8
	cmp	r3, #-1
	bne	.L56
	b	.L57
.L53:
	.loc 6 225 16
	mov	r3, #-1
	b	.L55
.L57:
	.loc 6 232 9
	ldr	r0, [r7, #8]
	bl	rt_hw_interrupt_enable
	.loc 6 233 16
	movs	r3, #0
	b	.L55
.L56:
	.loc 6 236 35
	ldrh	r2, [r7, #14]
	.loc 6 236 40
	ldr	r1, .L58
	mov	r3, r2
	lsls	r3, r3, #1
	add	r3, r3, r2
	lsls	r3, r3, #2
	add	r3, r3, r1
	movw	r2, #65535
	strh	r2, [r3]	@ movhi
	.loc 6 237 35
	ldrh	r2, [r7, #14]
	.loc 6 237 40
	ldr	r1, .L58
	mov	r3, r2
	lsls	r3, r3, #1
	add	r3, r3, r2
	lsls	r3, r3, #2
	add	r3, r3, r1
	adds	r3, r3, #4
	movs	r2, #0
	str	r2, [r3]
	.loc 6 238 35
	ldrh	r2, [r7, #14]
	.loc 6 238 41
	ldr	r1, .L58
	mov	r3, r2
	lsls	r3, r3, #1
	add	r3, r3, r2
	lsls	r3, r3, #2
	add	r3, r3, r1
	adds	r3, r3, #2
	movs	r2, #0
	strh	r2, [r3]	@ movhi
	.loc 6 239 35
	ldrh	r2, [r7, #14]
	.loc 6 239 41
	ldr	r1, .L58
	mov	r3, r2
	lsls	r3, r3, #1
	add	r3, r3, r2
	lsls	r3, r3, #2
	add	r3, r3, r1
	adds	r3, r3, #8
	movs	r2, #0
	str	r2, [r3]
	.loc 6 240 5
	ldr	r0, [r7, #8]
	bl	rt_hw_interrupt_enable
	.loc 6 242 12
	movs	r3, #0
.L55:
	.loc 6 243 1
	mov	r0, r3
	adds	r7, r7, #16
.LCFI65:
	.cfi_def_cfa_offset 8
	mov	sp, r7
.LCFI66:
	.cfi_def_cfa_register 13
	@ sp needed
	pop	{r7, pc}
.L59:
	.align	2
.L58:
	.word	pin_irq_handler_tab
	.cfi_endproc
.LFE1047:
	.size	ifx_pin_dettach_irq, .-ifx_pin_dettach_irq
	.section	.text.ifx_pin_irq_enable,"ax",%progbits
	.align	1
	.syntax unified
	.thumb
	.thumb_func
	.type	ifx_pin_irq_enable, %function
ifx_pin_irq_enable:
.LFB1048:
	.loc 6 247 1
	.cfi_startproc
	@ args = 0, pretend = 0, frame = 40
	@ frame_needed = 1, uses_anonymous_args = 0
	push	{r7, lr}
.LCFI67:
	.cfi_def_cfa_offset 8
	.cfi_offset 7, -8
	.cfi_offset 14, -4
	sub	sp, sp, #40
.LCFI68:
	.cfi_def_cfa_offset 48
	add	r7, sp, #0
.LCFI69:
	.cfi_def_cfa_register 7
	str	r0, [r7, #12]
	str	r1, [r7, #8]
	mov	r3, r2
	strb	r3, [r7, #7]
	.loc 6 254 21
	ldr	r3, [r7, #8]
	uxtb	r3, r3
	.loc 6 254 10
	lsrs	r3, r3, #3
	uxtb	r3, r3
	.loc 6 254 8
	cmp	r3, #14
	bhi	.L61
	.loc 6 256 33
	ldr	r3, [r7, #8]
	uxtb	r3, r3
	.loc 6 256 22
	lsrs	r3, r3, #3
	uxtb	r3, r3
	.loc 6 256 19
	strh	r3, [r7, #36]	@ movhi
	.loc 6 257 18
	ldr	r3, [r7, #8]
	strh	r3, [r7, #34]	@ movhi
	.loc 6 264 8
	ldrb	r3, [r7, #7]	@ zero_extendqisi2
	cmp	r3, #1
	bne	.L64
	b	.L73
.L61:
	.loc 6 261 16
	mov	r3, #-1
	b	.L63
.L73:
.LBB10:
	.loc 6 266 17
	bl	rt_hw_interrupt_disable
	str	r0, [r7, #28]
	.loc 6 268 43
	ldrh	r2, [r7, #36]
	ldr	r1, .L75
	mov	r3, r2
	lsls	r3, r3, #1
	add	r3, r3, r2
	lsls	r3, r3, #2
	add	r3, r3, r1
	ldrsh	r3, [r3]
	.loc 6 268 12
	cmp	r3, #-1
	bne	.L65
	.loc 6 270 13
	ldr	r0, [r7, #28]
	bl	rt_hw_interrupt_enable
	.loc 6 271 20
	mvn	r3, #9
	b	.L63
.L65:
	.loc 6 274 30
	ldrh	r3, [r7, #36]
	.loc 6 274 16
	lsls	r3, r3, #2
	ldr	r2, .L75+4
	add	r3, r3, r2
	str	r3, [r7, #24]
	.loc 6 277 44
	ldr	r3, [r7, #24]
	ldrsh	r3, [r3, #2]
	uxth	r2, r3
	.loc 6 277 81
	ldr	r3, [r7, #24]
	ldrh	r3, [r3]
	.loc 6 277 66
	uxtb	r3, r3
	.loc 6 277 55
	lsrs	r3, r3, #3
	uxtb	r3, r3
	uxth	r3, r3
	.loc 6 277 52
	add	r3, r3, r2
	uxth	r3, r3
	.loc 6 277 19
	strh	r3, [r7, #20]	@ movhi
	.loc 6 279 26
	ldrsh	r3, [r7, #20]
	.loc 6 279 36
	ldr	r2, .L75+8
	lsls	r3, r3, #4
	add	r3, r3, r2
	ldr	r2, .L75+12
	str	r2, [r3]
	.loc 6 280 80
	ldrh	r2, [r7, #36]
	.loc 6 280 26
	ldrsh	r3, [r7, #20]
	.loc 6 280 57
	lsls	r2, r2, #2
	ldr	r1, .L75+4
	add	r2, r2, r1
	.loc 6 280 40
	ldr	r1, .L75+8
	lsls	r3, r3, #4
	add	r3, r3, r1
	adds	r3, r3, #4
	str	r2, [r3]
	.loc 6 282 9
	ldrh	r3, [r7, #34]	@ movhi
	uxtb	r2, r3
	.loc 6 282 60
	ldrsh	r3, [r7, #20]
	.loc 6 282 9
	lsls	r3, r3, #4
	ldr	r1, .L75+8
	add	r3, r3, r1
	mov	r1, r3
	mov	r0, r2
	bl	cyhal_gpio_register_callback
	.loc 6 284 64
	ldrh	r3, [r7, #34]	@ movhi
	uxtb	r3, r3
	.loc 6 284 53
	lsrs	r3, r3, #3
	uxtb	r3, r3
	.loc 6 284 9
	mov	r0, r3
	bl	Cy_GPIO_PortToAddr
	mov	r2, r0
	.loc 6 284 106
	ldrh	r3, [r7, #34]	@ movhi
	uxtb	r3, r3
	.loc 6 284 9
	and	r3, r3, #7
	mov	r1, r3
	mov	r0, r2
	bl	Cy_GPIO_ClearInterrupt
	.loc 6 286 47
	ldrh	r2, [r7, #36]
	ldr	r1, .L75
	mov	r3, r2
	lsls	r3, r3, #1
	add	r3, r3, r2
	lsls	r3, r3, #2
	add	r3, r3, r1
	adds	r3, r3, #2
	ldrh	r3, [r3]
	.loc 6 286 9
	cmp	r3, #2
	beq	.L66
	cmp	r3, #2
	bgt	.L74
	cmp	r3, #0
	beq	.L68
	cmp	r3, #1
	beq	.L69
	.loc 6 301 13
	b	.L74
.L68:
	.loc 6 289 26
	movs	r3, #1
	strb	r3, [r7, #39]
	.loc 6 290 13
	b	.L70
.L69:
	.loc 6 293 26
	movs	r3, #2
	strb	r3, [r7, #39]
	.loc 6 294 13
	b	.L70
.L66:
	.loc 6 297 26
	movs	r3, #3
	strb	r3, [r7, #39]
	.loc 6 298 13
	b	.L70
.L74:
	.loc 6 301 13
	nop
.L70:
	.loc 6 304 9
	ldrh	r3, [r7, #34]	@ movhi
	uxtb	r0, r3
	ldrb	r1, [r7, #39]	@ zero_extendqisi2
	movs	r3, #1
	movs	r2, #7
	bl	cyhal_gpio_enable_event
	.loc 6 306 9
	ldr	r0, [r7, #28]
	bl	rt_hw_interrupt_enable
.LBE10:
	b	.L71
.L64:
	.loc 6 308 13
	ldrb	r3, [r7, #7]	@ zero_extendqisi2
	cmp	r3, #0
	bne	.L72
.LBB11:
	.loc 6 310 17
	bl	rt_hw_interrupt_disable
	str	r0, [r7, #28]
	.loc 6 312 61
	ldrh	r3, [r7, #34]	@ movhi
	uxtb	r3, r3
	.loc 6 312 50
	lsrs	r3, r3, #3
	uxtb	r3, r3
	.loc 6 312 9
	mov	r0, r3
	bl	Cy_GPIO_PortToAddr
	mov	r3, r0
	mov	r0, r3
	bl	Cy_GPIO_Port_Deinit
	.loc 6 315 44
	ldr	r3, [r7, #24]
	ldrsh	r3, [r3, #2]
	uxth	r2, r3
	.loc 6 315 81
	ldr	r3, [r7, #24]
	ldrh	r3, [r3]
	.loc 6 315 66
	uxtb	r3, r3
	.loc 6 315 55
	lsrs	r3, r3, #3
	uxtb	r3, r3
	uxth	r3, r3
	.loc 6 315 52
	add	r3, r3, r2
	uxth	r3, r3
	.loc 6 315 19
	strh	r3, [r7, #22]	@ movhi
	.loc 6 317 9
	ldrsh	r3, [r7, #22]
	mov	r0, r3
	bl	_cyhal_irq_disable
	.loc 6 319 9
	ldr	r0, [r7, #28]
	bl	rt_hw_interrupt_enable
.LBE11:
	b	.L71
.L72:
	.loc 6 323 16
	mvn	r3, #9
	b	.L63
.L71:
	.loc 6 326 12
	movs	r3, #0
.L63:
	.loc 6 327 1
	mov	r0, r3
	adds	r7, r7, #40
.LCFI70:
	.cfi_def_cfa_offset 8
	mov	sp, r7
.LCFI71:
	.cfi_def_cfa_register 13
	@ sp needed
	pop	{r7, pc}
.L76:
	.align	2
.L75:
	.word	pin_irq_handler_tab
	.word	pin_irq_map
	.word	irq_cb_data
	.word	irq_callback
	.cfi_endproc
.LFE1048:
	.size	ifx_pin_irq_enable, .-ifx_pin_irq_enable
	.section	.rodata._ifx_pin_ops,"a"
	.align	2
	.type	_ifx_pin_ops, %object
	.size	_ifx_pin_ops, 28
_ifx_pin_ops:
	.word	ifx_pin_mode
	.word	ifx_pin_write
	.word	ifx_pin_read
	.word	ifx_pin_attach_irq
	.word	ifx_pin_dettach_irq
	.word	ifx_pin_irq_enable
	.word	0
	.section	.rodata
	.align	2
.LC0:
	.ascii	"pin\000"
	.section	.text.rt_hw_pin_init,"ax",%progbits
	.align	1
	.global	rt_hw_pin_init
	.syntax unified
	.thumb
	.thumb_func
	.type	rt_hw_pin_init, %function
rt_hw_pin_init:
.LFB1049:
	.loc 6 341 1
	.cfi_startproc
	@ args = 0, pretend = 0, frame = 0
	@ frame_needed = 1, uses_anonymous_args = 0
	push	{r7, lr}
.LCFI72:
	.cfi_def_cfa_offset 8
	.cfi_offset 7, -8
	.cfi_offset 14, -4
	add	r7, sp, #0
.LCFI73:
	.cfi_def_cfa_register 7
	.loc 6 342 12
	movs	r2, #0
	ldr	r1, .L79
	ldr	r0, .L79+4
	bl	rt_device_pin_register
	mov	r3, r0
	.loc 6 343 1
	mov	r0, r3
	pop	{r7, pc}
.L80:
	.align	2
.L79:
	.word	_ifx_pin_ops
	.word	.LC0
	.cfi_endproc
.LFE1049:
	.size	rt_hw_pin_init, .-rt_hw_pin_init
	.text
.Letext0:
	.file 7 "d:\\llc\\softwares\\env-windows-v1.3.5\\tools\\gnu_gcc\\arm_gcc\\mingw\\arm-none-eabi\\include\\machine\\_default_types.h"
	.file 8 "d:\\llc\\softwares\\env-windows-v1.3.5\\tools\\gnu_gcc\\arm_gcc\\mingw\\arm-none-eabi\\include\\sys\\_stdint.h"
	.file 9 "d:\\llc\\softwares\\env-windows-v1.3.5\\tools\\gnu_gcc\\arm_gcc\\mingw\\lib\\gcc\\arm-none-eabi\\10.3.1\\include\\stddef.h"
	.file 10 "d:\\llc\\softwares\\env-windows-v1.3.5\\tools\\gnu_gcc\\arm_gcc\\mingw\\arm-none-eabi\\include\\sys\\_types.h"
	.file 11 "d:\\llc\\softwares\\env-windows-v1.3.5\\tools\\gnu_gcc\\arm_gcc\\mingw\\arm-none-eabi\\include\\sys\\types.h"
	.file 12 "D:\\llc\\git_repos\\xiotman\\rtos\\rt-thread\\5.0.x\\include/rtdef.h"
	.file 13 "D:\\llc\\git_repos\\xiotman\\rtos\\rt-thread\\5.0.x\\components\\drivers\\include/drivers/pin.h"
	.file 14 "libraries\\IFX_PSOC6_HAL\\mtb-pdl-cat1\\devices\\COMPONENT_CAT1A\\include/ip/cyip_gpio_v2.h"
	.file 15 "libraries\\IFX_PSOC6_HAL\\core-lib\\include/cy_result.h"
	.file 16 "libraries\\IFX_PSOC6_HAL\\mtb-pdl-cat1\\devices\\COMPONENT_CAT1A\\include/cy8c624alqi_s2d42.h"
	.file 17 "libraries\\IFX_PSOC6_HAL\\mtb-pdl-cat1\\devices\\COMPONENT_CAT1A\\include/psoc6_02_config.h"
	.file 18 "libraries\\IFX_PSOC6_HAL\\mtb-pdl-cat1\\devices\\COMPONENT_CAT1A\\include/cy_device.h"
	.file 19 "libraries\\IFX_PSOC6_HAL\\mtb-hal-cat1\\include_pvt/cyhal_pin_package.h"
	.file 20 "libraries\\IFX_PSOC6_HAL\\mtb-pdl-cat1\\drivers\\include/cy_sysclk.h"
	.file 21 "libraries\\IFX_PSOC6_HAL\\mtb-hal-cat1\\COMPONENT_CAT1A\\include/pin_packages/cyhal_psoc6_02_68_qfn.h"
	.file 22 "libraries\\IFX_PSOC6_HAL\\mtb-hal-cat1\\include/cyhal_general_types.h"
	.file 23 "libraries\\IFX_PSOC6_HAL\\mtb-hal-cat1\\COMPONENT_CAT1A\\include/triggers/cyhal_triggers_psoc6_02.h"
	.file 24 "libraries\\IFX_PSOC6_HAL\\mtb-hal-cat1\\include/cyhal_gpio.h"
	.file 25 "libraries\\HAL_Drivers\\drv_gpio.h"