	.cpu cortex-m4
	.arch armv7e-m
	.fpu fpv4-sp-d16
	.eabi_attribute 27, 1
	.eabi_attribute 28, 1
	.eabi_attribute 20, 1
	.eabi_attribute 21, 1
	.eabi_attribute 23, 3
	.eabi_attribute 24, 1
	.eabi_attribute 25, 1
	.eabi_attribute 26, 1
	.eabi_attribute 30, 6
	.eabi_attribute 34, 1
	.eabi_attribute 18, 4
	.file	"cyhal_system.c"
	.text
.Ltext0:
	.cfi_sections	.debug_frame
	.section	.text.CY_HALT,"ax",%progbits
	.align	1
	.syntax unified
	.thumb
	.thumb_func
	.type	CY_HALT, %function
CY_HALT:
.LFB133:
	.file 1 "libraries\\IFX_PSOC6_HAL\\core-lib\\include/cy_utils.h"
	.loc 1 49 1
	.cfi_startproc
	@ args = 0, pretend = 0, frame = 0
	@ frame_needed = 1, uses_anonymous_args = 0
	@ link register save eliminated.
	push	{r7}
.LCFI0:
	.cfi_def_cfa_offset 4
	.cfi_offset 7, -4
	add	r7, sp, #0
.LCFI1:
	.cfi_def_cfa_register 7
	.loc 1 50 5
	.syntax unified
@ 50 "libraries\IFX_PSOC6_HAL\core-lib\include/cy_utils.h" 1
	    bkpt    1
@ 0 "" 2
	.loc 1 51 1
	.thumb
	.syntax unified
	nop
	mov	sp, r7
.LCFI2:
	.cfi_def_cfa_register 13
	@ sp needed
	ldr	r7, [sp], #4
.LCFI3:
	.cfi_restore 7
	.cfi_def_cfa_offset 0
	bx	lr
	.cfi_endproc
.LFE133:
	.size	CY_HALT, .-CY_HALT
	.section	.text.Cy_SysLib_Rtos_Delay,"ax",%progbits
	.align	1
	.global	Cy_SysLib_Rtos_Delay
	.syntax unified
	.thumb
	.thumb_func
	.type	Cy_SysLib_Rtos_Delay, %function
Cy_SysLib_Rtos_Delay:
.LFB976:
	.file 2 "libraries\\IFX_PSOC6_HAL\\mtb-hal-cat1\\source\\cyhal_system.c"
	.loc 2 56 1
	.cfi_startproc
	@ args = 0, pretend = 0, frame = 16
	@ frame_needed = 1, uses_anonymous_args = 0
	push	{r7, lr}
.LCFI4:
	.cfi_def_cfa_offset 8
	.cfi_offset 7, -8
	.cfi_offset 14, -4
	sub	sp, sp, #16
.LCFI5:
	.cfi_def_cfa_offset 24
	add	r7, sp, #0
.LCFI6:
	.cfi_def_cfa_register 7
	str	r0, [r7, #4]
	.loc 2 57 24
	ldr	r0, [r7, #4]
	bl	cyhal_system_delay_ms
	str	r0, [r7, #12]
	.loc 2 58 12
	ldr	r3, [r7, #12]
	cmp	r3, #0
	beq	.L4
	.loc 2 58 54 discriminator 1
	bl	CY_HALT
.L4:
	.loc 2 60 1
	nop
	adds	r7, r7, #16
.LCFI7:
	.cfi_def_cfa_offset 8
	mov	sp, r7
.LCFI8:
	.cfi_def_cfa_register 13
	@ sp needed
	pop	{r7, pc}
	.cfi_endproc
.LFE976:
	.size	Cy_SysLib_Rtos_Delay, .-Cy_SysLib_Rtos_Delay
	.section	.text.cyhal_system_delay_ms,"ax",%progbits
	.align	1
	.global	cyhal_system_delay_ms
	.syntax unified
	.thumb
	.thumb_func
	.type	cyhal_system_delay_ms, %function
cyhal_system_delay_ms:
.LFB977:
	.loc 2 64 1
	.cfi_startproc
	@ args = 0, pretend = 0, frame = 8
	@ frame_needed = 1, uses_anonymous_args = 0
	push	{r7, lr}
.LCFI9:
	.cfi_def_cfa_offset 8
	.cfi_offset 7, -8
	.cfi_offset 14, -4
	sub	sp, sp, #8
.LCFI10:
	.cfi_def_cfa_offset 16
	add	r7, sp, #0
.LCFI11:
	.cfi_def_cfa_register 7
	str	r0, [r7, #4]
	.loc 2 70 5
	ldr	r0, [r7, #4]
	bl	Cy_SysLib_Delay
	.loc 2 71 12
	movs	r3, #0
	.loc 2 73 1
	mov	r0, r3
	adds	r7, r7, #8
.LCFI12:
	.cfi_def_cfa_offset 8
	mov	sp, r7
.LCFI13:
	.cfi_def_cfa_register 13
	@ sp needed
	pop	{r7, pc}
	.cfi_endproc
.LFE977:
	.size	cyhal_system_delay_ms, .-cyhal_system_delay_ms
	.section	.text.cyhal_system_get_reset_reason,"ax",%progbits
	.align	1
	.global	cyhal_system_get_reset_reason
	.syntax unified
	.thumb
	.thumb_func
	.type	cyhal_system_get_reset_reason, %function
cyhal_system_get_reset_reason:
.LFB978:
	.loc 2 76 1
	.cfi_startproc
	@ args = 0, pretend = 0, frame = 8
	@ frame_needed = 1, uses_anonymous_args = 0
	push	{r7, lr}
.LCFI14:
	.cfi_def_cfa_offset 8
	.cfi_offset 7, -8
	.cfi_offset 14, -4
	sub	sp, sp, #8
.LCFI15:
	.cfi_def_cfa_offset 16
	add	r7, sp, #0
.LCFI16:
	.cfi_def_cfa_register 7
	.loc 2 77 27
	bl	Cy_SysLib_GetResetReason
	str	r0, [r7]
	.loc 2 78 26
	movs	r3, #0
	strb	r3, [r7, #7]
	.loc 2 80 19
	ldr	r3, [r7]
	and	r3, r3, #16
	.loc 2 80 8
	cmp	r3, #0
	beq	.L8
	.loc 2 81 16
	ldrb	r3, [r7, #7]
	orr	r3, r3, #8
	strb	r3, [r7, #7]
.L8:
	.loc 2 82 19
	ldr	r3, [r7]
	and	r3, r3, #1
	.loc 2 82 8
	cmp	r3, #0
	beq	.L9
	.loc 2 83 16
	ldrb	r3, [r7, #7]
	orr	r3, r3, #1
	strb	r3, [r7, #7]
.L9:
	.loc 2 89 19
	ldr	r3, [r7]
	and	r3, r3, #2
	.loc 2 89 8
	cmp	r3, #0
	beq	.L10
	.loc 2 90 16
	ldrb	r3, [r7, #7]
	orr	r3, r3, #2
	strb	r3, [r7, #7]
.L10:
	.loc 2 91 19
	ldr	r3, [r7]
	and	r3, r3, #4
	.loc 2 91 8
	cmp	r3, #0
	beq	.L11
	.loc 2 92 16
	ldrb	r3, [r7, #7]
	orr	r3, r3, #4
	strb	r3, [r7, #7]
.L11:
	.loc 2 93 9
	ldr	r3, [r7]
	.loc 2 93 8
	cmp	r3, #0
	bge	.L12
	.loc 2 94 16
	ldrb	r3, [r7, #7]
	orr	r3, r3, #16
	strb	r3, [r7, #7]
.L12:
	.loc 2 95 20
	ldr	r3, [r7]
	and	r3, r3, #65536
	.loc 2 95 8
	cmp	r3, #0
	beq	.L13
	.loc 2 96 16
	ldrb	r3, [r7, #7]
	orr	r3, r3, #64
	strb	r3, [r7, #7]
.L13:
	.loc 2 97 20
	ldr	r3, [r7]
	and	r3, r3, #131072
	.loc 2 97 8
	cmp	r3, #0
	beq	.L14
	.loc 2 98 16
	ldrb	r3, [r7, #7]
	orr	r3, r3, #64
	strb	r3, [r7, #7]
.L14:
	.loc 2 99 57
	ldr	r3, [r7]
	and	r3, r3, #480
	.loc 2 99 8
	cmp	r3, #0
	beq	.L15
	.loc 2 100 16
	ldrb	r3, [r7, #7]
	orr	r3, r3, #1
	strb	r3, [r7, #7]
.L15:
	.loc 2 110 12
	ldrb	r3, [r7, #7]	@ zero_extendqisi2
	.loc 2 111 1
	mov	r0, r3
	adds	r7, r7, #8
.LCFI17:
	.cfi_def_cfa_offset 8
	mov	sp, r7
.LCFI18:
	.cfi_def_cfa_register 13
	@ sp needed
	pop	{r7, pc}
	.cfi_endproc
.LFE978:
	.size	cyhal_system_get_reset_reason, .-cyhal_system_get_reset_reason
	.section	.text.cyhal_system_set_isr,"ax",%progbits
	.align	1
	.global	cyhal_system_set_isr
	.syntax unified
	.thumb
	.thumb_func
	.type	cyhal_system_set_isr, %function
cyhal_system_set_isr:
.LFB979:
	.loc 2 114 1
	.cfi_startproc
	@ args = 0, pretend = 0, frame = 24
	@ frame_needed = 1, uses_anonymous_args = 0
	push	{r7, lr}
.LCFI19:
	.cfi_def_cfa_offset 8
	.cfi_offset 7, -8
	.cfi_offset 14, -4
	sub	sp, sp, #24
.LCFI20:
	.cfi_def_cfa_offset 32
	add	r7, sp, #0
.LCFI21:
	.cfi_def_cfa_register 7
	str	r0, [r7, #12]
	str	r1, [r7, #8]
	str	r3, [r7]
	mov	r3, r2
	strb	r3, [r7, #7]
	.loc 2 121 20
	ldr	r3, [r7, #12]
	sxth	r3, r3
	.loc 2 116 21
	strh	r3, [r7, #16]	@ movhi
	ldrb	r3, [r7, #7]	@ zero_extendqisi2
	str	r3, [r7, #20]
	.loc 2 128 12
	add	r3, r7, #16
	ldr	r1, [r7]
	mov	r0, r3
	bl	Cy_SysInt_Init
	mov	r3, r0
	.loc 2 129 1
	mov	r0, r3
	adds	r7, r7, #24
.LCFI22:
	.cfi_def_cfa_offset 8
	mov	sp, r7
.LCFI23:
	.cfi_def_cfa_register 13
	@ sp needed
	pop	{r7, pc}
	.cfi_endproc
.LFE979:
	.size	cyhal_system_set_isr, .-cyhal_system_set_isr
	.text
.Letext0:
	.file 3 "d:\\llc\\softwares\\env-windows-v1.3.5\\tools\\gnu_gcc\\arm_gcc\\mingw\\arm-none-eabi\\include\\machine\\_default_types.h"
	.file 4 "d:\\llc\\softwares\\env-windows-v1.3.5\\tools\\gnu_gcc\\arm_gcc\\mingw\\arm-none-eabi\\include\\sys\\_stdint.h"
	.file 5 "libraries\\IFX_PSOC6_HAL\\core-lib\\include/cy_result.h"
	.file 6 "libraries\\IFX_PSOC6_HAL\\mtb-pdl-cat1\\devices\\COMPONENT_CAT1A\\include/cy8c624alqi_s2d42.h"
	.file 7 "libraries\\IFX_PSOC6_HAL\\mtb-pdl-cat1\\drivers\\include/cy_syslib.h"
	.file 8 "libraries\\IFX_PSOC6_HAL\\mtb-pdl-cat1\\drivers\\include/cy_sysint.h"
	.file 9 "libraries\\IFX_PSOC6_HAL\\mtb-hal-cat1\\include/cyhal_system.h"