	.cpu cortex-m4
	.arch armv7e-m
	.fpu fpv4-sp-d16
	.eabi_attribute 27, 1
	.eabi_attribute 28, 1
	.eabi_attribute 20, 1
	.eabi_attribute 21, 1
	.eabi_attribute 23, 3
	.eabi_attribute 24, 1
	.eabi_attribute 25, 1
	.eabi_attribute 26, 1
	.eabi_attribute 30, 6
	.eabi_attribute 34, 1
	.eabi_attribute 18, 4
	.file	"cyhal_syspm.c"
	.text
.Ltext0:
	.cfi_sections	.debug_frame
	.section	.text.CY_HALT,"ax",%progbits
	.align	1
	.syntax unified
	.thumb
	.thumb_func
	.type	CY_HALT, %function
CY_HALT:
.LFB133:
	.file 1 "libraries\\IFX_PSOC6_HAL\\core-lib\\include/cy_utils.h"
	.loc 1 49 1
	.cfi_startproc
	@ args = 0, pretend = 0, frame = 0
	@ frame_needed = 1, uses_anonymous_args = 0
	@ link register save eliminated.
	push	{r7}
.LCFI0:
	.cfi_def_cfa_offset 4
	.cfi_offset 7, -4
	add	r7, sp, #0
.LCFI1:
	.cfi_def_cfa_register 7
	.loc 1 50 5
	.syntax unified
@ 50 "libraries\IFX_PSOC6_HAL\core-lib\include/cy_utils.h" 1
	    bkpt    1
@ 0 "" 2
	.loc 1 51 1
	.thumb
	.syntax unified
	nop
	mov	sp, r7
.LCFI2:
	.cfi_def_cfa_register 13
	@ sp needed
	ldr	r7, [sp], #4
.LCFI3:
	.cfi_restore 7
	.cfi_def_cfa_offset 0
	bx	lr
	.cfi_endproc
.LFE133:
	.size	CY_HALT, .-CY_HALT
	.section	.data._cyhal_syspm_callback_ptr,"aw"
	.align	2
	.type	_cyhal_syspm_callback_ptr, %object
	.size	_cyhal_syspm_callback_ptr, 4
_cyhal_syspm_callback_ptr:
	.word	1929
	.section	.data._cyhal_syspm_peripheral_callback_ptr,"aw"
	.align	2
	.type	_cyhal_syspm_peripheral_callback_ptr, %object
	.size	_cyhal_syspm_peripheral_callback_ptr, 4
_cyhal_syspm_peripheral_callback_ptr:
	.word	1929
	.section	.bss._cyhal_deep_sleep_lock,"aw",%nobits
	.align	1
	.type	_cyhal_deep_sleep_lock, %object
	.size	_cyhal_deep_sleep_lock, 2
_cyhal_deep_sleep_lock:
	.space	2
	.section	.bss._cyhal_syspm_supply_voltages,"aw",%nobits
	.align	2
	.type	_cyhal_syspm_supply_voltages, %object
	.size	_cyhal_syspm_supply_voltages, 4
_cyhal_syspm_supply_voltages:
	.space	4
	.section	.bss._cyhal_systick_disable,"aw",%nobits
	.type	_cyhal_systick_disable, %object
	.size	_cyhal_systick_disable, 1
_cyhal_systick_disable:
	.space	1
	.section	.bss._cyhal_disable_systick_before_sleep_deepsleep,"aw",%nobits
	.type	_cyhal_disable_systick_before_sleep_deepsleep, %object
	.size	_cyhal_disable_systick_before_sleep_deepsleep, 1
_cyhal_disable_systick_before_sleep_deepsleep:
	.space	1
	.section	.bss._cyhal_syspm_cb_params_default,"aw",%nobits
	.align	2
	.type	_cyhal_syspm_cb_params_default, %object
	.size	_cyhal_syspm_cb_params_default, 8
_cyhal_syspm_cb_params_default:
	.space	8
	.section	.rodata._cyhal_syspm_cb_default,"a"
	.align	2
	.type	_cyhal_syspm_cb_default, %object
	.size	_cyhal_syspm_cb_default, 28
_cyhal_syspm_cb_default:
	.word	0
	.byte	0
	.space	3
	.word	0
	.word	_cyhal_syspm_cb_params_default
	.word	0
	.word	0
	.byte	10
	.space	3
	.section	.bss._cyhal_syspm_sleep,"aw",%nobits
	.align	2
	.type	_cyhal_syspm_sleep, %object
	.size	_cyhal_syspm_sleep, 28
_cyhal_syspm_sleep:
	.space	28
	.section	.bss._cyhal_syspm_deepsleep,"aw",%nobits
	.align	2
	.type	_cyhal_syspm_deepsleep, %object
	.size	_cyhal_syspm_deepsleep, 28
_cyhal_syspm_deepsleep:
	.space	28
	.section	.bss._cyhal_syspm_hibernate,"aw",%nobits
	.align	2
	.type	_cyhal_syspm_hibernate, %object
	.size	_cyhal_syspm_hibernate, 28
_cyhal_syspm_hibernate:
	.space	28
	.section	.bss._cyhal_syspm_lp,"aw",%nobits
	.align	2
	.type	_cyhal_syspm_lp, %object
	.size	_cyhal_syspm_lp, 28
_cyhal_syspm_lp:
	.space	28
	.section	.bss._cyhal_syspm_normal,"aw",%nobits
	.align	2
	.type	_cyhal_syspm_normal, %object
	.size	_cyhal_syspm_normal, 28
_cyhal_syspm_normal:
	.space	28
	.section	.text._cyhal_syspm_call_all_pm_callbacks,"ax",%progbits
	.align	1
	.syntax unified
	.thumb
	.thumb_func
	.type	_cyhal_syspm_call_all_pm_callbacks, %function
_cyhal_syspm_call_all_pm_callbacks:
.LFB993:
	.file 2 "libraries\\IFX_PSOC6_HAL\\mtb-hal-cat1\\source\\cyhal_syspm.c"
	.loc 2 139 1
	.cfi_startproc
	@ args = 0, pretend = 0, frame = 16
	@ frame_needed = 1, uses_anonymous_args = 0
	push	{r7, lr}
.LCFI4:
	.cfi_def_cfa_offset 8
	.cfi_offset 7, -8
	.cfi_offset 14, -4
	sub	sp, sp, #16
.LCFI5:
	.cfi_def_cfa_offset 24
	add	r7, sp, #0
.LCFI6:
	.cfi_def_cfa_register 7
	str	r0, [r7, #12]
	str	r1, [r7, #8]
	mov	r1, r2
	mov	r2, r3
	mov	r3, r1
	strb	r3, [r7, #7]
	mov	r3, r2
	strb	r3, [r7, #6]
	.loc 2 140 10
	b	.L3
.L9:
	.loc 2 142 18
	ldr	r3, [r7, #12]
	ldr	r3, [r3]
	.loc 2 142 12
	cmp	r3, #0
	beq	.L4
	.loc 2 143 19 discriminator 1
	ldr	r3, [r7, #12]
	ldrb	r2, [r3, #4]	@ zero_extendqisi2
	.loc 2 143 37 discriminator 1
	ldrb	r3, [r7, #7]
	ands	r3, r3, r2
	uxtb	r3, r3
	.loc 2 142 36 discriminator 1
	ldrb	r2, [r7, #7]	@ zero_extendqisi2
	cmp	r2, r3
	bne	.L4
	.loc 2 144 19
	ldr	r3, [r7, #12]
	ldrb	r2, [r3, #5]	@ zero_extendqisi2
	.loc 2 144 42
	ldrb	r3, [r7, #6]
	ands	r3, r3, r2
	uxtb	r3, r3
	.loc 2 143 46
	ldrb	r2, [r7, #6]	@ zero_extendqisi2
	cmp	r2, r3
	beq	.L4
	.loc 2 146 27
	ldr	r3, [r7, #12]
	ldr	r3, [r3]
	.loc 2 146 22
	ldr	r2, [r7, #12]
	ldr	r2, [r2, #8]
	ldrb	r1, [r7, #6]	@ zero_extendqisi2
	ldrb	r0, [r7, #7]	@ zero_extendqisi2
	blx	r3
.LVL0:
	mov	r3, r0
	.loc 2 146 64
	cmp	r3, #0
	bne	.L5
	.loc 2 146 64 is_stmt 0 discriminator 2
	ldrb	r3, [r7, #6]	@ zero_extendqisi2
	cmp	r3, #1
	beq	.L6
.L5:
	.loc 2 146 64 discriminator 3
	movs	r3, #1
	b	.L7
.L6:
	.loc 2 146 64 discriminator 4
	movs	r3, #0
.L7:
	.loc 2 146 64 discriminator 6
	and	r3, r3, #1
	uxtb	r2, r3
	.loc 2 146 20 is_stmt 1 discriminator 6
	ldr	r3, [r7, #8]
	strb	r2, [r3]
	.loc 2 147 19 discriminator 6
	ldr	r3, [r7, #8]
	ldrb	r3, [r3]	@ zero_extendqisi2
	.loc 2 147 17 discriminator 6
	eor	r3, r3, #1
	uxtb	r3, r3
	.loc 2 147 16 discriminator 6
	cmp	r3, #0
	bne	.L11
.L4:
	.loc 2 153 15
	ldr	r3, [r7, #12]
	ldr	r3, [r3, #12]
	str	r3, [r7, #12]
.L3:
	.loc 2 140 10
	ldr	r3, [r7, #12]
	movw	r2, #1929
	cmp	r3, r2
	bne	.L9
	b	.L8
.L11:
	.loc 2 150 17
	nop
.L8:
	.loc 2 155 12
	ldr	r3, [r7, #12]
	.loc 2 156 1
	mov	r0, r3
	adds	r7, r7, #16
.LCFI7:
	.cfi_def_cfa_offset 8
	mov	sp, r7
.LCFI8:
	.cfi_def_cfa_register 13
	@ sp needed
	pop	{r7, pc}
	.cfi_endproc
.LFE993:
	.size	_cyhal_syspm_call_all_pm_callbacks, .-_cyhal_syspm_call_all_pm_callbacks
	.section	.text._cyhal_syspm_backtrack_all_pm_callbacks,"ax",%progbits
	.align	1
	.syntax unified
	.thumb
	.thumb_func
	.type	_cyhal_syspm_backtrack_all_pm_callbacks, %function
_cyhal_syspm_backtrack_all_pm_callbacks:
.LFB994:
	.loc 2 159 1
	.cfi_startproc
	@ args = 0, pretend = 0, frame = 16
	@ frame_needed = 1, uses_anonymous_args = 0
	push	{r7, lr}
.LCFI9:
	.cfi_def_cfa_offset 8
	.cfi_offset 7, -8
	.cfi_offset 14, -4
	sub	sp, sp, #16
.LCFI10:
	.cfi_def_cfa_offset 24
	add	r7, sp, #0
.LCFI11:
	.cfi_def_cfa_register 7
	str	r0, [r7, #12]
	str	r1, [r7, #8]
	mov	r3, r2
	strb	r3, [r7, #7]
	.loc 2 160 10
	b	.L13
.L15:
	.loc 2 162 18
	ldr	r3, [r7, #12]
	ldr	r3, [r3]
	.loc 2 162 12
	cmp	r3, #0
	beq	.L14
	.loc 2 163 19 discriminator 1
	ldr	r3, [r7, #12]
	ldrb	r2, [r3, #4]	@ zero_extendqisi2
	.loc 2 163 37 discriminator 1
	ldrb	r3, [r7, #7]
	ands	r3, r3, r2
	uxtb	r3, r3
	.loc 2 162 36 discriminator 1
	ldrb	r2, [r7, #7]	@ zero_extendqisi2
	cmp	r2, r3
	bne	.L14
	.loc 2 164 19
	ldr	r3, [r7, #12]
	ldrb	r3, [r3, #5]	@ zero_extendqisi2
	.loc 2 164 34
	and	r3, r3, #2
	.loc 2 163 46
	cmp	r3, #0
	bne	.L14
	.loc 2 166 18
	ldr	r3, [r7, #12]
	ldr	r3, [r3]
	.loc 2 166 13
	ldr	r2, [r7, #12]
	ldr	r2, [r2, #8]
	ldrb	r0, [r7, #7]	@ zero_extendqisi2
	movs	r1, #2
	blx	r3
.LVL1:
.L14:
	.loc 2 168 15
	ldr	r3, [r7, #12]
	ldr	r3, [r3, #12]
	str	r3, [r7, #12]
.L13:
	.loc 2 160 10
	ldr	r2, [r7, #12]
	ldr	r3, [r7, #8]
	cmp	r2, r3
	bne	.L15
	.loc 2 170 1
	nop
	nop
	adds	r7, r7, #16
.LCFI12:
	.cfi_def_cfa_offset 8
	mov	sp, r7
.LCFI13:
	.cfi_def_cfa_register 13
	@ sp needed
	pop	{r7, pc}
	.cfi_endproc
.LFE994:
	.size	_cyhal_syspm_backtrack_all_pm_callbacks, .-_cyhal_syspm_backtrack_all_pm_callbacks
	.section	.text._cyhal_syspm_common_cb,"ax",%progbits
	.align	1
	.syntax unified
	.thumb
	.thumb_func
	.type	_cyhal_syspm_common_cb, %function
_cyhal_syspm_common_cb:
.LFB995:
	.loc 2 173 1
	.cfi_startproc
	@ args = 0, pretend = 0, frame = 32
	@ frame_needed = 1, uses_anonymous_args = 0
	push	{r7, lr}
.LCFI14:
	.cfi_def_cfa_offset 8
	.cfi_offset 7, -8
	.cfi_offset 14, -4
	sub	sp, sp, #32
.LCFI15:
	.cfi_def_cfa_offset 40
	add	r7, sp, #0
.LCFI16:
	.cfi_def_cfa_register 7
	mov	r3, r0
	mov	r2, r1
	strb	r3, [r7, #7]
	mov	r3, r2
	strb	r3, [r7, #6]
	.loc 2 175 44
	ldrb	r3, [r7, #7]	@ zero_extendqisi2
	mov	r0, r3
	bl	_cyhal_utils_convert_pdltohal_pm_mode
	mov	r3, r0
	strb	r3, [r7, #23]
	.loc 2 176 9
	movs	r3, #1
	strb	r3, [r7, #11]
	.loc 2 179 8
	ldrb	r3, [r7, #23]	@ zero_extendqisi2
	cmp	r3, #2
	beq	.L17
	.loc 2 179 44 discriminator 1
	ldrb	r3, [r7, #23]	@ zero_extendqisi2
	cmp	r3, #8
	beq	.L17
	.loc 2 179 88 discriminator 2
	ldrb	r3, [r7, #23]	@ zero_extendqisi2
	cmp	r3, #16
	bne	.L18
.L17:
	.loc 2 181 15
	ldr	r3, .L26
	ldr	r3, [r3]
	str	r3, [r7, #28]
	.loc 2 182 16
	ldr	r3, .L26+4
	ldr	r3, [r3]
	str	r3, [r7, #24]
	b	.L19
.L18:
	.loc 2 186 16
	ldr	r3, .L26
	ldr	r3, [r3]
	str	r3, [r7, #24]
	.loc 2 187 15
	ldr	r3, .L26+4
	ldr	r3, [r3]
	str	r3, [r7, #28]
.L19:
	.loc 2 190 50
	ldrb	r3, [r7, #23]	@ zero_extendqisi2
	ldrb	r2, [r7, #6]	@ zero_extendqisi2
	add	r1, r7, #11
	ldr	r0, [r7, #28]
	bl	_cyhal_syspm_call_all_pm_callbacks
	str	r0, [r7, #16]
	.loc 2 192 9
	ldrb	r3, [r7, #11]	@ zero_extendqisi2
	.loc 2 193 9
	cmp	r3, #0
	beq	.L20
	.loc 2 192 11
	ldrb	r3, [r7, #23]	@ zero_extendqisi2
	ldrb	r2, [r7, #6]	@ zero_extendqisi2
	add	r1, r7, #11
	ldr	r0, [r7, #24]
	bl	_cyhal_syspm_call_all_pm_callbacks
	mov	r3, r0
	b	.L21
.L20:
	.loc 2 193 9 discriminator 1
	ldr	r3, [r7, #24]
.L21:
	.loc 2 191 34
	str	r3, [r7, #12]
	.loc 2 195 9
	ldrb	r3, [r7, #11]	@ zero_extendqisi2
	eor	r3, r3, #1
	uxtb	r3, r3
	.loc 2 195 8
	cmp	r3, #0
	beq	.L22
	.loc 2 195 16 discriminator 1
	ldrb	r3, [r7, #23]	@ zero_extendqisi2
	cmp	r3, #1
	bne	.L22
	.loc 2 197 9
	ldrb	r3, [r7, #6]	@ zero_extendqisi2
	mov	r2, r3
	ldr	r1, [r7, #12]
	ldr	r0, [r7, #24]
	bl	_cyhal_syspm_backtrack_all_pm_callbacks
	.loc 2 198 9
	ldrb	r3, [r7, #6]	@ zero_extendqisi2
	mov	r2, r3
	ldr	r1, [r7, #16]
	ldr	r0, [r7, #28]
	bl	_cyhal_syspm_backtrack_all_pm_callbacks
.L22:
	.loc 2 201 18
	ldrb	r3, [r7, #11]	@ zero_extendqisi2
	.loc 2 201 37
	cmp	r3, #0
	beq	.L23
	.loc 2 201 37 is_stmt 0 discriminator 1
	movs	r3, #0
	b	.L25
.L23:
	.loc 2 201 37 discriminator 2
	ldr	r3, .L26+8
.L25:
	.loc 2 202 1 is_stmt 1
	mov	r0, r3
	adds	r7, r7, #32
.LCFI17:
	.cfi_def_cfa_offset 8
	mov	sp, r7
.LCFI18:
	.cfi_def_cfa_register 13
	@ sp needed
	pop	{r7, pc}
.L27:
	.align	2
.L26:
	.word	_cyhal_syspm_peripheral_callback_ptr
	.word	_cyhal_syspm_callback_ptr
	.word	4325631
	.cfi_endproc
.LFE995:
	.size	_cyhal_syspm_common_cb, .-_cyhal_syspm_common_cb
	.section	.text._cyhal_syspm_cb_sleep_deepsleep,"ax",%progbits
	.align	1
	.syntax unified
	.thumb
	.thumb_func
	.type	_cyhal_syspm_cb_sleep_deepsleep, %function
_cyhal_syspm_cb_sleep_deepsleep:
.LFB996:
	.loc 2 205 1
	.cfi_startproc
	@ args = 0, pretend = 0, frame = 16
	@ frame_needed = 1, uses_anonymous_args = 0
	push	{r7, lr}
.LCFI19:
	.cfi_def_cfa_offset 8
	.cfi_offset 7, -8
	.cfi_offset 14, -4
	sub	sp, sp, #16
.LCFI20:
	.cfi_def_cfa_offset 24
	add	r7, sp, #0
.LCFI21:
	.cfi_def_cfa_register 7
	mov	r3, r0
	mov	r2, r1
	strb	r3, [r7, #7]
	mov	r3, r2
	strb	r3, [r7, #6]
	.loc 2 206 35
	ldrb	r2, [r7, #6]	@ zero_extendqisi2
	ldrb	r3, [r7, #7]	@ zero_extendqisi2
	mov	r1, r2
	mov	r0, r3
	bl	_cyhal_syspm_common_cb
	str	r0, [r7, #12]
	.loc 2 208 8
	ldrb	r3, [r7, #7]	@ zero_extendqisi2
	cmp	r3, #4
	bne	.L29
	.loc 2 210 82
	ldr	r3, .L34
	ldr	r3, [r3]
	.loc 2 210 89
	and	r3, r3, #1
	.loc 2 210 99
	cmp	r3, #0
	beq	.L30
	.loc 2 210 99 is_stmt 0 discriminator 1
	ldr	r3, .L34+4
	ldrb	r3, [r3]	@ zero_extendqisi2
	cmp	r3, #0
	beq	.L30
	.loc 2 210 99 discriminator 3
	movs	r3, #1
	b	.L31
.L30:
	.loc 2 210 99 discriminator 4
	movs	r3, #0
.L31:
	.loc 2 210 99 discriminator 6
	and	r3, r3, #1
	uxtb	r2, r3
	.loc 2 210 32 is_stmt 1 discriminator 6
	ldr	r3, .L34+8
	strb	r2, [r3]
	.loc 2 211 13 discriminator 6
	ldr	r3, .L34+8
	ldrb	r3, [r3]	@ zero_extendqisi2
	.loc 2 211 12 discriminator 6
	cmp	r3, #0
	beq	.L32
	.loc 2 213 68
	ldr	r3, .L34
	ldr	r3, [r3]
	ldr	r2, .L34
	bic	r3, r3, #1
	str	r3, [r2]
	b	.L32
.L29:
	.loc 2 216 13
	ldrb	r3, [r7, #7]	@ zero_extendqisi2
	cmp	r3, #8
	bne	.L32
	.loc 2 218 13
	ldr	r3, .L34+8
	ldrb	r3, [r3]	@ zero_extendqisi2
	.loc 2 218 12
	cmp	r3, #0
	beq	.L32
	.loc 2 220 68
	ldr	r3, .L34
	ldr	r3, [r3]
	ldr	r2, .L34
	orr	r3, r3, #1
	str	r3, [r2]
.L32:
	.loc 2 223 12
	ldr	r3, [r7, #12]
	.loc 2 224 1
	mov	r0, r3
	adds	r7, r7, #16
.LCFI22:
	.cfi_def_cfa_offset 8
	mov	sp, r7
.LCFI23:
	.cfi_def_cfa_register 13
	@ sp needed
	pop	{r7, pc}
.L35:
	.align	2
.L34:
	.word	-536813552
	.word	_cyhal_disable_systick_before_sleep_deepsleep
	.word	_cyhal_systick_disable
	.cfi_endproc
.LFE996:
	.size	_cyhal_syspm_cb_sleep_deepsleep, .-_cyhal_syspm_cb_sleep_deepsleep
	.section	.text._cyhal_syspm_cb_sleep,"ax",%progbits
	.align	1
	.syntax unified
	.thumb
	.thumb_func
	.type	_cyhal_syspm_cb_sleep, %function
_cyhal_syspm_cb_sleep:
.LFB997:
	.loc 2 227 1
	.cfi_startproc
	@ args = 0, pretend = 0, frame = 8
	@ frame_needed = 1, uses_anonymous_args = 0
	push	{r7, lr}
.LCFI24:
	.cfi_def_cfa_offset 8
	.cfi_offset 7, -8
	.cfi_offset 14, -4
	sub	sp, sp, #8
.LCFI25:
	.cfi_def_cfa_offset 16
	add	r7, sp, #0
.LCFI26:
	.cfi_def_cfa_register 7
	str	r0, [r7, #4]
	mov	r3, r1
	strb	r3, [r7, #3]
	.loc 2 229 12
	ldrb	r3, [r7, #3]	@ zero_extendqisi2
	movs	r1, #1
	mov	r0, r3
	bl	_cyhal_syspm_cb_sleep_deepsleep
	mov	r3, r0
	.loc 2 230 1
	mov	r0, r3
	adds	r7, r7, #8
.LCFI27:
	.cfi_def_cfa_offset 8
	mov	sp, r7
.LCFI28:
	.cfi_def_cfa_register 13
	@ sp needed
	pop	{r7, pc}
	.cfi_endproc
.LFE997:
	.size	_cyhal_syspm_cb_sleep, .-_cyhal_syspm_cb_sleep
	.section	.text._cyhal_syspm_cb_deepsleep,"ax",%progbits
	.align	1
	.syntax unified
	.thumb
	.thumb_func
	.type	_cyhal_syspm_cb_deepsleep, %function
_cyhal_syspm_cb_deepsleep:
.LFB998:
	.loc 2 232 1
	.cfi_startproc
	@ args = 0, pretend = 0, frame = 8
	@ frame_needed = 1, uses_anonymous_args = 0
	push	{r7, lr}
.LCFI29:
	.cfi_def_cfa_offset 8
	.cfi_offset 7, -8
	.cfi_offset 14, -4
	sub	sp, sp, #8
.LCFI30:
	.cfi_def_cfa_offset 16
	add	r7, sp, #0
.LCFI31:
	.cfi_def_cfa_register 7
	str	r0, [r7, #4]
	mov	r3, r1
	strb	r3, [r7, #3]
	.loc 2 233 7
	ldrb	r3, [r7, #3]	@ zero_extendqisi2
	cmp	r3, #1
	bne	.L39
	.loc 2 233 66 discriminator 1
	ldr	r3, .L41
	ldrh	r3, [r3]
	.loc 2 233 39 discriminator 1
	cmp	r3, #0
	beq	.L39
	.loc 2 235 16
	ldr	r3, .L41+4
	b	.L40
.L39:
	.loc 2 238 12
	ldrb	r3, [r7, #3]	@ zero_extendqisi2
	movs	r1, #2
	mov	r0, r3
	bl	_cyhal_syspm_cb_sleep_deepsleep
	mov	r3, r0
.L40:
	.loc 2 239 1
	mov	r0, r3
	adds	r7, r7, #8
.LCFI32:
	.cfi_def_cfa_offset 8
	mov	sp, r7
.LCFI33:
	.cfi_def_cfa_register 13
	@ sp needed
	pop	{r7, pc}
.L42:
	.align	2
.L41:
	.word	_cyhal_deep_sleep_lock
	.word	4325631
	.cfi_endproc
.LFE998:
	.size	_cyhal_syspm_cb_deepsleep, .-_cyhal_syspm_cb_deepsleep
	.section	.text._cyhal_syspm_cb_hibernate,"ax",%progbits
	.align	1
	.syntax unified
	.thumb
	.thumb_func
	.type	_cyhal_syspm_cb_hibernate, %function
_cyhal_syspm_cb_hibernate:
.LFB999:
	.loc 2 241 1
	.cfi_startproc
	@ args = 0, pretend = 0, frame = 8
	@ frame_needed = 1, uses_anonymous_args = 0
	push	{r7, lr}
.LCFI34:
	.cfi_def_cfa_offset 8
	.cfi_offset 7, -8
	.cfi_offset 14, -4
	sub	sp, sp, #8
.LCFI35:
	.cfi_def_cfa_offset 16
	add	r7, sp, #0
.LCFI36:
	.cfi_def_cfa_register 7
	str	r0, [r7, #4]
	mov	r3, r1
	strb	r3, [r7, #3]
	.loc 2 243 12
	ldrb	r3, [r7, #3]	@ zero_extendqisi2
	movs	r1, #4
	mov	r0, r3
	bl	_cyhal_syspm_common_cb
	mov	r3, r0
	.loc 2 244 1
	mov	r0, r3
	adds	r7, r7, #8
.LCFI37:
	.cfi_def_cfa_offset 8
	mov	sp, r7
.LCFI38:
	.cfi_def_cfa_register 13
	@ sp needed
	pop	{r7, pc}
	.cfi_endproc
.LFE999:
	.size	_cyhal_syspm_cb_hibernate, .-_cyhal_syspm_cb_hibernate
	.section	.text._cyhal_syspm_cb_normal,"ax",%progbits
	.align	1
	.syntax unified
	.thumb
	.thumb_func
	.type	_cyhal_syspm_cb_normal, %function
_cyhal_syspm_cb_normal:
.LFB1000:
	.loc 2 247 1
	.cfi_startproc
	@ args = 0, pretend = 0, frame = 16
	@ frame_needed = 1, uses_anonymous_args = 0
	push	{r7, lr}
.LCFI39:
	.cfi_def_cfa_offset 8
	.cfi_offset 7, -8
	.cfi_offset 14, -4
	sub	sp, sp, #16
.LCFI40:
	.cfi_def_cfa_offset 24
	add	r7, sp, #0
.LCFI41:
	.cfi_def_cfa_register 7
	str	r0, [r7, #4]
	mov	r3, r1
	strb	r3, [r7, #3]
	.loc 2 249 35
	ldrb	r3, [r7, #3]	@ zero_extendqisi2
	movs	r1, #8
	mov	r0, r3
	bl	_cyhal_syspm_common_cb
	str	r0, [r7, #12]
	.loc 2 252 8
	ldrb	r3, [r7, #3]	@ zero_extendqisi2
	cmp	r3, #8
	bne	.L46
.LBB2:
	.loc 2 254 35
	movs	r0, #0
	bl	Cy_SysClk_ClkHfGetFrequency
	mov	r3, r0
	.loc 2 254 18
	ldr	r2, .L48
	umull	r2, r3, r2, r3
	lsrs	r3, r3, #18
	str	r3, [r7, #8]
	.loc 2 255 9
	ldr	r1, [r7, #8]
	movs	r0, #0
	bl	Cy_SysLib_SetWaitStates
.L46:
.LBE2:
	.loc 2 258 12
	ldr	r3, [r7, #12]
	.loc 2 259 1
	mov	r0, r3
	adds	r7, r7, #16
.LCFI42:
	.cfi_def_cfa_offset 8
	mov	sp, r7
.LCFI43:
	.cfi_def_cfa_register 13
	@ sp needed
	pop	{r7, pc}
.L49:
	.align	2
.L48:
	.word	1125899907
	.cfi_endproc
.LFE1000:
	.size	_cyhal_syspm_cb_normal, .-_cyhal_syspm_cb_normal
	.section	.text._cyhal_syspm_cb_lp,"ax",%progbits
	.align	1
	.syntax unified
	.thumb
	.thumb_func
	.type	_cyhal_syspm_cb_lp, %function
_cyhal_syspm_cb_lp:
.LFB1001:
	.loc 2 261 1
	.cfi_startproc
	@ args = 0, pretend = 0, frame = 16
	@ frame_needed = 1, uses_anonymous_args = 0
	push	{r7, lr}
.LCFI44:
	.cfi_def_cfa_offset 8
	.cfi_offset 7, -8
	.cfi_offset 14, -4
	sub	sp, sp, #16
.LCFI45:
	.cfi_def_cfa_offset 24
	add	r7, sp, #0
.LCFI46:
	.cfi_def_cfa_register 7
	str	r0, [r7, #4]
	mov	r3, r1
	strb	r3, [r7, #3]
	.loc 2 263 35
	ldrb	r3, [r7, #3]	@ zero_extendqisi2
	movs	r1, #16
	mov	r0, r3
	bl	_cyhal_syspm_common_cb
	str	r0, [r7, #12]
	.loc 2 265 8
	ldrb	r3, [r7, #3]	@ zero_extendqisi2
	cmp	r3, #4
	bne	.L51
.LBB3:
	.loc 2 267 35
	movs	r0, #0
	bl	Cy_SysClk_ClkHfGetFrequency
	mov	r3, r0
	.loc 2 267 18
	ldr	r2, .L53
	umull	r2, r3, r2, r3
	lsrs	r3, r3, #18
	str	r3, [r7, #8]
	.loc 2 268 9
	ldr	r1, [r7, #8]
	movs	r0, #1
	bl	Cy_SysLib_SetWaitStates
.L51:
.LBE3:
	.loc 2 270 12
	ldr	r3, [r7, #12]
	.loc 2 271 1
	mov	r0, r3
	adds	r7, r7, #16
.LCFI47:
	.cfi_def_cfa_offset 8
	mov	sp, r7
.LCFI48:
	.cfi_def_cfa_register 13
	@ sp needed
	pop	{r7, pc}
.L54:
	.align	2
.L53:
	.word	1125899907
	.cfi_endproc
.LFE1001:
	.size	_cyhal_syspm_cb_lp, .-_cyhal_syspm_cb_lp
	.section	.text._cyhal_syspm_is_registered,"ax",%progbits
	.align	1
	.syntax unified
	.thumb
	.thumb_func
	.type	_cyhal_syspm_is_registered, %function
_cyhal_syspm_is_registered:
.LFB1002:
	.loc 2 291 1
	.cfi_startproc
	@ args = 0, pretend = 0, frame = 8
	@ frame_needed = 1, uses_anonymous_args = 0
	@ link register save eliminated.
	push	{r7}
.LCFI49:
	.cfi_def_cfa_offset 4
	.cfi_offset 7, -4
	sub	sp, sp, #12
.LCFI50:
	.cfi_def_cfa_offset 16
	add	r7, sp, #0
.LCFI51:
	.cfi_def_cfa_register 7
	str	r0, [r7, #4]
	.loc 2 295 21
	ldr	r3, [r7, #4]
	ldr	r3, [r3, #12]
	.loc 2 295 28
	cmp	r3, #0
	ite	ne
	movne	r3, #1
	moveq	r3, #0
	uxtb	r3, r3
	.loc 2 296 1
	mov	r0, r3
	adds	r7, r7, #12
.LCFI52:
	.cfi_def_cfa_offset 4
	mov	sp, r7
.LCFI53:
	.cfi_def_cfa_register 13
	@ sp needed
	ldr	r7, [sp], #4
.LCFI54:
	.cfi_restore 7
	.cfi_def_cfa_offset 0
	bx	lr
	.cfi_endproc
.LFE1002:
	.size	_cyhal_syspm_is_registered, .-_cyhal_syspm_is_registered
	.section	.text._cyhal_syspm_add_callback_to_list,"ax",%progbits
	.align	1
	.syntax unified
	.thumb
	.thumb_func
	.type	_cyhal_syspm_add_callback_to_list, %function
_cyhal_syspm_add_callback_to_list:
.LFB1003:
	.loc 2 299 1
	.cfi_startproc
	@ args = 0, pretend = 0, frame = 16
	@ frame_needed = 1, uses_anonymous_args = 0
	push	{r7, lr}
.LCFI55:
	.cfi_def_cfa_offset 8
	.cfi_offset 7, -8
	.cfi_offset 14, -4
	sub	sp, sp, #16
.LCFI56:
	.cfi_def_cfa_offset 24
	add	r7, sp, #0
.LCFI57:
	.cfi_def_cfa_register 7
	str	r0, [r7, #4]
	str	r1, [r7]
	.loc 2 300 28
	bl	Cy_SysLib_EnterCriticalSection
	str	r0, [r7, #12]
	.loc 2 301 9
	ldr	r0, [r7]
	bl	_cyhal_syspm_is_registered
	mov	r3, r0
	.loc 2 301 8
	eor	r3, r3, #1
	uxtb	r3, r3
	.loc 2 301 7
	cmp	r3, #0
	beq	.L58
	.loc 2 303 21
	ldr	r3, [r7, #4]
	ldr	r2, [r3]
	.loc 2 303 19
	ldr	r3, [r7]
	str	r2, [r3, #12]
	.loc 2 304 15
	ldr	r3, [r7, #4]
	ldr	r2, [r7]
	str	r2, [r3]
.L58:
	.loc 2 306 5
	ldr	r0, [r7, #12]
	bl	Cy_SysLib_ExitCriticalSection
	.loc 2 307 1
	nop
	adds	r7, r7, #16
.LCFI58:
	.cfi_def_cfa_offset 8
	mov	sp, r7
.LCFI59:
	.cfi_def_cfa_register 13
	@ sp needed
	pop	{r7, pc}
	.cfi_endproc
.LFE1003:
	.size	_cyhal_syspm_add_callback_to_list, .-_cyhal_syspm_add_callback_to_list
	.section	.text._cyhal_syspm_remove_callback_from_list,"ax",%progbits
	.align	1
	.syntax unified
	.thumb
	.thumb_func
	.type	_cyhal_syspm_remove_callback_from_list, %function
_cyhal_syspm_remove_callback_from_list:
.LFB1004:
	.loc 2 310 1
	.cfi_startproc
	@ args = 0, pretend = 0, frame = 16
	@ frame_needed = 1, uses_anonymous_args = 0
	push	{r7, lr}
.LCFI60:
	.cfi_def_cfa_offset 8
	.cfi_offset 7, -8
	.cfi_offset 14, -4
	sub	sp, sp, #16
.LCFI61:
	.cfi_def_cfa_offset 24
	add	r7, sp, #0
.LCFI62:
	.cfi_def_cfa_register 7
	str	r0, [r7, #4]
	str	r1, [r7]
	.loc 2 311 28
	bl	Cy_SysLib_EnterCriticalSection
	str	r0, [r7, #12]
	.loc 2 312 10
	b	.L60
.L63:
	.loc 2 314 13
	ldr	r3, [r7, #4]
	ldr	r3, [r3]
	.loc 2 314 12
	ldr	r2, [r7]
	cmp	r2, r3
	bne	.L61
	.loc 2 316 24
	ldr	r3, [r7]
	ldr	r2, [r3, #12]
	.loc 2 316 19
	ldr	r3, [r7, #4]
	str	r2, [r3]
	.loc 2 317 23
	ldr	r3, [r7]
	movs	r2, #0
	str	r2, [r3, #12]
	.loc 2 318 13
	b	.L62
.L61:
	.loc 2 320 19
	ldr	r3, [r7, #4]
	ldr	r3, [r3]
	.loc 2 320 14
	adds	r3, r3, #12
	str	r3, [r7, #4]
.L60:
	.loc 2 312 11
	ldr	r3, [r7, #4]
	ldr	r3, [r3]
	.loc 2 312 10
	movw	r2, #1929
	cmp	r3, r2
	bne	.L63
.L62:
	.loc 2 322 5
	ldr	r0, [r7, #12]
	bl	Cy_SysLib_ExitCriticalSection
	.loc 2 323 1
	nop
	adds	r7, r7, #16
.LCFI63:
	.cfi_def_cfa_offset 8
	mov	sp, r7
.LCFI64:
	.cfi_def_cfa_register 13
	@ sp needed
	pop	{r7, pc}
	.cfi_endproc
.LFE1004:
	.size	_cyhal_syspm_remove_callback_from_list, .-_cyhal_syspm_remove_callback_from_list
	.section	.text._cyhal_syspm_register_peripheral_callback,"ax",%progbits
	.align	1
	.global	_cyhal_syspm_register_peripheral_callback
	.syntax unified
	.thumb
	.thumb_func
	.type	_cyhal_syspm_register_peripheral_callback, %function
_cyhal_syspm_register_peripheral_callback:
.LFB1005:
	.loc 2 326 1
	.cfi_startproc
	@ args = 0, pretend = 0, frame = 8
	@ frame_needed = 1, uses_anonymous_args = 0
	push	{r7, lr}
.LCFI65:
	.cfi_def_cfa_offset 8
	.cfi_offset 7, -8
	.cfi_offset 14, -4
	sub	sp, sp, #8
.LCFI66:
	.cfi_def_cfa_offset 16
	add	r7, sp, #0
.LCFI67:
	.cfi_def_cfa_register 7
	str	r0, [r7, #4]
	.loc 2 327 12
	ldr	r3, [r7, #4]
	cmp	r3, #0
	bne	.L65
	.loc 2 327 9 discriminator 1
	bl	CY_HALT
.L65:
	.loc 2 328 5
	ldr	r1, [r7, #4]
	ldr	r0, .L66
	bl	_cyhal_syspm_add_callback_to_list
	.loc 2 329 1
	nop
	adds	r7, r7, #8
.LCFI68:
	.cfi_def_cfa_offset 8
	mov	sp, r7
.LCFI69:
	.cfi_def_cfa_register 13
	@ sp needed
	pop	{r7, pc}
.L67:
	.align	2
.L66:
	.word	_cyhal_syspm_peripheral_callback_ptr
	.cfi_endproc
.LFE1005:
	.size	_cyhal_syspm_register_peripheral_callback, .-_cyhal_syspm_register_peripheral_callback
	.section	.text._cyhal_syspm_unregister_peripheral_callback,"ax",%progbits
	.align	1
	.global	_cyhal_syspm_unregister_peripheral_callback
	.syntax unified
	.thumb
	.thumb_func
	.type	_cyhal_syspm_unregister_peripheral_callback, %function
_cyhal_syspm_unregister_peripheral_callback:
.LFB1006:
	.loc 2 332 1
	.cfi_startproc
	@ args = 0, pretend = 0, frame = 8
	@ frame_needed = 1, uses_anonymous_args = 0
	push	{r7, lr}
.LCFI70:
	.cfi_def_cfa_offset 8
	.cfi_offset 7, -8
	.cfi_offset 14, -4
	sub	sp, sp, #8
.LCFI71:
	.cfi_def_cfa_offset 16
	add	r7, sp, #0
.LCFI72:
	.cfi_def_cfa_register 7
	str	r0, [r7, #4]
	.loc 2 333 12
	ldr	r3, [r7, #4]
	cmp	r3, #0
	bne	.L69
	.loc 2 333 9 discriminator 1
	bl	CY_HALT
.L69:
	.loc 2 334 5
	ldr	r1, [r7, #4]
	ldr	r0, .L70
	bl	_cyhal_syspm_remove_callback_from_list
	.loc 2 335 1
	nop
	adds	r7, r7, #8
.LCFI73:
	.cfi_def_cfa_offset 8
	mov	sp, r7
.LCFI74:
	.cfi_def_cfa_register 13
	@ sp needed
	pop	{r7, pc}
.L71:
	.align	2
.L70:
	.word	_cyhal_syspm_peripheral_callback_ptr
	.cfi_endproc
.LFE1006:
	.size	_cyhal_syspm_unregister_peripheral_callback, .-_cyhal_syspm_unregister_peripheral_callback
	.section	.text._cyhal_syspm_register_cb,"ax",%progbits
	.align	1
	.syntax unified
	.thumb
	.thumb_func
	.type	_cyhal_syspm_register_cb, %function
_cyhal_syspm_register_cb:
.LFB1007:
	.loc 2 338 1
	.cfi_startproc
	@ args = 0, pretend = 0, frame = 16
	@ frame_needed = 1, uses_anonymous_args = 0
	push	{r7, lr}
.LCFI75:
	.cfi_def_cfa_offset 8
	.cfi_offset 7, -8
	.cfi_offset 14, -4
	sub	sp, sp, #16
.LCFI76:
	.cfi_def_cfa_offset 24
	add	r7, sp, #0
.LCFI77:
	.cfi_def_cfa_register 7
	str	r0, [r7, #12]
	mov	r3, r1
	str	r2, [r7, #4]
	strb	r3, [r7, #11]
	.loc 2 339 5
	movs	r2, #28
	ldr	r1, .L74
	ldr	r0, [r7, #12]
	bl	memcpy
	.loc 2 340 20
	ldr	r3, [r7, #12]
	ldr	r2, [r7, #4]
	str	r2, [r3]
	.loc 2 341 16
	ldr	r3, [r7, #12]
	ldrb	r2, [r7, #11]
	strb	r2, [r3, #4]
	.loc 2 342 12
	ldr	r0, [r7, #12]
	bl	Cy_SysPm_RegisterCallback
	mov	r3, r0
	.loc 2 343 1
	mov	r0, r3
	adds	r7, r7, #16
.LCFI78:
	.cfi_def_cfa_offset 8
	mov	sp, r7
.LCFI79:
	.cfi_def_cfa_register 13
	@ sp needed
	pop	{r7, pc}
.L75:
	.align	2
.L74:
	.word	_cyhal_syspm_cb_default
	.cfi_endproc
.LFE1007:
	.size	_cyhal_syspm_register_cb, .-_cyhal_syspm_register_cb
	.section	.text.cyhal_syspm_init,"ax",%progbits
	.align	1
	.global	cyhal_syspm_init
	.syntax unified
	.thumb
	.thumb_func
	.type	cyhal_syspm_init, %function
cyhal_syspm_init:
.LFB1008:
	.loc 2 351 1
	.cfi_startproc
	@ args = 0, pretend = 0, frame = 8
	@ frame_needed = 1, uses_anonymous_args = 0
	push	{r7, lr}
.LCFI80:
	.cfi_def_cfa_offset 8
	.cfi_offset 7, -8
	.cfi_offset 14, -4
	sub	sp, sp, #8
.LCFI81:
	.cfi_def_cfa_offset 16
	add	r7, sp, #0
.LCFI82:
	.cfi_def_cfa_register 7
	.loc 2 354 9
	bl	Cy_SysPm_IoIsFrozen
	mov	r3, r0
	.loc 2 354 8
	cmp	r3, #0
	beq	.L77
	.loc 2 357 9
	bl	Cy_SysPm_IoUnfreeze
.L77:
	.loc 2 361 15
	movs	r3, #0
	str	r3, [r7, #4]
	.loc 2 362 10
	ldr	r2, .L81
	movs	r1, #0
	ldr	r0, .L81+4
	bl	_cyhal_syspm_register_cb
	mov	r3, r0
	.loc 2 362 9
	eor	r3, r3, #1
	uxtb	r3, r3
	.loc 2 362 8
	cmp	r3, #0
	bne	.L78
	.loc 2 363 13
	ldr	r2, .L81+8
	movs	r1, #1
	ldr	r0, .L81+12
	bl	_cyhal_syspm_register_cb
	mov	r3, r0
	.loc 2 363 12
	eor	r3, r3, #1
	uxtb	r3, r3
	.loc 2 363 9
	cmp	r3, #0
	bne	.L78
	.loc 2 364 13
	ldr	r2, .L81+16
	movs	r1, #2
	ldr	r0, .L81+20
	bl	_cyhal_syspm_register_cb
	mov	r3, r0
	.loc 2 364 12
	eor	r3, r3, #1
	uxtb	r3, r3
	.loc 2 364 9
	cmp	r3, #0
	bne	.L78
	.loc 2 366 13
	ldr	r2, .L81+24
	movs	r1, #3
	ldr	r0, .L81+28
	bl	_cyhal_syspm_register_cb
	mov	r3, r0
	.loc 2 366 12
	eor	r3, r3, #1
	uxtb	r3, r3
	.loc 2 366 9
	cmp	r3, #0
	bne	.L78
	.loc 2 367 13
	ldr	r2, .L81+32
	movs	r1, #4
	ldr	r0, .L81+36
	bl	_cyhal_syspm_register_cb
	mov	r3, r0
	.loc 2 367 12
	eor	r3, r3, #1
	uxtb	r3, r3
	.loc 2 367 9
	cmp	r3, #0
	beq	.L79
.L78:
	.loc 2 376 18
	ldr	r3, .L81+40
	str	r3, [r7, #4]
.L79:
	.loc 2 378 12
	ldr	r3, [r7, #4]
	.loc 2 379 1
	mov	r0, r3
	adds	r7, r7, #8
.LCFI83:
	.cfi_def_cfa_offset 8
	mov	sp, r7
.LCFI84:
	.cfi_def_cfa_register 13
	@ sp needed
	pop	{r7, pc}
.L82:
	.align	2
.L81:
	.word	_cyhal_syspm_cb_sleep
	.word	_cyhal_syspm_sleep
	.word	_cyhal_syspm_cb_deepsleep
	.word	_cyhal_syspm_deepsleep
	.word	_cyhal_syspm_cb_hibernate
	.word	_cyhal_syspm_hibernate
	.word	_cyhal_syspm_cb_normal
	.word	_cyhal_syspm_normal
	.word	_cyhal_syspm_cb_lp
	.word	_cyhal_syspm_lp
	.word	67246593
	.cfi_endproc
.LFE1008:
	.size	cyhal_syspm_init, .-cyhal_syspm_init
	.section	.text.cyhal_syspm_hibernate,"ax",%progbits
	.align	1
	.global	cyhal_syspm_hibernate
	.syntax unified
	.thumb
	.thumb_func
	.type	cyhal_syspm_hibernate, %function
cyhal_syspm_hibernate:
.LFB1009:
	.loc 2 382 1
	.cfi_startproc
	@ args = 0, pretend = 0, frame = 8
	@ frame_needed = 1, uses_anonymous_args = 0
	push	{r7, lr}
.LCFI85:
	.cfi_def_cfa_offset 8
	.cfi_offset 7, -8
	.cfi_offset 14, -4
	sub	sp, sp, #8
.LCFI86:
	.cfi_def_cfa_offset 16
	add	r7, sp, #0
.LCFI87:
	.cfi_def_cfa_register 7
	mov	r3, r0
	strh	r3, [r7, #6]	@ movhi
	.loc 2 400 5
	ldrh	r3, [r7, #6]
	mov	r2, r3
	movs	r1, #11
	ldr	r0, .L85
	bl	_cyhal_utils_convert_flags
	mov	r3, r0
	mov	r0, r3
	bl	Cy_SysPm_SetHibernateWakeupSource
	.loc 2 401 12
	bl	Cy_SysPm_SystemEnterHibernate
	mov	r3, r0
	.loc 2 406 1
	mov	r0, r3
	adds	r7, r7, #8
.LCFI88:
	.cfi_def_cfa_offset 8
	mov	sp, r7
.LCFI89:
	.cfi_def_cfa_register 13
	@ sp needed
	pop	{r7, pc}
.L86:
	.align	2
.L85:
	.word	source_map.0
	.cfi_endproc
.LFE1009:
	.size	cyhal_syspm_hibernate, .-cyhal_syspm_hibernate
	.section	.text.cyhal_syspm_set_system_state,"ax",%progbits
	.align	1
	.global	cyhal_syspm_set_system_state
	.syntax unified
	.thumb
	.thumb_func
	.type	cyhal_syspm_set_system_state, %function
cyhal_syspm_set_system_state:
.LFB1010:
	.loc 2 409 1
	.cfi_startproc
	@ args = 0, pretend = 0, frame = 16
	@ frame_needed = 1, uses_anonymous_args = 0
	push	{r7, lr}
.LCFI90:
	.cfi_def_cfa_offset 8
	.cfi_offset 7, -8
	.cfi_offset 14, -4
	sub	sp, sp, #16
.LCFI91:
	.cfi_def_cfa_offset 24
	add	r7, sp, #0
.LCFI92:
	.cfi_def_cfa_register 7
	mov	r3, r0
	strb	r3, [r7, #7]
	.loc 2 421 5
	ldrb	r3, [r7, #7]	@ zero_extendqisi2
	cmp	r3, #0
	beq	.L88
	cmp	r3, #1
	beq	.L89
	b	.L94
.L88:
	.loc 2 427 20
	bl	Cy_SysPm_SystemEnterLp
	str	r0, [r7, #12]
	.loc 2 429 13
	b	.L91
.L89:
	.loc 2 434 20
	bl	Cy_SysPm_SystemEnterUlp
	str	r0, [r7, #12]
	.loc 2 436 13
	b	.L91
.L94:
	.loc 2 439 17 discriminator 1
	bl	CY_HALT
	.loc 2 440 18 discriminator 1
	ldr	r3, .L95
	str	r3, [r7, #12]
	.loc 2 441 13 discriminator 1
	nop
.L91:
	.loc 2 443 12
	ldr	r3, [r7, #12]
	.loc 2 445 1
	mov	r0, r3
	adds	r7, r7, #16
.LCFI93:
	.cfi_def_cfa_offset 8
	mov	sp, r7
.LCFI94:
	.cfi_def_cfa_register 13
	@ sp needed
	pop	{r7, pc}
.L96:
	.align	2
.L95:
	.word	67246592
	.cfi_endproc
.LFE1010:
	.size	cyhal_syspm_set_system_state, .-cyhal_syspm_set_system_state
	.section	.text.cyhal_syspm_register_callback,"ax",%progbits
	.align	1
	.global	cyhal_syspm_register_callback
	.syntax unified
	.thumb
	.thumb_func
	.type	cyhal_syspm_register_callback, %function
cyhal_syspm_register_callback:
.LFB1011:
	.loc 2 448 1
	.cfi_startproc
	@ args = 0, pretend = 0, frame = 8
	@ frame_needed = 1, uses_anonymous_args = 0
	push	{r7, lr}
.LCFI95:
	.cfi_def_cfa_offset 8
	.cfi_offset 7, -8
	.cfi_offset 14, -4
	sub	sp, sp, #8
.LCFI96:
	.cfi_def_cfa_offset 16
	add	r7, sp, #0
.LCFI97:
	.cfi_def_cfa_register 7
	str	r0, [r7, #4]
	.loc 2 449 12
	ldr	r3, [r7, #4]
	cmp	r3, #0
	bne	.L98
	.loc 2 449 9 discriminator 1
	bl	CY_HALT
.L98:
	.loc 2 450 5
	ldr	r1, [r7, #4]
	ldr	r0, .L99
	bl	_cyhal_syspm_add_callback_to_list
	.loc 2 451 1
	nop
	adds	r7, r7, #8
.LCFI98:
	.cfi_def_cfa_offset 8
	mov	sp, r7
.LCFI99:
	.cfi_def_cfa_register 13
	@ sp needed
	pop	{r7, pc}
.L100:
	.align	2
.L99:
	.word	_cyhal_syspm_callback_ptr
	.cfi_endproc
.LFE1011:
	.size	cyhal_syspm_register_callback, .-cyhal_syspm_register_callback
	.section	.text.cyhal_syspm_unregister_callback,"ax",%progbits
	.align	1
	.global	cyhal_syspm_unregister_callback
	.syntax unified
	.thumb
	.thumb_func
	.type	cyhal_syspm_unregister_callback, %function
cyhal_syspm_unregister_callback:
.LFB1012:
	.loc 2 454 1
	.cfi_startproc
	@ args = 0, pretend = 0, frame = 8
	@ frame_needed = 1, uses_anonymous_args = 0
	push	{r7, lr}
.LCFI100:
	.cfi_def_cfa_offset 8
	.cfi_offset 7, -8
	.cfi_offset 14, -4
	sub	sp, sp, #8
.LCFI101:
	.cfi_def_cfa_offset 16
	add	r7, sp, #0
.LCFI102:
	.cfi_def_cfa_register 7
	str	r0, [r7, #4]
	.loc 2 455 12
	ldr	r3, [r7, #4]
	cmp	r3, #0
	bne	.L102
	.loc 2 455 9 discriminator 1
	bl	CY_HALT
.L102:
	.loc 2 456 5
	ldr	r1, [r7, #4]
	ldr	r0, .L103
	bl	_cyhal_syspm_remove_callback_from_list
	.loc 2 457 1
	nop
	adds	r7, r7, #8
.LCFI103:
	.cfi_def_cfa_offset 8
	mov	sp, r7
.LCFI104:
	.cfi_def_cfa_register 13
	@ sp needed
	pop	{r7, pc}
.L104:
	.align	2
.L103:
	.word	_cyhal_syspm_callback_ptr
	.cfi_endproc
.LFE1012:
	.size	cyhal_syspm_unregister_callback, .-cyhal_syspm_unregister_callback
	.section	.text.cyhal_syspm_lock_deepsleep,"ax",%progbits
	.align	1
	.global	cyhal_syspm_lock_deepsleep
	.syntax unified
	.thumb
	.thumb_func
	.type	cyhal_syspm_lock_deepsleep, %function
cyhal_syspm_lock_deepsleep:
.LFB1013:
	.loc 2 460 1
	.cfi_startproc
	@ args = 0, pretend = 0, frame = 8
	@ frame_needed = 1, uses_anonymous_args = 0
	push	{r7, lr}
.LCFI105:
	.cfi_def_cfa_offset 8
	.cfi_offset 7, -8
	.cfi_offset 14, -4
	sub	sp, sp, #8
.LCFI106:
	.cfi_def_cfa_offset 16
	add	r7, sp, #0
.LCFI107:
	.cfi_def_cfa_register 7
	.loc 2 461 13
	ldr	r3, .L107
	ldrh	r3, [r3]
	.loc 2 461 12
	movw	r2, #65535
	cmp	r3, r2
	bne	.L106
	.loc 2 461 9 discriminator 1
	bl	CY_HALT
.L106:
	.loc 2 462 28
	bl	Cy_SysLib_EnterCriticalSection
	str	r0, [r7, #4]
	.loc 2 463 27
	ldr	r3, .L107
	ldrh	r3, [r3]
	adds	r3, r3, #1
	uxth	r2, r3
	ldr	r3, .L107
	strh	r2, [r3]	@ movhi
	.loc 2 464 5
	ldr	r0, [r7, #4]
	bl	Cy_SysLib_ExitCriticalSection
	.loc 2 465 1
	nop
	adds	r7, r7, #8
.LCFI108:
	.cfi_def_cfa_offset 8
	mov	sp, r7
.LCFI109:
	.cfi_def_cfa_register 13
	@ sp needed
	pop	{r7, pc}
.L108:
	.align	2
.L107:
	.word	_cyhal_deep_sleep_lock
	.cfi_endproc
.LFE1013:
	.size	cyhal_syspm_lock_deepsleep, .-cyhal_syspm_lock_deepsleep
	.section	.text.cyhal_syspm_unlock_deepsleep,"ax",%progbits
	.align	1
	.global	cyhal_syspm_unlock_deepsleep
	.syntax unified
	.thumb
	.thumb_func
	.type	cyhal_syspm_unlock_deepsleep, %function
cyhal_syspm_unlock_deepsleep:
.LFB1014:
	.loc 2 468 1
	.cfi_startproc
	@ args = 0, pretend = 0, frame = 8
	@ frame_needed = 1, uses_anonymous_args = 0
	push	{r7, lr}
.LCFI110:
	.cfi_def_cfa_offset 8
	.cfi_offset 7, -8
	.cfi_offset 14, -4
	sub	sp, sp, #8
.LCFI111:
	.cfi_def_cfa_offset 16
	add	r7, sp, #0
.LCFI112:
	.cfi_def_cfa_register 7
	.loc 2 469 13
	ldr	r3, .L111
	ldrh	r3, [r3]
	.loc 2 469 12
	cmp	r3, #0
	bne	.L110
	.loc 2 469 48 discriminator 1
	bl	CY_HALT
.L110:
	.loc 2 470 28
	bl	Cy_SysLib_EnterCriticalSection
	str	r0, [r7, #4]
	.loc 2 471 27
	ldr	r3, .L111
	ldrh	r3, [r3]
	subs	r3, r3, #1
	uxth	r2, r3
	ldr	r3, .L111
	strh	r2, [r3]	@ movhi
	.loc 2 472 5
	ldr	r0, [r7, #4]
	bl	Cy_SysLib_ExitCriticalSection
	.loc 2 473 1
	nop
	adds	r7, r7, #8
.LCFI113:
	.cfi_def_cfa_offset 8
	mov	sp, r7
.LCFI114:
	.cfi_def_cfa_register 13
	@ sp needed
	pop	{r7, pc}
.L112:
	.align	2
.L111:
	.word	_cyhal_deep_sleep_lock
	.cfi_endproc
.LFE1014:
	.size	cyhal_syspm_unlock_deepsleep, .-cyhal_syspm_unlock_deepsleep
	.section	.text.cyhal_syspm_deepsleep,"ax",%progbits
	.align	1
	.global	cyhal_syspm_deepsleep
	.syntax unified
	.thumb
	.thumb_func
	.type	cyhal_syspm_deepsleep, %function
cyhal_syspm_deepsleep:
.LFB1015:
	.loc 2 497 1
	.cfi_startproc
	@ args = 0, pretend = 0, frame = 0
	@ frame_needed = 1, uses_anonymous_args = 0
	push	{r7, lr}
.LCFI115:
	.cfi_def_cfa_offset 8
	.cfi_offset 7, -8
	.cfi_offset 14, -4
	add	r7, sp, #0
.LCFI116:
	.cfi_def_cfa_register 7
	.loc 2 498 31
	ldr	r3, .L116
	ldrh	r3, [r3]
	.loc 2 498 7
	cmp	r3, #0
	beq	.L114
	.loc 2 500 16
	ldr	r3, .L116+4
	b	.L115
.L114:
	.loc 2 513 20
	movs	r0, #0
	bl	Cy_SysPm_CpuEnterDeepSleep
	mov	r3, r0
.L115:
	.loc 2 519 1
	mov	r0, r3
	pop	{r7, pc}
.L117:
	.align	2
.L116:
	.word	_cyhal_deep_sleep_lock
	.word	67246597
	.cfi_endproc
.LFE1015:
	.size	cyhal_syspm_deepsleep, .-cyhal_syspm_deepsleep
	.global	__aeabi_uldivmod
	.section	.text.cyhal_syspm_tickless_sleep_deepsleep,"ax",%progbits
	.align	1
	.global	cyhal_syspm_tickless_sleep_deepsleep
	.syntax unified
	.thumb
	.thumb_func
	.type	cyhal_syspm_tickless_sleep_deepsleep, %function
cyhal_syspm_tickless_sleep_deepsleep:
.LFB1016:
	.loc 2 523 1
	.cfi_startproc
	@ args = 0, pretend = 0, frame = 80
	@ frame_needed = 1, uses_anonymous_args = 0
	push	{r4, r5, r7, r8, r9, r10, fp, lr}
.LCFI117:
	.cfi_def_cfa_offset 32
	.cfi_offset 4, -32
	.cfi_offset 5, -28
	.cfi_offset 7, -24
	.cfi_offset 8, -20
	.cfi_offset 9, -16
	.cfi_offset 10, -12
	.cfi_offset 11, -8
	.cfi_offset 14, -4
	sub	sp, sp, #80
.LCFI118:
	.cfi_def_cfa_offset 112
	add	r7, sp, #0
.LCFI119:
	.cfi_def_cfa_register 7
	str	r0, [r7, #44]
	str	r1, [r7, #40]
	str	r2, [r7, #36]
	strb	r3, [r7, #35]
	.loc 2 524 15
	movs	r3, #0
	str	r3, [r7, #76]
	.loc 2 527 12
	ldr	r3, [r7, #44]
	cmp	r3, #0
	bne	.L119
	.loc 2 527 9 discriminator 1
	bl	CY_HALT
.L119:
	.loc 2 532 16
	ldr	r2, [r7, #36]
	movs	r3, #0
	str	r3, [r2]
	.loc 2 534 7
	ldr	r3, [r7, #40]
	cmp	r3, #0
	beq	.L120
	.loc 2 536 9
	add	r3, r7, #48
	mov	r1, r3
	ldr	r0, [r7, #44]
	bl	cyhal_lptimer_get_info
	.loc 2 539 57
	ldr	r3, [r7, #40]
	subs	r3, r3, #1
	.loc 2 539 35
	movs	r2, #0
	str	r3, [r7, #24]
	str	r2, [r7, #28]
	.loc 2 539 74
	ldr	r3, [r7, #48]
	movs	r2, #0
	str	r3, [r7, #16]
	str	r2, [r7, #20]
	.loc 2 539 62
	ldrd	r0, [r7, #24]
	mov	r3, r1
	ldr	r2, [r7, #16]
	mul	r2, r2, r3
	ldr	r3, [r7, #20]
	strd	r0, [r7, #24]
	mov	r1, r0
	mul	r3, r1, r3
	add	r3, r3, r2
	ldr	r2, [r7, #24]
	ldr	r1, [r7, #16]
	umull	r1, r2, r2, r1
	str	r2, [r7, #12]
	mov	r2, r1
	str	r2, [r7, #8]
	ldr	r2, [r7, #12]
	add	r3, r3, r2
	str	r3, [r7, #12]
	.loc 2 539 89
	mov	r2, #1000
	mov	r3, #0
	ldrd	r0, [r7, #8]
	bl	__aeabi_uldivmod
	mov	r2, r0
	mov	r3, r1
	.loc 2 539 21
	mov	r3, r2
	str	r3, [r7, #72]
	.loc 2 541 18
	ldr	r1, [r7, #72]
	ldr	r0, [r7, #44]
	bl	cyhal_lptimer_set_delay
	str	r0, [r7, #76]
	.loc 2 542 25
	ldr	r0, [r7, #44]
	bl	cyhal_lptimer_read
	str	r0, [r7, #68]
	.loc 2 543 11
	ldr	r3, [r7, #76]
	cmp	r3, #0
	bne	.L120
	.loc 2 550 59
	ldr	r3, .L127
	movs	r2, #1
	strb	r2, [r3]
	.loc 2 551 13
	movs	r3, #1
	movs	r2, #3
	movs	r1, #0
	ldr	r0, [r7, #44]
	bl	cyhal_lptimer_enable_event
	.loc 2 553 59
	ldrb	r3, [r7, #35]	@ zero_extendqisi2
	cmp	r3, #0
	beq	.L121
	.loc 2 553 35 discriminator 1
	bl	cyhal_syspm_deepsleep
	mov	r3, r0
	b	.L122
.L121:
	.loc 2 553 61 discriminator 2
	movs	r0, #0
	bl	Cy_SysPm_CpuEnterSleep
	mov	r3, r0
.L122:
	.loc 2 553 20 discriminator 4
	str	r3, [r7, #76]
	.loc 2 555 15 discriminator 4
	ldr	r3, [r7, #76]
	cmp	r3, #0
	bne	.L123
.LBB4:
	.loc 2 557 40
	ldr	r0, [r7, #44]
	bl	cyhal_lptimer_read
	str	r0, [r7, #64]
	.loc 2 560 33
	ldr	r2, [r7, #64]
	ldr	r3, [r7, #68]
	cmp	r2, r3
	bcs	.L124
	.loc 2 559 46 discriminator 1
	ldr	r2, [r7, #56]
	.loc 2 559 65 discriminator 1
	ldr	r3, [r7, #68]
	subs	r2, r2, r3
	.loc 2 560 33 discriminator 1
	ldr	r3, [r7, #64]
	add	r3, r3, r2
	b	.L125
.L124:
	.loc 2 560 33 is_stmt 0 discriminator 2
	ldr	r2, [r7, #64]
	ldr	r3, [r7, #68]
	subs	r3, r2, r3
.L125:
	.loc 2 558 26 is_stmt 1
	str	r3, [r7, #60]
	.loc 2 561 42
	ldr	r3, [r7, #60]
	movs	r2, #0
	mov	r8, r3
	mov	r9, r2
	.loc 2 561 58
	mov	r2, r8
	mov	r3, r9
	mov	r0, #0
	mov	r1, #0
	lsls	r1, r3, #5
	orr	r1, r1, r2, lsr #27
	lsls	r0, r2, #5
	mov	r2, r0
	mov	r3, r1
	subs	r4, r2, r8
	sbc	r5, r3, r9
	mov	r2, #0
	mov	r3, #0
	lsls	r3, r5, #2
	orr	r3, r3, r4, lsr #30
	lsls	r2, r4, #2
	mov	r4, r2
	mov	r5, r3
	adds	r10, r4, r8
	adc	fp, r5, r9
	mov	r2, #0
	mov	r3, #0
	lsl	r3, fp, #3
	orr	r3, r3, r10, lsr #29
	lsl	r2, r10, #3
	mov	r10, r2
	mov	fp, r3
	mov	r0, r10
	mov	r1, fp
	.loc 2 561 78
	ldr	r3, [r7, #48]
	movs	r2, #0
	str	r3, [r7]
	str	r2, [r7, #4]
	.loc 2 561 66
	ldrd	r2, [r7]
	bl	__aeabi_uldivmod
	mov	r2, r0
	mov	r3, r1
	.loc 2 561 28
	ldr	r3, [r7, #36]
	str	r2, [r3]
.L123:
.LBE4:
	.loc 2 564 13
	movs	r3, #0
	movs	r2, #3
	movs	r1, #0
	ldr	r0, [r7, #44]
	bl	cyhal_lptimer_enable_event
	.loc 2 565 59
	ldr	r3, .L127
	movs	r2, #0
	strb	r2, [r3]
.L120:
	.loc 2 578 12
	ldr	r3, [r7, #76]
	.loc 2 579 1
	mov	r0, r3
	adds	r7, r7, #80
.LCFI120:
	.cfi_def_cfa_offset 32
	mov	sp, r7
.LCFI121:
	.cfi_def_cfa_register 13
	@ sp needed
	pop	{r4, r5, r7, r8, r9, r10, fp, pc}
.L128:
	.align	2
.L127:
	.word	_cyhal_disable_systick_before_sleep_deepsleep
	.cfi_endproc
.LFE1016:
	.size	cyhal_syspm_tickless_sleep_deepsleep, .-cyhal_syspm_tickless_sleep_deepsleep
	.section	.text.cyhal_syspm_set_supply_voltage,"ax",%progbits
	.align	1
	.global	cyhal_syspm_set_supply_voltage
	.syntax unified
	.thumb
	.thumb_func
	.type	cyhal_syspm_set_supply_voltage, %function
cyhal_syspm_set_supply_voltage:
.LFB1017:
	.loc 2 583 1
	.cfi_startproc
	@ args = 0, pretend = 0, frame = 8
	@ frame_needed = 1, uses_anonymous_args = 0
	push	{r7, lr}
.LCFI122:
	.cfi_def_cfa_offset 8
	.cfi_offset 7, -8
	.cfi_offset 14, -4
	sub	sp, sp, #8
.LCFI123:
	.cfi_def_cfa_offset 16
	add	r7, sp, #0
.LCFI124:
	.cfi_def_cfa_register 7
	mov	r3, r0
	str	r1, [r7]
	strb	r3, [r7, #7]
	.loc 2 584 12
	ldrb	r3, [r7, #7]	@ zero_extendqisi2
	cmp	r3, #0
	beq	.L130
	.loc 2 584 62 discriminator 1
	bl	CY_HALT
.L130:
	.loc 2 585 34
	ldrb	r3, [r7, #7]	@ zero_extendqisi2
	.loc 2 585 50
	ldr	r1, .L131
	ldr	r2, [r7]
	str	r2, [r1, r3, lsl #2]
	.loc 2 586 1
	nop
	adds	r7, r7, #8
.LCFI125:
	.cfi_def_cfa_offset 8
	mov	sp, r7
.LCFI126:
	.cfi_def_cfa_register 13
	@ sp needed
	pop	{r7, pc}
.L132:
	.align	2
.L131:
	.word	_cyhal_syspm_supply_voltages
	.cfi_endproc
.LFE1017:
	.size	cyhal_syspm_set_supply_voltage, .-cyhal_syspm_set_supply_voltage
	.section	.text.cyhal_syspm_get_supply_voltage,"ax",%progbits
	.align	1
	.global	cyhal_syspm_get_supply_voltage
	.syntax unified
	.thumb
	.thumb_func
	.type	cyhal_syspm_get_supply_voltage, %function
cyhal_syspm_get_supply_voltage:
.LFB1018:
	.loc 2 589 1
	.cfi_startproc
	@ args = 0, pretend = 0, frame = 8
	@ frame_needed = 1, uses_anonymous_args = 0
	push	{r7, lr}
.LCFI127:
	.cfi_def_cfa_offset 8
	.cfi_offset 7, -8
	.cfi_offset 14, -4
	sub	sp, sp, #8
.LCFI128:
	.cfi_def_cfa_offset 16
	add	r7, sp, #0
.LCFI129:
	.cfi_def_cfa_register 7
	mov	r3, r0
	strb	r3, [r7, #7]
	.loc 2 590 12
	ldrb	r3, [r7, #7]	@ zero_extendqisi2
	cmp	r3, #0
	beq	.L134
	.loc 2 590 62 discriminator 1
	bl	CY_HALT
.L134:
	.loc 2 591 41
	ldrb	r3, [r7, #7]	@ zero_extendqisi2
	.loc 2 591 40
	ldr	r2, .L136
	ldr	r3, [r2, r3, lsl #2]
	.loc 2 592 1
	mov	r0, r3
	adds	r7, r7, #8
.LCFI130:
	.cfi_def_cfa_offset 8
	mov	sp, r7
.LCFI131:
	.cfi_def_cfa_register 13
	@ sp needed
	pop	{r7, pc}
.L137:
	.align	2
.L136:
	.word	_cyhal_syspm_supply_voltages
	.cfi_endproc
.LFE1018:
	.size	cyhal_syspm_get_supply_voltage, .-cyhal_syspm_get_supply_voltage
	.section	.rodata.source_map.0,"a"
	.align	2
	.type	source_map.0, %object
	.size	source_map.0, 44
source_map.0:
	.word	0
	.word	67108864
	.word	71303168
	.word	134217728
	.word	142606336
	.word	262144
	.word	524288
	.word	16777216
	.word	17825792
	.word	33554432
	.word	35651584
	.text
.Letext0:
	.file 3 "d:\\llc\\softwares\\env-windows-v1.3.5\\tools\\gnu_gcc\\arm_gcc\\mingw\\arm-none-eabi\\include\\machine\\_default_types.h"
	.file 4 "d:\\llc\\softwares\\env-windows-v1.3.5\\tools\\gnu_gcc\\arm_gcc\\mingw\\lib\\gcc\\arm-none-eabi\\10.3.1\\include\\stddef.h"
	.file 5 "d:\\llc\\softwares\\env-windows-v1.3.5\\tools\\gnu_gcc\\arm_gcc\\mingw\\arm-none-eabi\\include\\sys\\_stdint.h"
	.file 6 "libraries\\IFX_PSOC6_HAL\\core-lib\\include/cy_result.h"
	.file 7 "libraries\\IFX_PSOC6_HAL\\mtb-pdl-cat1\\devices\\COMPONENT_CAT1A\\include/ip/cyip_srss.h"
	.file 8 "libraries\\IFX_PSOC6_HAL\\mtb-pdl-cat1\\cmsis\\include/core_cm4.h"
	.file 9 "libraries\\IFX_PSOC6_HAL\\mtb-pdl-cat1\\devices\\COMPONENT_CAT1A\\include/psoc6_02_config.h"
	.file 10 "libraries\\IFX_PSOC6_HAL\\mtb-pdl-cat1\\drivers\\include/cy_syslib.h"
	.file 11 "libraries\\IFX_PSOC6_HAL\\mtb-pdl-cat1\\drivers\\include/cy_syspm.h"
	.file 12 "libraries\\IFX_PSOC6_HAL\\mtb-pdl-cat1\\drivers\\include/cy_sysclk.h"
	.file 13 "libraries\\IFX_PSOC6_HAL\\mtb-hal-cat1\\include/cyhal_general_types.h"
	.file 14 "libraries\\IFX_PSOC6_HAL\\mtb-hal-cat1\\include_pvt/cyhal_hw_resources.h"
	.file 15 "libraries\\IFX_PSOC6_HAL\\mtb-hal-cat1\\include_pvt/cyhal_pin_package.h"
	.file 16 "libraries\\IFX_PSOC6_HAL\\mtb-hal-cat1\\COMPONENT_CAT1A\\include/triggers/cyhal_triggers_psoc6_02.h"
	.file 17 "libraries\\IFX_PSOC6_HAL\\mtb-hal-cat1\\include_pvt/cyhal_hw_types.h"
	.file 18 "libraries\\IFX_PSOC6_HAL\\mtb-hal-cat1\\include/cyhal_syspm.h"
	.file 19 "libraries\\IFX_PSOC6_HAL\\mtb-hal-cat1\\include/cyhal_lptimer.h"