	.cpu cortex-m4
	.arch armv7e-m
	.fpu fpv4-sp-d16
	.eabi_attribute 27, 1
	.eabi_attribute 28, 1
	.eabi_attribute 20, 1
	.eabi_attribute 21, 1
	.eabi_attribute 23, 3
	.eabi_attribute 24, 1
	.eabi_attribute 25, 1
	.eabi_attribute 26, 1
	.eabi_attribute 30, 6
	.eabi_attribute 34, 1
	.eabi_attribute 18, 4
	.file	"cyhal_clock.c"
	.text
.Ltext0:
	.cfi_sections	.debug_frame
	.section	.text.CY_HALT,"ax",%progbits
	.align	1
	.syntax unified
	.thumb
	.thumb_func
	.type	CY_HALT, %function
CY_HALT:
.LFB133:
	.file 1 "libraries\\IFX_PSOC6_HAL\\core-lib\\include/cy_utils.h"
	.loc 1 49 1
	.cfi_startproc
	@ args = 0, pretend = 0, frame = 0
	@ frame_needed = 1, uses_anonymous_args = 0
	@ link register save eliminated.
	push	{r7}
.LCFI0:
	.cfi_def_cfa_offset 4
	.cfi_offset 7, -4
	add	r7, sp, #0
.LCFI1:
	.cfi_def_cfa_register 7
	.loc 1 50 5
	.syntax unified
@ 50 "libraries\IFX_PSOC6_HAL\core-lib\include/cy_utils.h" 1
	    bkpt    1
@ 0 "" 2
	.loc 1 51 1
	.thumb
	.syntax unified
	nop
	mov	sp, r7
.LCFI2:
	.cfi_def_cfa_register 13
	@ sp needed
	ldr	r7, [sp], #4
.LCFI3:
	.cfi_restore 7
	.cfi_def_cfa_offset 0
	bx	lr
	.cfi_endproc
.LFE133:
	.size	CY_HALT, .-CY_HALT
	.section	.text._cyhal_utils_peri_pclk_set_divider,"ax",%progbits
	.align	1
	.syntax unified
	.thumb
	.thumb_func
	.type	_cyhal_utils_peri_pclk_set_divider, %function
_cyhal_utils_peri_pclk_set_divider:
.LFB982:
	.file 2 "libraries\\IFX_PSOC6_HAL\\mtb-hal-cat1\\include_pvt/cyhal_utils_impl.h"
	.loc 2 254 1
	.cfi_startproc
	@ args = 0, pretend = 0, frame = 16
	@ frame_needed = 1, uses_anonymous_args = 0
	push	{r7, lr}
.LCFI4:
	.cfi_def_cfa_offset 8
	.cfi_offset 7, -8
	.cfi_offset 14, -4
	sub	sp, sp, #16
.LCFI5:
	.cfi_def_cfa_offset 24
	add	r7, sp, #0
.LCFI6:
	.cfi_def_cfa_register 7
	mov	r3, r0
	str	r1, [r7, #8]
	str	r2, [r7, #4]
	strb	r3, [r7, #15]
	.loc 2 259 70
	ldr	r3, [r7, #8]
	ldrb	r3, [r3]	@ zero_extendqisi2
	.loc 2 259 79
	and	r3, r3, #3
	uxtb	r0, r3
	.loc 2 259 94
	ldr	r3, [r7, #8]
	ldrb	r3, [r3, #1]	@ zero_extendqisi2
	.loc 2 259 12
	ldr	r2, [r7, #4]
	mov	r1, r3
	bl	Cy_SysClk_PeriphSetDivider
	mov	r3, r0
	.loc 2 261 1
	mov	r0, r3
	adds	r7, r7, #16
.LCFI7:
	.cfi_def_cfa_offset 8
	mov	sp, r7
.LCFI8:
	.cfi_def_cfa_register 13
	@ sp needed
	pop	{r7, pc}
	.cfi_endproc
.LFE982:
	.size	_cyhal_utils_peri_pclk_set_divider, .-_cyhal_utils_peri_pclk_set_divider
	.section	.text._cyhal_utils_peri_pclk_set_frac_divider,"ax",%progbits
	.align	1
	.syntax unified
	.thumb
	.thumb_func
	.type	_cyhal_utils_peri_pclk_set_frac_divider, %function
_cyhal_utils_peri_pclk_set_frac_divider:
.LFB984:
	.loc 2 272 1
	.cfi_startproc
	@ args = 0, pretend = 0, frame = 16
	@ frame_needed = 1, uses_anonymous_args = 0
	push	{r7, lr}
.LCFI9:
	.cfi_def_cfa_offset 8
	.cfi_offset 7, -8
	.cfi_offset 14, -4
	sub	sp, sp, #16
.LCFI10:
	.cfi_def_cfa_offset 24
	add	r7, sp, #0
.LCFI11:
	.cfi_def_cfa_register 7
	str	r1, [r7, #8]
	str	r2, [r7, #4]
	str	r3, [r7]
	mov	r3, r0
	strb	r3, [r7, #15]
	.loc 2 277 74
	ldr	r3, [r7, #8]
	ldrb	r3, [r3]	@ zero_extendqisi2
	.loc 2 277 83
	and	r3, r3, #3
	uxtb	r0, r3
	.loc 2 277 98
	ldr	r3, [r7, #8]
	ldrb	r3, [r3, #1]	@ zero_extendqisi2
	.loc 2 277 12
	mov	r1, r3
	ldr	r3, [r7]
	ldr	r2, [r7, #4]
	bl	Cy_SysClk_PeriphSetFracDivider
	mov	r3, r0
	.loc 2 279 1
	mov	r0, r3
	adds	r7, r7, #16
.LCFI12:
	.cfi_def_cfa_offset 8
	mov	sp, r7
.LCFI13:
	.cfi_def_cfa_register 13
	@ sp needed
	pop	{r7, pc}
	.cfi_endproc
.LFE984:
	.size	_cyhal_utils_peri_pclk_set_frac_divider, .-_cyhal_utils_peri_pclk_set_frac_divider
	.section	.text._cyhal_utils_peri_pclk_get_frequency,"ax",%progbits
	.align	1
	.syntax unified
	.thumb
	.thumb_func
	.type	_cyhal_utils_peri_pclk_get_frequency, %function
_cyhal_utils_peri_pclk_get_frequency:
.LFB986:
	.loc 2 290 1
	.cfi_startproc
	@ args = 0, pretend = 0, frame = 8
	@ frame_needed = 1, uses_anonymous_args = 0
	push	{r7, lr}
.LCFI14:
	.cfi_def_cfa_offset 8
	.cfi_offset 7, -8
	.cfi_offset 14, -4
	sub	sp, sp, #8
.LCFI15:
	.cfi_def_cfa_offset 16
	add	r7, sp, #0
.LCFI16:
	.cfi_def_cfa_register 7
	mov	r3, r0
	str	r1, [r7]
	strb	r3, [r7, #7]
	.loc 2 295 72
	ldr	r3, [r7]
	ldrb	r3, [r3]	@ zero_extendqisi2
	.loc 2 295 81
	and	r3, r3, #3
	uxtb	r2, r3
	.loc 2 295 96
	ldr	r3, [r7]
	ldrb	r3, [r3, #1]	@ zero_extendqisi2
	.loc 2 295 12
	mov	r1, r3
	mov	r0, r2
	bl	Cy_SysClk_PeriphGetFrequency
	mov	r3, r0
	.loc 2 297 1
	mov	r0, r3
	adds	r7, r7, #8
.LCFI17:
	.cfi_def_cfa_offset 8
	mov	sp, r7
.LCFI18:
	.cfi_def_cfa_register 13
	@ sp needed
	pop	{r7, pc}
	.cfi_endproc
.LFE986:
	.size	_cyhal_utils_peri_pclk_get_frequency, .-_cyhal_utils_peri_pclk_get_frequency
	.section	.text._cyhal_utils_peri_pclk_enable_divider,"ax",%progbits
	.align	1
	.syntax unified
	.thumb
	.thumb_func
	.type	_cyhal_utils_peri_pclk_enable_divider, %function
_cyhal_utils_peri_pclk_enable_divider:
.LFB989:
	.loc 2 315 1
	.cfi_startproc
	@ args = 0, pretend = 0, frame = 8
	@ frame_needed = 1, uses_anonymous_args = 0
	push	{r7, lr}
.LCFI19:
	.cfi_def_cfa_offset 8
	.cfi_offset 7, -8
	.cfi_offset 14, -4
	sub	sp, sp, #8
.LCFI20:
	.cfi_def_cfa_offset 16
	add	r7, sp, #0
.LCFI21:
	.cfi_def_cfa_register 7
	mov	r3, r0
	str	r1, [r7]
	strb	r3, [r7, #7]
	.loc 2 320 73
	ldr	r3, [r7]
	ldrb	r3, [r3]	@ zero_extendqisi2
	.loc 2 320 82
	and	r3, r3, #3
	uxtb	r2, r3
	.loc 2 320 97
	ldr	r3, [r7]
	ldrb	r3, [r3, #1]	@ zero_extendqisi2
	.loc 2 320 12
	mov	r1, r3
	mov	r0, r2
	bl	Cy_SysClk_PeriphEnableDivider
	mov	r3, r0
	.loc 2 322 1
	mov	r0, r3
	adds	r7, r7, #8
.LCFI22:
	.cfi_def_cfa_offset 8
	mov	sp, r7
.LCFI23:
	.cfi_def_cfa_register 13
	@ sp needed
	pop	{r7, pc}
	.cfi_endproc
.LFE989:
	.size	_cyhal_utils_peri_pclk_enable_divider, .-_cyhal_utils_peri_pclk_enable_divider
	.section	.text._cyhal_utils_peri_pclk_disable_divider,"ax",%progbits
	.align	1
	.syntax unified
	.thumb
	.thumb_func
	.type	_cyhal_utils_peri_pclk_disable_divider, %function
_cyhal_utils_peri_pclk_disable_divider:
.LFB990:
	.loc 2 324 1
	.cfi_startproc
	@ args = 0, pretend = 0, frame = 8
	@ frame_needed = 1, uses_anonymous_args = 0
	push	{r7, lr}
.LCFI24:
	.cfi_def_cfa_offset 8
	.cfi_offset 7, -8
	.cfi_offset 14, -4
	sub	sp, sp, #8
.LCFI25:
	.cfi_def_cfa_offset 16
	add	r7, sp, #0
.LCFI26:
	.cfi_def_cfa_register 7
	mov	r3, r0
	str	r1, [r7]
	strb	r3, [r7, #7]
	.loc 2 329 74
	ldr	r3, [r7]
	ldrb	r3, [r3]	@ zero_extendqisi2
	.loc 2 329 83
	and	r3, r3, #3
	uxtb	r2, r3
	.loc 2 329 98
	ldr	r3, [r7]
	ldrb	r3, [r3, #1]	@ zero_extendqisi2
	.loc 2 329 12
	mov	r1, r3
	mov	r0, r2
	bl	Cy_SysClk_PeriphDisableDivider
	mov	r3, r0
	.loc 2 331 1
	mov	r0, r3
	adds	r7, r7, #8
.LCFI27:
	.cfi_def_cfa_offset 8
	mov	sp, r7
.LCFI28:
	.cfi_def_cfa_register 13
	@ sp needed
	pop	{r7, pc}
	.cfi_endproc
.LFE990:
	.size	_cyhal_utils_peri_pclk_disable_divider, .-_cyhal_utils_peri_pclk_disable_divider
	.section	.text._cyhal_utils_peri_pclk_is_divider_enabled,"ax",%progbits
	.align	1
	.syntax unified
	.thumb
	.thumb_func
	.type	_cyhal_utils_peri_pclk_is_divider_enabled, %function
_cyhal_utils_peri_pclk_is_divider_enabled:
.LFB992:
	.loc 2 344 1
	.cfi_startproc
	@ args = 0, pretend = 0, frame = 8
	@ frame_needed = 1, uses_anonymous_args = 0
	push	{r7, lr}
.LCFI29:
	.cfi_def_cfa_offset 8
	.cfi_offset 7, -8
	.cfi_offset 14, -4
	sub	sp, sp, #8
.LCFI30:
	.cfi_def_cfa_offset 16
	add	r7, sp, #0
.LCFI31:
	.cfi_def_cfa_register 7
	mov	r3, r0
	str	r1, [r7]
	strb	r3, [r7, #7]
	.loc 2 352 77
	ldr	r3, [r7]
	ldrb	r3, [r3]	@ zero_extendqisi2
	.loc 2 352 86
	and	r3, r3, #3
	uxtb	r2, r3
	.loc 2 352 101
	ldr	r3, [r7]
	ldrb	r3, [r3, #1]	@ zero_extendqisi2
	.loc 2 352 12
	mov	r1, r3
	mov	r0, r2
	bl	Cy_SysClk_PeriphGetDividerEnabled
	mov	r3, r0
	.loc 2 354 1
	mov	r0, r3
	adds	r7, r7, #8
.LCFI32:
	.cfi_def_cfa_offset 8
	mov	sp, r7
.LCFI33:
	.cfi_def_cfa_register 13
	@ sp needed
	pop	{r7, pc}
	.cfi_endproc
.LFE992:
	.size	_cyhal_utils_peri_pclk_is_divider_enabled, .-_cyhal_utils_peri_pclk_is_divider_enabled
	.global	CYHAL_CLOCK_TOLERANCE_0_P
	.section	.rodata.CYHAL_CLOCK_TOLERANCE_0_P,"a"
	.align	2
	.type	CYHAL_CLOCK_TOLERANCE_0_P, %object
	.size	CYHAL_CLOCK_TOLERANCE_0_P, 8
CYHAL_CLOCK_TOLERANCE_0_P:
	.byte	2
	.space	3
	.word	0
	.global	CYHAL_CLOCK_TOLERANCE_1_P
	.section	.rodata.CYHAL_CLOCK_TOLERANCE_1_P,"a"
	.align	2
	.type	CYHAL_CLOCK_TOLERANCE_1_P, %object
	.size	CYHAL_CLOCK_TOLERANCE_1_P, 8
CYHAL_CLOCK_TOLERANCE_1_P:
	.byte	2
	.space	3
	.word	1
	.global	CYHAL_CLOCK_TOLERANCE_5_P
	.section	.rodata.CYHAL_CLOCK_TOLERANCE_5_P,"a"
	.align	2
	.type	CYHAL_CLOCK_TOLERANCE_5_P, %object
	.size	CYHAL_CLOCK_TOLERANCE_5_P, 8
CYHAL_CLOCK_TOLERANCE_5_P:
	.byte	2
	.space	3
	.word	5
	.global	CYHAL_CLOCK_RSC_IMO
	.section	.rodata.CYHAL_CLOCK_RSC_IMO,"a"
	.align	2
	.type	CYHAL_CLOCK_RSC_IMO, %object
	.size	CYHAL_CLOCK_RSC_IMO, 3
CYHAL_CLOCK_RSC_IMO:
	.byte	5
	.byte	4
	.byte	0
	.global	CYHAL_CLOCK_RSC_EXT
	.section	.rodata.CYHAL_CLOCK_RSC_EXT,"a"
	.align	2
	.type	CYHAL_CLOCK_RSC_EXT, %object
	.size	CYHAL_CLOCK_RSC_EXT, 3
CYHAL_CLOCK_RSC_EXT:
	.byte	5
	.byte	6
	.byte	0
	.global	CYHAL_CLOCK_RSC_ILO
	.section	.rodata.CYHAL_CLOCK_RSC_ILO,"a"
	.align	2
	.type	CYHAL_CLOCK_RSC_ILO, %object
	.size	CYHAL_CLOCK_RSC_ILO, 3
CYHAL_CLOCK_RSC_ILO:
	.byte	5
	.byte	9
	.byte	0
	.global	CYHAL_CLOCK_RSC_LF
	.section	.rodata.CYHAL_CLOCK_RSC_LF,"a"
	.align	2
	.type	CYHAL_CLOCK_RSC_LF, %object
	.size	CYHAL_CLOCK_RSC_LF, 3
CYHAL_CLOCK_RSC_LF:
	.byte	5
	.byte	16
	.byte	0
	.global	CYHAL_CLOCK_RSC_PUMP
	.section	.rodata.CYHAL_CLOCK_RSC_PUMP,"a"
	.align	2
	.type	CYHAL_CLOCK_RSC_PUMP, %object
	.size	CYHAL_CLOCK_RSC_PUMP, 3
CYHAL_CLOCK_RSC_PUMP:
	.byte	5
	.byte	19
	.byte	0
	.global	CYHAL_CLOCK_RSC_BAK
	.section	.rodata.CYHAL_CLOCK_RSC_BAK,"a"
	.align	2
	.type	CYHAL_CLOCK_RSC_BAK, %object
	.size	CYHAL_CLOCK_RSC_BAK, 3
CYHAL_CLOCK_RSC_BAK:
	.byte	5
	.byte	20
	.byte	0
	.global	CYHAL_CLOCK_RSC_ALT_SYS_TICK
	.section	.rodata.CYHAL_CLOCK_RSC_ALT_SYS_TICK,"a"
	.align	2
	.type	CYHAL_CLOCK_RSC_ALT_SYS_TICK, %object
	.size	CYHAL_CLOCK_RSC_ALT_SYS_TICK, 3
CYHAL_CLOCK_RSC_ALT_SYS_TICK:
	.byte	5
	.byte	22
	.byte	0
	.global	CYHAL_CLOCK_RSC_PATHMUX
	.section	.rodata.CYHAL_CLOCK_RSC_PATHMUX,"a"
	.align	2
	.type	CYHAL_CLOCK_RSC_PATHMUX, %object
	.size	CYHAL_CLOCK_RSC_PATHMUX, 18
CYHAL_CLOCK_RSC_PATHMUX:
	.byte	5
	.byte	13
	.byte	0
	.byte	5
	.byte	13
	.byte	1
	.byte	5
	.byte	13
	.byte	2
	.byte	5
	.byte	13
	.byte	3
	.byte	5
	.byte	13
	.byte	4
	.byte	5
	.byte	13
	.byte	5
	.global	CYHAL_CLOCK_RSC_HF
	.section	.rodata.CYHAL_CLOCK_RSC_HF,"a"
	.align	2
	.type	CYHAL_CLOCK_RSC_HF, %object
	.size	CYHAL_CLOCK_RSC_HF, 18
CYHAL_CLOCK_RSC_HF:
	.byte	5
	.byte	18
	.byte	0
	.byte	5
	.byte	18
	.byte	1
	.byte	5
	.byte	18
	.byte	2
	.byte	5
	.byte	18
	.byte	3
	.byte	5
	.byte	18
	.byte	4
	.byte	5
	.byte	18
	.byte	5
	.global	CYHAL_CLOCK_RSC_ECO
	.section	.rodata.CYHAL_CLOCK_RSC_ECO,"a"
	.align	2
	.type	CYHAL_CLOCK_RSC_ECO, %object
	.size	CYHAL_CLOCK_RSC_ECO, 3
CYHAL_CLOCK_RSC_ECO:
	.byte	5
	.byte	5
	.byte	0
	.global	CYHAL_CLOCK_RSC_WCO
	.section	.rodata.CYHAL_CLOCK_RSC_WCO,"a"
	.align	2
	.type	CYHAL_CLOCK_RSC_WCO, %object
	.size	CYHAL_CLOCK_RSC_WCO, 3
CYHAL_CLOCK_RSC_WCO:
	.byte	5
	.byte	11
	.byte	0
	.global	CYHAL_CLOCK_RSC_FLL
	.section	.rodata.CYHAL_CLOCK_RSC_FLL,"a"
	.align	2
	.type	CYHAL_CLOCK_RSC_FLL, %object
	.size	CYHAL_CLOCK_RSC_FLL, 3
CYHAL_CLOCK_RSC_FLL:
	.byte	5
	.byte	14
	.byte	0
	.global	CYHAL_CLOCK_RSC_FAST
	.section	.rodata.CYHAL_CLOCK_RSC_FAST,"a"
	.align	2
	.type	CYHAL_CLOCK_RSC_FAST, %object
	.size	CYHAL_CLOCK_RSC_FAST, 3
CYHAL_CLOCK_RSC_FAST:
	.byte	5
	.byte	23
	.byte	0
	.global	CYHAL_CLOCK_RSC_SLOW
	.section	.rodata.CYHAL_CLOCK_RSC_SLOW,"a"
	.align	2
	.type	CYHAL_CLOCK_RSC_SLOW, %object
	.size	CYHAL_CLOCK_RSC_SLOW, 3
CYHAL_CLOCK_RSC_SLOW:
	.byte	5
	.byte	25
	.byte	0
	.global	CYHAL_CLOCK_RSC_PERI
	.section	.rodata.CYHAL_CLOCK_RSC_PERI,"a"
	.align	2
	.type	CYHAL_CLOCK_RSC_PERI, %object
	.size	CYHAL_CLOCK_RSC_PERI, 3
CYHAL_CLOCK_RSC_PERI:
	.byte	5
	.byte	24
	.byte	0
	.global	CYHAL_CLOCK_RSC_TIMER
	.section	.rodata.CYHAL_CLOCK_RSC_TIMER,"a"
	.align	2
	.type	CYHAL_CLOCK_RSC_TIMER, %object
	.size	CYHAL_CLOCK_RSC_TIMER, 3
CYHAL_CLOCK_RSC_TIMER:
	.byte	5
	.byte	21
	.byte	0
	.global	CYHAL_CLOCK_RSC_PLL
	.section	.rodata.CYHAL_CLOCK_RSC_PLL,"a"
	.align	2
	.type	CYHAL_CLOCK_RSC_PLL, %object
	.size	CYHAL_CLOCK_RSC_PLL, 6
CYHAL_CLOCK_RSC_PLL:
	.byte	5
	.byte	15
	.byte	0
	.byte	5
	.byte	15
	.byte	1
	.global	__aeabi_uldivmod
	.section	.text._cyhal_clock_compute_div,"ax",%progbits
	.align	1
	.syntax unified
	.thumb
	.thumb_func
	.type	_cyhal_clock_compute_div, %function
_cyhal_clock_compute_div:
.LFB996:
	.file 3 "libraries\\IFX_PSOC6_HAL\\mtb-hal-cat1\\source\\cyhal_clock.c"
	.loc 3 558 1
	.cfi_startproc
	@ args = 8, pretend = 0, frame = 32
	@ frame_needed = 1, uses_anonymous_args = 0
	push	{r4, r5, r7, r8, r9, r10, fp, lr}
.LCFI34:
	.cfi_def_cfa_offset 32
	.cfi_offset 4, -32
	.cfi_offset 5, -28
	.cfi_offset 7, -24
	.cfi_offset 8, -20
	.cfi_offset 9, -16
	.cfi_offset 10, -12
	.cfi_offset 11, -8
	.cfi_offset 14, -4
	sub	sp, sp, #32
.LCFI35:
	.cfi_def_cfa_offset 64
	add	r7, sp, #0
.LCFI36:
	.cfi_def_cfa_register 7
	strd	r0, [r7, #16]
	str	r2, [r7, #12]
	str	r3, [r7, #8]
	.loc 3 559 27
	movs	r2, #1
	ldr	r3, [r7, #8]
	lsl	r3, r2, r3
	.loc 3 559 14
	str	r3, [r7, #28]
	.loc 3 560 36
	ldr	r3, [r7, #12]
	lsrs	r3, r3, #1
	movs	r2, #0
	mov	r4, r3
	mov	r5, r2
	.loc 3 560 22
	ldrd	r2, [r7, #16]
	adds	r8, r4, r2
	adc	r9, r5, r3
	.loc 3 560 42
	ldr	r3, [r7, #12]
	movs	r2, #0
	str	r3, [r7]
	str	r2, [r7, #4]
	ldrd	r2, [r7]
	mov	r0, r8
	mov	r1, r9
	bl	__aeabi_uldivmod
	mov	r2, r0
	mov	r3, r1
	.loc 3 560 10
	ldr	r3, [r7, #68]
	str	r2, [r3]
	.loc 3 561 9
	ldr	r3, [r7, #68]
	ldr	r3, [r3]
	.loc 3 561 8
	ldr	r2, [r7, #28]
	cmp	r2, r3
	bcs	.L15
	.loc 3 562 14
	ldr	r3, [r7, #68]
	ldr	r2, [r7, #28]
	str	r2, [r3]
.L15:
	.loc 3 566 9
	ldr	r3, [r7, #64]
	cmp	r3, #0
	beq	.L16
	.loc 3 565 25 discriminator 1
	ldr	r3, [r7, #64]
	ldrb	r4, [r3]	@ zero_extendqisi2
	.loc 3 565 98 discriminator 1
	ldr	r3, [r7, #68]
	ldr	r3, [r3]
	movs	r2, #0
	mov	r10, r3
	mov	fp, r2
	.loc 3 565 96 discriminator 1
	mov	r2, r10
	mov	r3, fp
	ldrd	r0, [r7, #16]
	bl	__aeabi_uldivmod
	mov	r2, r0
	mov	r3, r1
	.loc 3 565 25 discriminator 1
	mov	r3, r2
	mov	r2, r3
	ldr	r1, [r7, #12]
	mov	r0, r4
	bl	_cyhal_utils_calculate_tolerance
	mov	r3, r0
	.loc 3 565 21 discriminator 1
	cmp	r3, #0
	it	lt
	rsblt	r3, r3, #0
	b	.L17
.L16:
	.loc 3 566 9 discriminator 2
	movs	r3, #0
.L17:
	.loc 3 564 14
	str	r3, [r7, #24]
	.loc 3 570 9
	ldr	r3, [r7, #64]
	cmp	r3, #0
	beq	.L18
	.loc 3 568 52
	ldr	r3, [r7, #64]
	ldr	r3, [r3, #4]
	.loc 3 568 32
	ldr	r2, [r7, #24]
	cmp	r2, r3
	bls	.L18
	.loc 3 570 9
	ldr	r3, .L21
	b	.L20
.L18:
	.loc 3 570 9 is_stmt 0 discriminator 1
	movs	r3, #0
.L20:
	.loc 3 571 1 is_stmt 1 discriminator 4
	mov	r0, r3
	adds	r7, r7, #32
.LCFI37:
	.cfi_def_cfa_offset 32
	mov	sp, r7
.LCFI38:
	.cfi_def_cfa_register 13
	@ sp needed
	pop	{r4, r5, r7, r8, r9, r10, fp, pc}
.L22:
	.align	2
.L21:
	.word	67240448
	.cfi_endproc
.LFE996:
	.size	_cyhal_clock_compute_div, .-_cyhal_clock_compute_div
	.section	.text._cyhal_clock_get_lf_frequency,"ax",%progbits
	.align	1
	.syntax unified
	.thumb
	.thumb_func
	.type	_cyhal_clock_get_lf_frequency, %function
_cyhal_clock_get_lf_frequency:
.LFB997:
	.loc 3 574 1
	.cfi_startproc
	@ args = 0, pretend = 0, frame = 8
	@ frame_needed = 1, uses_anonymous_args = 0
	push	{r7, lr}
.LCFI39:
	.cfi_def_cfa_offset 8
	.cfi_offset 7, -8
	.cfi_offset 14, -4
	sub	sp, sp, #8
.LCFI40:
	.cfi_def_cfa_offset 16
	add	r7, sp, #0
.LCFI41:
	.cfi_def_cfa_register 7
	.loc 3 575 39
	bl	Cy_SysClk_ClkLfGetSource
	mov	r3, r0
	strb	r3, [r7, #7]
	.loc 3 576 5
	ldrb	r3, [r7, #7]	@ zero_extendqisi2
	cmp	r3, #0
	beq	.L24
	cmp	r3, #1
	beq	.L25
	b	.L29
.L24:
	.loc 3 582 20
	mov	r3, #32768
	b	.L27
.L25:
	.loc 3 589 20
	mov	r3, #32768
	b	.L27
.L29:
	.loc 3 607 17 discriminator 1
	bl	CY_HALT
	.loc 3 608 20 discriminator 1
	movs	r3, #0
.L27:
	.loc 3 610 1
	mov	r0, r3
	adds	r7, r7, #8
.LCFI42:
	.cfi_def_cfa_offset 8
	mov	sp, r7
.LCFI43:
	.cfi_def_cfa_register 13
	@ sp needed
	pop	{r7, pc}
	.cfi_endproc
.LFE997:
	.size	_cyhal_clock_get_lf_frequency, .-_cyhal_clock_get_lf_frequency
	.section	.text._cyhal_clock_update_system_state,"ax",%progbits
	.align	1
	.syntax unified
	.thumb
	.thumb_func
	.type	_cyhal_clock_update_system_state, %function
_cyhal_clock_update_system_state:
.LFB998:
	.loc 3 613 1
	.cfi_startproc
	@ args = 0, pretend = 0, frame = 24
	@ frame_needed = 1, uses_anonymous_args = 0
	push	{r7, lr}
.LCFI44:
	.cfi_def_cfa_offset 8
	.cfi_offset 7, -8
	.cfi_offset 14, -4
	sub	sp, sp, #24
.LCFI45:
	.cfi_def_cfa_offset 32
	add	r7, sp, #0
.LCFI46:
	.cfi_def_cfa_register 7
	mov	r3, r0
	str	r1, [r7, #8]
	str	r2, [r7, #4]
	strb	r3, [r7, #15]
	.loc 3 617 24
	ldrb	r3, [r7, #15]	@ zero_extendqisi2
	.loc 3 617 27
	ldr	r1, [r7, #4]
	ldr	r2, [r7, #8]
	cmp	r1, r2
	ite	hi
	movhi	r2, #1
	movls	r2, #0
	uxtb	r2, r2
	.loc 3 617 8
	cmp	r3, r2
	beq	.L31
	.loc 3 618 10 discriminator 1
	ldrb	r3, [r7, #15]
	eor	r3, r3, #1
	uxtb	r3, r3
	mov	r1, r3
	.loc 3 618 48 discriminator 1
	ldr	r2, [r7, #4]
	ldr	r3, [r7, #8]
	cmp	r2, r3
	ite	cc
	movcc	r3, #1
	movcs	r3, #0
	uxtb	r3, r3
	.loc 3 617 75 discriminator 1
	cmp	r1, r3
	bne	.L32
.L31:
.LBB2:
	.loc 3 621 22
	bl	Cy_SysPm_IsSystemUlp
	mov	r3, r0
	strb	r3, [r7, #23]
	.loc 3 627 9
	ldr	r3, [r7, #4]
	ldr	r2, .L35
	umull	r2, r3, r2, r3
	lsrs	r2, r3, #18
	ldrb	r3, [r7, #23]	@ zero_extendqisi2
	mov	r1, r2
	mov	r0, r3
	bl	Cy_SysLib_SetWaitStates
.L32:
.LBE2:
	.loc 3 631 9
	ldrb	r3, [r7, #15]
	eor	r3, r3, #1
	uxtb	r3, r3
	.loc 3 631 8
	cmp	r3, #0
	beq	.L34
	.loc 3 632 9
	bl	SystemCoreClockUpdate
.L34:
	.loc 3 633 1
	nop
	adds	r7, r7, #24
.LCFI47:
	.cfi_def_cfa_offset 8
	mov	sp, r7
.LCFI48:
	.cfi_def_cfa_register 13
	@ sp needed
	pop	{r7, pc}
.L36:
	.align	2
.L35:
	.word	1125899907
	.cfi_endproc
.LFE998:
	.size	_cyhal_clock_update_system_state, .-_cyhal_clock_update_system_state
	.section	.text._cyhal_clock_set_enabled_unsupported,"ax",%progbits
	.align	1
	.syntax unified
	.thumb
	.thumb_func
	.type	_cyhal_clock_set_enabled_unsupported, %function
_cyhal_clock_set_enabled_unsupported:
.LFB999:
	.loc 3 637 1
	.cfi_startproc
	@ args = 0, pretend = 0, frame = 8
	@ frame_needed = 1, uses_anonymous_args = 0
	push	{r7, lr}
.LCFI49:
	.cfi_def_cfa_offset 8
	.cfi_offset 7, -8
	.cfi_offset 14, -4
	sub	sp, sp, #8
.LCFI50:
	.cfi_def_cfa_offset 16
	add	r7, sp, #0
.LCFI51:
	.cfi_def_cfa_register 7
	str	r0, [r7, #4]
	mov	r3, r1
	strb	r3, [r7, #3]
	mov	r3, r2
	strb	r3, [r7, #2]
	.loc 3 641 9
	bl	CY_HALT
	.loc 3 642 12
	ldr	r3, .L39
	.loc 3 643 1
	mov	r0, r3
	adds	r7, r7, #8
.LCFI52:
	.cfi_def_cfa_offset 8
	mov	sp, r7
.LCFI53:
	.cfi_def_cfa_register 13
	@ sp needed
	pop	{r7, pc}
.L40:
	.align	2
.L39:
	.word	67240450
	.cfi_endproc
.LFE999:
	.size	_cyhal_clock_set_enabled_unsupported, .-_cyhal_clock_set_enabled_unsupported
	.section	.text._cyhal_clock_set_frequency_unsupported,"ax",%progbits
	.align	1
	.syntax unified
	.thumb
	.thumb_func
	.type	_cyhal_clock_set_frequency_unsupported, %function
_cyhal_clock_set_frequency_unsupported:
.LFB1000:
	.loc 3 645 1
	.cfi_startproc
	@ args = 0, pretend = 0, frame = 16
	@ frame_needed = 1, uses_anonymous_args = 0
	push	{r7, lr}
.LCFI54:
	.cfi_def_cfa_offset 8
	.cfi_offset 7, -8
	.cfi_offset 14, -4
	sub	sp, sp, #16
.LCFI55:
	.cfi_def_cfa_offset 24
	add	r7, sp, #0
.LCFI56:
	.cfi_def_cfa_register 7
	str	r0, [r7, #12]
	str	r1, [r7, #8]
	str	r2, [r7, #4]
	.loc 3 649 9
	bl	CY_HALT
	.loc 3 650 12
	ldr	r3, .L43
	.loc 3 651 1
	mov	r0, r3
	adds	r7, r7, #16
.LCFI57:
	.cfi_def_cfa_offset 8
	mov	sp, r7
.LCFI58:
	.cfi_def_cfa_register 13
	@ sp needed
	pop	{r7, pc}
.L44:
	.align	2
.L43:
	.word	67240450
	.cfi_endproc
.LFE1000:
	.size	_cyhal_clock_set_frequency_unsupported, .-_cyhal_clock_set_frequency_unsupported
	.section	.text._cyhal_clock_set_divider_unsupported,"ax",%progbits
	.align	1
	.syntax unified
	.thumb
	.thumb_func
	.type	_cyhal_clock_set_divider_unsupported, %function
_cyhal_clock_set_divider_unsupported:
.LFB1001:
	.loc 3 653 1
	.cfi_startproc
	@ args = 0, pretend = 0, frame = 8
	@ frame_needed = 1, uses_anonymous_args = 0
	push	{r7, lr}
.LCFI59:
	.cfi_def_cfa_offset 8
	.cfi_offset 7, -8
	.cfi_offset 14, -4
	sub	sp, sp, #8
.LCFI60:
	.cfi_def_cfa_offset 16
	add	r7, sp, #0
.LCFI61:
	.cfi_def_cfa_register 7
	str	r0, [r7, #4]
	str	r1, [r7]
	.loc 3 656 9
	bl	CY_HALT
	.loc 3 657 12
	ldr	r3, .L47
	.loc 3 658 1
	mov	r0, r3
	adds	r7, r7, #8
.LCFI62:
	.cfi_def_cfa_offset 8
	mov	sp, r7
.LCFI63:
	.cfi_def_cfa_register 13
	@ sp needed
	pop	{r7, pc}
.L48:
	.align	2
.L47:
	.word	67240450
	.cfi_endproc
.LFE1001:
	.size	_cyhal_clock_set_divider_unsupported, .-_cyhal_clock_set_divider_unsupported
	.section	.text._cyhal_clock_set_source_unsupported,"ax",%progbits
	.align	1
	.syntax unified
	.thumb
	.thumb_func
	.type	_cyhal_clock_set_source_unsupported, %function
_cyhal_clock_set_source_unsupported:
.LFB1002:
	.loc 3 660 1
	.cfi_startproc
	@ args = 0, pretend = 0, frame = 8
	@ frame_needed = 1, uses_anonymous_args = 0
	push	{r7, lr}
.LCFI64:
	.cfi_def_cfa_offset 8
	.cfi_offset 7, -8
	.cfi_offset 14, -4
	sub	sp, sp, #8
.LCFI65:
	.cfi_def_cfa_offset 16
	add	r7, sp, #0
.LCFI66:
	.cfi_def_cfa_register 7
	str	r0, [r7, #4]
	str	r1, [r7]
	.loc 3 663 9
	bl	CY_HALT
	.loc 3 664 12
	ldr	r3, .L51
	.loc 3 665 1
	mov	r0, r3
	adds	r7, r7, #8
.LCFI67:
	.cfi_def_cfa_offset 8
	mov	sp, r7
.LCFI68:
	.cfi_def_cfa_register 13
	@ sp needed
	pop	{r7, pc}
.L52:
	.align	2
.L51:
	.word	67240450
	.cfi_endproc
.LFE1002:
	.size	_cyhal_clock_set_source_unsupported, .-_cyhal_clock_set_source_unsupported
	.section	.text._cyhal_clock_is_enabled_true,"ax",%progbits
	.align	1
	.syntax unified
	.thumb
	.thumb_func
	.type	_cyhal_clock_is_enabled_true, %function
_cyhal_clock_is_enabled_true:
.LFB1003:
	.loc 3 667 1
	.cfi_startproc
	@ args = 0, pretend = 0, frame = 8
	@ frame_needed = 1, uses_anonymous_args = 0
	@ link register save eliminated.
	push	{r7}
.LCFI69:
	.cfi_def_cfa_offset 4
	.cfi_offset 7, -4
	sub	sp, sp, #12
.LCFI70:
	.cfi_def_cfa_offset 16
	add	r7, sp, #0
.LCFI71:
	.cfi_def_cfa_register 7
	str	r0, [r7, #4]
	.loc 3 669 11
	movs	r3, #1
	.loc 3 670 1
	mov	r0, r3
	adds	r7, r7, #12
.LCFI72:
	.cfi_def_cfa_offset 4
	mov	sp, r7
.LCFI73:
	.cfi_def_cfa_register 13
	@ sp needed
	ldr	r7, [sp], #4
.LCFI74:
	.cfi_restore 7
	.cfi_def_cfa_offset 0
	bx	lr
	.cfi_endproc
.LFE1003:
	.size	_cyhal_clock_is_enabled_true, .-_cyhal_clock_is_enabled_true
	.section	.text._cyhal_clock_get_sources_none,"ax",%progbits
	.align	1
	.syntax unified
	.thumb
	.thumb_func
	.type	_cyhal_clock_get_sources_none, %function
_cyhal_clock_get_sources_none:
.LFB1004:
	.loc 3 672 1
	.cfi_startproc
	@ args = 0, pretend = 0, frame = 16
	@ frame_needed = 1, uses_anonymous_args = 0
	@ link register save eliminated.
	push	{r7}
.LCFI75:
	.cfi_def_cfa_offset 4
	.cfi_offset 7, -4
	sub	sp, sp, #20
.LCFI76:
	.cfi_def_cfa_offset 24
	add	r7, sp, #0
.LCFI77:
	.cfi_def_cfa_register 7
	str	r0, [r7, #12]
	str	r1, [r7, #8]
	str	r2, [r7, #4]
	.loc 3 675 12
	ldr	r3, [r7, #4]
	movs	r2, #0
	str	r2, [r3]
	.loc 3 676 12
	movs	r3, #0
	.loc 3 677 1
	mov	r0, r3
	adds	r7, r7, #20
.LCFI78:
	.cfi_def_cfa_offset 4
	mov	sp, r7
.LCFI79:
	.cfi_def_cfa_register 13
	@ sp needed
	ldr	r7, [sp], #4
.LCFI80:
	.cfi_restore 7
	.cfi_def_cfa_offset 0
	bx	lr
	.cfi_endproc
.LFE1004:
	.size	_cyhal_clock_get_sources_none, .-_cyhal_clock_get_sources_none
	.section	.data._CYHAL_CLOCK_SOURCE_HF,"aw"
	.align	2
	.type	_CYHAL_CLOCK_SOURCE_HF, %object
	.size	_CYHAL_CLOCK_SOURCE_HF, 36
_CYHAL_CLOCK_SOURCE_HF:
	.word	CYHAL_CLOCK_RSC_FLL
	.word	CYHAL_CLOCK_RSC_PLL
	.word	CYHAL_CLOCK_RSC_PLL+3
	.word	CYHAL_CLOCK_RSC_PATHMUX
	.word	CYHAL_CLOCK_RSC_PATHMUX+3
	.word	CYHAL_CLOCK_RSC_PATHMUX+6
	.word	CYHAL_CLOCK_RSC_PATHMUX+9
	.word	CYHAL_CLOCK_RSC_PATHMUX+12
	.word	CYHAL_CLOCK_RSC_PATHMUX+15
	.section	.text._cyhal_clock_get_frequency_imo,"ax",%progbits
	.align	1
	.syntax unified
	.thumb
	.thumb_func
	.type	_cyhal_clock_get_frequency_imo, %function
_cyhal_clock_get_frequency_imo:
.LFB1005:
	.loc 3 1033 1
	.cfi_startproc
	@ args = 0, pretend = 0, frame = 8
	@ frame_needed = 1, uses_anonymous_args = 0
	@ link register save eliminated.
	push	{r7}
.LCFI81:
	.cfi_def_cfa_offset 4
	.cfi_offset 7, -4
	sub	sp, sp, #12
.LCFI82:
	.cfi_def_cfa_offset 16
	add	r7, sp, #0
.LCFI83:
	.cfi_def_cfa_register 7
	str	r0, [r7, #4]
	.loc 3 1035 12
	ldr	r3, .L59
	.loc 3 1036 1
	mov	r0, r3
	adds	r7, r7, #12
.LCFI84:
	.cfi_def_cfa_offset 4
	mov	sp, r7
.LCFI85:
	.cfi_def_cfa_register 13
	@ sp needed
	ldr	r7, [sp], #4
.LCFI86:
	.cfi_restore 7
	.cfi_def_cfa_offset 0
	bx	lr
.L60:
	.align	2
.L59:
	.word	8000000
	.cfi_endproc
.LFE1005:
	.size	_cyhal_clock_get_frequency_imo, .-_cyhal_clock_get_frequency_imo
	.section	.text._cyhal_clock_is_enabled_eco,"ax",%progbits
	.align	1
	.syntax unified
	.thumb
	.thumb_func
	.type	_cyhal_clock_is_enabled_eco, %function
_cyhal_clock_is_enabled_eco:
.LFB1006:
	.loc 3 1042 1
	.cfi_startproc
	@ args = 0, pretend = 0, frame = 8
	@ frame_needed = 1, uses_anonymous_args = 0
	@ link register save eliminated.
	push	{r7}
.LCFI87:
	.cfi_def_cfa_offset 4
	.cfi_offset 7, -4
	sub	sp, sp, #12
.LCFI88:
	.cfi_def_cfa_offset 16
	add	r7, sp, #0
.LCFI89:
	.cfi_def_cfa_register 7
	str	r0, [r7, #4]
	.loc 3 1044 66
	ldr	r3, .L63
	ldr	r3, [r3, #1324]
	.loc 3 1044 15
	lsrs	r3, r3, #31
	uxtb	r3, r3
	.loc 3 1045 1
	mov	r0, r3
	adds	r7, r7, #12
.LCFI90:
	.cfi_def_cfa_offset 4
	mov	sp, r7
.LCFI91:
	.cfi_def_cfa_register 13
	@ sp needed
	ldr	r7, [sp], #4
.LCFI92:
	.cfi_restore 7
	.cfi_def_cfa_offset 0
	bx	lr
.L64:
	.align	2
.L63:
	.word	1076232192
	.cfi_endproc
.LFE1006:
	.size	_cyhal_clock_is_enabled_eco, .-_cyhal_clock_is_enabled_eco
	.section	.text._cyhal_clock_set_enabled_eco,"ax",%progbits
	.align	1
	.syntax unified
	.thumb
	.thumb_func
	.type	_cyhal_clock_set_enabled_eco, %function
_cyhal_clock_set_enabled_eco:
.LFB1007:
	.loc 3 1047 1
	.cfi_startproc
	@ args = 0, pretend = 0, frame = 16
	@ frame_needed = 1, uses_anonymous_args = 0
	push	{r7, lr}
.LCFI93:
	.cfi_def_cfa_offset 8
	.cfi_offset 7, -8
	.cfi_offset 14, -4
	sub	sp, sp, #16
.LCFI94:
	.cfi_def_cfa_offset 24
	add	r7, sp, #0
.LCFI95:
	.cfi_def_cfa_register 7
	str	r0, [r7, #4]
	mov	r3, r1
	strb	r3, [r7, #3]
	mov	r3, r2
	strb	r3, [r7, #2]
	.loc 3 1050 8
	ldrb	r3, [r7, #3]	@ zero_extendqisi2
	cmp	r3, #0
	beq	.L66
	.loc 3 1052 67
	ldr	r3, .L77
	ldr	r3, [r3, #1324]
	.loc 3 1052 12
	cmp	r3, #0
	bge	.L67
	.loc 3 1055 16
	ldrb	r3, [r7, #2]	@ zero_extendqisi2
	cmp	r3, #0
	beq	.L68
.LBB3:
	.loc 3 1057 26
	movs	r3, #0
	str	r3, [r7, #12]
	.loc 3 1057 17
	b	.L69
.L71:
	.loc 3 1059 21 discriminator 4
	mov	r0, #1000
	bl	Cy_SysLib_DelayUs
	.loc 3 1057 75 discriminator 4
	ldr	r3, [r7, #12]
	adds	r3, r3, #1
	str	r3, [r7, #12]
.L69:
	.loc 3 1057 17 discriminator 1
	ldr	r3, [r7, #12]
	cmp	r3, #2
	bgt	.L70
	.loc 3 1057 42 discriminator 3
	bl	Cy_SysClk_EcoGetStatus
	mov	r3, r0
	.loc 3 1057 39 discriminator 3
	cmp	r3, #2
	bne	.L71
.L70:
.LBE3:
	.loc 3 1061 24
	bl	Cy_SysClk_EcoGetStatus
	mov	r3, r0
	.loc 3 1063 21
	cmp	r3, #2
	bne	.L72
	.loc 3 1063 21 is_stmt 0 discriminator 1
	movs	r3, #0
	b	.L74
.L72:
	.loc 3 1063 21 discriminator 2
	ldr	r3, .L77+4
	b	.L74
.L68:
	.loc 3 1065 20 is_stmt 1
	movs	r3, #0
	b	.L74
.L67:
	.loc 3 1069 20
	ldrb	r3, [r7, #2]	@ zero_extendqisi2
	cmp	r3, #0
	beq	.L75
	.loc 3 1069 20 is_stmt 0 discriminator 1
	movw	r3, #3000
	b	.L76
.L75:
	.loc 3 1069 20 discriminator 2
	movs	r3, #0
.L76:
	.loc 3 1069 20 discriminator 4
	mov	r0, r3
	bl	Cy_SysClk_EcoEnable
	mov	r3, r0
	b	.L74
.L66:
	.loc 3 1074 9 is_stmt 1
	bl	Cy_SysClk_EcoDisable
	.loc 3 1075 16
	movs	r3, #0
.L74:
	.loc 3 1077 1
	mov	r0, r3
	adds	r7, r7, #16
.LCFI96:
	.cfi_def_cfa_offset 8
	mov	sp, r7
.LCFI97:
	.cfi_def_cfa_register 13
	@ sp needed
	pop	{r7, pc}
.L78:
	.align	2
.L77:
	.word	1076232192
	.word	4849666
	.cfi_endproc
.LFE1007:
	.size	_cyhal_clock_set_enabled_eco, .-_cyhal_clock_set_enabled_eco
	.section	.text._cyhal_clock_get_frequency_eco,"ax",%progbits
	.align	1
	.syntax unified
	.thumb
	.thumb_func
	.type	_cyhal_clock_get_frequency_eco, %function
_cyhal_clock_get_frequency_eco:
.LFB1008:
	.loc 3 1079 1
	.cfi_startproc
	@ args = 0, pretend = 0, frame = 8
	@ frame_needed = 1, uses_anonymous_args = 0
	push	{r7, lr}
.LCFI98:
	.cfi_def_cfa_offset 8
	.cfi_offset 7, -8
	.cfi_offset 14, -4
	sub	sp, sp, #8
.LCFI99:
	.cfi_def_cfa_offset 16
	add	r7, sp, #0
.LCFI100:
	.cfi_def_cfa_register 7
	str	r0, [r7, #4]
	.loc 3 1081 12
	bl	Cy_SysClk_EcoGetFrequency
	mov	r3, r0
	.loc 3 1082 1
	mov	r0, r3
	adds	r7, r7, #8
.LCFI101:
	.cfi_def_cfa_offset 8
	mov	sp, r7
.LCFI102:
	.cfi_def_cfa_register 13
	@ sp needed
	pop	{r7, pc}
	.cfi_endproc
.LFE1008:
	.size	_cyhal_clock_get_frequency_eco, .-_cyhal_clock_get_frequency_eco
	.section	.text._cyhal_clock_is_enabled_ext,"ax",%progbits
	.align	1
	.syntax unified
	.thumb
	.thumb_func
	.type	_cyhal_clock_is_enabled_ext, %function
_cyhal_clock_is_enabled_ext:
.LFB1009:
	.loc 3 1087 1
	.cfi_startproc
	@ args = 0, pretend = 0, frame = 8
	@ frame_needed = 1, uses_anonymous_args = 0
	push	{r7, lr}
.LCFI103:
	.cfi_def_cfa_offset 8
	.cfi_offset 7, -8
	.cfi_offset 14, -4
	sub	sp, sp, #8
.LCFI104:
	.cfi_def_cfa_offset 16
	add	r7, sp, #0
.LCFI105:
	.cfi_def_cfa_register 7
	str	r0, [r7, #4]
	.loc 3 1089 13
	bl	Cy_SysClk_ExtClkGetFrequency
	mov	r3, r0
	.loc 3 1089 44
	cmp	r3, #0
	ite	ne
	movne	r3, #1
	moveq	r3, #0
	uxtb	r3, r3
	.loc 3 1090 1
	mov	r0, r3
	adds	r7, r7, #8
.LCFI106:
	.cfi_def_cfa_offset 8
	mov	sp, r7
.LCFI107:
	.cfi_def_cfa_register 13
	@ sp needed
	pop	{r7, pc}
	.cfi_endproc
.LFE1009:
	.size	_cyhal_clock_is_enabled_ext, .-_cyhal_clock_is_enabled_ext
	.section	.text._cyhal_clock_get_frequency_ext,"ax",%progbits
	.align	1
	.syntax unified
	.thumb
	.thumb_func
	.type	_cyhal_clock_get_frequency_ext, %function
_cyhal_clock_get_frequency_ext:
.LFB1010:
	.loc 3 1092 1
	.cfi_startproc
	@ args = 0, pretend = 0, frame = 8
	@ frame_needed = 1, uses_anonymous_args = 0
	push	{r7, lr}
.LCFI108:
	.cfi_def_cfa_offset 8
	.cfi_offset 7, -8
	.cfi_offset 14, -4
	sub	sp, sp, #8
.LCFI109:
	.cfi_def_cfa_offset 16
	add	r7, sp, #0
.LCFI110:
	.cfi_def_cfa_register 7
	str	r0, [r7, #4]
	.loc 3 1094 12
	bl	Cy_SysClk_ExtClkGetFrequency
	mov	r3, r0
	.loc 3 1095 1
	mov	r0, r3
	adds	r7, r7, #8
.LCFI111:
	.cfi_def_cfa_offset 8
	mov	sp, r7
.LCFI112:
	.cfi_def_cfa_register 13
	@ sp needed
	pop	{r7, pc}
	.cfi_endproc
.LFE1010:
	.size	_cyhal_clock_get_frequency_ext, .-_cyhal_clock_get_frequency_ext
	.section	.text._cyhal_clock_set_frequency_ext,"ax",%progbits
	.align	1
	.syntax unified
	.thumb
	.thumb_func
	.type	_cyhal_clock_set_frequency_ext, %function
_cyhal_clock_set_frequency_ext:
.LFB1011:
	.loc 3 1097 1
	.cfi_startproc
	@ args = 0, pretend = 0, frame = 16
	@ frame_needed = 1, uses_anonymous_args = 0
	push	{r7, lr}
.LCFI113:
	.cfi_def_cfa_offset 8
	.cfi_offset 7, -8
	.cfi_offset 14, -4
	sub	sp, sp, #16
.LCFI114:
	.cfi_def_cfa_offset 24
	add	r7, sp, #0
.LCFI115:
	.cfi_def_cfa_register 7
	str	r0, [r7, #12]
	str	r1, [r7, #8]
	str	r2, [r7, #4]
	.loc 3 1101 5
	ldr	r0, [r7, #8]
	bl	Cy_SysClk_ExtClkSetFrequency
	.loc 3 1102 12
	movs	r3, #0
	.loc 3 1103 1
	mov	r0, r3
	adds	r7, r7, #16
.LCFI116:
	.cfi_def_cfa_offset 8
	mov	sp, r7
.LCFI117:
	.cfi_def_cfa_register 13
	@ sp needed
	pop	{r7, pc}
	.cfi_endproc
.LFE1011:
	.size	_cyhal_clock_set_frequency_ext, .-_cyhal_clock_set_frequency_ext
	.section	.text._cyhal_clock_is_enabled_ilo,"ax",%progbits
	.align	1
	.syntax unified
	.thumb
	.thumb_func
	.type	_cyhal_clock_is_enabled_ilo, %function
_cyhal_clock_is_enabled_ilo:
.LFB1012:
	.loc 3 1160 1
	.cfi_startproc
	@ args = 0, pretend = 0, frame = 8
	@ frame_needed = 1, uses_anonymous_args = 0
	push	{r7, lr}
.LCFI118:
	.cfi_def_cfa_offset 8
	.cfi_offset 7, -8
	.cfi_offset 14, -4
	sub	sp, sp, #8
.LCFI119:
	.cfi_def_cfa_offset 16
	add	r7, sp, #0
.LCFI120:
	.cfi_def_cfa_register 7
	str	r0, [r7, #4]
	.loc 3 1165 12
	bl	Cy_SysClk_IloIsEnabled
	mov	r3, r0
	.loc 3 1167 1
	mov	r0, r3
	adds	r7, r7, #8
.LCFI121:
	.cfi_def_cfa_offset 8
	mov	sp, r7
.LCFI122:
	.cfi_def_cfa_register 13
	@ sp needed
	pop	{r7, pc}
	.cfi_endproc
.LFE1012:
	.size	_cyhal_clock_is_enabled_ilo, .-_cyhal_clock_is_enabled_ilo
	.section	.text._cyhal_clock_set_enabled_ilo,"ax",%progbits
	.align	1
	.syntax unified
	.thumb
	.thumb_func
	.type	_cyhal_clock_set_enabled_ilo, %function
_cyhal_clock_set_enabled_ilo:
.LFB1013:
	.loc 3 1169 1
	.cfi_startproc
	@ args = 0, pretend = 0, frame = 8
	@ frame_needed = 1, uses_anonymous_args = 0
	push	{r7, lr}
.LCFI123:
	.cfi_def_cfa_offset 8
	.cfi_offset 7, -8
	.cfi_offset 14, -4
	sub	sp, sp, #8
.LCFI124:
	.cfi_def_cfa_offset 16
	add	r7, sp, #0
.LCFI125:
	.cfi_def_cfa_register 7
	str	r0, [r7, #4]
	mov	r3, r1
	strb	r3, [r7, #3]
	mov	r3, r2
	strb	r3, [r7, #2]
	.loc 3 1188 8
	ldrb	r3, [r7, #3]	@ zero_extendqisi2
	cmp	r3, #0
	beq	.L90
	.loc 3 1189 9
	bl	Cy_SysClk_IloEnable
	b	.L91
.L90:
	.loc 3 1191 9
	bl	Cy_SysClk_IloDisable
.L91:
	.loc 3 1193 12
	movs	r3, #0
	.loc 3 1194 1
	mov	r0, r3
	adds	r7, r7, #8
.LCFI126:
	.cfi_def_cfa_offset 8
	mov	sp, r7
.LCFI127:
	.cfi_def_cfa_register 13
	@ sp needed
	pop	{r7, pc}
	.cfi_endproc
.LFE1013:
	.size	_cyhal_clock_set_enabled_ilo, .-_cyhal_clock_set_enabled_ilo
	.section	.text._cyhal_clock_get_frequency_ilo,"ax",%progbits
	.align	1
	.syntax unified
	.thumb
	.thumb_func
	.type	_cyhal_clock_get_frequency_ilo, %function
_cyhal_clock_get_frequency_ilo:
.LFB1014:
	.loc 3 1196 1
	.cfi_startproc
	@ args = 0, pretend = 0, frame = 8
	@ frame_needed = 1, uses_anonymous_args = 0
	@ link register save eliminated.
	push	{r7}
.LCFI128:
	.cfi_def_cfa_offset 4
	.cfi_offset 7, -4
	sub	sp, sp, #12
.LCFI129:
	.cfi_def_cfa_offset 16
	add	r7, sp, #0
.LCFI130:
	.cfi_def_cfa_register 7
	str	r0, [r7, #4]
	.loc 3 1198 12
	mov	r3, #32768
	.loc 3 1199 1
	mov	r0, r3
	adds	r7, r7, #12
.LCFI131:
	.cfi_def_cfa_offset 4
	mov	sp, r7
.LCFI132:
	.cfi_def_cfa_register 13
	@ sp needed
	ldr	r7, [sp], #4
.LCFI133:
	.cfi_restore 7
	.cfi_def_cfa_offset 0
	bx	lr
	.cfi_endproc
.LFE1014:
	.size	_cyhal_clock_get_frequency_ilo, .-_cyhal_clock_get_frequency_ilo
	.section	.text._cyhal_clock_is_enabled_wco,"ax",%progbits
	.align	1
	.syntax unified
	.thumb
	.thumb_func
	.type	_cyhal_clock_is_enabled_wco, %function
_cyhal_clock_is_enabled_wco:
.LFB1015:
	.loc 3 1229 1
	.cfi_startproc
	@ args = 0, pretend = 0, frame = 8
	@ frame_needed = 1, uses_anonymous_args = 0
	@ link register save eliminated.
	push	{r7}
.LCFI134:
	.cfi_def_cfa_offset 4
	.cfi_offset 7, -4
	sub	sp, sp, #12
.LCFI135:
	.cfi_def_cfa_offset 16
	add	r7, sp, #0
.LCFI136:
	.cfi_def_cfa_register 7
	str	r0, [r7, #4]
	.loc 3 1234 70
	ldr	r3, .L97
	ldr	r3, [r3]
	.loc 3 1234 77
	and	r3, r3, #8
	.loc 3 1234 15
	cmp	r3, #0
	ite	ne
	movne	r3, #1
	moveq	r3, #0
	uxtb	r3, r3
	.loc 3 1236 1
	mov	r0, r3
	adds	r7, r7, #12
.LCFI137:
	.cfi_def_cfa_offset 4
	mov	sp, r7
.LCFI138:
	.cfi_def_cfa_register 13
	@ sp needed
	ldr	r7, [sp], #4
.LCFI139:
	.cfi_restore 7
	.cfi_def_cfa_offset 0
	bx	lr
.L98:
	.align	2
.L97:
	.word	1076297728
	.cfi_endproc
.LFE1015:
	.size	_cyhal_clock_is_enabled_wco, .-_cyhal_clock_is_enabled_wco
	.section	.text._cyhal_clock_set_enabled_wco,"ax",%progbits
	.align	1
	.syntax unified
	.thumb
	.thumb_func
	.type	_cyhal_clock_set_enabled_wco, %function
_cyhal_clock_set_enabled_wco:
.LFB1016:
	.loc 3 1238 1
	.cfi_startproc
	@ args = 0, pretend = 0, frame = 16
	@ frame_needed = 1, uses_anonymous_args = 0
	push	{r7, lr}
.LCFI140:
	.cfi_def_cfa_offset 8
	.cfi_offset 7, -8
	.cfi_offset 14, -4
	sub	sp, sp, #16
.LCFI141:
	.cfi_def_cfa_offset 24
	add	r7, sp, #0
.LCFI142:
	.cfi_def_cfa_register 7
	str	r0, [r7, #4]
	mov	r3, r1
	strb	r3, [r7, #3]
	mov	r3, r2
	strb	r3, [r7, #2]
	.loc 3 1241 8
	ldrb	r3, [r7, #3]	@ zero_extendqisi2
	cmp	r3, #0
	beq	.L100
.LBB4:
	.loc 3 1243 26
	ldrb	r3, [r7, #2]	@ zero_extendqisi2
	cmp	r3, #0
	beq	.L101
	.loc 3 1243 26 is_stmt 0 discriminator 1
	ldr	r3, .L106
	b	.L102
.L101:
	.loc 3 1243 26 discriminator 2
	movs	r3, #0
.L102:
	.loc 3 1243 26 discriminator 4
	mov	r0, r3
	bl	Cy_SysClk_WcoEnable
	str	r0, [r7, #12]
	.loc 3 1245 37 is_stmt 1 discriminator 4
	ldrb	r3, [r7, #2]	@ zero_extendqisi2
	cmp	r3, #0
	beq	.L103
	.loc 3 1245 37 is_stmt 0 discriminator 1
	ldr	r3, [r7, #12]
	b	.L105
.L103:
	.loc 3 1245 37 discriminator 2
	movs	r3, #0
	b	.L105
.L100:
.LBE4:
	.loc 3 1249 9 is_stmt 1
	bl	Cy_SysClk_WcoDisable
	.loc 3 1250 16
	movs	r3, #0
.L105:
	.loc 3 1252 1
	mov	r0, r3
	adds	r7, r7, #16
.LCFI143:
	.cfi_def_cfa_offset 8
	mov	sp, r7
.LCFI144:
	.cfi_def_cfa_register 13
	@ sp needed
	pop	{r7, pc}
.L107:
	.align	2
.L106:
	.word	1000000
	.cfi_endproc
.LFE1016:
	.size	_cyhal_clock_set_enabled_wco, .-_cyhal_clock_set_enabled_wco
	.section	.text._cyhal_clock_get_frequency_wco,"ax",%progbits
	.align	1
	.syntax unified
	.thumb
	.thumb_func
	.type	_cyhal_clock_get_frequency_wco, %function
_cyhal_clock_get_frequency_wco:
.LFB1017:
	.loc 3 1254 1
	.cfi_startproc
	@ args = 0, pretend = 0, frame = 8
	@ frame_needed = 1, uses_anonymous_args = 0
	@ link register save eliminated.
	push	{r7}
.LCFI145:
	.cfi_def_cfa_offset 4
	.cfi_offset 7, -4
	sub	sp, sp, #12
.LCFI146:
	.cfi_def_cfa_offset 16
	add	r7, sp, #0
.LCFI147:
	.cfi_def_cfa_register 7
	str	r0, [r7, #4]
	.loc 3 1256 12
	mov	r3, #32768
	.loc 3 1257 1
	mov	r0, r3
	adds	r7, r7, #12
.LCFI148:
	.cfi_def_cfa_offset 4
	mov	sp, r7
.LCFI149:
	.cfi_def_cfa_register 13
	@ sp needed
	ldr	r7, [sp], #4
.LCFI150:
	.cfi_restore 7
	.cfi_def_cfa_offset 0
	bx	lr
	.cfi_endproc
.LFE1017:
	.size	_cyhal_clock_get_frequency_wco, .-_cyhal_clock_get_frequency_wco
	.section	.text._cyhal_clock_get_frequency_pathmux,"ax",%progbits
	.align	1
	.syntax unified
	.thumb
	.thumb_func
	.type	_cyhal_clock_get_frequency_pathmux, %function
_cyhal_clock_get_frequency_pathmux:
.LFB1018:
	.loc 3 1300 1
	.cfi_startproc
	@ args = 0, pretend = 0, frame = 8
	@ frame_needed = 1, uses_anonymous_args = 0
	push	{r7, lr}
.LCFI151:
	.cfi_def_cfa_offset 8
	.cfi_offset 7, -8
	.cfi_offset 14, -4
	sub	sp, sp, #8
.LCFI152:
	.cfi_def_cfa_offset 16
	add	r7, sp, #0
.LCFI153:
	.cfi_def_cfa_register 7
	str	r0, [r7, #4]
	.loc 3 1301 50
	ldr	r3, [r7, #4]
	ldrb	r3, [r3, #1]	@ zero_extendqisi2
	.loc 3 1301 12
	mov	r0, r3
	bl	Cy_SysClk_ClkPathMuxGetFrequency
	mov	r3, r0
	.loc 3 1302 1
	mov	r0, r3
	adds	r7, r7, #8
.LCFI154:
	.cfi_def_cfa_offset 8
	mov	sp, r7
.LCFI155:
	.cfi_def_cfa_register 13
	@ sp needed
	pop	{r7, pc}
	.cfi_endproc
.LFE1018:
	.size	_cyhal_clock_get_frequency_pathmux, .-_cyhal_clock_get_frequency_pathmux
	.section	.text._cyhal_clock_get_sources_pathmux,"ax",%progbits
	.align	1
	.syntax unified
	.thumb
	.thumb_func
	.type	_cyhal_clock_get_sources_pathmux, %function
_cyhal_clock_get_sources_pathmux:
.LFB1019:
	.loc 3 1304 1
	.cfi_startproc
	@ args = 0, pretend = 0, frame = 16
	@ frame_needed = 1, uses_anonymous_args = 0
	@ link register save eliminated.
	push	{r7}
.LCFI156:
	.cfi_def_cfa_offset 4
	.cfi_offset 7, -4
	sub	sp, sp, #20
.LCFI157:
	.cfi_def_cfa_offset 24
	add	r7, sp, #0
.LCFI158:
	.cfi_def_cfa_register 7
	str	r0, [r7, #12]
	str	r1, [r7, #8]
	str	r2, [r7, #4]
	.loc 3 1340 14
	ldr	r3, [r7, #8]
	ldr	r2, .L114
	str	r2, [r3]
	.loc 3 1341 12
	ldr	r3, [r7, #4]
	movs	r2, #5
	str	r2, [r3]
	.loc 3 1342 12
	movs	r3, #0
	.loc 3 1343 1
	mov	r0, r3
	adds	r7, r7, #20
.LCFI159:
	.cfi_def_cfa_offset 4
	mov	sp, r7
.LCFI160:
	.cfi_def_cfa_register 13
	@ sp needed
	ldr	r7, [sp], #4
.LCFI161:
	.cfi_restore 7
	.cfi_def_cfa_offset 0
	bx	lr
.L115:
	.align	2
.L114:
	.word	_CYHAL_CLOCK_SOURCE_PATHMUX.7
	.cfi_endproc
.LFE1019:
	.size	_cyhal_clock_get_sources_pathmux, .-_cyhal_clock_get_sources_pathmux
	.section	.text._cyhal_clock_set_source_pathmux,"ax",%progbits
	.align	1
	.syntax unified
	.thumb
	.thumb_func
	.type	_cyhal_clock_set_source_pathmux, %function
_cyhal_clock_set_source_pathmux:
.LFB1020:
	.loc 3 1346 1
	.cfi_startproc
	@ args = 0, pretend = 0, frame = 32
	@ frame_needed = 1, uses_anonymous_args = 0
	push	{r4, r7, lr}
.LCFI162:
	.cfi_def_cfa_offset 12
	.cfi_offset 4, -12
	.cfi_offset 7, -8
	.cfi_offset 14, -4
	sub	sp, sp, #36
.LCFI163:
	.cfi_def_cfa_offset 48
	add	r7, sp, #0
.LCFI164:
	.cfi_def_cfa_register 7
	str	r0, [r7, #4]
	str	r1, [r7]
	.loc 3 1349 19
	ldr	r3, [r7]
	ldrb	r3, [r3]	@ zero_extendqisi2
	.loc 3 1349 5
	subs	r3, r3, #4
	cmp	r3, #7
	bhi	.L129
	adr	r2, .L119
	ldr	pc, [r2, r3, lsl #2]
	.p2align 2
.L119:
	.word	.L123+1
	.word	.L122+1
	.word	.L121+1
	.word	.L129+1
	.word	.L129+1
	.word	.L120+1
	.word	.L129+1
	.word	.L118+1
	.p2align 1
.L123:
	.loc 3 1352 25
	movs	r3, #0
	strh	r3, [r7, #26]	@ movhi
	.loc 3 1353 22
	ldr	r3, .L130
	str	r3, [r7, #28]
	.loc 3 1354 13
	b	.L124
.L121:
	.loc 3 1362 25
	movs	r3, #1
	strh	r3, [r7, #26]	@ movhi
	.loc 3 1363 24
	bl	Cy_SysClk_ExtClkGetFrequency
	str	r0, [r7, #28]
	.loc 3 1364 13
	b	.L124
.L122:
	.loc 3 1367 25
	movs	r3, #2
	strh	r3, [r7, #26]	@ movhi
	.loc 3 1368 24
	bl	Cy_SysClk_EcoGetFrequency
	str	r0, [r7, #28]
	.loc 3 1369 13
	b	.L124
.L120:
	.loc 3 1387 29
	mov	r3, #272
	strh	r3, [r7, #26]	@ movhi
	.loc 3 1388 26
	mov	r3, #32768
	str	r3, [r7, #28]
	.loc 3 1390 13
	b	.L124
.L118:
	.loc 3 1393 25
	movw	r3, #273
	strh	r3, [r7, #26]	@ movhi
	.loc 3 1394 22
	mov	r3, #32768
	str	r3, [r7, #28]
	.loc 3 1395 13
	b	.L124
.L129:
	.loc 3 1410 17 discriminator 1
	bl	CY_HALT
	.loc 3 1411 20 discriminator 1
	ldr	r3, .L130+4
	b	.L125
.L124:
	.loc 3 1414 28
	movs	r0, #0
	bl	Cy_SysClk_ClkHfGetFrequency
	str	r0, [r7, #20]
	.loc 3 1415 50
	movs	r0, #0
	bl	Cy_SysClk_ClkHfGetDivider
	mov	r3, r0
	.loc 3 1415 41
	mov	r2, r3
	.loc 3 1415 14
	ldr	r3, [r7, #28]
	lsrs	r3, r3, r2
	str	r3, [r7, #16]
	.loc 3 1416 32
	ldr	r3, [r7, #4]
	ldrb	r4, [r3, #1]	@ zero_extendqisi2
	.loc 3 1416 55
	movs	r0, #0
	bl	Cy_SysClk_ClkHfGetSource
	mov	r3, r0
	.loc 3 1416 9
	cmp	r4, r3
	ite	eq
	moveq	r3, #1
	movne	r3, #0
	strb	r3, [r7, #15]
	.loc 3 1418 8
	ldrb	r3, [r7, #15]	@ zero_extendqisi2
	cmp	r3, #0
	beq	.L126
	.loc 3 1419 9
	ldr	r2, [r7, #16]
	ldr	r1, [r7, #20]
	movs	r0, #1
	bl	_cyhal_clock_update_system_state
.L126:
	.loc 3 1421 54
	ldr	r3, [r7, #4]
	ldrb	r3, [r3, #1]	@ zero_extendqisi2
	.loc 3 1421 22
	mov	r2, r3
	ldrh	r3, [r7, #26]
	mov	r1, r3
	mov	r0, r2
	bl	Cy_SysClk_ClkPathSetSource
	str	r0, [r7, #8]
	.loc 3 1423 8
	ldrb	r3, [r7, #15]	@ zero_extendqisi2
	cmp	r3, #0
	beq	.L127
	.loc 3 1425 12
	ldr	r3, [r7, #8]
	cmp	r3, #0
	bne	.L128
	.loc 3 1426 13
	ldr	r2, [r7, #16]
	ldr	r1, [r7, #20]
	movs	r0, #0
	bl	_cyhal_clock_update_system_state
	b	.L127
.L128:
	.loc 3 1428 13
	ldr	r2, [r7, #20]
	ldr	r1, [r7, #16]
	movs	r0, #0
	bl	_cyhal_clock_update_system_state
.L127:
	.loc 3 1431 12
	ldr	r3, [r7, #8]
.L125:
	.loc 3 1432 1
	mov	r0, r3
	adds	r7, r7, #36
.LCFI165:
	.cfi_def_cfa_offset 12
	mov	sp, r7
.LCFI166:
	.cfi_def_cfa_register 13
	@ sp needed
	pop	{r4, r7, pc}
.L131:
	.align	2
.L130:
	.word	8000000
	.word	67240449
	.cfi_endproc
.LFE1020:
	.size	_cyhal_clock_set_source_pathmux, .-_cyhal_clock_set_source_pathmux
	.section	.text._cyhal_clock_is_enabled_fll,"ax",%progbits
	.align	1
	.syntax unified
	.thumb
	.thumb_func
	.type	_cyhal_clock_is_enabled_fll, %function
_cyhal_clock_is_enabled_fll:
.LFB1021:
	.loc 3 1438 1
	.cfi_startproc
	@ args = 0, pretend = 0, frame = 8
	@ frame_needed = 1, uses_anonymous_args = 0
	push	{r7, lr}
.LCFI167:
	.cfi_def_cfa_offset 8
	.cfi_offset 7, -8
	.cfi_offset 14, -4
	sub	sp, sp, #8
.LCFI168:
	.cfi_def_cfa_offset 16
	add	r7, sp, #0
.LCFI169:
	.cfi_def_cfa_register 7
	str	r0, [r7, #4]
	.loc 3 1440 12
	bl	Cy_SysClk_FllIsEnabled
	mov	r3, r0
	.loc 3 1441 1
	mov	r0, r3
	adds	r7, r7, #8
.LCFI170:
	.cfi_def_cfa_offset 8
	mov	sp, r7
.LCFI171:
	.cfi_def_cfa_register 13
	@ sp needed
	pop	{r7, pc}
	.cfi_endproc
.LFE1021:
	.size	_cyhal_clock_is_enabled_fll, .-_cyhal_clock_is_enabled_fll
	.section	.text._cyhal_clock_set_enabled_fll,"ax",%progbits
	.align	1
	.syntax unified
	.thumb
	.thumb_func
	.type	_cyhal_clock_set_enabled_fll, %function
_cyhal_clock_set_enabled_fll:
.LFB1022:
	.loc 3 1443 1
	.cfi_startproc
	@ args = 0, pretend = 0, frame = 80
	@ frame_needed = 1, uses_anonymous_args = 0
	push	{r4, r5, r7, r8, r9, r10, fp, lr}
.LCFI172:
	.cfi_def_cfa_offset 32
	.cfi_offset 4, -32
	.cfi_offset 5, -28
	.cfi_offset 7, -24
	.cfi_offset 8, -20
	.cfi_offset 9, -16
	.cfi_offset 10, -12
	.cfi_offset 11, -8
	.cfi_offset 14, -4
	sub	sp, sp, #80
.LCFI173:
	.cfi_def_cfa_offset 112
	add	r7, sp, #0
.LCFI174:
	.cfi_def_cfa_register 7
	str	r0, [r7, #28]
	mov	r3, r1
	strb	r3, [r7, #27]
	mov	r3, r2
	strb	r3, [r7, #26]
	.loc 3 1448 5
	add	r3, r7, #32
	mov	r0, r3
	bl	Cy_SysClk_FllGetConfiguration
	.loc 3 1450 30
	movs	r0, #0
	bl	Cy_SysClk_ClkHfGetDivider
	mov	r3, r0
	.loc 3 1450 14
	str	r3, [r7, #68]
	.loc 3 1451 25
	movs	r0, #0
	bl	Cy_SysClk_ClkPathMuxGetFrequency
	str	r0, [r7, #64]
	.loc 3 1452 28
	ldr	r3, [r7, #64]
	movs	r2, #0
	mov	r10, r3
	mov	fp, r2
	.loc 3 1452 62
	ldr	r3, [r7, #32]
	.loc 3 1452 49
	movs	r2, #0
	mov	r8, r3
	mov	r9, r2
	.loc 3 1452 47
	mul	r2, r8, fp
	mul	r3, r10, r9
	add	r3, r3, r2
	umull	r4, r5, r10, r8
	add	r3, r3, r5
	mov	r5, r3
	.loc 3 1452 89
	ldrh	r3, [r7, #36]
	.loc 3 1452 76
	mov	r2, r3
	.loc 3 1452 104
	ldrb	r3, [r7, #39]	@ zero_extendqisi2
	.loc 3 1452 128
	cmp	r3, #0
	beq	.L135
	.loc 3 1452 128 is_stmt 0 discriminator 1
	movs	r3, #2
	b	.L136
.L135:
	.loc 3 1452 128 discriminator 2
	movs	r3, #1
.L136:
	.loc 3 1452 97 is_stmt 1 discriminator 4
	mul	r3, r2, r3
	.loc 3 1452 136 discriminator 4
	lsrs	r3, r3, #1
	movs	r2, #0
	str	r3, [r7, #16]
	str	r2, [r7, #20]
	.loc 3 1452 72 discriminator 4
	ldrd	r1, [r7, #16]
	mov	r3, r1
	adds	r3, r4, r3
	str	r3, [r7, #8]
	mov	r3, r2
	adc	r3, r5, r3
	str	r3, [r7, #12]
	.loc 3 1452 159 discriminator 4
	ldrh	r3, [r7, #36]
	.loc 3 1452 146 discriminator 4
	mov	r2, r3
	.loc 3 1452 174 discriminator 4
	ldrb	r3, [r7, #39]	@ zero_extendqisi2
	.loc 3 1452 198 discriminator 4
	cmp	r3, #0
	beq	.L137
	.loc 3 1452 198 is_stmt 0 discriminator 5
	movs	r3, #2
	b	.L138
.L137:
	.loc 3 1452 198 discriminator 6
	movs	r3, #1
.L138:
	.loc 3 1452 167 is_stmt 1 discriminator 8
	mul	r3, r2, r3
	movs	r2, #0
	str	r3, [r7]
	str	r2, [r7, #4]
	.loc 3 1452 143 discriminator 8
	ldrd	r2, [r7]
	ldrd	r0, [r7, #8]
	bl	__aeabi_uldivmod
	mov	r2, r0
	mov	r3, r1
	.loc 3 1452 14 discriminator 8
	mov	r3, r2
	str	r3, [r7, #60]
	.loc 3 1453 8 discriminator 8
	ldrb	r3, [r7, #27]	@ zero_extendqisi2
	cmp	r3, #0
	beq	.L139
	.loc 3 1455 18
	ldr	r2, [r7, #60]
	ldr	r3, [r7, #68]
	lsr	r3, r2, r3
	str	r3, [r7, #76]
	.loc 3 1456 18
	ldr	r2, [r7, #64]
	ldr	r3, [r7, #68]
	lsr	r3, r2, r3
	str	r3, [r7, #72]
	b	.L140
.L139:
	.loc 3 1460 18
	ldr	r2, [r7, #64]
	ldr	r3, [r7, #68]
	lsr	r3, r2, r3
	str	r3, [r7, #76]
	.loc 3 1461 18
	ldr	r2, [r7, #60]
	ldr	r3, [r7, #68]
	lsr	r3, r2, r3
	str	r3, [r7, #72]
.L140:
	.loc 3 1464 43
	movs	r0, #0
	bl	Cy_SysClk_ClkHfGetSource
	mov	r3, r0
	.loc 3 1464 9
	cmp	r3, #0
	ite	eq
	moveq	r3, #1
	movne	r3, #0
	strb	r3, [r7, #59]
	.loc 3 1465 8
	ldrb	r3, [r7, #59]	@ zero_extendqisi2
	cmp	r3, #0
	beq	.L141
	.loc 3 1466 9
	ldr	r2, [r7, #76]
	ldr	r1, [r7, #72]
	movs	r0, #1
	bl	_cyhal_clock_update_system_state
.L141:
	.loc 3 1470 9
	ldrb	r3, [r7, #27]	@ zero_extendqisi2
	cmp	r3, #0
	beq	.L142
	.loc 3 1469 11
	ldrb	r3, [r7, #26]	@ zero_extendqisi2
	cmp	r3, #0
	beq	.L143
	.loc 3 1469 11 is_stmt 0 discriminator 1
	movw	r3, #20000
	b	.L144
.L143:
	.loc 3 1469 11 discriminator 2
	movs	r3, #0
.L144:
	.loc 3 1469 11 discriminator 4
	mov	r0, r3
	bl	Cy_SysClk_FllEnable
	mov	r3, r0
	b	.L145
.L142:
	.loc 3 1470 11 is_stmt 1 discriminator 1
	bl	Cy_SysClk_FllDisable
	mov	r3, r0
.L145:
	.loc 3 1468 15
	str	r3, [r7, #52]
	.loc 3 1472 8
	ldrb	r3, [r7, #59]	@ zero_extendqisi2
	cmp	r3, #0
	beq	.L146
	.loc 3 1474 12
	ldr	r3, [r7, #52]
	cmp	r3, #0
	bne	.L147
	.loc 3 1475 13
	ldr	r2, [r7, #76]
	ldr	r1, [r7, #72]
	movs	r0, #0
	bl	_cyhal_clock_update_system_state
	b	.L146
.L147:
	.loc 3 1477 13
	ldr	r2, [r7, #72]
	ldr	r1, [r7, #76]
	movs	r0, #0
	bl	_cyhal_clock_update_system_state
.L146:
	.loc 3 1480 12
	ldr	r3, [r7, #52]
	.loc 3 1481 1
	mov	r0, r3
	adds	r7, r7, #80
.LCFI175:
	.cfi_def_cfa_offset 32
	mov	sp, r7
.LCFI176:
	.cfi_def_cfa_register 13
	@ sp needed
	pop	{r4, r5, r7, r8, r9, r10, fp, pc}
	.cfi_endproc
.LFE1022:
	.size	_cyhal_clock_set_enabled_fll, .-_cyhal_clock_set_enabled_fll
	.section	.text._cyhal_clock_get_frequency_fll,"ax",%progbits
	.align	1
	.syntax unified
	.thumb
	.thumb_func
	.type	_cyhal_clock_get_frequency_fll, %function
_cyhal_clock_get_frequency_fll:
.LFB1023:
	.loc 3 1483 1
	.cfi_startproc
	@ args = 0, pretend = 0, frame = 8
	@ frame_needed = 1, uses_anonymous_args = 0
	push	{r7, lr}
.LCFI177:
	.cfi_def_cfa_offset 8
	.cfi_offset 7, -8
	.cfi_offset 14, -4
	sub	sp, sp, #8
.LCFI178:
	.cfi_def_cfa_offset 16
	add	r7, sp, #0
.LCFI179:
	.cfi_def_cfa_register 7
	str	r0, [r7, #4]
	.loc 3 1485 12
	movs	r0, #0
	bl	Cy_SysClk_ClkPathGetFrequency
	mov	r3, r0
	.loc 3 1486 1
	mov	r0, r3
	adds	r7, r7, #8
.LCFI180:
	.cfi_def_cfa_offset 8
	mov	sp, r7
.LCFI181:
	.cfi_def_cfa_register 13
	@ sp needed
	pop	{r7, pc}
	.cfi_endproc
.LFE1023:
	.size	_cyhal_clock_get_frequency_fll, .-_cyhal_clock_get_frequency_fll
	.section	.text._cyhal_clock_set_frequency_fll,"ax",%progbits
	.align	1
	.syntax unified
	.thumb
	.thumb_func
	.type	_cyhal_clock_set_frequency_fll, %function
_cyhal_clock_set_frequency_fll:
.LFB1024:
	.loc 3 1488 1
	.cfi_startproc
	@ args = 0, pretend = 0, frame = 96
	@ frame_needed = 1, uses_anonymous_args = 0
	push	{r4, r5, r7, r8, r9, r10, fp, lr}
.LCFI182:
	.cfi_def_cfa_offset 32
	.cfi_offset 4, -32
	.cfi_offset 5, -28
	.cfi_offset 7, -24
	.cfi_offset 8, -20
	.cfi_offset 9, -16
	.cfi_offset 10, -12
	.cfi_offset 11, -8
	.cfi_offset 14, -4
	sub	sp, sp, #96
.LCFI183:
	.cfi_def_cfa_offset 128
	add	r7, sp, #0
.LCFI184:
	.cfi_def_cfa_register 7
	str	r0, [r7, #36]
	str	r1, [r7, #32]
	str	r2, [r7, #28]
	.loc 3 1492 15
	movs	r3, #0
	str	r3, [r7, #92]
	.loc 3 1494 5
	add	r3, r7, #44
	mov	r0, r3
	bl	Cy_SysClk_FllGetConfiguration
	.loc 3 1495 25
	movs	r0, #0
	bl	Cy_SysClk_ClkPathMuxGetFrequency
	str	r0, [r7, #88]
	.loc 3 1497 8
	ldr	r3, [r7, #88]
	cmp	r3, #0
	bne	.L152
	.loc 3 1498 14
	ldr	r3, .L163
	str	r3, [r7, #92]
	b	.L153
.L152:
.LBB5:
	.loc 3 1501 32
	ldr	r3, [r7, #88]
	movs	r2, #0
	mov	r10, r3
	mov	fp, r2
	.loc 3 1501 66
	ldr	r3, [r7, #44]
	.loc 3 1501 53
	movs	r2, #0
	mov	r8, r3
	mov	r9, r2
	.loc 3 1501 51
	mul	r2, r8, fp
	mul	r3, r10, r9
	add	r3, r3, r2
	umull	r4, r5, r10, r8
	add	r3, r3, r5
	mov	r5, r3
	.loc 3 1501 93
	ldrh	r3, [r7, #48]
	.loc 3 1501 80
	mov	r2, r3
	.loc 3 1501 108
	ldrb	r3, [r7, #51]	@ zero_extendqisi2
	.loc 3 1501 132
	cmp	r3, #0
	beq	.L154
	.loc 3 1501 132 is_stmt 0 discriminator 1
	movs	r3, #2
	b	.L155
.L154:
	.loc 3 1501 132 discriminator 2
	movs	r3, #1
.L155:
	.loc 3 1501 101 is_stmt 1 discriminator 4
	mul	r3, r2, r3
	.loc 3 1501 140 discriminator 4
	lsrs	r3, r3, #1
	movs	r2, #0
	str	r3, [r7, #16]
	str	r2, [r7, #20]
	.loc 3 1501 76 discriminator 4
	ldrd	r1, [r7, #16]
	mov	r3, r1
	adds	r3, r4, r3
	str	r3, [r7, #8]
	mov	r3, r2
	adc	r3, r5, r3
	str	r3, [r7, #12]
	.loc 3 1501 163 discriminator 4
	ldrh	r3, [r7, #48]
	.loc 3 1501 150 discriminator 4
	mov	r2, r3
	.loc 3 1501 178 discriminator 4
	ldrb	r3, [r7, #51]	@ zero_extendqisi2
	.loc 3 1501 202 discriminator 4
	cmp	r3, #0
	beq	.L156
	.loc 3 1501 202 is_stmt 0 discriminator 5
	movs	r3, #2
	b	.L157
.L156:
	.loc 3 1501 202 discriminator 6
	movs	r3, #1
.L157:
	.loc 3 1501 171 is_stmt 1 discriminator 8
	mul	r3, r2, r3
	movs	r2, #0
	str	r3, [r7]
	str	r2, [r7, #4]
	.loc 3 1501 147 discriminator 8
	ldrd	r2, [r7]
	ldrd	r0, [r7, #8]
	bl	__aeabi_uldivmod
	mov	r2, r0
	mov	r3, r1
	.loc 3 1501 18 discriminator 8
	mov	r3, r2
	str	r3, [r7, #84]
	.loc 3 1502 34 discriminator 8
	movs	r0, #0
	bl	Cy_SysClk_ClkHfGetDivider
	mov	r3, r0
	.loc 3 1502 18 discriminator 8
	str	r3, [r7, #80]
	.loc 3 1503 18 discriminator 8
	ldr	r2, [r7, #84]
	ldr	r3, [r7, #80]
	lsr	r3, r2, r3
	str	r3, [r7, #76]
	.loc 3 1504 18 discriminator 8
	ldr	r2, [r7, #32]
	ldr	r3, [r7, #80]
	lsr	r3, r2, r3
	str	r3, [r7, #72]
	.loc 3 1506 47 discriminator 8
	movs	r0, #0
	bl	Cy_SysClk_ClkHfGetSource
	mov	r3, r0
	.loc 3 1506 13 discriminator 8
	cmp	r3, #0
	ite	eq
	moveq	r3, #1
	movne	r3, #0
	strb	r3, [r7, #71]
	.loc 3 1507 12 discriminator 8
	ldrb	r3, [r7, #71]	@ zero_extendqisi2
	cmp	r3, #0
	beq	.L158
	.loc 3 1508 13
	ldr	r2, [r7, #72]
	ldr	r1, [r7, #76]
	movs	r0, #1
	bl	_cyhal_clock_update_system_state
.L158:
	.loc 3 1510 23
	bl	Cy_SysClk_FllIsEnabled
	mov	r3, r0
	strb	r3, [r7, #70]
	.loc 3 1511 12
	ldrb	r3, [r7, #70]	@ zero_extendqisi2
	cmp	r3, #0
	beq	.L159
	.loc 3 1512 20
	bl	Cy_SysClk_FllDisable
	str	r0, [r7, #92]
.L159:
	.loc 3 1513 12
	ldr	r3, [r7, #92]
	cmp	r3, #0
	bne	.L160
	.loc 3 1515 20
	movs	r2, #0
	ldr	r1, [r7, #32]
	ldr	r0, [r7, #88]
	bl	Cy_SysClk_FllConfigure
	str	r0, [r7, #92]
	.loc 3 1517 16
	ldrb	r3, [r7, #70]	@ zero_extendqisi2
	cmp	r3, #0
	beq	.L160
.LBB6:
	.loc 3 1519 35
	movw	r0, #20000
	bl	Cy_SysClk_FllEnable
	str	r0, [r7, #64]
	.loc 3 1520 20
	ldr	r3, [r7, #92]
	cmp	r3, #0
	bne	.L160
	.loc 3 1521 26
	ldr	r3, [r7, #64]
	str	r3, [r7, #92]
.L160:
.LBE6:
	.loc 3 1525 12
	ldrb	r3, [r7, #71]	@ zero_extendqisi2
	cmp	r3, #0
	beq	.L153
	.loc 3 1527 16
	ldr	r3, [r7, #92]
	cmp	r3, #0
	bne	.L161
	.loc 3 1528 17
	ldr	r2, [r7, #72]
	ldr	r1, [r7, #76]
	movs	r0, #0
	bl	_cyhal_clock_update_system_state
	b	.L153
.L161:
	.loc 3 1530 17
	ldr	r2, [r7, #76]
	ldr	r1, [r7, #72]
	movs	r0, #0
	bl	_cyhal_clock_update_system_state
.L153:
.LBE5:
	.loc 3 1534 12
	ldr	r3, [r7, #92]
	.loc 3 1535 1
	mov	r0, r3
	adds	r7, r7, #96
.LCFI185:
	.cfi_def_cfa_offset 32
	mov	sp, r7
.LCFI186:
	.cfi_def_cfa_register 13
	@ sp needed
	pop	{r4, r5, r7, r8, r9, r10, fp, pc}
.L164:
	.align	2
.L163:
	.word	67240449
	.cfi_endproc
.LFE1024:
	.size	_cyhal_clock_set_frequency_fll, .-_cyhal_clock_set_frequency_fll
	.section	.text._cyhal_clock_get_sources_fll,"ax",%progbits
	.align	1
	.syntax unified
	.thumb
	.thumb_func
	.type	_cyhal_clock_get_sources_fll, %function
_cyhal_clock_get_sources_fll:
.LFB1025:
	.loc 3 1537 1
	.cfi_startproc
	@ args = 0, pretend = 0, frame = 16
	@ frame_needed = 1, uses_anonymous_args = 0
	@ link register save eliminated.
	push	{r7}
.LCFI187:
	.cfi_def_cfa_offset 4
	.cfi_offset 7, -4
	sub	sp, sp, #20
.LCFI188:
	.cfi_def_cfa_offset 24
	add	r7, sp, #0
.LCFI189:
	.cfi_def_cfa_register 7
	str	r0, [r7, #12]
	str	r1, [r7, #8]
	str	r2, [r7, #4]
	.loc 3 1539 14
	ldr	r3, [r7, #8]
	ldr	r2, .L167
	str	r2, [r3]
	.loc 3 1540 12
	ldr	r3, [r7, #4]
	movs	r2, #1
	str	r2, [r3]
	.loc 3 1541 12
	movs	r3, #0
	.loc 3 1542 1
	mov	r0, r3
	adds	r7, r7, #20
.LCFI190:
	.cfi_def_cfa_offset 4
	mov	sp, r7
.LCFI191:
	.cfi_def_cfa_register 13
	@ sp needed
	ldr	r7, [sp], #4
.LCFI192:
	.cfi_restore 7
	.cfi_def_cfa_offset 0
	bx	lr
.L168:
	.align	2
.L167:
	.word	_CYHAL_CLOCK_SOURCE_HF+12
	.cfi_endproc
.LFE1025:
	.size	_cyhal_clock_get_sources_fll, .-_cyhal_clock_get_sources_fll
	.section	.text._cyhal_clock_is_enabled_pll,"ax",%progbits
	.align	1
	.syntax unified
	.thumb
	.thumb_func
	.type	_cyhal_clock_is_enabled_pll, %function
_cyhal_clock_is_enabled_pll:
.LFB1026:
	.loc 3 1548 1
	.cfi_startproc
	@ args = 0, pretend = 0, frame = 8
	@ frame_needed = 1, uses_anonymous_args = 0
	push	{r7, lr}
.LCFI193:
	.cfi_def_cfa_offset 8
	.cfi_offset 7, -8
	.cfi_offset 14, -4
	sub	sp, sp, #8
.LCFI194:
	.cfi_def_cfa_offset 16
	add	r7, sp, #0
.LCFI195:
	.cfi_def_cfa_register 7
	str	r0, [r7, #4]
	.loc 3 1555 40
	ldr	r3, [r7, #4]
	ldrb	r3, [r3, #1]	@ zero_extendqisi2
	.loc 3 1555 50
	adds	r3, r3, #1
	.loc 3 1555 12
	mov	r0, r3
	bl	Cy_SysClk_PllIsEnabled
	mov	r3, r0
	.loc 3 1556 1
	mov	r0, r3
	adds	r7, r7, #8
.LCFI196:
	.cfi_def_cfa_offset 8
	mov	sp, r7
.LCFI197:
	.cfi_def_cfa_register 13
	@ sp needed
	pop	{r7, pc}
	.cfi_endproc
.LFE1026:
	.size	_cyhal_clock_is_enabled_pll, .-_cyhal_clock_is_enabled_pll
	.section	.text._cyhal_clock_extract_pll_params,"ax",%progbits
	.align	1
	.syntax unified
	.thumb
	.thumb_func
	.type	_cyhal_clock_extract_pll_params, %function
_cyhal_clock_extract_pll_params:
.LFB1027:
	.loc 3 1560 1
	.cfi_startproc
	@ args = 4, pretend = 0, frame = 16
	@ frame_needed = 1, uses_anonymous_args = 0
	@ link register save eliminated.
	push	{r4, r5, r7}
.LCFI198:
	.cfi_def_cfa_offset 12
	.cfi_offset 4, -12
	.cfi_offset 5, -8
	.cfi_offset 7, -4
	sub	sp, sp, #20
.LCFI199:
	.cfi_def_cfa_offset 32
	add	r7, sp, #0
.LCFI200:
	.cfi_def_cfa_register 7
	str	r0, [r7, #12]
	str	r1, [r7, #8]
	str	r2, [r7, #4]
	str	r3, [r7]
	.loc 3 1562 23
	ldr	r3, [r7, #8]
	ldrb	r3, [r3]	@ zero_extendqisi2
	uxtb	r3, r3
	movs	r2, #0
	mov	r4, r3
	mov	r5, r2
	.loc 3 1562 18
	ldr	r3, [r7, #4]
	strd	r4, [r3]
	.loc 3 1563 24
	ldr	r3, [r7, #8]
	ldrb	r3, [r3, #1]	@ zero_extendqisi2
	mov	r2, r3
	.loc 3 1563 19
	ldr	r3, [r7]
	str	r2, [r3]
	.loc 3 1564 21
	ldr	r3, [r7, #8]
	ldrb	r3, [r3, #2]	@ zero_extendqisi2
	mov	r2, r3
	.loc 3 1564 16
	ldr	r3, [r7, #32]
	str	r2, [r3]
	.loc 3 1583 1
	nop
	adds	r7, r7, #20
.LCFI201:
	.cfi_def_cfa_offset 12
	mov	sp, r7
.LCFI202:
	.cfi_def_cfa_register 13
	@ sp needed
	pop	{r4, r5, r7}
.LCFI203:
	.cfi_restore 7
	.cfi_restore 5
	.cfi_restore 4
	.cfi_def_cfa_offset 0
	bx	lr
	.cfi_endproc
.LFE1027:
	.size	_cyhal_clock_extract_pll_params, .-_cyhal_clock_extract_pll_params
	.section	.text._cyhal_clock_set_enabled_pll,"ax",%progbits
	.align	1
	.syntax unified
	.thumb
	.thumb_func
	.type	_cyhal_clock_set_enabled_pll, %function
_cyhal_clock_set_enabled_pll:
.LFB1028:
	.loc 3 1586 1
	.cfi_startproc
	@ args = 0, pretend = 0, frame = 80
	@ frame_needed = 1, uses_anonymous_args = 0
	push	{r4, r5, r7, r8, r9, r10, fp, lr}
.LCFI204:
	.cfi_def_cfa_offset 32
	.cfi_offset 4, -32
	.cfi_offset 5, -28
	.cfi_offset 7, -24
	.cfi_offset 8, -20
	.cfi_offset 9, -16
	.cfi_offset 10, -12
	.cfi_offset 11, -8
	.cfi_offset 14, -4
	sub	sp, sp, #88
.LCFI205:
	.cfi_def_cfa_offset 120
	add	r7, sp, #8
.LCFI206:
	.cfi_def_cfa 7, 112
	str	r0, [r7, #20]
	mov	r3, r1
	strb	r3, [r7, #19]
	mov	r3, r2
	strb	r3, [r7, #18]
	.loc 3 1591 29
	ldr	r3, [r7, #20]
	ldrb	r3, [r3, #1]	@ zero_extendqisi2
	.loc 3 1591 39
	adds	r3, r3, #1
	.loc 3 1591 14
	str	r3, [r7, #64]
	.loc 3 1599 22
	add	r3, r7, #44
	mov	r1, r3
	ldr	r0, [r7, #64]
	bl	Cy_SysClk_PllGetConfiguration
	str	r0, [r7, #76]
	.loc 3 1600 8
	ldr	r3, [r7, #76]
	cmp	r3, #0
	bne	.L173
.LBB7:
	.loc 3 1603 34
	movs	r0, #0
	bl	Cy_SysClk_ClkHfGetDivider
	mov	r3, r0
	.loc 3 1603 18
	str	r3, [r7, #60]
	.loc 3 1604 29
	ldr	r0, [r7, #64]
	bl	Cy_SysClk_ClkPathMuxGetFrequency
	str	r0, [r7, #56]
	.loc 3 1606 18
	mov	r2, #0
	mov	r3, #0
	strd	r2, [r7, #32]
	.loc 3 1607 18
	movs	r3, #0
	str	r3, [r7, #28]
	.loc 3 1608 18
	movs	r3, #0
	str	r3, [r7, #24]
	.loc 3 1609 9
	add	r0, r7, #28
	add	r2, r7, #32
	add	r1, r7, #44
	add	r3, r7, #24
	str	r3, [sp]
	mov	r3, r0
	ldr	r0, [r7, #20]
	bl	_cyhal_clock_extract_pll_params
	.loc 3 1611 32
	ldr	r3, [r7, #56]
	movs	r2, #0
	mov	r8, r3
	mov	r9, r2
	.loc 3 1611 51
	ldrd	r2, [r7, #32]
	mul	r0, r2, r9
	mul	r1, r8, r3
	add	r1, r1, r0
	umull	r4, r5, r8, r2
	adds	r3, r1, r5
	mov	r5, r3
	.loc 3 1611 83
	ldr	r3, [r7, #28]
	ldr	r2, [r7, #24]
	mul	r3, r2, r3
	.loc 3 1611 96
	lsrs	r3, r3, #1
	movs	r2, #0
	mov	r10, r3
	mov	fp, r2
	.loc 3 1611 66
	adds	r3, r4, r10
	str	r3, [r7, #8]
	adc	r3, r5, fp
	str	r3, [r7, #12]
	.loc 3 1611 119
	ldr	r3, [r7, #28]
	ldr	r2, [r7, #24]
	mul	r3, r2, r3
	movs	r2, #0
	str	r3, [r7]
	str	r2, [r7, #4]
	.loc 3 1611 103
	ldrd	r2, [r7]
	ldrd	r0, [r7, #8]
	bl	__aeabi_uldivmod
	mov	r2, r0
	mov	r3, r1
	.loc 3 1611 18
	mov	r3, r2
	str	r3, [r7, #52]
	.loc 3 1613 12
	ldrb	r3, [r7, #19]	@ zero_extendqisi2
	cmp	r3, #0
	beq	.L174
	.loc 3 1615 22
	ldr	r2, [r7, #52]
	ldr	r3, [r7, #60]
	lsr	r3, r2, r3
	str	r3, [r7, #72]
	.loc 3 1616 22
	ldr	r2, [r7, #56]
	ldr	r3, [r7, #60]
	lsr	r3, r2, r3
	str	r3, [r7, #68]
	b	.L175
.L174:
	.loc 3 1620 22
	ldr	r2, [r7, #56]
	ldr	r3, [r7, #60]
	lsr	r3, r2, r3
	str	r3, [r7, #72]
	.loc 3 1621 22
	ldr	r2, [r7, #52]
	ldr	r3, [r7, #60]
	lsr	r3, r2, r3
	str	r3, [r7, #68]
.L175:
	.loc 3 1624 53
	movs	r0, #0
	bl	Cy_SysClk_ClkHfGetSource
	mov	r3, r0
	.loc 3 1624 43
	mov	r2, r3
	.loc 3 1624 13
	ldr	r3, [r7, #64]
	cmp	r3, r2
	ite	eq
	moveq	r3, #1
	movne	r3, #0
	strb	r3, [r7, #51]
	.loc 3 1625 12
	ldrb	r3, [r7, #51]	@ zero_extendqisi2
	cmp	r3, #0
	beq	.L176
	.loc 3 1626 13
	ldr	r2, [r7, #72]
	ldr	r1, [r7, #68]
	movs	r0, #1
	bl	_cyhal_clock_update_system_state
.L176:
	.loc 3 1630 13
	ldrb	r3, [r7, #19]	@ zero_extendqisi2
	cmp	r3, #0
	beq	.L177
	.loc 3 1629 15
	ldrb	r3, [r7, #18]	@ zero_extendqisi2
	cmp	r3, #0
	beq	.L178
	.loc 3 1629 15 is_stmt 0 discriminator 1
	movw	r3, #10000
	b	.L179
.L178:
	.loc 3 1629 15 discriminator 2
	movs	r3, #0
.L179:
	.loc 3 1629 15 discriminator 4
	mov	r1, r3
	ldr	r0, [r7, #64]
	bl	Cy_SysClk_PllEnable
	mov	r3, r0
	b	.L180
.L177:
	.loc 3 1630 15 is_stmt 1 discriminator 1
	ldr	r0, [r7, #64]
	bl	Cy_SysClk_PllDisable
	mov	r3, r0
.L180:
	.loc 3 1628 14
	str	r3, [r7, #76]
	.loc 3 1632 12
	ldrb	r3, [r7, #51]	@ zero_extendqisi2
	cmp	r3, #0
	beq	.L173
	.loc 3 1634 16
	ldr	r3, [r7, #76]
	cmp	r3, #0
	bne	.L182
	.loc 3 1635 17
	ldr	r2, [r7, #72]
	ldr	r1, [r7, #68]
	movs	r0, #0
	bl	_cyhal_clock_update_system_state
	b	.L173
.L182:
	.loc 3 1637 17
	ldr	r2, [r7, #68]
	ldr	r1, [r7, #72]
	movs	r0, #0
	bl	_cyhal_clock_update_system_state
.L173:
.LBE7:
	.loc 3 1641 12
	ldr	r3, [r7, #76]
	.loc 3 1642 1
	mov	r0, r3
	adds	r7, r7, #80
.LCFI207:
	.cfi_def_cfa_offset 32
	mov	sp, r7
.LCFI208:
	.cfi_def_cfa_register 13
	@ sp needed
	pop	{r4, r5, r7, r8, r9, r10, fp, pc}
	.cfi_endproc
.LFE1028:
	.size	_cyhal_clock_set_enabled_pll, .-_cyhal_clock_set_enabled_pll
	.section	.text._cyhal_clock_get_frequency_pll,"ax",%progbits
	.align	1
	.syntax unified
	.thumb
	.thumb_func
	.type	_cyhal_clock_get_frequency_pll, %function
_cyhal_clock_get_frequency_pll:
.LFB1029:
	.loc 3 1644 1
	.cfi_startproc
	@ args = 0, pretend = 0, frame = 8
	@ frame_needed = 1, uses_anonymous_args = 0
	push	{r7, lr}
.LCFI209:
	.cfi_def_cfa_offset 8
	.cfi_offset 7, -8
	.cfi_offset 14, -4
	sub	sp, sp, #8
.LCFI210:
	.cfi_def_cfa_offset 16
	add	r7, sp, #0
.LCFI211:
	.cfi_def_cfa_register 7
	str	r0, [r7, #4]
	.loc 3 1651 47
	ldr	r3, [r7, #4]
	ldrb	r3, [r3, #1]	@ zero_extendqisi2
	.loc 3 1651 57
	adds	r3, r3, #1
	.loc 3 1651 12
	mov	r0, r3
	bl	Cy_SysClk_ClkPathGetFrequency
	mov	r3, r0
	.loc 3 1652 1
	mov	r0, r3
	adds	r7, r7, #8
.LCFI212:
	.cfi_def_cfa_offset 8
	mov	sp, r7
.LCFI213:
	.cfi_def_cfa_register 13
	@ sp needed
	pop	{r7, pc}
	.cfi_endproc
.LFE1029:
	.size	_cyhal_clock_get_frequency_pll, .-_cyhal_clock_get_frequency_pll
	.section	.text._cyhal_clock_set_frequency_pll,"ax",%progbits
	.align	1
	.syntax unified
	.thumb
	.thumb_func
	.type	_cyhal_clock_set_frequency_pll, %function
_cyhal_clock_set_frequency_pll:
.LFB1030:
	.loc 3 1654 1
	.cfi_startproc
	@ args = 0, pretend = 0, frame = 112
	@ frame_needed = 1, uses_anonymous_args = 0
	push	{r4, r5, r7, r8, r9, r10, fp, lr}
.LCFI214:
	.cfi_def_cfa_offset 32
	.cfi_offset 4, -32
	.cfi_offset 5, -28
	.cfi_offset 7, -24
	.cfi_offset 8, -20
	.cfi_offset 9, -16
	.cfi_offset 10, -12
	.cfi_offset 11, -8
	.cfi_offset 14, -4
	sub	sp, sp, #120
.LCFI215:
	.cfi_def_cfa_offset 152
	add	r7, sp, #8
.LCFI216:
	.cfi_def_cfa 7, 144
	str	r0, [r7, #28]
	str	r1, [r7, #24]
	str	r2, [r7, #20]
	.loc 3 1658 28
	ldr	r3, [r7, #28]
	ldrb	r3, [r3, #1]	@ zero_extendqisi2
	.loc 3 1658 13
	adds	r3, r3, #1
	strb	r3, [r7, #107]
	.loc 3 1665 22
	ldrb	r3, [r7, #107]	@ zero_extendqisi2
	add	r2, r7, #64
	mov	r1, r2
	mov	r0, r3
	bl	Cy_SysClk_PllGetConfiguration
	str	r0, [r7, #108]
	.loc 3 1666 8
	ldr	r3, [r7, #108]
	cmp	r3, #0
	bne	.L187
.LBB8:
	.loc 3 1668 23
	ldrb	r3, [r7, #107]	@ zero_extendqisi2
	mov	r0, r3
	bl	Cy_SysClk_PllIsEnabled
	mov	r3, r0
	strb	r3, [r7, #106]
	.loc 3 1669 12
	ldrb	r3, [r7, #106]	@ zero_extendqisi2
	cmp	r3, #0
	beq	.L188
	.loc 3 1670 20
	ldrb	r3, [r7, #107]	@ zero_extendqisi2
	mov	r0, r3
	bl	Cy_SysClk_PllDisable
	str	r0, [r7, #108]
.L188:
	.loc 3 1671 12
	ldr	r3, [r7, #108]
	cmp	r3, #0
	bne	.L187
.LBB9:
	.loc 3 1673 33
	ldrb	r3, [r7, #107]	@ zero_extendqisi2
	mov	r0, r3
	bl	Cy_SysClk_ClkPathMuxGetFrequency
	str	r0, [r7, #100]
	.loc 3 1675 22
	mov	r2, #0
	mov	r3, #0
	strd	r2, [r7, #56]
	.loc 3 1676 22
	movs	r3, #0
	str	r3, [r7, #52]
	.loc 3 1677 22
	movs	r3, #0
	str	r3, [r7, #48]
	.loc 3 1678 13
	add	r0, r7, #52
	add	r2, r7, #56
	add	r1, r7, #64
	add	r3, r7, #48
	str	r3, [sp]
	mov	r3, r0
	ldr	r0, [r7, #28]
	bl	_cyhal_clock_extract_pll_params
	.loc 3 1680 36
	ldr	r3, [r7, #100]
	movs	r2, #0
	mov	r8, r3
	mov	r9, r2
	.loc 3 1680 55
	ldrd	r2, [r7, #56]
	mul	r0, r2, r9
	mul	r1, r8, r3
	add	r1, r1, r0
	umull	r4, r5, r8, r2
	adds	r3, r1, r5
	mov	r5, r3
	.loc 3 1680 87
	ldr	r3, [r7, #52]
	ldr	r2, [r7, #48]
	mul	r3, r2, r3
	.loc 3 1680 100
	lsrs	r3, r3, #1
	movs	r2, #0
	mov	r10, r3
	mov	fp, r2
	.loc 3 1680 70
	adds	r3, r4, r10
	str	r3, [r7, #8]
	adc	r3, r5, fp
	str	r3, [r7, #12]
	.loc 3 1680 123
	ldr	r3, [r7, #52]
	ldr	r2, [r7, #48]
	mul	r3, r2, r3
	movs	r2, #0
	str	r3, [r7]
	str	r2, [r7, #4]
	.loc 3 1680 107
	ldrd	r2, [r7]
	ldrd	r0, [r7, #8]
	bl	__aeabi_uldivmod
	mov	r2, r0
	mov	r3, r1
	.loc 3 1680 22
	mov	r3, r2
	str	r3, [r7, #96]
	.loc 3 1682 38
	movs	r0, #0
	bl	Cy_SysClk_ClkHfGetDivider
	mov	r3, r0
	.loc 3 1682 22
	str	r3, [r7, #92]
	.loc 3 1683 22
	ldr	r2, [r7, #96]
	ldr	r3, [r7, #92]
	lsr	r3, r2, r3
	str	r3, [r7, #88]
	.loc 3 1684 22
	ldr	r2, [r7, #24]
	ldr	r3, [r7, #92]
	lsr	r3, r2, r3
	str	r3, [r7, #84]
	.loc 3 1686 57
	movs	r0, #0
	bl	Cy_SysClk_ClkHfGetSource
	mov	r3, r0
	mov	r2, r3
	.loc 3 1686 17
	ldrb	r3, [r7, #107]	@ zero_extendqisi2
	cmp	r3, r2
	ite	eq
	moveq	r3, #1
	movne	r3, #0
	strb	r3, [r7, #83]
	.loc 3 1687 16
	ldrb	r3, [r7, #83]	@ zero_extendqisi2
	cmp	r3, #0
	beq	.L189
	.loc 3 1688 17
	ldr	r2, [r7, #84]
	ldr	r1, [r7, #88]
	movs	r0, #1
	bl	_cyhal_clock_update_system_state
.L189:
	.loc 3 1690 33
	ldrb	r3, [r7, #107]	@ zero_extendqisi2
	mov	r0, r3
	bl	Cy_SysClk_ClkPathMuxGetFrequency
	str	r0, [r7, #76]
	.loc 3 1691 33
	ldr	r3, [r7, #76]
	str	r3, [r7, #36]
	ldr	r3, [r7, #24]
	str	r3, [r7, #40]
	movs	r3, #0
	strb	r3, [r7, #44]
	movs	r3, #0
	strb	r3, [r7, #45]
	.loc 3 1698 20
	ldrb	r3, [r7, #107]	@ zero_extendqisi2
	add	r2, r7, #36
	mov	r1, r2
	mov	r0, r3
	bl	Cy_SysClk_PllConfigure
	str	r0, [r7, #108]
	.loc 3 1700 16
	ldrb	r3, [r7, #106]	@ zero_extendqisi2
	cmp	r3, #0
	beq	.L190
.LBB10:
	.loc 3 1702 35
	ldrb	r3, [r7, #107]	@ zero_extendqisi2
	movw	r1, #10000
	mov	r0, r3
	bl	Cy_SysClk_PllEnable
	str	r0, [r7, #72]
	.loc 3 1703 20
	ldr	r3, [r7, #108]
	cmp	r3, #0
	bne	.L190
	.loc 3 1704 26
	ldr	r3, [r7, #72]
	str	r3, [r7, #108]
.L190:
.LBE10:
	.loc 3 1707 16
	ldrb	r3, [r7, #83]	@ zero_extendqisi2
	cmp	r3, #0
	beq	.L187
	.loc 3 1709 20
	ldr	r3, [r7, #108]
	cmp	r3, #0
	bne	.L192
	.loc 3 1710 21
	ldr	r2, [r7, #84]
	ldr	r1, [r7, #88]
	movs	r0, #0
	bl	_cyhal_clock_update_system_state
	b	.L187
.L192:
	.loc 3 1712 21
	ldr	r2, [r7, #88]
	ldr	r1, [r7, #84]
	movs	r0, #0
	bl	_cyhal_clock_update_system_state
.L187:
.LBE9:
.LBE8:
	.loc 3 1717 12
	ldr	r3, [r7, #108]
	.loc 3 1718 1
	mov	r0, r3
	adds	r7, r7, #112
.LCFI217:
	.cfi_def_cfa_offset 32
	mov	sp, r7
.LCFI218:
	.cfi_def_cfa_register 13
	@ sp needed
	pop	{r4, r5, r7, r8, r9, r10, fp, pc}
	.cfi_endproc
.LFE1030:
	.size	_cyhal_clock_set_frequency_pll, .-_cyhal_clock_set_frequency_pll
	.section	.text._cyhal_clock_get_sources_pll,"ax",%progbits
	.align	1
	.syntax unified
	.thumb
	.thumb_func
	.type	_cyhal_clock_get_sources_pll, %function
_cyhal_clock_get_sources_pll:
.LFB1031:
	.loc 3 1720 1
	.cfi_startproc
	@ args = 0, pretend = 0, frame = 16
	@ frame_needed = 1, uses_anonymous_args = 0
	@ link register save eliminated.
	push	{r7}
.LCFI219:
	.cfi_def_cfa_offset 4
	.cfi_offset 7, -4
	sub	sp, sp, #20
.LCFI220:
	.cfi_def_cfa_offset 24
	add	r7, sp, #0
.LCFI221:
	.cfi_def_cfa_register 7
	str	r0, [r7, #12]
	str	r1, [r7, #8]
	str	r2, [r7, #4]
	.loc 3 1731 55
	ldr	r3, [r7, #12]
	ldrb	r3, [r3, #1]	@ zero_extendqisi2
	.loc 3 1731 48
	adds	r3, r3, #4
	.loc 3 1731 16
	lsls	r3, r3, #2
	ldr	r2, .L196
	add	r2, r2, r3
	.loc 3 1731 14
	ldr	r3, [r7, #8]
	str	r2, [r3]
	.loc 3 1735 12
	ldr	r3, [r7, #4]
	movs	r2, #1
	str	r2, [r3]
	.loc 3 1736 12
	movs	r3, #0
	.loc 3 1737 1
	mov	r0, r3
	adds	r7, r7, #20
.LCFI222:
	.cfi_def_cfa_offset 4
	mov	sp, r7
.LCFI223:
	.cfi_def_cfa_register 13
	@ sp needed
	ldr	r7, [sp], #4
.LCFI224:
	.cfi_restore 7
	.cfi_def_cfa_offset 0
	bx	lr
.L197:
	.align	2
.L196:
	.word	_CYHAL_CLOCK_SOURCE_HF
	.cfi_endproc
.LFE1031:
	.size	_cyhal_clock_get_sources_pll, .-_cyhal_clock_get_sources_pll
	.section	.text._cyhal_clock_is_enabled_hf,"ax",%progbits
	.align	1
	.syntax unified
	.thumb
	.thumb_func
	.type	_cyhal_clock_is_enabled_hf, %function
_cyhal_clock_is_enabled_hf:
.LFB1032:
	.loc 3 1866 1
	.cfi_startproc
	@ args = 0, pretend = 0, frame = 8
	@ frame_needed = 1, uses_anonymous_args = 0
	push	{r7, lr}
.LCFI225:
	.cfi_def_cfa_offset 8
	.cfi_offset 7, -8
	.cfi_offset 14, -4
	sub	sp, sp, #8
.LCFI226:
	.cfi_def_cfa_offset 16
	add	r7, sp, #0
.LCFI227:
	.cfi_def_cfa_register 7
	str	r0, [r7, #4]
	.loc 3 1867 42
	ldr	r3, [r7, #4]
	ldrb	r3, [r3, #1]	@ zero_extendqisi2
	.loc 3 1867 12
	mov	r0, r3
	bl	Cy_SysClk_ClkHfIsEnabled
	mov	r3, r0
	.loc 3 1868 1
	mov	r0, r3
	adds	r7, r7, #8
.LCFI228:
	.cfi_def_cfa_offset 8
	mov	sp, r7
.LCFI229:
	.cfi_def_cfa_register 13
	@ sp needed
	pop	{r7, pc}
	.cfi_endproc
.LFE1032:
	.size	_cyhal_clock_is_enabled_hf, .-_cyhal_clock_is_enabled_hf
	.section	.text._cyhal_clock_set_enabled_hf,"ax",%progbits
	.align	1
	.syntax unified
	.thumb
	.thumb_func
	.type	_cyhal_clock_set_enabled_hf, %function
_cyhal_clock_set_enabled_hf:
.LFB1033:
	.loc 3 1870 1
	.cfi_startproc
	@ args = 0, pretend = 0, frame = 8
	@ frame_needed = 1, uses_anonymous_args = 0
	push	{r7, lr}
.LCFI230:
	.cfi_def_cfa_offset 8
	.cfi_offset 7, -8
	.cfi_offset 14, -4
	sub	sp, sp, #8
.LCFI231:
	.cfi_def_cfa_offset 16
	add	r7, sp, #0
.LCFI232:
	.cfi_def_cfa_register 7
	str	r0, [r7, #4]
	mov	r3, r1
	strb	r3, [r7, #3]
	mov	r3, r2
	strb	r3, [r7, #2]
	.loc 3 1875 9
	ldrb	r3, [r7, #3]	@ zero_extendqisi2
	cmp	r3, #0
	beq	.L201
	.loc 3 1874 38
	ldr	r3, [r7, #4]
	ldrb	r3, [r3, #1]	@ zero_extendqisi2
	.loc 3 1874 11
	mov	r0, r3
	bl	Cy_SysClk_ClkHfEnable
	mov	r3, r0
	.loc 3 1875 9
	b	.L203
.L201:
	.loc 3 1875 39 discriminator 1
	ldr	r3, [r7, #4]
	ldrb	r3, [r3, #1]	@ zero_extendqisi2
	.loc 3 1875 11 discriminator 1
	mov	r0, r3
	bl	Cy_SysClk_ClkHfDisable
	mov	r3, r0
.L203:
	.loc 3 1876 1 discriminator 3
	mov	r0, r3
	adds	r7, r7, #8
.LCFI233:
	.cfi_def_cfa_offset 8
	mov	sp, r7
.LCFI234:
	.cfi_def_cfa_register 13
	@ sp needed
	pop	{r7, pc}
	.cfi_endproc
.LFE1033:
	.size	_cyhal_clock_set_enabled_hf, .-_cyhal_clock_set_enabled_hf
	.section	.text._cyhal_clock_get_frequency_hf,"ax",%progbits
	.align	1
	.syntax unified
	.thumb
	.thumb_func
	.type	_cyhal_clock_get_frequency_hf, %function
_cyhal_clock_get_frequency_hf:
.LFB1034:
	.loc 3 1878 1
	.cfi_startproc
	@ args = 0, pretend = 0, frame = 8
	@ frame_needed = 1, uses_anonymous_args = 0
	push	{r7, lr}
.LCFI235:
	.cfi_def_cfa_offset 8
	.cfi_offset 7, -8
	.cfi_offset 14, -4
	sub	sp, sp, #8
.LCFI236:
	.cfi_def_cfa_offset 16
	add	r7, sp, #0
.LCFI237:
	.cfi_def_cfa_register 7
	str	r0, [r7, #4]
	.loc 3 1879 45
	ldr	r3, [r7, #4]
	ldrb	r3, [r3, #1]	@ zero_extendqisi2
	.loc 3 1879 12
	mov	r0, r3
	bl	Cy_SysClk_ClkHfGetFrequency
	mov	r3, r0
	.loc 3 1880 1
	mov	r0, r3
	adds	r7, r7, #8
.LCFI238:
	.cfi_def_cfa_offset 8
	mov	sp, r7
.LCFI239:
	.cfi_def_cfa_register 13
	@ sp needed
	pop	{r7, pc}
	.cfi_endproc
.LFE1034:
	.size	_cyhal_clock_get_frequency_hf, .-_cyhal_clock_get_frequency_hf
	.section	.text._cyhal_clock_set_divider_hf,"ax",%progbits
	.align	1
	.syntax unified
	.thumb
	.thumb_func
	.type	_cyhal_clock_set_divider_hf, %function
_cyhal_clock_set_divider_hf:
.LFB1035:
	.loc 3 1882 1
	.cfi_startproc
	@ args = 0, pretend = 0, frame = 40
	@ frame_needed = 1, uses_anonymous_args = 0
	push	{r7, lr}
.LCFI240:
	.cfi_def_cfa_offset 8
	.cfi_offset 7, -8
	.cfi_offset 14, -4
	sub	sp, sp, #40
.LCFI241:
	.cfi_def_cfa_offset 48
	add	r7, sp, #0
.LCFI242:
	.cfi_def_cfa_register 7
	str	r0, [r7, #4]
	str	r1, [r7]
	.loc 3 1884 5
	ldr	r3, [r7]
	subs	r3, r3, #1
	cmp	r3, #7
	bhi	.L207
	adr	r2, .L209
	ldr	pc, [r2, r3, lsl #2]
	.p2align 2
.L209:
	.word	.L212+1
	.word	.L211+1
	.word	.L207+1
	.word	.L210+1
	.word	.L207+1
	.word	.L207+1
	.word	.L207+1
	.word	.L208+1
	.p2align 1
.L212:
	.loc 3 1887 21
	movs	r3, #0
	strb	r3, [r7, #39]
	.loc 3 1888 13
	b	.L213
.L211:
	.loc 3 1890 21
	movs	r3, #1
	strb	r3, [r7, #39]
	.loc 3 1891 13
	b	.L213
.L210:
	.loc 3 1893 21
	movs	r3, #2
	strb	r3, [r7, #39]
	.loc 3 1894 13
	b	.L213
.L208:
	.loc 3 1896 21
	movs	r3, #3
	strb	r3, [r7, #39]
	.loc 3 1897 13
	b	.L213
.L207:
	.loc 3 1899 20
	ldr	r3, .L218
	b	.L214
.L213:
	.loc 3 1903 34
	movs	r0, #0
	bl	Cy_SysClk_ClkHfGetDivider
	mov	r3, r0
	.loc 3 1903 14
	str	r3, [r7, #32]
	.loc 3 1904 30
	movs	r0, #0
	bl	Cy_SysClk_ClkHfGetSource
	mov	r3, r0
	.loc 3 1904 14
	str	r3, [r7, #28]
	.loc 3 1905 26
	ldr	r0, [r7, #28]
	bl	Cy_SysClk_ClkPathGetFrequency
	str	r0, [r7, #24]
	.loc 3 1906 14
	ldr	r2, [r7, #24]
	ldr	r3, [r7, #32]
	lsr	r3, r2, r3
	str	r3, [r7, #20]
	.loc 3 1907 39
	ldrb	r3, [r7, #39]	@ zero_extendqisi2
	.loc 3 1907 14
	ldr	r2, [r7, #24]
	lsr	r3, r2, r3
	str	r3, [r7, #16]
	.loc 3 1909 19
	ldr	r3, [r7, #4]
	ldrb	r3, [r3, #1]	@ zero_extendqisi2
	.loc 3 1909 8
	cmp	r3, #0
	bne	.L215
	.loc 3 1910 9
	ldr	r2, [r7, #16]
	ldr	r1, [r7, #20]
	movs	r0, #1
	bl	_cyhal_clock_update_system_state
.L215:
	.loc 3 1912 64
	ldr	r3, [r7, #4]
	ldrb	r3, [r3, #1]	@ zero_extendqisi2
	.loc 3 1912 33
	mov	r2, r3
	ldrb	r3, [r7, #39]	@ zero_extendqisi2
	mov	r1, r3
	mov	r0, r2
	bl	Cy_SysClk_ClkHfSetDivider
	str	r0, [r7, #12]
	.loc 3 1914 19
	ldr	r3, [r7, #4]
	ldrb	r3, [r3, #1]	@ zero_extendqisi2
	.loc 3 1914 8
	cmp	r3, #0
	bne	.L216
	.loc 3 1916 12
	ldr	r3, [r7, #12]
	cmp	r3, #0
	bne	.L217
	.loc 3 1917 13
	ldr	r2, [r7, #16]
	ldr	r1, [r7, #20]
	movs	r0, #0
	bl	_cyhal_clock_update_system_state
	b	.L216
.L217:
	.loc 3 1919 13
	ldr	r2, [r7, #20]
	ldr	r1, [r7, #16]
	movs	r0, #0
	bl	_cyhal_clock_update_system_state
.L216:
	.loc 3 1922 12
	ldr	r3, [r7, #12]
.L214:
	.loc 3 1923 1
	mov	r0, r3
	adds	r7, r7, #40
.LCFI243:
	.cfi_def_cfa_offset 8
	mov	sp, r7
.LCFI244:
	.cfi_def_cfa_register 13
	@ sp needed
	pop	{r7, pc}
.L219:
	.align	2
.L218:
	.word	67240448
	.cfi_endproc
.LFE1035:
	.size	_cyhal_clock_set_divider_hf, .-_cyhal_clock_set_divider_hf
	.section	.text._cyhal_clock_get_sources_hf,"ax",%progbits
	.align	1
	.syntax unified
	.thumb
	.thumb_func
	.type	_cyhal_clock_get_sources_hf, %function
_cyhal_clock_get_sources_hf:
.LFB1036:
	.loc 3 1925 1
	.cfi_startproc
	@ args = 0, pretend = 0, frame = 16
	@ frame_needed = 1, uses_anonymous_args = 0
	@ link register save eliminated.
	push	{r7}
.LCFI245:
	.cfi_def_cfa_offset 4
	.cfi_offset 7, -4
	sub	sp, sp, #20
.LCFI246:
	.cfi_def_cfa_offset 24
	add	r7, sp, #0
.LCFI247:
	.cfi_def_cfa_register 7
	str	r0, [r7, #12]
	str	r1, [r7, #8]
	str	r2, [r7, #4]
	.loc 3 1927 14
	ldr	r3, [r7, #8]
	ldr	r2, .L222
	str	r2, [r3]
	.loc 3 1928 12
	ldr	r3, [r7, #4]
	movs	r2, #9
	str	r2, [r3]
	.loc 3 1929 12
	movs	r3, #0
	.loc 3 1930 1
	mov	r0, r3
	adds	r7, r7, #20
.LCFI248:
	.cfi_def_cfa_offset 4
	mov	sp, r7
.LCFI249:
	.cfi_def_cfa_register 13
	@ sp needed
	ldr	r7, [sp], #4
.LCFI250:
	.cfi_restore 7
	.cfi_def_cfa_offset 0
	bx	lr
.L223:
	.align	2
.L222:
	.word	_CYHAL_CLOCK_SOURCE_HF
	.cfi_endproc
.LFE1036:
	.size	_cyhal_clock_get_sources_hf, .-_cyhal_clock_get_sources_hf
	.section	.text._cyhal_clock_set_source_hf,"ax",%progbits
	.align	1
	.syntax unified
	.thumb
	.thumb_func
	.type	_cyhal_clock_set_source_hf, %function
_cyhal_clock_set_source_hf:
.LFB1037:
	.loc 3 1932 1
	.cfi_startproc
	@ args = 0, pretend = 0, frame = 32
	@ frame_needed = 1, uses_anonymous_args = 0
	push	{r7, lr}
.LCFI251:
	.cfi_def_cfa_offset 8
	.cfi_offset 7, -8
	.cfi_offset 14, -4
	sub	sp, sp, #32
.LCFI252:
	.cfi_def_cfa_offset 40
	add	r7, sp, #0
.LCFI253:
	.cfi_def_cfa_register 7
	str	r0, [r7, #4]
	str	r1, [r7]
	.loc 3 1934 15
	ldr	r3, [r7]
	ldrb	r3, [r3]	@ zero_extendqisi2
	.loc 3 1934 8
	cmp	r3, #13
	beq	.L225
	.loc 3 1934 61 discriminator 1
	ldr	r3, [r7]
	ldrb	r3, [r3]	@ zero_extendqisi2
	.loc 3 1934 52 discriminator 1
	cmp	r3, #14
	bne	.L226
.L225:
	.loc 3 1935 25
	ldr	r3, [r7]
	ldrb	r3, [r3, #1]	@ zero_extendqisi2
	.loc 3 1935 17
	str	r3, [r7, #28]
	b	.L227
.L226:
	.loc 3 1937 20
	ldr	r3, [r7]
	ldrb	r3, [r3]	@ zero_extendqisi2
	.loc 3 1937 13
	cmp	r3, #15
	bne	.L228
	.loc 3 1944 25
	ldr	r3, [r7]
	ldrb	r3, [r3, #1]	@ zero_extendqisi2
	.loc 3 1944 35
	adds	r3, r3, #1
	.loc 3 1944 17
	str	r3, [r7, #28]
	b	.L227
.L228:
	.loc 3 1955 16
	ldr	r3, .L233
	b	.L229
.L227:
	.loc 3 1958 34
	movs	r0, #0
	bl	Cy_SysClk_ClkHfGetDivider
	mov	r3, r0
	.loc 3 1958 14
	str	r3, [r7, #24]
	.loc 3 1959 38
	movs	r0, #0
	bl	Cy_SysClk_ClkHfGetSource
	mov	r3, r0
	.loc 3 1959 14
	str	r3, [r7, #20]
	.loc 3 1960 29
	ldr	r0, [r7, #20]
	bl	Cy_SysClk_ClkPathGetFrequency
	mov	r2, r0
	.loc 3 1960 14
	ldr	r3, [r7, #24]
	lsr	r3, r2, r3
	str	r3, [r7, #16]
	.loc 3 1961 29
	ldr	r0, [r7, #28]
	bl	Cy_SysClk_ClkPathGetFrequency
	mov	r2, r0
	.loc 3 1961 14
	ldr	r3, [r7, #24]
	lsr	r3, r2, r3
	str	r3, [r7, #12]
	.loc 3 1963 19
	ldr	r3, [r7, #4]
	ldrb	r3, [r3, #1]	@ zero_extendqisi2
	.loc 3 1963 8
	cmp	r3, #0
	bne	.L230
	.loc 3 1964 9
	ldr	r2, [r7, #12]
	ldr	r1, [r7, #16]
	movs	r0, #1
	bl	_cyhal_clock_update_system_state
.L230:
	.loc 3 1966 52
	ldr	r3, [r7, #4]
	ldrb	r3, [r3, #1]	@ zero_extendqisi2
	.loc 3 1966 22
	mov	r2, r3
	ldr	r3, [r7, #28]
	uxtb	r3, r3
	mov	r1, r3
	mov	r0, r2
	bl	Cy_SysClk_ClkHfSetSource
	str	r0, [r7, #8]
	.loc 3 1968 19
	ldr	r3, [r7, #4]
	ldrb	r3, [r3, #1]	@ zero_extendqisi2
	.loc 3 1968 8
	cmp	r3, #0
	bne	.L231
	.loc 3 1970 12
	ldr	r3, [r7, #8]
	cmp	r3, #0
	bne	.L232
	.loc 3 1971 13
	ldr	r2, [r7, #12]
	ldr	r1, [r7, #16]
	movs	r0, #0
	bl	_cyhal_clock_update_system_state
	b	.L231
.L232:
	.loc 3 1973 13
	ldr	r2, [r7, #16]
	ldr	r1, [r7, #12]
	movs	r0, #0
	bl	_cyhal_clock_update_system_state
.L231:
	.loc 3 1976 12
	ldr	r3, [r7, #8]
.L229:
	.loc 3 1977 1
	mov	r0, r3
	adds	r7, r7, #32
.LCFI254:
	.cfi_def_cfa_offset 8
	mov	sp, r7
.LCFI255:
	.cfi_def_cfa_register 13
	@ sp needed
	pop	{r7, pc}
.L234:
	.align	2
.L233:
	.word	67240449
	.cfi_endproc
.LFE1037:
	.size	_cyhal_clock_set_source_hf, .-_cyhal_clock_set_source_hf
	.section	.text._cyhal_clock_get_frequency_lf,"ax",%progbits
	.align	1
	.syntax unified
	.thumb
	.thumb_func
	.type	_cyhal_clock_get_frequency_lf, %function
_cyhal_clock_get_frequency_lf:
.LFB1038:
	.loc 3 1981 1
	.cfi_startproc
	@ args = 0, pretend = 0, frame = 8
	@ frame_needed = 1, uses_anonymous_args = 0
	push	{r7, lr}
.LCFI256:
	.cfi_def_cfa_offset 8
	.cfi_offset 7, -8
	.cfi_offset 14, -4
	sub	sp, sp, #8
.LCFI257:
	.cfi_def_cfa_offset 16
	add	r7, sp, #0
.LCFI258:
	.cfi_def_cfa_register 7
	str	r0, [r7, #4]
	.loc 3 1983 12
	bl	_cyhal_clock_get_lf_frequency
	mov	r3, r0
	.loc 3 1984 1
	mov	r0, r3
	adds	r7, r7, #8
.LCFI259:
	.cfi_def_cfa_offset 8
	mov	sp, r7
.LCFI260:
	.cfi_def_cfa_register 13
	@ sp needed
	pop	{r7, pc}
	.cfi_endproc
.LFE1038:
	.size	_cyhal_clock_get_frequency_lf, .-_cyhal_clock_get_frequency_lf
	.section	.text._cyhal_clock_get_sources_lf,"ax",%progbits
	.align	1
	.syntax unified
	.thumb
	.thumb_func
	.type	_cyhal_clock_get_sources_lf, %function
_cyhal_clock_get_sources_lf:
.LFB1039:
	.loc 3 1986 1
	.cfi_startproc
	@ args = 0, pretend = 0, frame = 16
	@ frame_needed = 1, uses_anonymous_args = 0
	@ link register save eliminated.
	push	{r7}
.LCFI261:
	.cfi_def_cfa_offset 4
	.cfi_offset 7, -4
	sub	sp, sp, #20
.LCFI262:
	.cfi_def_cfa_offset 24
	add	r7, sp, #0
.LCFI263:
	.cfi_def_cfa_register 7
	str	r0, [r7, #12]
	str	r1, [r7, #8]
	str	r2, [r7, #4]
	.loc 3 2019 14
	ldr	r3, [r7, #8]
	ldr	r2, .L239
	str	r2, [r3]
	.loc 3 2020 12
	ldr	r3, [r7, #4]
	movs	r2, #2
	str	r2, [r3]
	.loc 3 2021 12
	movs	r3, #0
	.loc 3 2022 1
	mov	r0, r3
	adds	r7, r7, #20
.LCFI264:
	.cfi_def_cfa_offset 4
	mov	sp, r7
.LCFI265:
	.cfi_def_cfa_register 13
	@ sp needed
	ldr	r7, [sp], #4
.LCFI266:
	.cfi_restore 7
	.cfi_def_cfa_offset 0
	bx	lr
.L240:
	.align	2
.L239:
	.word	_CYHAL_CLOCK_SOURCE_LF.6
	.cfi_endproc
.LFE1039:
	.size	_cyhal_clock_get_sources_lf, .-_cyhal_clock_get_sources_lf
	.section	.text._cyhal_clock_set_source_lf,"ax",%progbits
	.align	1
	.syntax unified
	.thumb
	.thumb_func
	.type	_cyhal_clock_set_source_lf, %function
_cyhal_clock_set_source_lf:
.LFB1040:
	.loc 3 2024 1
	.cfi_startproc
	@ args = 0, pretend = 0, frame = 16
	@ frame_needed = 1, uses_anonymous_args = 0
	push	{r7, lr}
.LCFI267:
	.cfi_def_cfa_offset 8
	.cfi_offset 7, -8
	.cfi_offset 14, -4
	sub	sp, sp, #16
.LCFI268:
	.cfi_def_cfa_offset 24
	add	r7, sp, #0
.LCFI269:
	.cfi_def_cfa_register 7
	str	r0, [r7, #4]
	str	r1, [r7]
	.loc 3 2026 15
	movs	r3, #0
	str	r3, [r7, #12]
	.loc 3 2030 19
	ldr	r3, [r7]
	ldrb	r3, [r3]	@ zero_extendqisi2
	.loc 3 2030 5
	cmp	r3, #9
	beq	.L242
	cmp	r3, #11
	beq	.L243
	b	.L248
.L242:
	.loc 3 2041 17
	movs	r0, #0
	bl	Cy_SysClk_ClkLfSetSource
	.loc 3 2043 13
	b	.L245
.L243:
	.loc 3 2046 13
	movs	r0, #1
	bl	Cy_SysClk_ClkLfSetSource
	.loc 3 2047 13
	b	.L245
.L248:
	.loc 3 2072 17 discriminator 1
	bl	CY_HALT
	.loc 3 2073 20 discriminator 1
	ldr	r3, .L249
	str	r3, [r7, #12]
.L245:
	.loc 3 2078 12
	ldr	r3, [r7, #12]
	.loc 3 2079 1
	mov	r0, r3
	adds	r7, r7, #16
.LCFI270:
	.cfi_def_cfa_offset 8
	mov	sp, r7
.LCFI271:
	.cfi_def_cfa_register 13
	@ sp needed
	pop	{r7, pc}
.L250:
	.align	2
.L249:
	.word	67240449
	.cfi_endproc
.LFE1040:
	.size	_cyhal_clock_set_source_lf, .-_cyhal_clock_set_source_lf
	.section	.text._cyhal_clock_get_frequency_fast,"ax",%progbits
	.align	1
	.syntax unified
	.thumb
	.thumb_func
	.type	_cyhal_clock_get_frequency_fast, %function
_cyhal_clock_get_frequency_fast:
.LFB1041:
	.loc 3 2084 1
	.cfi_startproc
	@ args = 0, pretend = 0, frame = 8
	@ frame_needed = 1, uses_anonymous_args = 0
	push	{r7, lr}
.LCFI272:
	.cfi_def_cfa_offset 8
	.cfi_offset 7, -8
	.cfi_offset 14, -4
	sub	sp, sp, #8
.LCFI273:
	.cfi_def_cfa_offset 16
	add	r7, sp, #0
.LCFI274:
	.cfi_def_cfa_register 7
	str	r0, [r7, #4]
	.loc 3 2087 12
	bl	Cy_SysClk_ClkFastGetFrequency
	mov	r3, r0
	.loc 3 2091 1
	mov	r0, r3
	adds	r7, r7, #8
.LCFI275:
	.cfi_def_cfa_offset 8
	mov	sp, r7
.LCFI276:
	.cfi_def_cfa_register 13
	@ sp needed
	pop	{r7, pc}
	.cfi_endproc
.LFE1041:
	.size	_cyhal_clock_get_frequency_fast, .-_cyhal_clock_get_frequency_fast
	.section	.text._cyhal_clock_set_frequency_fast,"ax",%progbits
	.align	1
	.syntax unified
	.thumb
	.thumb_func
	.type	_cyhal_clock_set_frequency_fast, %function
_cyhal_clock_set_frequency_fast:
.LFB1042:
	.loc 3 2093 1
	.cfi_startproc
	@ args = 0, pretend = 0, frame = 32
	@ frame_needed = 1, uses_anonymous_args = 0
	push	{r4, r5, r7, lr}
.LCFI277:
	.cfi_def_cfa_offset 16
	.cfi_offset 4, -16
	.cfi_offset 5, -12
	.cfi_offset 7, -8
	.cfi_offset 14, -4
	sub	sp, sp, #40
.LCFI278:
	.cfi_def_cfa_offset 56
	add	r7, sp, #8
.LCFI279:
	.cfi_def_cfa 7, 48
	str	r0, [r7, #12]
	str	r1, [r7, #8]
	str	r2, [r7, #4]
	.loc 3 2099 25
	movs	r0, #0
	bl	Cy_SysClk_ClkHfGetFrequency
	str	r0, [r7, #28]
	.loc 3 2100 12
	ldr	r3, [r7, #28]
	movs	r2, #0
	mov	r4, r3
	mov	r5, r2
	add	r3, r7, #20
	str	r3, [sp, #4]
	ldr	r3, [r7, #4]
	str	r3, [sp]
	movs	r3, #8
	ldr	r2, [r7, #8]
	mov	r0, r4
	mov	r1, r5
	bl	_cyhal_clock_compute_div
	str	r0, [r7, #24]
	.loc 3 2106 8
	ldr	r3, [r7, #24]
	cmp	r3, #0
	bne	.L254
	.loc 3 2109 9
	ldr	r3, [r7, #20]
	uxtb	r3, r3
	subs	r3, r3, #1
	uxtb	r3, r3
	mov	r0, r3
	bl	Cy_SysClk_ClkFastSetDivider
	.loc 3 2116 9
	bl	SystemCoreClockUpdate
.L254:
	.loc 3 2118 12
	ldr	r3, [r7, #24]
	.loc 3 2119 1
	mov	r0, r3
	adds	r7, r7, #32
.LCFI280:
	.cfi_def_cfa_offset 16
	mov	sp, r7
.LCFI281:
	.cfi_def_cfa_register 13
	@ sp needed
	pop	{r4, r5, r7, pc}
	.cfi_endproc
.LFE1042:
	.size	_cyhal_clock_set_frequency_fast, .-_cyhal_clock_set_frequency_fast
	.section	.text._cyhal_clock_set_divider_fast,"ax",%progbits
	.align	1
	.syntax unified
	.thumb
	.thumb_func
	.type	_cyhal_clock_set_divider_fast, %function
_cyhal_clock_set_divider_fast:
.LFB1043:
	.loc 3 2121 1
	.cfi_startproc
	@ args = 0, pretend = 0, frame = 16
	@ frame_needed = 1, uses_anonymous_args = 0
	push	{r7, lr}
.LCFI282:
	.cfi_def_cfa_offset 8
	.cfi_offset 7, -8
	.cfi_offset 14, -4
	sub	sp, sp, #16
.LCFI283:
	.cfi_def_cfa_offset 24
	add	r7, sp, #0
.LCFI284:
	.cfi_def_cfa_register 7
	str	r0, [r7, #4]
	str	r1, [r7]
	.loc 3 2124 8
	ldr	r3, [r7]
	cmp	r3, #256
	bhi	.L257
.LBB11:
	.loc 3 2126 18
	ldr	r3, [r7]
	subs	r3, r3, #1
	str	r3, [r7, #12]
	.loc 3 2128 9
	ldr	r3, [r7, #12]
	uxtb	r3, r3
	mov	r0, r3
	bl	Cy_SysClk_ClkFastSetDivider
	.loc 3 2132 9
	bl	SystemCoreClockUpdate
	.loc 3 2133 16
	movs	r3, #0
	b	.L258
.L257:
.LBE11:
	.loc 3 2135 12
	ldr	r3, .L259
.L258:
	.loc 3 2136 1
	mov	r0, r3
	adds	r7, r7, #16
.LCFI285:
	.cfi_def_cfa_offset 8
	mov	sp, r7
.LCFI286:
	.cfi_def_cfa_register 13
	@ sp needed
	pop	{r7, pc}
.L260:
	.align	2
.L259:
	.word	67240448
	.cfi_endproc
.LFE1043:
	.size	_cyhal_clock_set_divider_fast, .-_cyhal_clock_set_divider_fast
	.section	.text._cyhal_clock_get_sources_fast,"ax",%progbits
	.align	1
	.syntax unified
	.thumb
	.thumb_func
	.type	_cyhal_clock_get_sources_fast, %function
_cyhal_clock_get_sources_fast:
.LFB1044:
	.loc 3 2138 1
	.cfi_startproc
	@ args = 0, pretend = 0, frame = 16
	@ frame_needed = 1, uses_anonymous_args = 0
	@ link register save eliminated.
	push	{r7}
.LCFI287:
	.cfi_def_cfa_offset 4
	.cfi_offset 7, -4
	sub	sp, sp, #20
.LCFI288:
	.cfi_def_cfa_offset 24
	add	r7, sp, #0
.LCFI289:
	.cfi_def_cfa_register 7
	str	r0, [r7, #12]
	str	r1, [r7, #8]
	str	r2, [r7, #4]
	.loc 3 2150 14
	ldr	r3, [r7, #8]
	ldr	r2, .L263
	str	r2, [r3]
	.loc 3 2151 12
	ldr	r3, [r7, #4]
	movs	r2, #1
	str	r2, [r3]
	.loc 3 2152 12
	movs	r3, #0
	.loc 3 2153 1
	mov	r0, r3
	adds	r7, r7, #20
.LCFI290:
	.cfi_def_cfa_offset 4
	mov	sp, r7
.LCFI291:
	.cfi_def_cfa_register 13
	@ sp needed
	ldr	r7, [sp], #4
.LCFI292:
	.cfi_restore 7
	.cfi_def_cfa_offset 0
	bx	lr
.L264:
	.align	2
.L263:
	.word	_CYHAL_CLOCK_SOURCE_FAST.5
	.cfi_endproc
.LFE1044:
	.size	_cyhal_clock_get_sources_fast, .-_cyhal_clock_get_sources_fast
	.section	.text._cyhal_clock_get_frequency_slow,"ax",%progbits
	.align	1
	.syntax unified
	.thumb
	.thumb_func
	.type	_cyhal_clock_get_frequency_slow, %function
_cyhal_clock_get_frequency_slow:
.LFB1045:
	.loc 3 2157 1
	.cfi_startproc
	@ args = 0, pretend = 0, frame = 8
	@ frame_needed = 1, uses_anonymous_args = 0
	push	{r7, lr}
.LCFI293:
	.cfi_def_cfa_offset 8
	.cfi_offset 7, -8
	.cfi_offset 14, -4
	sub	sp, sp, #8
.LCFI294:
	.cfi_def_cfa_offset 16
	add	r7, sp, #0
.LCFI295:
	.cfi_def_cfa_register 7
	str	r0, [r7, #4]
	.loc 3 2159 12
	bl	Cy_SysClk_ClkSlowGetFrequency
	mov	r3, r0
	.loc 3 2160 1
	mov	r0, r3
	adds	r7, r7, #8
.LCFI296:
	.cfi_def_cfa_offset 8
	mov	sp, r7
.LCFI297:
	.cfi_def_cfa_register 13
	@ sp needed
	pop	{r7, pc}
	.cfi_endproc
.LFE1045:
	.size	_cyhal_clock_get_frequency_slow, .-_cyhal_clock_get_frequency_slow
	.section	.text._cyhal_clock_set_frequency_slow,"ax",%progbits
	.align	1
	.syntax unified
	.thumb
	.thumb_func
	.type	_cyhal_clock_set_frequency_slow, %function
_cyhal_clock_set_frequency_slow:
.LFB1046:
	.loc 3 2162 1
	.cfi_startproc
	@ args = 0, pretend = 0, frame = 32
	@ frame_needed = 1, uses_anonymous_args = 0
	push	{r4, r5, r7, lr}
.LCFI298:
	.cfi_def_cfa_offset 16
	.cfi_offset 4, -16
	.cfi_offset 5, -12
	.cfi_offset 7, -8
	.cfi_offset 14, -4
	sub	sp, sp, #40
.LCFI299:
	.cfi_def_cfa_offset 56
	add	r7, sp, #8
.LCFI300:
	.cfi_def_cfa 7, 48
	str	r0, [r7, #12]
	str	r1, [r7, #8]
	str	r2, [r7, #4]
	.loc 3 2166 25
	bl	Cy_SysClk_ClkPeriGetFrequency
	str	r0, [r7, #28]
	.loc 3 2167 22
	ldr	r3, [r7, #28]
	movs	r2, #0
	mov	r4, r3
	mov	r5, r2
	add	r3, r7, #20
	str	r3, [sp, #4]
	ldr	r3, [r7, #4]
	str	r3, [sp]
	movs	r3, #8
	ldr	r2, [r7, #8]
	mov	r0, r4
	mov	r1, r5
	bl	_cyhal_clock_compute_div
	str	r0, [r7, #24]
	.loc 3 2169 8
	ldr	r3, [r7, #24]
	cmp	r3, #0
	bne	.L268
	.loc 3 2171 9
	ldr	r3, [r7, #20]
	uxtb	r3, r3
	subs	r3, r3, #1
	uxtb	r3, r3
	mov	r0, r3
	bl	Cy_SysClk_ClkSlowSetDivider
	.loc 3 2172 9
	bl	SystemCoreClockUpdate
.L268:
	.loc 3 2175 12
	ldr	r3, [r7, #24]
	.loc 3 2176 1
	mov	r0, r3
	adds	r7, r7, #32
.LCFI301:
	.cfi_def_cfa_offset 16
	mov	sp, r7
.LCFI302:
	.cfi_def_cfa_register 13
	@ sp needed
	pop	{r4, r5, r7, pc}
	.cfi_endproc
.LFE1046:
	.size	_cyhal_clock_set_frequency_slow, .-_cyhal_clock_set_frequency_slow
	.section	.text._cyhal_clock_set_divider_slow,"ax",%progbits
	.align	1
	.syntax unified
	.thumb
	.thumb_func
	.type	_cyhal_clock_set_divider_slow, %function
_cyhal_clock_set_divider_slow:
.LFB1047:
	.loc 3 2178 1
	.cfi_startproc
	@ args = 0, pretend = 0, frame = 16
	@ frame_needed = 1, uses_anonymous_args = 0
	push	{r7, lr}
.LCFI303:
	.cfi_def_cfa_offset 8
	.cfi_offset 7, -8
	.cfi_offset 14, -4
	sub	sp, sp, #16
.LCFI304:
	.cfi_def_cfa_offset 24
	add	r7, sp, #0
.LCFI305:
	.cfi_def_cfa_register 7
	str	r0, [r7, #4]
	str	r1, [r7]
	.loc 3 2181 8
	ldr	r3, [r7]
	cmp	r3, #256
	bhi	.L271
.LBB12:
	.loc 3 2183 18
	ldr	r3, [r7]
	subs	r3, r3, #1
	str	r3, [r7, #12]
	.loc 3 2184 9
	ldr	r3, [r7, #12]
	uxtb	r3, r3
	mov	r0, r3
	bl	Cy_SysClk_ClkSlowSetDivider
	.loc 3 2185 9
	bl	SystemCoreClockUpdate
	.loc 3 2186 16
	movs	r3, #0
	b	.L272
.L271:
.LBE12:
	.loc 3 2188 12
	ldr	r3, .L273
.L272:
	.loc 3 2189 1
	mov	r0, r3
	adds	r7, r7, #16
.LCFI306:
	.cfi_def_cfa_offset 8
	mov	sp, r7
.LCFI307:
	.cfi_def_cfa_register 13
	@ sp needed
	pop	{r7, pc}
.L274:
	.align	2
.L273:
	.word	67240448
	.cfi_endproc
.LFE1047:
	.size	_cyhal_clock_set_divider_slow, .-_cyhal_clock_set_divider_slow
	.section	.text._cyhal_clock_get_sources_slow,"ax",%progbits
	.align	1
	.syntax unified
	.thumb
	.thumb_func
	.type	_cyhal_clock_get_sources_slow, %function
_cyhal_clock_get_sources_slow:
.LFB1048:
	.loc 3 2191 1
	.cfi_startproc
	@ args = 0, pretend = 0, frame = 16
	@ frame_needed = 1, uses_anonymous_args = 0
	@ link register save eliminated.
	push	{r7}
.LCFI308:
	.cfi_def_cfa_offset 4
	.cfi_offset 7, -4
	sub	sp, sp, #20
.LCFI309:
	.cfi_def_cfa_offset 24
	add	r7, sp, #0
.LCFI310:
	.cfi_def_cfa_register 7
	str	r0, [r7, #12]
	str	r1, [r7, #8]
	str	r2, [r7, #4]
	.loc 3 2202 14
	ldr	r3, [r7, #8]
	ldr	r2, .L277
	str	r2, [r3]
	.loc 3 2203 12
	ldr	r3, [r7, #4]
	movs	r2, #1
	str	r2, [r3]
	.loc 3 2204 12
	movs	r3, #0
	.loc 3 2205 1
	mov	r0, r3
	adds	r7, r7, #20
.LCFI311:
	.cfi_def_cfa_offset 4
	mov	sp, r7
.LCFI312:
	.cfi_def_cfa_register 13
	@ sp needed
	ldr	r7, [sp], #4
.LCFI313:
	.cfi_restore 7
	.cfi_def_cfa_offset 0
	bx	lr
.L278:
	.align	2
.L277:
	.word	_CYHAL_CLOCK_SOURCE_SLOW.4
	.cfi_endproc
.LFE1048:
	.size	_cyhal_clock_get_sources_slow, .-_cyhal_clock_get_sources_slow
	.section	.text._cyhal_clock_get_frequency_peri,"ax",%progbits
	.align	1
	.syntax unified
	.thumb
	.thumb_func
	.type	_cyhal_clock_get_frequency_peri, %function
_cyhal_clock_get_frequency_peri:
.LFB1049:
	.loc 3 2307 1
	.cfi_startproc
	@ args = 0, pretend = 0, frame = 8
	@ frame_needed = 1, uses_anonymous_args = 0
	push	{r7, lr}
.LCFI314:
	.cfi_def_cfa_offset 8
	.cfi_offset 7, -8
	.cfi_offset 14, -4
	sub	sp, sp, #8
.LCFI315:
	.cfi_def_cfa_offset 16
	add	r7, sp, #0
.LCFI316:
	.cfi_def_cfa_register 7
	str	r0, [r7, #4]
	.loc 3 2314 16
	bl	Cy_SysClk_ClkPeriGetFrequency
	mov	r3, r0
	.loc 3 2327 1
	mov	r0, r3
	adds	r7, r7, #8
.LCFI317:
	.cfi_def_cfa_offset 8
	mov	sp, r7
.LCFI318:
	.cfi_def_cfa_register 13
	@ sp needed
	pop	{r7, pc}
	.cfi_endproc
.LFE1049:
	.size	_cyhal_clock_get_frequency_peri, .-_cyhal_clock_get_frequency_peri
	.section	.text._cyhal_clock_set_frequency_peri,"ax",%progbits
	.align	1
	.syntax unified
	.thumb
	.thumb_func
	.type	_cyhal_clock_set_frequency_peri, %function
_cyhal_clock_set_frequency_peri:
.LFB1050:
	.loc 3 2329 1
	.cfi_startproc
	@ args = 0, pretend = 0, frame = 32
	@ frame_needed = 1, uses_anonymous_args = 0
	push	{r4, r5, r7, lr}
.LCFI319:
	.cfi_def_cfa_offset 16
	.cfi_offset 4, -16
	.cfi_offset 5, -12
	.cfi_offset 7, -8
	.cfi_offset 14, -4
	sub	sp, sp, #40
.LCFI320:
	.cfi_def_cfa_offset 56
	add	r7, sp, #8
.LCFI321:
	.cfi_def_cfa 7, 48
	str	r0, [r7, #12]
	str	r1, [r7, #8]
	str	r2, [r7, #4]
.LBB13:
	.loc 3 2339 29
	movs	r0, #0
	bl	Cy_SysClk_ClkHfGetFrequency
	str	r0, [r7, #28]
	.loc 3 2340 16
	ldr	r3, [r7, #28]
	movs	r2, #0
	mov	r4, r3
	mov	r5, r2
	add	r3, r7, #20
	str	r3, [sp, #4]
	ldr	r3, [r7, #4]
	str	r3, [sp]
	movs	r3, #8
	ldr	r2, [r7, #8]
	mov	r0, r4
	mov	r1, r5
	bl	_cyhal_clock_compute_div
	str	r0, [r7, #24]
	.loc 3 2342 12
	ldr	r3, [r7, #24]
	cmp	r3, #0
	bne	.L282
	.loc 3 2344 13
	ldr	r3, [r7, #20]
	uxtb	r3, r3
	subs	r3, r3, #1
	uxtb	r3, r3
	mov	r0, r3
	bl	Cy_SysClk_ClkPeriSetDivider
	.loc 3 2345 13
	bl	SystemCoreClockUpdate
.L282:
	.loc 3 2347 16
	ldr	r3, [r7, #24]
.LBE13:
	.loc 3 2372 1
	mov	r0, r3
	adds	r7, r7, #32
.LCFI322:
	.cfi_def_cfa_offset 16
	mov	sp, r7
.LCFI323:
	.cfi_def_cfa_register 13
	@ sp needed
	pop	{r4, r5, r7, pc}
	.cfi_endproc
.LFE1050:
	.size	_cyhal_clock_set_frequency_peri, .-_cyhal_clock_set_frequency_peri
	.section	.text._cyhal_clock_set_divider_peri,"ax",%progbits
	.align	1
	.syntax unified
	.thumb
	.thumb_func
	.type	_cyhal_clock_set_divider_peri, %function
_cyhal_clock_set_divider_peri:
.LFB1051:
	.loc 3 2374 1
	.cfi_startproc
	@ args = 0, pretend = 0, frame = 16
	@ frame_needed = 1, uses_anonymous_args = 0
	push	{r7, lr}
.LCFI324:
	.cfi_def_cfa_offset 8
	.cfi_offset 7, -8
	.cfi_offset 14, -4
	sub	sp, sp, #16
.LCFI325:
	.cfi_def_cfa_offset 24
	add	r7, sp, #0
.LCFI326:
	.cfi_def_cfa_register 7
	str	r0, [r7, #4]
	str	r1, [r7]
	.loc 3 2376 8
	ldr	r3, [r7]
	cmp	r3, #256
	bhi	.L285
.LBB14:
	.loc 3 2378 18
	ldr	r3, [r7]
	subs	r3, r3, #1
	str	r3, [r7, #12]
	.loc 3 2384 13
	ldr	r3, [r7, #12]
	uxtb	r3, r3
	mov	r0, r3
	bl	Cy_SysClk_ClkPeriSetDivider
	.loc 3 2385 13
	bl	SystemCoreClockUpdate
	.loc 3 2386 20
	movs	r3, #0
	b	.L286
.L285:
.LBE14:
	.loc 3 2395 12
	ldr	r3, .L287
.L286:
	.loc 3 2396 1
	mov	r0, r3
	adds	r7, r7, #16
.LCFI327:
	.cfi_def_cfa_offset 8
	mov	sp, r7
.LCFI328:
	.cfi_def_cfa_register 13
	@ sp needed
	pop	{r7, pc}
.L288:
	.align	2
.L287:
	.word	67240448
	.cfi_endproc
.LFE1051:
	.size	_cyhal_clock_set_divider_peri, .-_cyhal_clock_set_divider_peri
	.section	.text._cyhal_clock_get_sources_peri,"ax",%progbits
	.align	1
	.syntax unified
	.thumb
	.thumb_func
	.type	_cyhal_clock_get_sources_peri, %function
_cyhal_clock_get_sources_peri:
.LFB1052:
	.loc 3 2398 1
	.cfi_startproc
	@ args = 0, pretend = 0, frame = 16
	@ frame_needed = 1, uses_anonymous_args = 0
	@ link register save eliminated.
	push	{r7}
.LCFI329:
	.cfi_def_cfa_offset 4
	.cfi_offset 7, -4
	sub	sp, sp, #20
.LCFI330:
	.cfi_def_cfa_offset 24
	add	r7, sp, #0
.LCFI331:
	.cfi_def_cfa_register 7
	str	r0, [r7, #12]
	str	r1, [r7, #8]
	str	r2, [r7, #4]
.LBB15:
	.loc 3 2412 18
	ldr	r3, [r7, #8]
	ldr	r2, .L291
	str	r2, [r3]
	.loc 3 2413 16
	ldr	r3, [r7, #4]
	movs	r2, #1
	str	r2, [r3]
	.loc 3 2414 16
	movs	r3, #0
.LBE15:
	.loc 3 2428 1
	mov	r0, r3
	adds	r7, r7, #20
.LCFI332:
	.cfi_def_cfa_offset 4
	mov	sp, r7
.LCFI333:
	.cfi_def_cfa_register 13
	@ sp needed
	ldr	r7, [sp], #4
.LCFI334:
	.cfi_restore 7
	.cfi_def_cfa_offset 0
	bx	lr
.L292:
	.align	2
.L291:
	.word	_CYHAL_CLOCK_SOURCE_PERI.3
	.cfi_endproc
.LFE1052:
	.size	_cyhal_clock_get_sources_peri, .-_cyhal_clock_get_sources_peri
	.section	.text._cyhal_clock_is_enabled_pump,"ax",%progbits
	.align	1
	.syntax unified
	.thumb
	.thumb_func
	.type	_cyhal_clock_is_enabled_pump, %function
_cyhal_clock_is_enabled_pump:
.LFB1053:
	.loc 3 2433 1
	.cfi_startproc
	@ args = 0, pretend = 0, frame = 8
	@ frame_needed = 1, uses_anonymous_args = 0
	push	{r7, lr}
.LCFI335:
	.cfi_def_cfa_offset 8
	.cfi_offset 7, -8
	.cfi_offset 14, -4
	sub	sp, sp, #8
.LCFI336:
	.cfi_def_cfa_offset 16
	add	r7, sp, #0
.LCFI337:
	.cfi_def_cfa_register 7
	str	r0, [r7, #4]
	.loc 3 2435 12
	bl	Cy_SysClk_ClkPumpIsEnabled
	mov	r3, r0
	.loc 3 2436 1
	mov	r0, r3
	adds	r7, r7, #8
.LCFI338:
	.cfi_def_cfa_offset 8
	mov	sp, r7
.LCFI339:
	.cfi_def_cfa_register 13
	@ sp needed
	pop	{r7, pc}
	.cfi_endproc
.LFE1053:
	.size	_cyhal_clock_is_enabled_pump, .-_cyhal_clock_is_enabled_pump
	.section	.text._cyhal_clock_set_enabled_pump,"ax",%progbits
	.align	1
	.syntax unified
	.thumb
	.thumb_func
	.type	_cyhal_clock_set_enabled_pump, %function
_cyhal_clock_set_enabled_pump:
.LFB1054:
	.loc 3 2438 1
	.cfi_startproc
	@ args = 0, pretend = 0, frame = 8
	@ frame_needed = 1, uses_anonymous_args = 0
	push	{r7, lr}
.LCFI340:
	.cfi_def_cfa_offset 8
	.cfi_offset 7, -8
	.cfi_offset 14, -4
	sub	sp, sp, #8
.LCFI341:
	.cfi_def_cfa_offset 16
	add	r7, sp, #0
.LCFI342:
	.cfi_def_cfa_register 7
	str	r0, [r7, #4]
	mov	r3, r1
	strb	r3, [r7, #3]
	mov	r3, r2
	strb	r3, [r7, #2]
	.loc 3 2442 8
	ldrb	r3, [r7, #3]	@ zero_extendqisi2
	cmp	r3, #0
	beq	.L296
	.loc 3 2443 9
	bl	Cy_SysClk_ClkPumpEnable
	b	.L297
.L296:
	.loc 3 2445 9
	bl	Cy_SysClk_ClkPumpDisable
.L297:
	.loc 3 2446 12
	movs	r3, #0
	.loc 3 2447 1
	mov	r0, r3
	adds	r7, r7, #8
.LCFI343:
	.cfi_def_cfa_offset 8
	mov	sp, r7
.LCFI344:
	.cfi_def_cfa_register 13
	@ sp needed
	pop	{r7, pc}
	.cfi_endproc
.LFE1054:
	.size	_cyhal_clock_set_enabled_pump, .-_cyhal_clock_set_enabled_pump
	.section	.text._cyhal_clock_get_frequency_pump,"ax",%progbits
	.align	1
	.syntax unified
	.thumb
	.thumb_func
	.type	_cyhal_clock_get_frequency_pump, %function
_cyhal_clock_get_frequency_pump:
.LFB1055:
	.loc 3 2449 1
	.cfi_startproc
	@ args = 0, pretend = 0, frame = 8
	@ frame_needed = 1, uses_anonymous_args = 0
	push	{r7, lr}
.LCFI345:
	.cfi_def_cfa_offset 8
	.cfi_offset 7, -8
	.cfi_offset 14, -4
	sub	sp, sp, #8
.LCFI346:
	.cfi_def_cfa_offset 16
	add	r7, sp, #0
.LCFI347:
	.cfi_def_cfa_register 7
	str	r0, [r7, #4]
	.loc 3 2451 12
	bl	Cy_SysClk_ClkPumpGetFrequency
	mov	r3, r0
	.loc 3 2452 1
	mov	r0, r3
	adds	r7, r7, #8
.LCFI348:
	.cfi_def_cfa_offset 8
	mov	sp, r7
.LCFI349:
	.cfi_def_cfa_register 13
	@ sp needed
	pop	{r7, pc}
	.cfi_endproc
.LFE1055:
	.size	_cyhal_clock_get_frequency_pump, .-_cyhal_clock_get_frequency_pump
	.section	.text._cyhal_clock_set_divider_pump,"ax",%progbits
	.align	1
	.syntax unified
	.thumb
	.thumb_func
	.type	_cyhal_clock_set_divider_pump, %function
_cyhal_clock_set_divider_pump:
.LFB1056:
	.loc 3 2454 1
	.cfi_startproc
	@ args = 0, pretend = 0, frame = 16
	@ frame_needed = 1, uses_anonymous_args = 0
	push	{r7, lr}
.LCFI350:
	.cfi_def_cfa_offset 8
	.cfi_offset 7, -8
	.cfi_offset 14, -4
	sub	sp, sp, #16
.LCFI351:
	.cfi_def_cfa_offset 24
	add	r7, sp, #0
.LCFI352:
	.cfi_def_cfa_register 7
	str	r0, [r7, #4]
	str	r1, [r7]
	.loc 3 2458 5
	ldr	r3, [r7]
	subs	r3, r3, #1
	cmp	r3, #15
	bhi	.L302
	adr	r2, .L304
	ldr	pc, [r2, r3, lsl #2]
	.p2align 2
.L304:
	.word	.L308+1
	.word	.L307+1
	.word	.L302+1
	.word	.L306+1
	.word	.L302+1
	.word	.L302+1
	.word	.L302+1
	.word	.L305+1
	.word	.L302+1
	.word	.L302+1
	.word	.L302+1
	.word	.L302+1
	.word	.L302+1
	.word	.L302+1
	.word	.L302+1
	.word	.L303+1
	.p2align 1
.L308:
	.loc 3 2461 20
	movs	r3, #0
	strb	r3, [r7, #15]
	.loc 3 2462 13
	b	.L309
.L307:
	.loc 3 2464 20
	movs	r3, #1
	strb	r3, [r7, #15]
	.loc 3 2465 13
	b	.L309
.L306:
	.loc 3 2467 20
	movs	r3, #2
	strb	r3, [r7, #15]
	.loc 3 2468 13
	b	.L309
.L305:
	.loc 3 2470 20
	movs	r3, #3
	strb	r3, [r7, #15]
	.loc 3 2471 13
	b	.L309
.L303:
	.loc 3 2473 20
	movs	r3, #4
	strb	r3, [r7, #15]
	.loc 3 2474 13
	b	.L309
.L302:
	.loc 3 2476 20
	ldr	r3, .L311
	b	.L310
.L309:
	.loc 3 2478 5
	ldrb	r3, [r7, #15]	@ zero_extendqisi2
	mov	r0, r3
	bl	Cy_SysClk_ClkPumpSetDivider
	.loc 3 2479 12
	movs	r3, #0
.L310:
	.loc 3 2480 1
	mov	r0, r3
	adds	r7, r7, #16
.LCFI353:
	.cfi_def_cfa_offset 8
	mov	sp, r7
.LCFI354:
	.cfi_def_cfa_register 13
	@ sp needed
	pop	{r7, pc}
.L312:
	.align	2
.L311:
	.word	67240448
	.cfi_endproc
.LFE1056:
	.size	_cyhal_clock_set_divider_pump, .-_cyhal_clock_set_divider_pump
	.section	.text._cyhal_clock_set_source_pump,"ax",%progbits
	.align	1
	.syntax unified
	.thumb
	.thumb_func
	.type	_cyhal_clock_set_source_pump, %function
_cyhal_clock_set_source_pump:
.LFB1057:
	.loc 3 2483 1
	.cfi_startproc
	@ args = 0, pretend = 0, frame = 8
	@ frame_needed = 1, uses_anonymous_args = 0
	push	{r7, lr}
.LCFI355:
	.cfi_def_cfa_offset 8
	.cfi_offset 7, -8
	.cfi_offset 14, -4
	sub	sp, sp, #8
.LCFI356:
	.cfi_def_cfa_offset 16
	add	r7, sp, #0
.LCFI357:
	.cfi_def_cfa_register 7
	str	r0, [r7, #4]
	str	r1, [r7]
	.loc 3 2486 15
	ldr	r3, [r7]
	ldrb	r3, [r3]	@ zero_extendqisi2
	.loc 3 2486 8
	cmp	r3, #13
	beq	.L314
	.loc 3 2486 61 discriminator 1
	ldr	r3, [r7]
	ldrb	r3, [r3]	@ zero_extendqisi2
	.loc 3 2486 52 discriminator 1
	cmp	r3, #14
	bne	.L315
.L314:
	.loc 3 2488 70
	ldr	r3, [r7]
	ldrb	r3, [r3, #1]	@ zero_extendqisi2
	.loc 3 2488 9
	mov	r0, r3
	bl	Cy_SysClk_ClkPumpSetSource
	.loc 3 2489 16
	movs	r3, #0
	b	.L316
.L315:
	.loc 3 2492 20
	ldr	r3, [r7]
	ldrb	r3, [r3]	@ zero_extendqisi2
	.loc 3 2492 13
	cmp	r3, #15
	bne	.L317
	.loc 3 2497 71
	ldr	r3, [r7]
	ldrb	r3, [r3, #1]	@ zero_extendqisi2
	.loc 3 2497 81
	adds	r3, r3, #1
	uxtb	r3, r3
	.loc 3 2497 9
	mov	r0, r3
	bl	Cy_SysClk_ClkPumpSetSource
	.loc 3 2498 16
	movs	r3, #0
	b	.L316
.L317:
	.loc 3 2501 16
	ldr	r3, .L318
.L316:
	.loc 3 2502 1
	mov	r0, r3
	adds	r7, r7, #8
.LCFI358:
	.cfi_def_cfa_offset 8
	mov	sp, r7
.LCFI359:
	.cfi_def_cfa_register 13
	@ sp needed
	pop	{r7, pc}
.L319:
	.align	2
.L318:
	.word	67240449
	.cfi_endproc
.LFE1057:
	.size	_cyhal_clock_set_source_pump, .-_cyhal_clock_set_source_pump
	.section	.text._cyhal_clock_is_enabled_timer,"ax",%progbits
	.align	1
	.syntax unified
	.thumb
	.thumb_func
	.type	_cyhal_clock_is_enabled_timer, %function
_cyhal_clock_is_enabled_timer:
.LFB1058:
	.loc 3 2509 1
	.cfi_startproc
	@ args = 0, pretend = 0, frame = 8
	@ frame_needed = 1, uses_anonymous_args = 0
	push	{r7, lr}
.LCFI360:
	.cfi_def_cfa_offset 8
	.cfi_offset 7, -8
	.cfi_offset 14, -4
	sub	sp, sp, #8
.LCFI361:
	.cfi_def_cfa_offset 16
	add	r7, sp, #0
.LCFI362:
	.cfi_def_cfa_register 7
	str	r0, [r7, #4]
	.loc 3 2511 12
	bl	Cy_SysClk_ClkTimerIsEnabled
	mov	r3, r0
	.loc 3 2512 1
	mov	r0, r3
	adds	r7, r7, #8
.LCFI363:
	.cfi_def_cfa_offset 8
	mov	sp, r7
.LCFI364:
	.cfi_def_cfa_register 13
	@ sp needed
	pop	{r7, pc}
	.cfi_endproc
.LFE1058:
	.size	_cyhal_clock_is_enabled_timer, .-_cyhal_clock_is_enabled_timer
	.section	.text._cyhal_clock_set_enabled_timer,"ax",%progbits
	.align	1
	.syntax unified
	.thumb
	.thumb_func
	.type	_cyhal_clock_set_enabled_timer, %function
_cyhal_clock_set_enabled_timer:
.LFB1059:
	.loc 3 2514 1
	.cfi_startproc
	@ args = 0, pretend = 0, frame = 8
	@ frame_needed = 1, uses_anonymous_args = 0
	push	{r7, lr}
.LCFI365:
	.cfi_def_cfa_offset 8
	.cfi_offset 7, -8
	.cfi_offset 14, -4
	sub	sp, sp, #8
.LCFI366:
	.cfi_def_cfa_offset 16
	add	r7, sp, #0
.LCFI367:
	.cfi_def_cfa_register 7
	str	r0, [r7, #4]
	mov	r3, r1
	strb	r3, [r7, #3]
	mov	r3, r2
	strb	r3, [r7, #2]
	.loc 3 2518 8
	ldrb	r3, [r7, #3]	@ zero_extendqisi2
	cmp	r3, #0
	beq	.L323
	.loc 3 2519 9
	bl	Cy_SysClk_ClkTimerEnable
	b	.L324
.L323:
	.loc 3 2521 9
	bl	Cy_SysClk_ClkTimerDisable
.L324:
	.loc 3 2522 12
	movs	r3, #0
	.loc 3 2523 1
	mov	r0, r3
	adds	r7, r7, #8
.LCFI368:
	.cfi_def_cfa_offset 8
	mov	sp, r7
.LCFI369:
	.cfi_def_cfa_register 13
	@ sp needed
	pop	{r7, pc}
	.cfi_endproc
.LFE1059:
	.size	_cyhal_clock_set_enabled_timer, .-_cyhal_clock_set_enabled_timer
	.section	.text._cyhal_clock_get_frequency_timer,"ax",%progbits
	.align	1
	.syntax unified
	.thumb
	.thumb_func
	.type	_cyhal_clock_get_frequency_timer, %function
_cyhal_clock_get_frequency_timer:
.LFB1060:
	.loc 3 2525 1
	.cfi_startproc
	@ args = 0, pretend = 0, frame = 8
	@ frame_needed = 1, uses_anonymous_args = 0
	push	{r7, lr}
.LCFI370:
	.cfi_def_cfa_offset 8
	.cfi_offset 7, -8
	.cfi_offset 14, -4
	sub	sp, sp, #8
.LCFI371:
	.cfi_def_cfa_offset 16
	add	r7, sp, #0
.LCFI372:
	.cfi_def_cfa_register 7
	str	r0, [r7, #4]
	.loc 3 2527 12
	bl	Cy_SysClk_ClkTimerGetFrequency
	mov	r3, r0
	.loc 3 2528 1
	mov	r0, r3
	adds	r7, r7, #8
.LCFI373:
	.cfi_def_cfa_offset 8
	mov	sp, r7
.LCFI374:
	.cfi_def_cfa_register 13
	@ sp needed
	pop	{r7, pc}
	.cfi_endproc
.LFE1060:
	.size	_cyhal_clock_get_frequency_timer, .-_cyhal_clock_get_frequency_timer
	.section	.text._cyhal_clock_set_divider_timer,"ax",%progbits
	.align	1
	.syntax unified
	.thumb
	.thumb_func
	.type	_cyhal_clock_set_divider_timer, %function
_cyhal_clock_set_divider_timer:
.LFB1061:
	.loc 3 2530 1
	.cfi_startproc
	@ args = 0, pretend = 0, frame = 16
	@ frame_needed = 1, uses_anonymous_args = 0
	push	{r7, lr}
.LCFI375:
	.cfi_def_cfa_offset 8
	.cfi_offset 7, -8
	.cfi_offset 14, -4
	sub	sp, sp, #16
.LCFI376:
	.cfi_def_cfa_offset 24
	add	r7, sp, #0
.LCFI377:
	.cfi_def_cfa_register 7
	str	r0, [r7, #4]
	str	r1, [r7]
	.loc 3 2533 8
	ldr	r3, [r7]
	cmp	r3, #256
	bhi	.L329
.LBB16:
	.loc 3 2535 18
	ldr	r3, [r7]
	subs	r3, r3, #1
	str	r3, [r7, #12]
	.loc 3 2536 9
	ldr	r3, [r7, #12]
	uxtb	r3, r3
	mov	r0, r3
	bl	Cy_SysClk_ClkTimerSetDivider
	.loc 3 2537 16
	movs	r3, #0
	b	.L330
.L329:
.LBE16:
	.loc 3 2539 12
	ldr	r3, .L331
.L330:
	.loc 3 2540 1
	mov	r0, r3
	adds	r7, r7, #16
.LCFI378:
	.cfi_def_cfa_offset 8
	mov	sp, r7
.LCFI379:
	.cfi_def_cfa_register 13
	@ sp needed
	pop	{r7, pc}
.L332:
	.align	2
.L331:
	.word	67240448
	.cfi_endproc
.LFE1061:
	.size	_cyhal_clock_set_divider_timer, .-_cyhal_clock_set_divider_timer
	.section	.text._cyhal_clock_get_sources_timer,"ax",%progbits
	.align	1
	.syntax unified
	.thumb
	.thumb_func
	.type	_cyhal_clock_get_sources_timer, %function
_cyhal_clock_get_sources_timer:
.LFB1062:
	.loc 3 2542 1
	.cfi_startproc
	@ args = 0, pretend = 0, frame = 16
	@ frame_needed = 1, uses_anonymous_args = 0
	@ link register save eliminated.
	push	{r7}
.LCFI380:
	.cfi_def_cfa_offset 4
	.cfi_offset 7, -4
	sub	sp, sp, #20
.LCFI381:
	.cfi_def_cfa_offset 24
	add	r7, sp, #0
.LCFI382:
	.cfi_def_cfa_register 7
	str	r0, [r7, #12]
	str	r1, [r7, #8]
	str	r2, [r7, #4]
	.loc 3 2550 14
	ldr	r3, [r7, #8]
	ldr	r2, .L335
	str	r2, [r3]
	.loc 3 2551 12
	ldr	r3, [r7, #4]
	movs	r2, #2
	str	r2, [r3]
	.loc 3 2552 12
	movs	r3, #0
	.loc 3 2553 1
	mov	r0, r3
	adds	r7, r7, #20
.LCFI383:
	.cfi_def_cfa_offset 4
	mov	sp, r7
.LCFI384:
	.cfi_def_cfa_register 13
	@ sp needed
	ldr	r7, [sp], #4
.LCFI385:
	.cfi_restore 7
	.cfi_def_cfa_offset 0
	bx	lr
.L336:
	.align	2
.L335:
	.word	_CYHAL_CLOCK_SOURCE_TIMER.2
	.cfi_endproc
.LFE1062:
	.size	_cyhal_clock_get_sources_timer, .-_cyhal_clock_get_sources_timer
	.section	.text._cyhal_clock_set_source_timer,"ax",%progbits
	.align	1
	.syntax unified
	.thumb
	.thumb_func
	.type	_cyhal_clock_set_source_timer, %function
_cyhal_clock_set_source_timer:
.LFB1063:
	.loc 3 2555 1
	.cfi_startproc
	@ args = 0, pretend = 0, frame = 8
	@ frame_needed = 1, uses_anonymous_args = 0
	push	{r7, lr}
.LCFI386:
	.cfi_def_cfa_offset 8
	.cfi_offset 7, -8
	.cfi_offset 14, -4
	sub	sp, sp, #8
.LCFI387:
	.cfi_def_cfa_offset 16
	add	r7, sp, #0
.LCFI388:
	.cfi_def_cfa_register 7
	str	r0, [r7, #4]
	str	r1, [r7]
	.loc 3 2558 15
	ldr	r3, [r7]
	ldrb	r3, [r3]	@ zero_extendqisi2
	.loc 3 2558 8
	cmp	r3, #4
	bne	.L338
	.loc 3 2560 9
	movs	r0, #0
	bl	Cy_SysClk_ClkTimerSetSource
	.loc 3 2561 16
	movs	r3, #0
	b	.L339
.L338:
	.loc 3 2563 20
	ldr	r3, [r7]
	ldrb	r3, [r3]	@ zero_extendqisi2
	.loc 3 2563 13
	cmp	r3, #18
	bne	.L340
	.loc 3 2563 61 discriminator 1
	ldr	r3, [r7]
	ldrb	r3, [r3, #1]	@ zero_extendqisi2
	.loc 3 2563 52 discriminator 1
	cmp	r3, #0
	bne	.L340
	.loc 3 2565 9
	movs	r0, #1
	bl	Cy_SysClk_ClkTimerSetSource
	.loc 3 2566 16
	movs	r3, #0
	b	.L339
.L340:
	.loc 3 2568 12
	ldr	r3, .L341
.L339:
	.loc 3 2569 1
	mov	r0, r3
	adds	r7, r7, #8
.LCFI389:
	.cfi_def_cfa_offset 8
	mov	sp, r7
.LCFI390:
	.cfi_def_cfa_register 13
	@ sp needed
	pop	{r7, pc}
.L342:
	.align	2
.L341:
	.word	67240449
	.cfi_endproc
.LFE1063:
	.size	_cyhal_clock_set_source_timer, .-_cyhal_clock_set_source_timer
	.section	.text._cyhal_clock_get_frequency_bak,"ax",%progbits
	.align	1
	.syntax unified
	.thumb
	.thumb_func
	.type	_cyhal_clock_get_frequency_bak, %function
_cyhal_clock_get_frequency_bak:
.LFB1064:
	.loc 3 2574 1
	.cfi_startproc
	@ args = 0, pretend = 0, frame = 16
	@ frame_needed = 1, uses_anonymous_args = 0
	push	{r7, lr}
.LCFI391:
	.cfi_def_cfa_offset 8
	.cfi_offset 7, -8
	.cfi_offset 14, -4
	sub	sp, sp, #16
.LCFI392:
	.cfi_def_cfa_offset 24
	add	r7, sp, #0
.LCFI393:
	.cfi_def_cfa_register 7
	str	r0, [r7, #4]
	.loc 3 2576 37
	bl	Cy_SysClk_ClkBakGetSource
	mov	r3, r0
	strb	r3, [r7, #15]
	.loc 3 2578 8
	ldrb	r3, [r7, #15]	@ zero_extendqisi2
	cmp	r3, #0
	bne	.L344
	.loc 3 2579 16
	mov	r3, #32768
	b	.L345
.L344:
	.loc 3 2583 12
	bl	_cyhal_clock_get_lf_frequency
	mov	r3, r0
.L345:
	.loc 3 2584 1
	mov	r0, r3
	adds	r7, r7, #16
.LCFI394:
	.cfi_def_cfa_offset 8
	mov	sp, r7
.LCFI395:
	.cfi_def_cfa_register 13
	@ sp needed
	pop	{r7, pc}
	.cfi_endproc
.LFE1064:
	.size	_cyhal_clock_get_frequency_bak, .-_cyhal_clock_get_frequency_bak
	.section	.text._cyhal_clock_get_sources_bak,"ax",%progbits
	.align	1
	.syntax unified
	.thumb
	.thumb_func
	.type	_cyhal_clock_get_sources_bak, %function
_cyhal_clock_get_sources_bak:
.LFB1065:
	.loc 3 2586 1
	.cfi_startproc
	@ args = 0, pretend = 0, frame = 16
	@ frame_needed = 1, uses_anonymous_args = 0
	@ link register save eliminated.
	push	{r7}
.LCFI396:
	.cfi_def_cfa_offset 4
	.cfi_offset 7, -4
	sub	sp, sp, #20
.LCFI397:
	.cfi_def_cfa_offset 24
	add	r7, sp, #0
.LCFI398:
	.cfi_def_cfa_register 7
	str	r0, [r7, #12]
	str	r1, [r7, #8]
	str	r2, [r7, #4]
	.loc 3 2611 14
	ldr	r3, [r7, #8]
	ldr	r2, .L348
	str	r2, [r3]
	.loc 3 2612 12
	ldr	r3, [r7, #4]
	movs	r2, #2
	str	r2, [r3]
	.loc 3 2613 12
	movs	r3, #0
	.loc 3 2614 1
	mov	r0, r3
	adds	r7, r7, #20
.LCFI399:
	.cfi_def_cfa_offset 4
	mov	sp, r7
.LCFI400:
	.cfi_def_cfa_register 13
	@ sp needed
	ldr	r7, [sp], #4
.LCFI401:
	.cfi_restore 7
	.cfi_def_cfa_offset 0
	bx	lr
.L349:
	.align	2
.L348:
	.word	_CYHAL_CLOCK_SOURCE_BAK.1
	.cfi_endproc
.LFE1065:
	.size	_cyhal_clock_get_sources_bak, .-_cyhal_clock_get_sources_bak
	.section	.text._cyhal_clock_set_source_bak,"ax",%progbits
	.align	1
	.syntax unified
	.thumb
	.thumb_func
	.type	_cyhal_clock_set_source_bak, %function
_cyhal_clock_set_source_bak:
.LFB1066:
	.loc 3 2616 1
	.cfi_startproc
	@ args = 0, pretend = 0, frame = 8
	@ frame_needed = 1, uses_anonymous_args = 0
	push	{r7, lr}
.LCFI402:
	.cfi_def_cfa_offset 8
	.cfi_offset 7, -8
	.cfi_offset 14, -4
	sub	sp, sp, #8
.LCFI403:
	.cfi_def_cfa_offset 16
	add	r7, sp, #0
.LCFI404:
	.cfi_def_cfa_register 7
	str	r0, [r7, #4]
	str	r1, [r7]
	.loc 3 2619 19
	ldr	r3, [r7]
	ldrb	r3, [r3]	@ zero_extendqisi2
	.loc 3 2619 5
	cmp	r3, #11
	beq	.L351
	cmp	r3, #16
	beq	.L352
	b	.L356
.L351:
	.loc 3 2622 13
	movs	r0, #0
	bl	Cy_SysClk_ClkBakSetSource
	.loc 3 2623 20
	movs	r3, #0
	b	.L354
.L352:
	.loc 3 2625 13
	movs	r0, #1
	bl	Cy_SysClk_ClkBakSetSource
	.loc 3 2626 20
	movs	r3, #0
	b	.L354
.L356:
	.loc 3 2647 17 discriminator 1
	bl	CY_HALT
	.loc 3 2648 20 discriminator 1
	ldr	r3, .L357
.L354:
	.loc 3 2650 1
	mov	r0, r3
	adds	r7, r7, #8
.LCFI405:
	.cfi_def_cfa_offset 8
	mov	sp, r7
.LCFI406:
	.cfi_def_cfa_register 13
	@ sp needed
	pop	{r7, pc}
.L358:
	.align	2
.L357:
	.word	67240449
	.cfi_endproc
.LFE1066:
	.size	_cyhal_clock_set_source_bak, .-_cyhal_clock_set_source_bak
	.section	.text._cyhal_clock_get_frequency_alt_sys_tick,"ax",%progbits
	.align	1
	.syntax unified
	.thumb
	.thumb_func
	.type	_cyhal_clock_get_frequency_alt_sys_tick, %function
_cyhal_clock_get_frequency_alt_sys_tick:
.LFB1067:
	.loc 3 2654 1
	.cfi_startproc
	@ args = 0, pretend = 0, frame = 8
	@ frame_needed = 1, uses_anonymous_args = 0
	push	{r7, lr}
.LCFI407:
	.cfi_def_cfa_offset 8
	.cfi_offset 7, -8
	.cfi_offset 14, -4
	sub	sp, sp, #8
.LCFI408:
	.cfi_def_cfa_offset 16
	add	r7, sp, #0
.LCFI409:
	.cfi_def_cfa_register 7
	str	r0, [r7, #4]
	.loc 3 2656 9
	bl	CY_HALT
	.loc 3 2657 12
	movs	r3, #0
	.loc 3 2658 1
	mov	r0, r3
	adds	r7, r7, #8
.LCFI410:
	.cfi_def_cfa_offset 8
	mov	sp, r7
.LCFI411:
	.cfi_def_cfa_register 13
	@ sp needed
	pop	{r7, pc}
	.cfi_endproc
.LFE1067:
	.size	_cyhal_clock_get_frequency_alt_sys_tick, .-_cyhal_clock_get_frequency_alt_sys_tick
	.section	.text._cyhal_clock_get_sources_alt_sys_tick,"ax",%progbits
	.align	1
	.syntax unified
	.thumb
	.thumb_func
	.type	_cyhal_clock_get_sources_alt_sys_tick, %function
_cyhal_clock_get_sources_alt_sys_tick:
.LFB1068:
	.loc 3 2660 1
	.cfi_startproc
	@ args = 0, pretend = 0, frame = 16
	@ frame_needed = 1, uses_anonymous_args = 0
	@ link register save eliminated.
	push	{r7}
.LCFI412:
	.cfi_def_cfa_offset 4
	.cfi_offset 7, -4
	sub	sp, sp, #20
.LCFI413:
	.cfi_def_cfa_offset 24
	add	r7, sp, #0
.LCFI414:
	.cfi_def_cfa_register 7
	str	r0, [r7, #12]
	str	r1, [r7, #8]
	str	r2, [r7, #4]
	.loc 3 2685 14
	ldr	r3, [r7, #8]
	ldr	r2, .L363
	str	r2, [r3]
	.loc 3 2686 12
	ldr	r3, [r7, #4]
	movs	r2, #6
	str	r2, [r3]
	.loc 3 2687 12
	movs	r3, #0
	.loc 3 2688 1
	mov	r0, r3
	adds	r7, r7, #20
.LCFI415:
	.cfi_def_cfa_offset 4
	mov	sp, r7
.LCFI416:
	.cfi_def_cfa_register 13
	@ sp needed
	ldr	r7, [sp], #4
.LCFI417:
	.cfi_restore 7
	.cfi_def_cfa_offset 0
	bx	lr
.L364:
	.align	2
.L363:
	.word	_CYHAL_CLOCK_SOURCE_ALT_SYS_TICK.0
	.cfi_endproc
.LFE1068:
	.size	_cyhal_clock_get_sources_alt_sys_tick, .-_cyhal_clock_get_sources_alt_sys_tick
	.section	.text._cyhal_clock_set_source_alt_sys_tick,"ax",%progbits
	.align	1
	.syntax unified
	.thumb
	.thumb_func
	.type	_cyhal_clock_set_source_alt_sys_tick, %function
_cyhal_clock_set_source_alt_sys_tick:
.LFB1069:
	.loc 3 2690 1
	.cfi_startproc
	@ args = 0, pretend = 0, frame = 8
	@ frame_needed = 1, uses_anonymous_args = 0
	push	{r7, lr}
.LCFI418:
	.cfi_def_cfa_offset 8
	.cfi_offset 7, -8
	.cfi_offset 14, -4
	sub	sp, sp, #8
.LCFI419:
	.cfi_def_cfa_offset 16
	add	r7, sp, #0
.LCFI420:
	.cfi_def_cfa_register 7
	str	r0, [r7, #4]
	str	r1, [r7]
	.loc 3 2693 19
	ldr	r3, [r7]
	ldrb	r3, [r3]	@ zero_extendqisi2
	.loc 3 2693 5
	subs	r3, r3, #4
	cmp	r3, #21
	bhi	.L374
	adr	r2, .L368
	ldr	pc, [r2, r3, lsl #2]
	.p2align 2
.L368:
	.word	.L372+1
	.word	.L371+1
	.word	.L374+1
	.word	.L374+1
	.word	.L374+1
	.word	.L374+1
	.word	.L374+1
	.word	.L374+1
	.word	.L374+1
	.word	.L374+1
	.word	.L374+1
	.word	.L374+1
	.word	.L370+1
	.word	.L374+1
	.word	.L374+1
	.word	.L374+1
	.word	.L374+1
	.word	.L369+1
	.word	.L374+1
	.word	.L367+1
	.word	.L374+1
	.word	.L367+1
	.p2align 1
.L370:
	.loc 3 2696 13
	movs	r0, #0
	bl	Cy_SysTick_SetClockSource
	.loc 3 2697 20
	movs	r3, #0
	b	.L373
.L372:
	.loc 3 2699 13
	movs	r0, #1
	bl	Cy_SysTick_SetClockSource
	.loc 3 2700 20
	movs	r3, #0
	b	.L373
.L371:
	.loc 3 2703 13
	movs	r0, #2
	bl	Cy_SysTick_SetClockSource
	.loc 3 2704 20
	movs	r3, #0
	b	.L373
.L369:
	.loc 3 2709 13
	movs	r0, #3
	bl	Cy_SysTick_SetClockSource
	.loc 3 2710 20
	movs	r3, #0
	b	.L373
.L367:
	.loc 3 2714 13
	movs	r0, #4
	bl	Cy_SysTick_SetClockSource
	.loc 3 2715 20
	movs	r3, #0
	b	.L373
.L374:
	.loc 3 2718 17 discriminator 1
	bl	CY_HALT
	.loc 3 2719 20 discriminator 1
	ldr	r3, .L375
.L373:
	.loc 3 2721 1
	mov	r0, r3
	adds	r7, r7, #8
.LCFI421:
	.cfi_def_cfa_offset 8
	mov	sp, r7
.LCFI422:
	.cfi_def_cfa_register 13
	@ sp needed
	pop	{r7, pc}
.L376:
	.align	2
.L375:
	.word	67240449
	.cfi_endproc
.LFE1069:
	.size	_cyhal_clock_set_source_alt_sys_tick, .-_cyhal_clock_set_source_alt_sys_tick
	.section	.text._cyhal_clock_is_enabled_peripheral,"ax",%progbits
	.align	1
	.syntax unified
	.thumb
	.thumb_func
	.type	_cyhal_clock_is_enabled_peripheral, %function
_cyhal_clock_is_enabled_peripheral:
.LFB1070:
	.loc 3 2725 1
	.cfi_startproc
	@ args = 0, pretend = 0, frame = 8
	@ frame_needed = 1, uses_anonymous_args = 0
	push	{r7, lr}
.LCFI423:
	.cfi_def_cfa_offset 8
	.cfi_offset 7, -8
	.cfi_offset 14, -4
	sub	sp, sp, #8
.LCFI424:
	.cfi_def_cfa_offset 16
	add	r7, sp, #0
.LCFI425:
	.cfi_def_cfa_register 7
	str	r0, [r7, #4]
	.loc 3 2726 12
	ldr	r1, [r7, #4]
	movs	r0, #0
	bl	_cyhal_utils_peri_pclk_is_divider_enabled
	mov	r3, r0
	.loc 3 2727 1
	mov	r0, r3
	adds	r7, r7, #8
.LCFI426:
	.cfi_def_cfa_offset 8
	mov	sp, r7
.LCFI427:
	.cfi_def_cfa_register 13
	@ sp needed
	pop	{r7, pc}
	.cfi_endproc
.LFE1070:
	.size	_cyhal_clock_is_enabled_peripheral, .-_cyhal_clock_is_enabled_peripheral
	.section	.text._cyhal_clock_set_enabled_peripheral,"ax",%progbits
	.align	1
	.syntax unified
	.thumb
	.thumb_func
	.type	_cyhal_clock_set_enabled_peripheral, %function
_cyhal_clock_set_enabled_peripheral:
.LFB1071:
	.loc 3 2729 1
	.cfi_startproc
	@ args = 0, pretend = 0, frame = 8
	@ frame_needed = 1, uses_anonymous_args = 0
	push	{r7, lr}
.LCFI428:
	.cfi_def_cfa_offset 8
	.cfi_offset 7, -8
	.cfi_offset 14, -4
	sub	sp, sp, #8
.LCFI429:
	.cfi_def_cfa_offset 16
	add	r7, sp, #0
.LCFI430:
	.cfi_def_cfa_register 7
	str	r0, [r7, #4]
	mov	r3, r1
	strb	r3, [r7, #3]
	mov	r3, r2
	strb	r3, [r7, #2]
	.loc 3 2734 9
	ldrb	r3, [r7, #3]	@ zero_extendqisi2
	cmp	r3, #0
	beq	.L380
	.loc 3 2733 11
	ldr	r1, [r7, #4]
	movs	r0, #0
	bl	_cyhal_utils_peri_pclk_enable_divider
	mov	r3, r0
	.loc 3 2734 9
	b	.L382
.L380:
	.loc 3 2734 11 discriminator 1
	ldr	r1, [r7, #4]
	movs	r0, #0
	bl	_cyhal_utils_peri_pclk_disable_divider
	mov	r3, r0
.L382:
	.loc 3 2735 1 discriminator 3
	mov	r0, r3
	adds	r7, r7, #8
.LCFI431:
	.cfi_def_cfa_offset 8
	mov	sp, r7
.LCFI432:
	.cfi_def_cfa_register 13
	@ sp needed
	pop	{r7, pc}
	.cfi_endproc
.LFE1071:
	.size	_cyhal_clock_set_enabled_peripheral, .-_cyhal_clock_set_enabled_peripheral
	.section	.text._cyhal_clock_get_frequency_peripheral,"ax",%progbits
	.align	1
	.syntax unified
	.thumb
	.thumb_func
	.type	_cyhal_clock_get_frequency_peripheral, %function
_cyhal_clock_get_frequency_peripheral:
.LFB1072:
	.loc 3 2737 1
	.cfi_startproc
	@ args = 0, pretend = 0, frame = 8
	@ frame_needed = 1, uses_anonymous_args = 0
	push	{r7, lr}
.LCFI433:
	.cfi_def_cfa_offset 8
	.cfi_offset 7, -8
	.cfi_offset 14, -4
	sub	sp, sp, #8
.LCFI434:
	.cfi_def_cfa_offset 16
	add	r7, sp, #0
.LCFI435:
	.cfi_def_cfa_register 7
	str	r0, [r7, #4]
	.loc 3 2738 12
	ldr	r1, [r7, #4]
	movs	r0, #0
	bl	_cyhal_utils_peri_pclk_get_frequency
	mov	r3, r0
	.loc 3 2739 1
	mov	r0, r3
	adds	r7, r7, #8
.LCFI436:
	.cfi_def_cfa_offset 8
	mov	sp, r7
.LCFI437:
	.cfi_def_cfa_register 13
	@ sp needed
	pop	{r7, pc}
	.cfi_endproc
.LFE1072:
	.size	_cyhal_clock_get_frequency_peripheral, .-_cyhal_clock_get_frequency_peripheral
	.section	.text._cyhal_clock_set_frequency_peripheral,"ax",%progbits
	.align	1
	.syntax unified
	.thumb
	.thumb_func
	.type	_cyhal_clock_set_frequency_peripheral, %function
_cyhal_clock_set_frequency_peripheral:
.LFB1073:
	.loc 3 2741 1
	.cfi_startproc
	@ args = 0, pretend = 0, frame = 48
	@ frame_needed = 1, uses_anonymous_args = 0
	push	{r4, r5, r7, r8, r9, r10, fp, lr}
.LCFI438:
	.cfi_def_cfa_offset 32
	.cfi_offset 4, -32
	.cfi_offset 5, -28
	.cfi_offset 7, -24
	.cfi_offset 8, -20
	.cfi_offset 9, -16
	.cfi_offset 10, -12
	.cfi_offset 11, -8
	.cfi_offset 14, -4
	sub	sp, sp, #56
.LCFI439:
	.cfi_def_cfa_offset 88
	add	r7, sp, #8
.LCFI440:
	.cfi_def_cfa 7, 80
	str	r0, [r7, #12]
	str	r1, [r7, #8]
	str	r2, [r7, #4]
	.loc 3 2749 25
	bl	Cy_SysClk_ClkPeriGetFrequency
	str	r0, [r7, #44]
	.loc 3 2762 15
	ldr	r3, [r7, #12]
	ldrb	r3, [r3]	@ zero_extendqisi2
	.loc 3 2762 23
	and	r3, r3, #2
	.loc 3 2762 8
	cmp	r3, #0
	bne	.L386
.LBB17:
	.loc 3 2764 31
	ldr	r3, [r7, #12]
	ldrb	r3, [r3]	@ zero_extendqisi2
	.loc 3 2764 39
	and	r3, r3, #1
	.loc 3 2764 52
	cmp	r3, #0
	beq	.L387
	.loc 3 2764 52 is_stmt 0 discriminator 1
	movs	r3, #16
	b	.L388
.L387:
	.loc 3 2764 52 discriminator 2
	movs	r3, #8
.L388:
	.loc 3 2764 18 is_stmt 1 discriminator 4
	str	r3, [r7, #24]
	.loc 3 2765 26 discriminator 4
	ldr	r3, [r7, #44]
	movs	r2, #0
	mov	r10, r3
	mov	fp, r2
	add	r3, r7, #16
	str	r3, [sp, #4]
	ldr	r3, [r7, #4]
	str	r3, [sp]
	ldr	r3, [r7, #24]
	ldr	r2, [r7, #8]
	mov	r0, r10
	mov	r1, fp
	bl	_cyhal_clock_compute_div
	str	r0, [r7, #20]
	.loc 3 2768 13 discriminator 4
	ldr	r3, [r7, #20]
	cmp	r3, #0
	bne	.L389
	.loc 3 2767 15
	ldr	r3, [r7, #16]
	subs	r3, r3, #1
	mov	r2, r3
	ldr	r1, [r7, #12]
	movs	r0, #0
	bl	_cyhal_utils_peri_pclk_set_divider
	mov	r3, r0
	.loc 3 2768 13
	b	.L395
.L389:
	.loc 3 2768 13 is_stmt 0 discriminator 1
	ldr	r3, [r7, #20]
	b	.L395
.L386:
.LBE17:
.LBB18:
	.loc 3 2774 31 is_stmt 1
	ldr	r3, [r7, #12]
	ldrb	r3, [r3]	@ zero_extendqisi2
	.loc 3 2774 39
	and	r3, r3, #1
	.loc 3 2774 52
	cmp	r3, #0
	beq	.L392
	.loc 3 2774 52 is_stmt 0 discriminator 1
	movs	r3, #29
	b	.L393
.L392:
	.loc 3 2774 52 discriminator 2
	movs	r3, #21
.L393:
	.loc 3 2774 18 is_stmt 1 discriminator 4
	str	r3, [r7, #40]
	.loc 3 2775 52 discriminator 4
	ldr	r3, [r7, #44]
	movs	r2, #0
	mov	r4, r3
	mov	r5, r2
	.loc 3 2775 26 discriminator 4
	lsr	r9, r4, #27
	lsl	r8, r4, #5
	add	r3, r7, #16
	str	r3, [sp, #4]
	ldr	r3, [r7, #4]
	str	r3, [sp]
	ldr	r3, [r7, #40]
	ldr	r2, [r7, #8]
	mov	r0, r8
	mov	r1, r9
	bl	_cyhal_clock_compute_div
	str	r0, [r7, #36]
	.loc 3 2776 12 discriminator 4
	ldr	r3, [r7, #36]
	cmp	r3, #0
	bne	.L394
.LBB19:
	.loc 3 2778 37
	ldr	r3, [r7, #16]
	lsrs	r3, r3, #5
	.loc 3 2778 22
	subs	r3, r3, #1
	str	r3, [r7, #32]
	.loc 3 2779 37
	ldr	r3, [r7, #16]
	.loc 3 2779 22
	and	r3, r3, #31
	str	r3, [r7, #28]
	.loc 3 2780 20
	ldr	r3, [r7, #28]
	ldr	r2, [r7, #32]
	ldr	r1, [r7, #12]
	movs	r0, #0
	bl	_cyhal_utils_peri_pclk_set_frac_divider
	mov	r3, r0
	b	.L395
.L394:
.LBE19:
	.loc 3 2783 20
	ldr	r3, [r7, #36]
.L395:
.LBE18:
	.loc 3 2785 1 discriminator 1
	mov	r0, r3
	adds	r7, r7, #48
.LCFI441:
	.cfi_def_cfa_offset 32
	mov	sp, r7
.LCFI442:
	.cfi_def_cfa_register 13
	@ sp needed
	pop	{r4, r5, r7, r8, r9, r10, fp, pc}
	.cfi_endproc
.LFE1073:
	.size	_cyhal_clock_set_frequency_peripheral, .-_cyhal_clock_set_frequency_peripheral
	.section	.text._cyhal_clock_set_divider_peripheral,"ax",%progbits
	.align	1
	.syntax unified
	.thumb
	.thumb_func
	.type	_cyhal_clock_set_divider_peripheral, %function
_cyhal_clock_set_divider_peripheral:
.LFB1074:
	.loc 3 2787 1
	.cfi_startproc
	@ args = 0, pretend = 0, frame = 8
	@ frame_needed = 1, uses_anonymous_args = 0
	push	{r7, lr}
.LCFI443:
	.cfi_def_cfa_offset 8
	.cfi_offset 7, -8
	.cfi_offset 14, -4
	sub	sp, sp, #8
.LCFI444:
	.cfi_def_cfa_offset 16
	add	r7, sp, #0
.LCFI445:
	.cfi_def_cfa_register 7
	str	r0, [r7, #4]
	str	r1, [r7]
	.loc 3 2791 19
	ldr	r3, [r7, #4]
	ldrb	r3, [r3]	@ zero_extendqisi2
	.loc 3 2791 27
	and	r3, r3, #2
	.loc 3 2793 9
	cmp	r3, #0
	bne	.L397
	.loc 3 2792 11
	ldr	r3, [r7]
	subs	r3, r3, #1
	mov	r2, r3
	ldr	r1, [r7, #4]
	movs	r0, #0
	bl	_cyhal_utils_peri_pclk_set_divider
	mov	r3, r0
	.loc 3 2793 9
	b	.L399
.L397:
	.loc 3 2793 11 discriminator 1
	ldr	r3, [r7]
	subs	r2, r3, #1
	movs	r3, #0
	ldr	r1, [r7, #4]
	movs	r0, #0
	bl	_cyhal_utils_peri_pclk_set_frac_divider
	mov	r3, r0
.L399:
	.loc 3 2794 1 discriminator 3
	mov	r0, r3
	adds	r7, r7, #8
.LCFI446:
	.cfi_def_cfa_offset 8
	mov	sp, r7
.LCFI447:
	.cfi_def_cfa_register 13
	@ sp needed
	pop	{r7, pc}
	.cfi_endproc
.LFE1074:
	.size	_cyhal_clock_set_divider_peripheral, .-_cyhal_clock_set_divider_peripheral
	.section	.text._cyhal_clock_get_sources_peripheral,"ax",%progbits
	.align	1
	.syntax unified
	.thumb
	.thumb_func
	.type	_cyhal_clock_get_sources_peripheral, %function
_cyhal_clock_get_sources_peripheral:
.LFB1075:
	.loc 3 2796 1
	.cfi_startproc
	@ args = 0, pretend = 0, frame = 16
	@ frame_needed = 1, uses_anonymous_args = 0
	push	{r7, lr}
.LCFI448:
	.cfi_def_cfa_offset 8
	.cfi_offset 7, -8
	.cfi_offset 14, -4
	sub	sp, sp, #16
.LCFI449:
	.cfi_def_cfa_offset 24
	add	r7, sp, #0
.LCFI450:
	.cfi_def_cfa_register 7
	str	r0, [r7, #12]
	str	r1, [r7, #8]
	str	r2, [r7, #4]
	.loc 3 2798 12
	ldr	r2, [r7, #4]
	ldr	r1, [r7, #8]
	ldr	r0, [r7, #12]
	bl	_cyhal_clock_get_sources_slow
	mov	r3, r0
	.loc 3 2810 1
	mov	r0, r3
	adds	r7, r7, #16
.LCFI451:
	.cfi_def_cfa_offset 8
	mov	sp, r7
.LCFI452:
	.cfi_def_cfa_register 13
	@ sp needed
	pop	{r7, pc}
	.cfi_endproc
.LFE1075:
	.size	_cyhal_clock_get_sources_peripheral, .-_cyhal_clock_get_sources_peripheral
	.section	.rodata.FUNCS_IMO,"a"
	.align	2
	.type	FUNCS_IMO, %object
	.size	FUNCS_IMO, 32
FUNCS_IMO:
	.word	_cyhal_clock_is_enabled_true
	.word	_cyhal_clock_set_enabled_unsupported
	.word	_cyhal_clock_get_frequency_imo
	.word	_cyhal_clock_set_frequency_unsupported
	.word	_cyhal_clock_set_divider_unsupported
	.word	_cyhal_clock_get_sources_none
	.word	_cyhal_clock_set_source_unsupported
	.byte	0
	.space	3
	.section	.rodata.FUNCS_ECO,"a"
	.align	2
	.type	FUNCS_ECO, %object
	.size	FUNCS_ECO, 32
FUNCS_ECO:
	.word	_cyhal_clock_is_enabled_eco
	.word	_cyhal_clock_set_enabled_eco
	.word	_cyhal_clock_get_frequency_eco
	.word	_cyhal_clock_set_frequency_unsupported
	.word	_cyhal_clock_set_divider_unsupported
	.word	_cyhal_clock_get_sources_none
	.word	_cyhal_clock_set_source_unsupported
	.byte	1
	.space	3
	.section	.rodata.FUNCS_EXT,"a"
	.align	2
	.type	FUNCS_EXT, %object
	.size	FUNCS_EXT, 32
FUNCS_EXT:
	.word	_cyhal_clock_is_enabled_ext
	.word	_cyhal_clock_set_enabled_unsupported
	.word	_cyhal_clock_get_frequency_ext
	.word	_cyhal_clock_set_frequency_ext
	.word	_cyhal_clock_set_divider_unsupported
	.word	_cyhal_clock_get_sources_none
	.word	_cyhal_clock_set_source_unsupported
	.byte	2
	.space	3
	.section	.rodata.FUNCS_ILO,"a"
	.align	2
	.type	FUNCS_ILO, %object
	.size	FUNCS_ILO, 32
FUNCS_ILO:
	.word	_cyhal_clock_is_enabled_ilo
	.word	_cyhal_clock_set_enabled_ilo
	.word	_cyhal_clock_get_frequency_ilo
	.word	_cyhal_clock_set_frequency_unsupported
	.word	_cyhal_clock_set_divider_unsupported
	.word	_cyhal_clock_get_sources_none
	.word	_cyhal_clock_set_source_unsupported
	.byte	1
	.space	3
	.section	.rodata.FUNCS_WCO,"a"
	.align	2
	.type	FUNCS_WCO, %object
	.size	FUNCS_WCO, 32
FUNCS_WCO:
	.word	_cyhal_clock_is_enabled_wco
	.word	_cyhal_clock_set_enabled_wco
	.word	_cyhal_clock_get_frequency_wco
	.word	_cyhal_clock_set_frequency_unsupported
	.word	_cyhal_clock_set_divider_unsupported
	.word	_cyhal_clock_get_sources_none
	.word	_cyhal_clock_set_source_unsupported
	.byte	1
	.space	3
	.section	.rodata.FUNCS_PATHMUX,"a"
	.align	2
	.type	FUNCS_PATHMUX, %object
	.size	FUNCS_PATHMUX, 32
FUNCS_PATHMUX:
	.word	_cyhal_clock_is_enabled_true
	.word	_cyhal_clock_set_enabled_unsupported
	.word	_cyhal_clock_get_frequency_pathmux
	.word	_cyhal_clock_set_frequency_unsupported
	.word	_cyhal_clock_set_divider_unsupported
	.word	_cyhal_clock_get_sources_pathmux
	.word	_cyhal_clock_set_source_pathmux
	.byte	16
	.space	3
	.section	.rodata.FUNCS_FLL,"a"
	.align	2
	.type	FUNCS_FLL, %object
	.size	FUNCS_FLL, 32
FUNCS_FLL:
	.word	_cyhal_clock_is_enabled_fll
	.word	_cyhal_clock_set_enabled_fll
	.word	_cyhal_clock_get_frequency_fll
	.word	_cyhal_clock_set_frequency_fll
	.word	_cyhal_clock_set_divider_unsupported
	.word	_cyhal_clock_get_sources_fll
	.word	_cyhal_clock_set_source_unsupported
	.byte	3
	.space	3
	.section	.rodata.FUNCS_PLL,"a"
	.align	2
	.type	FUNCS_PLL, %object
	.size	FUNCS_PLL, 32
FUNCS_PLL:
	.word	_cyhal_clock_is_enabled_pll
	.word	_cyhal_clock_set_enabled_pll
	.word	_cyhal_clock_get_frequency_pll
	.word	_cyhal_clock_set_frequency_pll
	.word	_cyhal_clock_set_divider_unsupported
	.word	_cyhal_clock_get_sources_pll
	.word	_cyhal_clock_set_source_unsupported
	.byte	3
	.space	3
	.section	.rodata.FUNCS_LF,"a"
	.align	2
	.type	FUNCS_LF, %object
	.size	FUNCS_LF, 32
FUNCS_LF:
	.word	_cyhal_clock_is_enabled_true
	.word	_cyhal_clock_set_enabled_unsupported
	.word	_cyhal_clock_get_frequency_lf
	.word	_cyhal_clock_set_frequency_unsupported
	.word	_cyhal_clock_set_divider_unsupported
	.word	_cyhal_clock_get_sources_lf
	.word	_cyhal_clock_set_source_lf
	.byte	16
	.space	3
	.section	.rodata.FUNCS_HF,"a"
	.align	2
	.type	FUNCS_HF, %object
	.size	FUNCS_HF, 32
FUNCS_HF:
	.word	_cyhal_clock_is_enabled_hf
	.word	_cyhal_clock_set_enabled_hf
	.word	_cyhal_clock_get_frequency_hf
	.word	_cyhal_clock_set_frequency_unsupported
	.word	_cyhal_clock_set_divider_hf
	.word	_cyhal_clock_get_sources_hf
	.word	_cyhal_clock_set_source_hf
	.byte	21
	.space	3
	.section	.rodata.FUNCS_PUMP,"a"
	.align	2
	.type	FUNCS_PUMP, %object
	.size	FUNCS_PUMP, 32
FUNCS_PUMP:
	.word	_cyhal_clock_is_enabled_pump
	.word	_cyhal_clock_set_enabled_pump
	.word	_cyhal_clock_get_frequency_pump
	.word	_cyhal_clock_set_frequency_unsupported
	.word	_cyhal_clock_set_divider_pump
	.word	_cyhal_clock_get_sources_hf
	.word	_cyhal_clock_set_source_pump
	.byte	21
	.space	3
	.section	.rodata.FUNCS_TIMER,"a"
	.align	2
	.type	FUNCS_TIMER, %object
	.size	FUNCS_TIMER, 32
FUNCS_TIMER:
	.word	_cyhal_clock_is_enabled_timer
	.word	_cyhal_clock_set_enabled_timer
	.word	_cyhal_clock_get_frequency_timer
	.word	_cyhal_clock_set_frequency_unsupported
	.word	_cyhal_clock_set_divider_timer
	.word	_cyhal_clock_get_sources_timer
	.word	_cyhal_clock_set_source_timer
	.byte	21
	.space	3
	.section	.rodata.FUNCS_BAK,"a"
	.align	2
	.type	FUNCS_BAK, %object
	.size	FUNCS_BAK, 32
FUNCS_BAK:
	.word	_cyhal_clock_is_enabled_true
	.word	_cyhal_clock_set_enabled_unsupported
	.word	_cyhal_clock_get_frequency_bak
	.word	_cyhal_clock_set_frequency_unsupported
	.word	_cyhal_clock_set_divider_unsupported
	.word	_cyhal_clock_get_sources_bak
	.word	_cyhal_clock_set_source_bak
	.byte	16
	.space	3
	.section	.rodata.FUNCS_ALT_SYS_TICK,"a"
	.align	2
	.type	FUNCS_ALT_SYS_TICK, %object
	.size	FUNCS_ALT_SYS_TICK, 32
FUNCS_ALT_SYS_TICK:
	.word	_cyhal_clock_is_enabled_true
	.word	_cyhal_clock_set_enabled_unsupported
	.word	_cyhal_clock_get_frequency_alt_sys_tick
	.word	_cyhal_clock_set_frequency_unsupported
	.word	_cyhal_clock_set_divider_unsupported
	.word	_cyhal_clock_get_sources_alt_sys_tick
	.word	_cyhal_clock_set_source_alt_sys_tick
	.byte	16
	.space	3
	.section	.rodata.FUNCS_FAST,"a"
	.align	2
	.type	FUNCS_FAST, %object
	.size	FUNCS_FAST, 32
FUNCS_FAST:
	.word	_cyhal_clock_is_enabled_true
	.word	_cyhal_clock_set_enabled_unsupported
	.word	_cyhal_clock_get_frequency_fast
	.word	_cyhal_clock_set_frequency_fast
	.word	_cyhal_clock_set_divider_fast
	.word	_cyhal_clock_get_sources_fast
	.word	_cyhal_clock_set_source_unsupported
	.byte	6
	.space	3
	.section	.rodata.FUNCS_SLOW,"a"
	.align	2
	.type	FUNCS_SLOW, %object
	.size	FUNCS_SLOW, 32
FUNCS_SLOW:
	.word	_cyhal_clock_is_enabled_true
	.word	_cyhal_clock_set_enabled_unsupported
	.word	_cyhal_clock_get_frequency_slow
	.word	_cyhal_clock_set_frequency_slow
	.word	_cyhal_clock_set_divider_slow
	.word	_cyhal_clock_get_sources_slow
	.word	_cyhal_clock_set_source_unsupported
	.byte	6
	.space	3
	.section	.rodata.FUNCS_PERI,"a"
	.align	2
	.type	FUNCS_PERI, %object
	.size	FUNCS_PERI, 32
FUNCS_PERI:
	.word	_cyhal_clock_is_enabled_true
	.word	_cyhal_clock_set_enabled_unsupported
	.word	_cyhal_clock_get_frequency_peri
	.word	_cyhal_clock_set_frequency_peri
	.word	_cyhal_clock_set_divider_peri
	.word	_cyhal_clock_get_sources_peri
	.word	_cyhal_clock_set_source_unsupported
	.byte	6
	.space	3
	.section	.rodata.FUNCS_PERIPHERAL,"a"
	.align	2
	.type	FUNCS_PERIPHERAL, %object
	.size	FUNCS_PERIPHERAL, 32
FUNCS_PERIPHERAL:
	.word	_cyhal_clock_is_enabled_peripheral
	.word	_cyhal_clock_set_enabled_peripheral
	.word	_cyhal_clock_get_frequency_peripheral
	.word	_cyhal_clock_set_frequency_peripheral
	.word	_cyhal_clock_set_divider_peripheral
	.word	_cyhal_clock_get_sources_peripheral
	.word	_cyhal_clock_set_source_unsupported
	.byte	7
	.space	3
	.section	.rodata.FUNCS_EMPTY,"a"
	.align	2
	.type	FUNCS_EMPTY, %object
	.size	FUNCS_EMPTY, 32
FUNCS_EMPTY:
	.space	32
	.section	.text._cyhal_clock_get_funcs_pathmux,"ax",%progbits
	.align	1
	.global	_cyhal_clock_get_funcs_pathmux
	.syntax unified
	.thumb
	.thumb_func
	.type	_cyhal_clock_get_funcs_pathmux, %function
_cyhal_clock_get_funcs_pathmux:
.LFB1076:
	.loc 3 3236 50
	.cfi_startproc
	@ args = 0, pretend = 0, frame = 0
	@ frame_needed = 1, uses_anonymous_args = 0
	@ link register save eliminated.
	push	{r7}
.LCFI453:
	.cfi_def_cfa_offset 4
	.cfi_offset 7, -4
	add	r7, sp, #0
.LCFI454:
	.cfi_def_cfa_register 7
	.loc 3 3236 59
	ldr	r3, .L404
	.loc 3 3236 75
	mov	r0, r3
	mov	sp, r7
.LCFI455:
	.cfi_def_cfa_register 13
	@ sp needed
	ldr	r7, [sp], #4
.LCFI456:
	.cfi_restore 7
	.cfi_def_cfa_offset 0
	bx	lr
.L405:
	.align	2
.L404:
	.word	FUNCS_PATHMUX
	.cfi_endproc
.LFE1076:
	.size	_cyhal_clock_get_funcs_pathmux, .-_cyhal_clock_get_funcs_pathmux
	.section	.text._cyhal_clock_get_funcs_pll,"ax",%progbits
	.align	1
	.global	_cyhal_clock_get_funcs_pll
	.syntax unified
	.thumb
	.thumb_func
	.type	_cyhal_clock_get_funcs_pll, %function
_cyhal_clock_get_funcs_pll:
.LFB1077:
	.loc 3 3238 46
	.cfi_startproc
	@ args = 0, pretend = 0, frame = 0
	@ frame_needed = 1, uses_anonymous_args = 0
	@ link register save eliminated.
	push	{r7}
.LCFI457:
	.cfi_def_cfa_offset 4
	.cfi_offset 7, -4
	add	r7, sp, #0
.LCFI458:
	.cfi_def_cfa_register 7
	.loc 3 3238 55
	ldr	r3, .L408
	.loc 3 3238 67
	mov	r0, r3
	mov	sp, r7
.LCFI459:
	.cfi_def_cfa_register 13
	@ sp needed
	ldr	r7, [sp], #4
.LCFI460:
	.cfi_restore 7
	.cfi_def_cfa_offset 0
	bx	lr
.L409:
	.align	2
.L408:
	.word	FUNCS_PLL
	.cfi_endproc
.LFE1077:
	.size	_cyhal_clock_get_funcs_pll, .-_cyhal_clock_get_funcs_pll
	.section	.text._cyhal_clock_get_funcs_hf,"ax",%progbits
	.align	1
	.global	_cyhal_clock_get_funcs_hf
	.syntax unified
	.thumb
	.thumb_func
	.type	_cyhal_clock_get_funcs_hf, %function
_cyhal_clock_get_funcs_hf:
.LFB1078:
	.loc 3 3243 45
	.cfi_startproc
	@ args = 0, pretend = 0, frame = 0
	@ frame_needed = 1, uses_anonymous_args = 0
	@ link register save eliminated.
	push	{r7}
.LCFI461:
	.cfi_def_cfa_offset 4
	.cfi_offset 7, -4
	add	r7, sp, #0
.LCFI462:
	.cfi_def_cfa_register 7
	.loc 3 3243 54
	ldr	r3, .L412
	.loc 3 3243 69
	mov	r0, r3
	mov	sp, r7
.LCFI463:
	.cfi_def_cfa_register 13
	@ sp needed
	ldr	r7, [sp], #4
.LCFI464:
	.cfi_restore 7
	.cfi_def_cfa_offset 0
	bx	lr
.L413:
	.align	2
.L412:
	.word	FUNCS_EMPTY
	.cfi_endproc
.LFE1078:
	.size	_cyhal_clock_get_funcs_hf, .-_cyhal_clock_get_funcs_hf
	.section	.text._cyhal_clock_get_funcs_peripheral,"ax",%progbits
	.align	1
	.global	_cyhal_clock_get_funcs_peripheral
	.syntax unified
	.thumb
	.thumb_func
	.type	_cyhal_clock_get_funcs_peripheral, %function
_cyhal_clock_get_funcs_peripheral:
.LFB1079:
	.loc 3 3244 53
	.cfi_startproc
	@ args = 0, pretend = 0, frame = 0
	@ frame_needed = 1, uses_anonymous_args = 0
	@ link register save eliminated.
	push	{r7}
.LCFI465:
	.cfi_def_cfa_offset 4
	.cfi_offset 7, -4
	add	r7, sp, #0
.LCFI466:
	.cfi_def_cfa_register 7
	.loc 3 3244 62
	ldr	r3, .L416
	.loc 3 3244 77
	mov	r0, r3
	mov	sp, r7
.LCFI467:
	.cfi_def_cfa_register 13
	@ sp needed
	ldr	r7, [sp], #4
.LCFI468:
	.cfi_restore 7
	.cfi_def_cfa_offset 0
	bx	lr
.L417:
	.align	2
.L416:
	.word	FUNCS_EMPTY
	.cfi_endproc
.LFE1079:
	.size	_cyhal_clock_get_funcs_peripheral, .-_cyhal_clock_get_funcs_peripheral
	.section	.text._cyhal_clock_get_funcs_all,"ax",%progbits
	.align	1
	.syntax unified
	.thumb
	.thumb_func
	.type	_cyhal_clock_get_funcs_all, %function
_cyhal_clock_get_funcs_all:
.LFB1080:
	.loc 3 3247 1
	.cfi_startproc
	@ args = 0, pretend = 0, frame = 8
	@ frame_needed = 1, uses_anonymous_args = 0
	@ link register save eliminated.
	push	{r7}
.LCFI469:
	.cfi_def_cfa_offset 4
	.cfi_offset 7, -4
	sub	sp, sp, #12
.LCFI470:
	.cfi_def_cfa_offset 16
	add	r7, sp, #0
.LCFI471:
	.cfi_def_cfa_register 7
	mov	r3, r0
	strb	r3, [r7, #7]
	.loc 3 3248 5
	ldrb	r3, [r7, #7]	@ zero_extendqisi2
	subs	r3, r3, #4
	cmp	r3, #21
	bhi	.L419
	adr	r2, .L421
	ldr	pc, [r2, r3, lsl #2]
	.p2align 2
.L421:
	.word	.L437+1
	.word	.L436+1
	.word	.L435+1
	.word	.L419+1
	.word	.L419+1
	.word	.L434+1
	.word	.L419+1
	.word	.L433+1
	.word	.L419+1
	.word	.L432+1
	.word	.L431+1
	.word	.L430+1
	.word	.L429+1
	.word	.L419+1
	.word	.L428+1
	.word	.L427+1
	.word	.L426+1
	.word	.L425+1
	.word	.L424+1
	.word	.L423+1
	.word	.L422+1
	.word	.L420+1
	.p2align 1
.L437:
	.loc 3 3251 20
	ldr	r3, .L439
	b	.L438
.L436:
	.loc 3 3254 20
	ldr	r3, .L439+4
	b	.L438
.L435:
	.loc 3 3257 20
	ldr	r3, .L439+8
	b	.L438
.L434:
	.loc 3 3267 20
	ldr	r3, .L439+12
	b	.L438
.L433:
	.loc 3 3274 20
	ldr	r3, .L439+16
	b	.L438
.L432:
	.loc 3 3281 20
	ldr	r3, .L439+20
	b	.L438
.L431:
	.loc 3 3284 20
	ldr	r3, .L439+24
	b	.L438
.L429:
	.loc 3 3287 20
	ldr	r3, .L439+28
	b	.L438
.L428:
	.loc 3 3293 20
	ldr	r3, .L439+32
	b	.L438
.L427:
	.loc 3 3297 20
	ldr	r3, .L439+36
	b	.L438
.L426:
	.loc 3 3300 20
	ldr	r3, .L439+40
	b	.L438
.L424:
	.loc 3 3302 20
	ldr	r3, .L439+44
	b	.L438
.L422:
	.loc 3 3304 20
	ldr	r3, .L439+48
	b	.L438
.L430:
	.loc 3 3308 20
	ldr	r3, .L439+52
	b	.L438
.L425:
	.loc 3 3318 20
	ldr	r3, .L439+56
	b	.L438
.L423:
	.loc 3 3321 20
	ldr	r3, .L439+60
	b	.L438
.L420:
	.loc 3 3323 20
	ldr	r3, .L439+64
	b	.L438
.L419:
	.loc 3 3354 20
	ldr	r3, .L439+68
.L438:
	.loc 3 3356 1
	mov	r0, r3
	adds	r7, r7, #12
.LCFI472:
	.cfi_def_cfa_offset 4
	mov	sp, r7
.LCFI473:
	.cfi_def_cfa_register 13
	@ sp needed
	ldr	r7, [sp], #4
.LCFI474:
	.cfi_restore 7
	.cfi_def_cfa_offset 0
	bx	lr
.L440:
	.align	2
.L439:
	.word	FUNCS_IMO
	.word	FUNCS_ECO
	.word	FUNCS_EXT
	.word	FUNCS_ILO
	.word	FUNCS_WCO
	.word	FUNCS_PATHMUX
	.word	FUNCS_FLL
	.word	FUNCS_LF
	.word	FUNCS_HF
	.word	FUNCS_PUMP
	.word	FUNCS_BAK
	.word	FUNCS_ALT_SYS_TICK
	.word	FUNCS_PERI
	.word	FUNCS_PLL
	.word	FUNCS_TIMER
	.word	FUNCS_FAST
	.word	FUNCS_SLOW
	.word	FUNCS_PERIPHERAL
	.cfi_endproc
.LFE1080:
	.size	_cyhal_clock_get_funcs_all, .-_cyhal_clock_get_funcs_all
	.global	CYHAL_CLOCK_IMO
	.section	.rodata.CYHAL_CLOCK_IMO,"a"
	.align	2
	.type	CYHAL_CLOCK_IMO, %object
	.size	CYHAL_CLOCK_IMO, 8
CYHAL_CLOCK_IMO:
	.byte	4
	.byte	0
	.byte	0
	.space	1
	.word	FUNCS_IMO
	.global	CYHAL_CLOCK_EXT
	.section	.rodata.CYHAL_CLOCK_EXT,"a"
	.align	2
	.type	CYHAL_CLOCK_EXT, %object
	.size	CYHAL_CLOCK_EXT, 8
CYHAL_CLOCK_EXT:
	.byte	6
	.byte	0
	.byte	0
	.space	1
	.word	FUNCS_EXT
	.global	CYHAL_CLOCK_ILO
	.section	.rodata.CYHAL_CLOCK_ILO,"a"
	.align	2
	.type	CYHAL_CLOCK_ILO, %object
	.size	CYHAL_CLOCK_ILO, 8
CYHAL_CLOCK_ILO:
	.byte	9
	.byte	0
	.byte	0
	.space	1
	.word	FUNCS_ILO
	.global	CYHAL_CLOCK_LF
	.section	.rodata.CYHAL_CLOCK_LF,"a"
	.align	2
	.type	CYHAL_CLOCK_LF, %object
	.size	CYHAL_CLOCK_LF, 8
CYHAL_CLOCK_LF:
	.byte	16
	.byte	0
	.byte	0
	.space	1
	.word	FUNCS_LF
	.global	CYHAL_CLOCK_PUMP
	.section	.rodata.CYHAL_CLOCK_PUMP,"a"
	.align	2
	.type	CYHAL_CLOCK_PUMP, %object
	.size	CYHAL_CLOCK_PUMP, 8
CYHAL_CLOCK_PUMP:
	.byte	19
	.byte	0
	.byte	0
	.space	1
	.word	FUNCS_PUMP
	.global	CYHAL_CLOCK_BAK
	.section	.rodata.CYHAL_CLOCK_BAK,"a"
	.align	2
	.type	CYHAL_CLOCK_BAK, %object
	.size	CYHAL_CLOCK_BAK, 8
CYHAL_CLOCK_BAK:
	.byte	20
	.byte	0
	.byte	0
	.space	1
	.word	FUNCS_BAK
	.global	CYHAL_CLOCK_ALT_SYS_TICK
	.section	.rodata.CYHAL_CLOCK_ALT_SYS_TICK,"a"
	.align	2
	.type	CYHAL_CLOCK_ALT_SYS_TICK, %object
	.size	CYHAL_CLOCK_ALT_SYS_TICK, 8
CYHAL_CLOCK_ALT_SYS_TICK:
	.byte	22
	.byte	0
	.byte	0
	.space	1
	.word	FUNCS_ALT_SYS_TICK
	.global	CYHAL_CLOCK_PATHMUX
	.section	.rodata.CYHAL_CLOCK_PATHMUX,"a"
	.align	2
	.type	CYHAL_CLOCK_PATHMUX, %object
	.size	CYHAL_CLOCK_PATHMUX, 48
CYHAL_CLOCK_PATHMUX:
	.byte	13
	.byte	0
	.byte	0
	.space	1
	.word	FUNCS_PATHMUX
	.byte	13
	.byte	1
	.byte	0
	.space	1
	.word	FUNCS_PATHMUX
	.byte	13
	.byte	2
	.byte	0
	.space	1
	.word	FUNCS_PATHMUX
	.byte	13
	.byte	3
	.byte	0
	.space	1
	.word	FUNCS_PATHMUX
	.byte	13
	.byte	4
	.byte	0
	.space	1
	.word	FUNCS_PATHMUX
	.byte	13
	.byte	5
	.byte	0
	.space	1
	.word	FUNCS_PATHMUX
	.global	CYHAL_CLOCK_HF
	.section	.rodata.CYHAL_CLOCK_HF,"a"
	.align	2
	.type	CYHAL_CLOCK_HF, %object
	.size	CYHAL_CLOCK_HF, 48
CYHAL_CLOCK_HF:
	.byte	18
	.byte	0
	.byte	0
	.space	1
	.word	FUNCS_HF
	.byte	18
	.byte	1
	.byte	0
	.space	1
	.word	FUNCS_HF
	.byte	18
	.byte	2
	.byte	0
	.space	1
	.word	FUNCS_HF
	.byte	18
	.byte	3
	.byte	0
	.space	1
	.word	FUNCS_HF
	.byte	18
	.byte	4
	.byte	0
	.space	1
	.word	FUNCS_HF
	.byte	18
	.byte	5
	.byte	0
	.space	1
	.word	FUNCS_HF
	.global	CYHAL_CLOCK_ECO
	.section	.rodata.CYHAL_CLOCK_ECO,"a"
	.align	2
	.type	CYHAL_CLOCK_ECO, %object
	.size	CYHAL_CLOCK_ECO, 8
CYHAL_CLOCK_ECO:
	.byte	5
	.byte	0
	.byte	0
	.space	1
	.word	FUNCS_ECO
	.global	CYHAL_CLOCK_WCO
	.section	.rodata.CYHAL_CLOCK_WCO,"a"
	.align	2
	.type	CYHAL_CLOCK_WCO, %object
	.size	CYHAL_CLOCK_WCO, 8
CYHAL_CLOCK_WCO:
	.byte	11
	.byte	0
	.byte	0
	.space	1
	.word	FUNCS_WCO
	.global	CYHAL_CLOCK_FLL
	.section	.rodata.CYHAL_CLOCK_FLL,"a"
	.align	2
	.type	CYHAL_CLOCK_FLL, %object
	.size	CYHAL_CLOCK_FLL, 8
CYHAL_CLOCK_FLL:
	.byte	14
	.byte	0
	.byte	0
	.space	1
	.word	FUNCS_FLL
	.global	CYHAL_CLOCK_FAST
	.section	.rodata.CYHAL_CLOCK_FAST,"a"
	.align	2
	.type	CYHAL_CLOCK_FAST, %object
	.size	CYHAL_CLOCK_FAST, 8
CYHAL_CLOCK_FAST:
	.byte	23
	.byte	0
	.byte	0
	.space	1
	.word	FUNCS_FAST
	.global	CYHAL_CLOCK_SLOW
	.section	.rodata.CYHAL_CLOCK_SLOW,"a"
	.align	2
	.type	CYHAL_CLOCK_SLOW, %object
	.size	CYHAL_CLOCK_SLOW, 8
CYHAL_CLOCK_SLOW:
	.byte	25
	.byte	0
	.byte	0
	.space	1
	.word	FUNCS_SLOW
	.global	CYHAL_CLOCK_PERI
	.section	.rodata.CYHAL_CLOCK_PERI,"a"
	.align	2
	.type	CYHAL_CLOCK_PERI, %object
	.size	CYHAL_CLOCK_PERI, 8
CYHAL_CLOCK_PERI:
	.byte	24
	.byte	0
	.byte	0
	.space	1
	.word	FUNCS_PERI
	.global	CYHAL_CLOCK_TIMER
	.section	.rodata.CYHAL_CLOCK_TIMER,"a"
	.align	2
	.type	CYHAL_CLOCK_TIMER, %object
	.size	CYHAL_CLOCK_TIMER, 8
CYHAL_CLOCK_TIMER:
	.byte	21
	.byte	0
	.byte	0
	.space	1
	.word	FUNCS_TIMER
	.global	CYHAL_CLOCK_PLL
	.section	.rodata.CYHAL_CLOCK_PLL,"a"
	.align	2
	.type	CYHAL_CLOCK_PLL, %object
	.size	CYHAL_CLOCK_PLL, 16
CYHAL_CLOCK_PLL:
	.byte	15
	.byte	0
	.byte	0
	.space	1
	.word	FUNCS_PLL
	.byte	15
	.byte	1
	.byte	0
	.space	1
	.word	FUNCS_PLL
	.section	.text._cyhal_clock_allocate_channel,"ax",%progbits
	.align	1
	.global	_cyhal_clock_allocate_channel
	.syntax unified
	.thumb
	.thumb_func
	.type	_cyhal_clock_allocate_channel, %function
_cyhal_clock_allocate_channel:
.LFB1081:
	.loc 3 3790 1
	.cfi_startproc
	@ args = 0, pretend = 0, frame = 24
	@ frame_needed = 1, uses_anonymous_args = 0
	push	{r7, lr}
.LCFI475:
	.cfi_def_cfa_offset 8
	.cfi_offset 7, -8
	.cfi_offset 14, -4
	sub	sp, sp, #24
.LCFI476:
	.cfi_def_cfa_offset 32
	add	r7, sp, #0
.LCFI477:
	.cfi_def_cfa_register 7
	str	r0, [r7, #12]
	mov	r3, r1
	str	r2, [r7, #4]
	strb	r3, [r7, #11]
	.loc 3 3791 36
	ldrb	r3, [r7, #11]	@ zero_extendqisi2
	mov	r0, r3
	bl	_cyhal_utils_get_clock_count
	mov	r3, r0
	.loc 3 3791 13
	strb	r3, [r7, #22]
.LBB20:
	.loc 3 3792 18
	movs	r3, #0
	strb	r3, [r7, #23]
	.loc 3 3792 5
	b	.L442
.L445:
.LBB21:
	.loc 3 3794 31
	movs	r3, #5
	strb	r3, [r7, #16]
	ldrb	r3, [r7, #11]
	strb	r3, [r7, #17]
	ldrb	r3, [r7, #23]
	strb	r3, [r7, #18]
	.loc 3 3795 41
	add	r3, r7, #16
	mov	r0, r3
	bl	cyhal_hwmgr_reserve
	mov	r3, r0
	.loc 3 3795 12
	cmp	r3, #0
	bne	.L443
	.loc 3 3797 26
	ldr	r3, [r7, #12]
	ldrb	r2, [r7, #11]
	strb	r2, [r3]
	.loc 3 3798 28
	ldr	r3, [r7, #12]
	ldrb	r2, [r7, #23]
	strb	r2, [r3, #1]
	.loc 3 3799 29
	ldr	r3, [r7, #12]
	movs	r2, #1
	strb	r2, [r3, #2]
	.loc 3 3800 26
	ldr	r3, [r7, #12]
	ldr	r2, [r7, #4]
	str	r2, [r3, #4]
	.loc 3 3801 20
	movs	r3, #0
	b	.L444
.L443:
.LBE21:
	.loc 3 3792 43
	ldrb	r3, [r7, #23]	@ zero_extendqisi2
	adds	r3, r3, #1
	strb	r3, [r7, #23]
.L442:
	.loc 3 3792 5 discriminator 1
	ldrb	r2, [r7, #23]	@ zero_extendqisi2
	ldrb	r3, [r7, #22]	@ zero_extendqisi2
	cmp	r2, r3
	bcc	.L445
.LBE20:
	.loc 3 3804 12
	ldr	r3, .L446
.L444:
	.loc 3 3805 1
	mov	r0, r3
	adds	r7, r7, #24
.LCFI478:
	.cfi_def_cfa_offset 8
	mov	sp, r7
.LCFI479:
	.cfi_def_cfa_register 13
	@ sp needed
	pop	{r7, pc}
.L447:
	.align	2
.L446:
	.word	67243522
	.cfi_endproc
.LFE1081:
	.size	_cyhal_clock_allocate_channel, .-_cyhal_clock_allocate_channel
	.section	.text.cyhal_clock_get,"ax",%progbits
	.align	1
	.global	cyhal_clock_get
	.syntax unified
	.thumb
	.thumb_func
	.type	cyhal_clock_get, %function
cyhal_clock_get:
.LFB1082:
	.loc 3 3808 1
	.cfi_startproc
	@ args = 0, pretend = 0, frame = 8
	@ frame_needed = 1, uses_anonymous_args = 0
	push	{r7, lr}
.LCFI480:
	.cfi_def_cfa_offset 8
	.cfi_offset 7, -8
	.cfi_offset 14, -4
	sub	sp, sp, #8
.LCFI481:
	.cfi_def_cfa_offset 16
	add	r7, sp, #0
.LCFI482:
	.cfi_def_cfa_register 7
	str	r0, [r7, #4]
	str	r1, [r7]
	.loc 3 3809 12
	ldr	r3, [r7, #4]
	cmp	r3, #0
	bne	.L449
	.loc 3 3809 17 discriminator 1
	bl	CY_HALT
.L449:
	.loc 3 3810 12
	ldr	r3, [r7]
	cmp	r3, #0
	bne	.L450
	.loc 3 3810 20 discriminator 1
	bl	CY_HALT
.L450:
	.loc 3 3811 42
	ldr	r3, [r7]
	ldrb	r3, [r3]	@ zero_extendqisi2
	.loc 3 3811 12
	cmp	r3, #5
	beq	.L451
	.loc 3 3811 53 discriminator 1
	bl	CY_HALT
.L451:
	.loc 3 3813 49
	ldr	r3, [r7]
	ldrb	r2, [r3, #1]	@ zero_extendqisi2
	.loc 3 3813 18
	ldr	r3, [r7, #4]
	strb	r2, [r3]
	.loc 3 3814 30
	ldr	r3, [r7]
	ldrb	r2, [r3, #2]	@ zero_extendqisi2
	.loc 3 3814 20
	ldr	r3, [r7, #4]
	strb	r2, [r3, #1]
	.loc 3 3815 21
	ldr	r3, [r7, #4]
	movs	r2, #0
	strb	r2, [r3, #2]
	.loc 3 3816 76
	ldr	r3, [r7]
	ldrb	r3, [r3, #1]	@ zero_extendqisi2
	.loc 3 3816 20
	mov	r0, r3
	bl	_cyhal_clock_get_funcs_all
	mov	r2, r0
	.loc 3 3816 18
	ldr	r3, [r7, #4]
	str	r2, [r3, #4]
	.loc 3 3818 12
	movs	r3, #0
	.loc 3 3819 1
	mov	r0, r3
	adds	r7, r7, #8
.LCFI483:
	.cfi_def_cfa_offset 8
	mov	sp, r7
.LCFI484:
	.cfi_def_cfa_register 13
	@ sp needed
	pop	{r7, pc}
	.cfi_endproc
.LFE1082:
	.size	cyhal_clock_get, .-cyhal_clock_get
	.section	.text.cyhal_clock_reserve,"ax",%progbits
	.align	1
	.global	cyhal_clock_reserve
	.syntax unified
	.thumb
	.thumb_func
	.type	cyhal_clock_reserve, %function
cyhal_clock_reserve:
.LFB1083:
	.loc 3 3822 1
	.cfi_startproc
	@ args = 0, pretend = 0, frame = 16
	@ frame_needed = 1, uses_anonymous_args = 0
	push	{r7, lr}
.LCFI485:
	.cfi_def_cfa_offset 8
	.cfi_offset 7, -8
	.cfi_offset 14, -4
	sub	sp, sp, #16
.LCFI486:
	.cfi_def_cfa_offset 24
	add	r7, sp, #0
.LCFI487:
	.cfi_def_cfa_register 7
	str	r0, [r7, #4]
	str	r1, [r7]
	.loc 3 3823 12
	ldr	r3, [r7, #4]
	cmp	r3, #0
	bne	.L454
	.loc 3 3823 17 discriminator 1
	bl	CY_HALT
.L454:
	.loc 3 3824 12
	ldr	r3, [r7]
	cmp	r3, #0
	bne	.L455
	.loc 3 3824 18 discriminator 1
	bl	CY_HALT
.L455:
	.loc 3 3826 27
	movs	r3, #5
	strb	r3, [r7, #8]
	.loc 3 3826 69
	ldr	r3, [r7]
	ldrb	r3, [r3]	@ zero_extendqisi2
	.loc 3 3826 27
	strb	r3, [r7, #9]
	.loc 3 3826 84
	ldr	r3, [r7]
	ldrb	r3, [r3, #1]	@ zero_extendqisi2
	.loc 3 3826 27
	strb	r3, [r7, #10]
	.loc 3 3827 22
	add	r3, r7, #8
	mov	r0, r3
	bl	cyhal_hwmgr_reserve
	str	r0, [r7, #12]
	.loc 3 3828 8
	ldr	r3, [r7, #12]
	cmp	r3, #0
	bne	.L456
	.loc 3 3830 9
	movs	r2, #8
	ldr	r1, [r7]
	ldr	r0, [r7, #4]
	bl	memcpy
	.loc 3 3831 25
	ldr	r3, [r7, #4]
	movs	r2, #1
	strb	r2, [r3, #2]
.L456:
	.loc 3 3833 12
	ldr	r3, [r7, #12]
	.loc 3 3834 1
	mov	r0, r3
	adds	r7, r7, #16
.LCFI488:
	.cfi_def_cfa_offset 8
	mov	sp, r7
.LCFI489:
	.cfi_def_cfa_register 13
	@ sp needed
	pop	{r7, pc}
	.cfi_endproc
.LFE1083:
	.size	cyhal_clock_reserve, .-cyhal_clock_reserve
	.section	.text.cyhal_clock_get_features,"ax",%progbits
	.align	1
	.global	cyhal_clock_get_features
	.syntax unified
	.thumb
	.thumb_func
	.type	cyhal_clock_get_features, %function
cyhal_clock_get_features:
.LFB1084:
	.loc 3 3837 1
	.cfi_startproc
	@ args = 0, pretend = 0, frame = 8
	@ frame_needed = 1, uses_anonymous_args = 0
	push	{r7, lr}
.LCFI490:
	.cfi_def_cfa_offset 8
	.cfi_offset 7, -8
	.cfi_offset 14, -4
	sub	sp, sp, #8
.LCFI491:
	.cfi_def_cfa_offset 16
	add	r7, sp, #0
.LCFI492:
	.cfi_def_cfa_register 7
	str	r0, [r7, #4]
	.loc 3 3838 12
	ldr	r3, [r7, #4]
	cmp	r3, #0
	bne	.L459
	.loc 3 3838 17 discriminator 1
	bl	CY_HALT
.L459:
	.loc 3 3840 14
	ldr	r3, [r7, #4]
	ldrb	r3, [r3]	@ zero_extendqisi2
	.loc 3 3840 8
	cmp	r3, #18
	bne	.L460
	.loc 3 3842 22
	ldr	r3, [r7, #4]
	ldrb	r3, [r3, #1]	@ zero_extendqisi2
	.loc 3 3844 13
	cmp	r3, #0
	bne	.L461
	.loc 3 3844 13 is_stmt 0 discriminator 1
	movs	r3, #20
	b	.L463
.L461:
	.loc 3 3844 13 discriminator 2
	movs	r3, #21
	b	.L463
.L460:
	.loc 3 3846 19 is_stmt 1
	ldr	r3, [r7, #4]
	ldrb	r3, [r3]	@ zero_extendqisi2
	.loc 3 3846 13
	cmp	r3, #3
	bhi	.L464
	.loc 3 3847 16
	movs	r3, #7
	b	.L463
.L464:
	.loc 3 3849 44
	ldr	r3, [r7, #4]
	ldr	r3, [r3, #4]
	.loc 3 3849 52
	ldrb	r3, [r3, #28]	@ zero_extendqisi2
.L463:
	.loc 3 3850 1
	mov	r0, r3
	adds	r7, r7, #8
.LCFI493:
	.cfi_def_cfa_offset 8
	mov	sp, r7
.LCFI494:
	.cfi_def_cfa_register 13
	@ sp needed
	pop	{r7, pc}
	.cfi_endproc
.LFE1084:
	.size	cyhal_clock_get_features, .-cyhal_clock_get_features
	.section	.text.cyhal_clock_is_enabled,"ax",%progbits
	.align	1
	.global	cyhal_clock_is_enabled
	.syntax unified
	.thumb
	.thumb_func
	.type	cyhal_clock_is_enabled, %function
cyhal_clock_is_enabled:
.LFB1085:
	.loc 3 3853 1
	.cfi_startproc
	@ args = 0, pretend = 0, frame = 8
	@ frame_needed = 1, uses_anonymous_args = 0
	push	{r7, lr}
.LCFI495:
	.cfi_def_cfa_offset 8
	.cfi_offset 7, -8
	.cfi_offset 14, -4
	sub	sp, sp, #8
.LCFI496:
	.cfi_def_cfa_offset 16
	add	r7, sp, #0
.LCFI497:
	.cfi_def_cfa_register 7
	str	r0, [r7, #4]
	.loc 3 3854 12
	ldr	r3, [r7, #4]
	cmp	r3, #0
	bne	.L466
	.loc 3 3854 17 discriminator 1
	bl	CY_HALT
.L466:
	.loc 3 3856 14
	ldr	r3, [r7, #4]
	ldrb	r3, [r3]	@ zero_extendqisi2
	.loc 3 3856 8
	cmp	r3, #18
	bne	.L467
	.loc 3 3857 16
	ldr	r0, [r7, #4]
	bl	_cyhal_clock_is_enabled_hf
	mov	r3, r0
	b	.L468
.L467:
	.loc 3 3858 19
	ldr	r3, [r7, #4]
	ldrb	r3, [r3]	@ zero_extendqisi2
	.loc 3 3858 13
	cmp	r3, #3
	bhi	.L469
	.loc 3 3859 16
	ldr	r0, [r7, #4]
	bl	_cyhal_clock_is_enabled_peripheral
	mov	r3, r0
	b	.L468
.L469:
	.loc 3 3861 44
	ldr	r3, [r7, #4]
	ldr	r3, [r3, #4]
	.loc 3 3861 52
	ldr	r3, [r3]
	.loc 3 3861 17
	ldr	r0, [r7, #4]
	blx	r3
.LVL0:
	mov	r3, r0
.L468:
	.loc 3 3862 1
	mov	r0, r3
	adds	r7, r7, #8
.LCFI498:
	.cfi_def_cfa_offset 8
	mov	sp, r7
.LCFI499:
	.cfi_def_cfa_register 13
	@ sp needed
	pop	{r7, pc}
	.cfi_endproc
.LFE1085:
	.size	cyhal_clock_is_enabled, .-cyhal_clock_is_enabled
	.section	.text.cyhal_clock_set_enabled,"ax",%progbits
	.align	1
	.global	cyhal_clock_set_enabled
	.syntax unified
	.thumb
	.thumb_func
	.type	cyhal_clock_set_enabled, %function
cyhal_clock_set_enabled:
.LFB1086:
	.loc 3 3865 1
	.cfi_startproc
	@ args = 0, pretend = 0, frame = 8
	@ frame_needed = 1, uses_anonymous_args = 0
	push	{r7, lr}
.LCFI500:
	.cfi_def_cfa_offset 8
	.cfi_offset 7, -8
	.cfi_offset 14, -4
	sub	sp, sp, #8
.LCFI501:
	.cfi_def_cfa_offset 16
	add	r7, sp, #0
.LCFI502:
	.cfi_def_cfa_register 7
	str	r0, [r7, #4]
	mov	r3, r1
	strb	r3, [r7, #3]
	mov	r3, r2
	strb	r3, [r7, #2]
	.loc 3 3866 12
	ldr	r3, [r7, #4]
	cmp	r3, #0
	bne	.L471
	.loc 3 3866 17 discriminator 1
	bl	CY_HALT
.L471:
	.loc 3 3868 14
	ldr	r3, [r7, #4]
	ldrb	r3, [r3]	@ zero_extendqisi2
	.loc 3 3868 8
	cmp	r3, #18
	bne	.L472
	.loc 3 3869 16
	ldrb	r2, [r7, #2]	@ zero_extendqisi2
	ldrb	r3, [r7, #3]	@ zero_extendqisi2
	mov	r1, r3
	ldr	r0, [r7, #4]
	bl	_cyhal_clock_set_enabled_hf
	mov	r3, r0
	b	.L473
.L472:
	.loc 3 3870 19
	ldr	r3, [r7, #4]
	ldrb	r3, [r3]	@ zero_extendqisi2
	.loc 3 3870 13
	cmp	r3, #3
	bhi	.L474
	.loc 3 3871 16
	ldrb	r2, [r7, #2]	@ zero_extendqisi2
	ldrb	r3, [r7, #3]	@ zero_extendqisi2
	mov	r1, r3
	ldr	r0, [r7, #4]
	bl	_cyhal_clock_set_enabled_peripheral
	mov	r3, r0
	b	.L473
.L474:
	.loc 3 3873 44
	ldr	r3, [r7, #4]
	ldr	r3, [r3, #4]
	.loc 3 3873 52
	ldr	r3, [r3, #4]
	.loc 3 3873 17
	ldrb	r2, [r7, #2]	@ zero_extendqisi2
	ldrb	r1, [r7, #3]	@ zero_extendqisi2
	ldr	r0, [r7, #4]
	blx	r3
.LVL1:
	mov	r3, r0
.L473:
	.loc 3 3874 1
	mov	r0, r3
	adds	r7, r7, #8
.LCFI503:
	.cfi_def_cfa_offset 8
	mov	sp, r7
.LCFI504:
	.cfi_def_cfa_register 13
	@ sp needed
	pop	{r7, pc}
	.cfi_endproc
.LFE1086:
	.size	cyhal_clock_set_enabled, .-cyhal_clock_set_enabled
	.section	.text.cyhal_clock_get_frequency,"ax",%progbits
	.align	1
	.global	cyhal_clock_get_frequency
	.syntax unified
	.thumb
	.thumb_func
	.type	cyhal_clock_get_frequency, %function
cyhal_clock_get_frequency:
.LFB1087:
	.loc 3 3877 1
	.cfi_startproc
	@ args = 0, pretend = 0, frame = 8
	@ frame_needed = 1, uses_anonymous_args = 0
	push	{r7, lr}
.LCFI505:
	.cfi_def_cfa_offset 8
	.cfi_offset 7, -8
	.cfi_offset 14, -4
	sub	sp, sp, #8
.LCFI506:
	.cfi_def_cfa_offset 16
	add	r7, sp, #0
.LCFI507:
	.cfi_def_cfa_register 7
	str	r0, [r7, #4]
	.loc 3 3878 12
	ldr	r3, [r7, #4]
	cmp	r3, #0
	bne	.L476
	.loc 3 3878 17 discriminator 1
	bl	CY_HALT
.L476:
	.loc 3 3880 9
	ldr	r0, [r7, #4]
	bl	cyhal_clock_is_enabled
	mov	r3, r0
	.loc 3 3880 8
	cmp	r3, #0
	beq	.L477
	.loc 3 3882 18
	ldr	r3, [r7, #4]
	ldrb	r3, [r3]	@ zero_extendqisi2
	.loc 3 3882 12
	cmp	r3, #18
	bne	.L478
	.loc 3 3883 20
	ldr	r0, [r7, #4]
	bl	_cyhal_clock_get_frequency_hf
	mov	r3, r0
	b	.L479
.L478:
	.loc 3 3884 23
	ldr	r3, [r7, #4]
	ldrb	r3, [r3]	@ zero_extendqisi2
	.loc 3 3884 17
	cmp	r3, #3
	bhi	.L480
	.loc 3 3885 20
	ldr	r0, [r7, #4]
	bl	_cyhal_clock_get_frequency_peripheral
	mov	r3, r0
	b	.L479
.L480:
	.loc 3 3887 48
	ldr	r3, [r7, #4]
	ldr	r3, [r3, #4]
	.loc 3 3887 56
	ldr	r3, [r3, #8]
	.loc 3 3887 21
	ldr	r0, [r7, #4]
	blx	r3
.LVL2:
	mov	r3, r0
	b	.L479
.L477:
	.loc 3 3889 12
	movs	r3, #0
.L479:
	.loc 3 3890 1
	mov	r0, r3
	adds	r7, r7, #8
.LCFI508:
	.cfi_def_cfa_offset 8
	mov	sp, r7
.LCFI509:
	.cfi_def_cfa_register 13
	@ sp needed
	pop	{r7, pc}
	.cfi_endproc
.LFE1087:
	.size	cyhal_clock_get_frequency, .-cyhal_clock_get_frequency
	.section	.text.cyhal_clock_set_frequency,"ax",%progbits
	.align	1
	.global	cyhal_clock_set_frequency
	.syntax unified
	.thumb
	.thumb_func
	.type	cyhal_clock_set_frequency, %function
cyhal_clock_set_frequency:
.LFB1088:
	.loc 3 3893 1
	.cfi_startproc
	@ args = 0, pretend = 0, frame = 16
	@ frame_needed = 1, uses_anonymous_args = 0
	push	{r7, lr}
.LCFI510:
	.cfi_def_cfa_offset 8
	.cfi_offset 7, -8
	.cfi_offset 14, -4
	sub	sp, sp, #16
.LCFI511:
	.cfi_def_cfa_offset 24
	add	r7, sp, #0
.LCFI512:
	.cfi_def_cfa_register 7
	str	r0, [r7, #12]
	str	r1, [r7, #8]
	str	r2, [r7, #4]
	.loc 3 3894 12
	ldr	r3, [r7, #12]
	cmp	r3, #0
	bne	.L482
	.loc 3 3894 17 discriminator 1
	bl	CY_HALT
.L482:
	.loc 3 3896 14
	ldr	r3, [r7, #12]
	ldrb	r3, [r3]	@ zero_extendqisi2
	.loc 3 3896 8
	cmp	r3, #18
	bne	.L483
	.loc 3 3897 16
	ldr	r2, [r7, #4]
	ldr	r1, [r7, #8]
	ldr	r0, [r7, #12]
	bl	_cyhal_clock_set_frequency_unsupported
	mov	r3, r0
	b	.L484
.L483:
	.loc 3 3898 19
	ldr	r3, [r7, #12]
	ldrb	r3, [r3]	@ zero_extendqisi2
	.loc 3 3898 13
	cmp	r3, #3
	bhi	.L485
	.loc 3 3899 16
	ldr	r2, [r7, #4]
	ldr	r1, [r7, #8]
	ldr	r0, [r7, #12]
	bl	_cyhal_clock_set_frequency_peripheral
	mov	r3, r0
	b	.L484
.L485:
	.loc 3 3901 44
	ldr	r3, [r7, #12]
	ldr	r3, [r3, #4]
	.loc 3 3901 52
	ldr	r3, [r3, #12]
	.loc 3 3901 17
	ldr	r2, [r7, #4]
	ldr	r1, [r7, #8]
	ldr	r0, [r7, #12]
	blx	r3
.LVL3:
	mov	r3, r0
.L484:
	.loc 3 3902 1
	mov	r0, r3
	adds	r7, r7, #16
.LCFI513:
	.cfi_def_cfa_offset 8
	mov	sp, r7
.LCFI514:
	.cfi_def_cfa_register 13
	@ sp needed
	pop	{r7, pc}
	.cfi_endproc
.LFE1088:
	.size	cyhal_clock_set_frequency, .-cyhal_clock_set_frequency
	.section	.text.cyhal_clock_set_divider,"ax",%progbits
	.align	1
	.global	cyhal_clock_set_divider
	.syntax unified
	.thumb
	.thumb_func
	.type	cyhal_clock_set_divider, %function
cyhal_clock_set_divider:
.LFB1089:
	.loc 3 3905 1
	.cfi_startproc
	@ args = 0, pretend = 0, frame = 8
	@ frame_needed = 1, uses_anonymous_args = 0
	push	{r7, lr}
.LCFI515:
	.cfi_def_cfa_offset 8
	.cfi_offset 7, -8
	.cfi_offset 14, -4
	sub	sp, sp, #8
.LCFI516:
	.cfi_def_cfa_offset 16
	add	r7, sp, #0
.LCFI517:
	.cfi_def_cfa_register 7
	str	r0, [r7, #4]
	str	r1, [r7]
	.loc 3 3906 12
	ldr	r3, [r7, #4]
	cmp	r3, #0
	bne	.L487
	.loc 3 3906 17 discriminator 1
	bl	CY_HALT
.L487:
	.loc 3 3908 14
	ldr	r3, [r7, #4]
	ldrb	r3, [r3]	@ zero_extendqisi2
	.loc 3 3908 8
	cmp	r3, #18
	bne	.L488
	.loc 3 3909 16
	ldr	r1, [r7]
	ldr	r0, [r7, #4]
	bl	_cyhal_clock_set_divider_hf
	mov	r3, r0
	b	.L489
.L488:
	.loc 3 3910 19
	ldr	r3, [r7, #4]
	ldrb	r3, [r3]	@ zero_extendqisi2
	.loc 3 3910 13
	cmp	r3, #3
	bhi	.L490
	.loc 3 3911 16
	ldr	r1, [r7]
	ldr	r0, [r7, #4]
	bl	_cyhal_clock_set_divider_peripheral
	mov	r3, r0
	b	.L489
.L490:
	.loc 3 3913 44
	ldr	r3, [r7, #4]
	ldr	r3, [r3, #4]
	.loc 3 3913 52
	ldr	r3, [r3, #16]
	.loc 3 3913 17
	ldr	r1, [r7]
	ldr	r0, [r7, #4]
	blx	r3
.LVL4:
	mov	r3, r0
.L489:
	.loc 3 3914 1
	mov	r0, r3
	adds	r7, r7, #8
.LCFI518:
	.cfi_def_cfa_offset 8
	mov	sp, r7
.LCFI519:
	.cfi_def_cfa_register 13
	@ sp needed
	pop	{r7, pc}
	.cfi_endproc
.LFE1089:
	.size	cyhal_clock_set_divider, .-cyhal_clock_set_divider
	.section	.text.cyhal_clock_get_sources,"ax",%progbits
	.align	1
	.global	cyhal_clock_get_sources
	.syntax unified
	.thumb
	.thumb_func
	.type	cyhal_clock_get_sources, %function
cyhal_clock_get_sources:
.LFB1090:
	.loc 3 3917 1
	.cfi_startproc
	@ args = 0, pretend = 0, frame = 16
	@ frame_needed = 1, uses_anonymous_args = 0
	push	{r7, lr}
.LCFI520:
	.cfi_def_cfa_offset 8
	.cfi_offset 7, -8
	.cfi_offset 14, -4
	sub	sp, sp, #16
.LCFI521:
	.cfi_def_cfa_offset 24
	add	r7, sp, #0
.LCFI522:
	.cfi_def_cfa_register 7
	str	r0, [r7, #12]
	str	r1, [r7, #8]
	str	r2, [r7, #4]
	.loc 3 3918 12
	ldr	r3, [r7, #12]
	cmp	r3, #0
	bne	.L492
	.loc 3 3918 17 discriminator 1
	bl	CY_HALT
.L492:
	.loc 3 3920 14
	ldr	r3, [r7, #12]
	ldrb	r3, [r3]	@ zero_extendqisi2
	.loc 3 3920 8
	cmp	r3, #18
	bne	.L493
	.loc 3 3921 16
	ldr	r2, [r7, #4]
	ldr	r1, [r7, #8]
	ldr	r0, [r7, #12]
	bl	_cyhal_clock_get_sources_hf
	mov	r3, r0
	b	.L494
.L493:
	.loc 3 3922 19
	ldr	r3, [r7, #12]
	ldrb	r3, [r3]	@ zero_extendqisi2
	.loc 3 3922 13
	cmp	r3, #3
	bhi	.L495
	.loc 3 3923 16
	ldr	r2, [r7, #4]
	ldr	r1, [r7, #8]
	ldr	r0, [r7, #12]
	bl	_cyhal_clock_get_sources_peripheral
	mov	r3, r0
	b	.L494
.L495:
	.loc 3 3925 44
	ldr	r3, [r7, #12]
	ldr	r3, [r3, #4]
	.loc 3 3925 52
	ldr	r3, [r3, #20]
	.loc 3 3925 17
	ldr	r2, [r7, #4]
	ldr	r1, [r7, #8]
	ldr	r0, [r7, #12]
	blx	r3
.LVL5:
	mov	r3, r0
.L494:
	.loc 3 3926 1
	mov	r0, r3
	adds	r7, r7, #16
.LCFI523:
	.cfi_def_cfa_offset 8
	mov	sp, r7
.LCFI524:
	.cfi_def_cfa_register 13
	@ sp needed
	pop	{r7, pc}
	.cfi_endproc
.LFE1090:
	.size	cyhal_clock_get_sources, .-cyhal_clock_get_sources
	.section	.text.cyhal_clock_set_source,"ax",%progbits
	.align	1
	.global	cyhal_clock_set_source
	.syntax unified
	.thumb
	.thumb_func
	.type	cyhal_clock_set_source, %function
cyhal_clock_set_source:
.LFB1091:
	.loc 3 3929 1
	.cfi_startproc
	@ args = 0, pretend = 0, frame = 8
	@ frame_needed = 1, uses_anonymous_args = 0
	push	{r7, lr}
.LCFI525:
	.cfi_def_cfa_offset 8
	.cfi_offset 7, -8
	.cfi_offset 14, -4
	sub	sp, sp, #8
.LCFI526:
	.cfi_def_cfa_offset 16
	add	r7, sp, #0
.LCFI527:
	.cfi_def_cfa_register 7
	str	r0, [r7, #4]
	str	r1, [r7]
	.loc 3 3930 12
	ldr	r3, [r7, #4]
	cmp	r3, #0
	beq	.L497
	.loc 3 3930 13 discriminator 2
	ldr	r3, [r7]
	cmp	r3, #0
	bne	.L498
.L497:
	.loc 3 3930 18 discriminator 3
	bl	CY_HALT
.L498:
	.loc 3 3932 14
	ldr	r3, [r7, #4]
	ldrb	r3, [r3]	@ zero_extendqisi2
	.loc 3 3932 8
	cmp	r3, #18
	bne	.L499
	.loc 3 3933 16
	ldr	r1, [r7]
	ldr	r0, [r7, #4]
	bl	_cyhal_clock_set_source_hf
	mov	r3, r0
	b	.L500
.L499:
	.loc 3 3934 19
	ldr	r3, [r7, #4]
	ldrb	r3, [r3]	@ zero_extendqisi2
	.loc 3 3934 13
	cmp	r3, #3
	bhi	.L501
	.loc 3 3935 16
	ldr	r1, [r7]
	ldr	r0, [r7, #4]
	bl	_cyhal_clock_set_source_unsupported
	mov	r3, r0
	b	.L500
.L501:
	.loc 3 3937 44
	ldr	r3, [r7, #4]
	ldr	r3, [r3, #4]
	.loc 3 3937 52
	ldr	r3, [r3, #24]
	.loc 3 3937 17
	ldr	r1, [r7]
	ldr	r0, [r7, #4]
	blx	r3
.LVL6:
	mov	r3, r0
.L500:
	.loc 3 3938 1
	mov	r0, r3
	adds	r7, r7, #8
.LCFI528:
	.cfi_def_cfa_offset 8
	mov	sp, r7
.LCFI529:
	.cfi_def_cfa_register 13
	@ sp needed
	pop	{r7, pc}
	.cfi_endproc
.LFE1091:
	.size	cyhal_clock_set_source, .-cyhal_clock_set_source
	.section	.text.cyhal_clock_free,"ax",%progbits
	.align	1
	.global	cyhal_clock_free
	.syntax unified
	.thumb
	.thumb_func
	.type	cyhal_clock_free, %function
cyhal_clock_free:
.LFB1092:
	.loc 3 3941 1
	.cfi_startproc
	@ args = 0, pretend = 0, frame = 16
	@ frame_needed = 1, uses_anonymous_args = 0
	push	{r7, lr}
.LCFI530:
	.cfi_def_cfa_offset 8
	.cfi_offset 7, -8
	.cfi_offset 14, -4
	sub	sp, sp, #16
.LCFI531:
	.cfi_def_cfa_offset 24
	add	r7, sp, #0
.LCFI532:
	.cfi_def_cfa_register 7
	str	r0, [r7, #4]
	.loc 3 3942 12
	ldr	r3, [r7, #4]
	cmp	r3, #0
	bne	.L503
	.loc 3 3942 17 discriminator 1
	bl	CY_HALT
.L503:
	.loc 3 3943 20
	ldr	r3, [r7, #4]
	ldrb	r3, [r3, #2]	@ zero_extendqisi2
	.loc 3 3943 13
	eor	r3, r3, #1
	uxtb	r3, r3
	.loc 3 3943 12
	cmp	r3, #0
	beq	.L504
	.loc 3 3943 35 discriminator 1
	bl	CY_HALT
.L504:
	.loc 3 3945 27
	movs	r3, #5
	strb	r3, [r7, #12]
	.loc 3 3945 57
	ldr	r3, [r7, #4]
	ldrb	r3, [r3]	@ zero_extendqisi2
	.loc 3 3945 27
	strb	r3, [r7, #13]
	.loc 3 3945 71
	ldr	r3, [r7, #4]
	ldrb	r3, [r3, #1]	@ zero_extendqisi2
	.loc 3 3945 27
	strb	r3, [r7, #14]
	.loc 3 3946 5
	add	r3, r7, #12
	mov	r0, r3
	bl	cyhal_hwmgr_free
	.loc 3 3947 21
	ldr	r3, [r7, #4]
	movs	r2, #0
	strb	r2, [r3, #2]
	.loc 3 3948 1
	nop
	adds	r7, r7, #16
.LCFI533:
	.cfi_def_cfa_offset 8
	mov	sp, r7
.LCFI534:
	.cfi_def_cfa_register 13
	@ sp needed
	pop	{r7, pc}
	.cfi_endproc
.LFE1092:
	.size	cyhal_clock_free, .-cyhal_clock_free
	.section	.data._CYHAL_CLOCK_SOURCE_PATHMUX.7,"aw"
	.align	2
	.type	_CYHAL_CLOCK_SOURCE_PATHMUX.7, %object
	.size	_CYHAL_CLOCK_SOURCE_PATHMUX.7, 20
_CYHAL_CLOCK_SOURCE_PATHMUX.7:
	.word	CYHAL_CLOCK_RSC_IMO
	.word	CYHAL_CLOCK_RSC_ECO
	.word	CYHAL_CLOCK_RSC_EXT
	.word	CYHAL_CLOCK_RSC_ILO
	.word	CYHAL_CLOCK_RSC_WCO
	.section	.data._CYHAL_CLOCK_SOURCE_LF.6,"aw"
	.align	2
	.type	_CYHAL_CLOCK_SOURCE_LF.6, %object
	.size	_CYHAL_CLOCK_SOURCE_LF.6, 8
_CYHAL_CLOCK_SOURCE_LF.6:
	.word	CYHAL_CLOCK_RSC_ILO
	.word	CYHAL_CLOCK_RSC_WCO
	.section	.data._CYHAL_CLOCK_SOURCE_FAST.5,"aw"
	.align	2
	.type	_CYHAL_CLOCK_SOURCE_FAST.5, %object
	.size	_CYHAL_CLOCK_SOURCE_FAST.5, 4
_CYHAL_CLOCK_SOURCE_FAST.5:
	.word	CYHAL_CLOCK_RSC_HF
	.section	.data._CYHAL_CLOCK_SOURCE_SLOW.4,"aw"
	.align	2
	.type	_CYHAL_CLOCK_SOURCE_SLOW.4, %object
	.size	_CYHAL_CLOCK_SOURCE_SLOW.4, 4
_CYHAL_CLOCK_SOURCE_SLOW.4:
	.word	CYHAL_CLOCK_RSC_PERI
	.section	.data._CYHAL_CLOCK_SOURCE_PERI.3,"aw"
	.align	2
	.type	_CYHAL_CLOCK_SOURCE_PERI.3, %object
	.size	_CYHAL_CLOCK_SOURCE_PERI.3, 4
_CYHAL_CLOCK_SOURCE_PERI.3:
	.word	CYHAL_CLOCK_RSC_HF
	.section	.data._CYHAL_CLOCK_SOURCE_TIMER.2,"aw"
	.align	2
	.type	_CYHAL_CLOCK_SOURCE_TIMER.2, %object
	.size	_CYHAL_CLOCK_SOURCE_TIMER.2, 8
_CYHAL_CLOCK_SOURCE_TIMER.2:
	.word	CYHAL_CLOCK_RSC_IMO
	.word	CYHAL_CLOCK_RSC_HF
	.section	.data._CYHAL_CLOCK_SOURCE_BAK.1,"aw"
	.align	2
	.type	_CYHAL_CLOCK_SOURCE_BAK.1, %object
	.size	_CYHAL_CLOCK_SOURCE_BAK.1, 8
_CYHAL_CLOCK_SOURCE_BAK.1:
	.word	CYHAL_CLOCK_RSC_LF
	.word	CYHAL_CLOCK_RSC_WCO
	.section	.data._CYHAL_CLOCK_SOURCE_ALT_SYS_TICK.0,"aw"
	.align	2
	.type	_CYHAL_CLOCK_SOURCE_ALT_SYS_TICK.0, %object
	.size	_CYHAL_CLOCK_SOURCE_ALT_SYS_TICK.0, 24
_CYHAL_CLOCK_SOURCE_ALT_SYS_TICK.0:
	.word	CYHAL_CLOCK_RSC_IMO
	.word	CYHAL_CLOCK_RSC_ECO
	.word	CYHAL_CLOCK_RSC_LF
	.word	CYHAL_CLOCK_RSC_TIMER
	.word	CYHAL_CLOCK_RSC_FAST
	.word	CYHAL_CLOCK_RSC_SLOW
	.text
.Letext0:
	.file 4 "d:\\llc\\softwares\\env-windows-v1.3.5\\tools\\gnu_gcc\\arm_gcc\\mingw\\arm-none-eabi\\include\\machine\\_default_types.h"
	.file 5 "d:\\llc\\softwares\\env-windows-v1.3.5\\tools\\gnu_gcc\\arm_gcc\\mingw\\arm-none-eabi\\include\\sys\\_stdint.h"
	.file 6 "libraries\\IFX_PSOC6_HAL\\mtb-pdl-cat1\\devices\\COMPONENT_CAT1A\\include/ip/cyip_srss.h"
	.file 7 "libraries\\IFX_PSOC6_HAL\\mtb-pdl-cat1\\devices\\COMPONENT_CAT1A\\include/ip/cyip_backup.h"
	.file 8 "libraries\\IFX_PSOC6_HAL\\mtb-pdl-cat1\\devices\\COMPONENT_CAT1A\\include/psoc6_02_config.h"
	.file 9 "libraries\\IFX_PSOC6_HAL\\core-lib\\include/cy_result.h"
	.file 10 "libraries\\IFX_PSOC6_HAL\\mtb-pdl-cat1\\drivers\\include/cy_sysclk.h"
	.file 11 "libraries\\IFX_PSOC6_HAL\\mtb-pdl-cat1\\drivers\\include/cy_systick.h"
	.file 12 "libraries\\IFX_PSOC6_HAL\\mtb-hal-cat1\\include/cyhal_general_types.h"
	.file 13 "libraries\\IFX_PSOC6_HAL\\mtb-hal-cat1\\include_pvt/cyhal_hw_resources.h"
	.file 14 "libraries\\IFX_PSOC6_HAL\\mtb-hal-cat1\\include_pvt/cyhal_pin_package.h"
	.file 15 "libraries\\IFX_PSOC6_HAL\\mtb-hal-cat1\\COMPONENT_CAT1A\\include/triggers/cyhal_triggers_psoc6_02.h"
	.file 16 "libraries\\IFX_PSOC6_HAL\\mtb-hal-cat1\\include/cyhal_clock.h"
	.file 17 "libraries\\IFX_PSOC6_HAL\\mtb-hal-cat1\\include_pvt/cyhal_clock_impl.h"