	.cpu cortex-m4
	.arch armv7e-m
	.fpu fpv4-sp-d16
	.eabi_attribute 27, 1
	.eabi_attribute 28, 1
	.eabi_attribute 20, 1
	.eabi_attribute 21, 1
	.eabi_attribute 23, 3
	.eabi_attribute 24, 1
	.eabi_attribute 25, 1
	.eabi_attribute 26, 1
	.eabi_attribute 30, 6
	.eabi_attribute 34, 1
	.eabi_attribute 18, 4
	.file	"cyhal_uart.c"
	.text
.Ltext0:
	.cfi_sections	.debug_frame
	.section	.text.__NVIC_EnableIRQ,"ax",%progbits
	.align	1
	.syntax unified
	.thumb
	.thumb_func
	.type	__NVIC_EnableIRQ, %function
__NVIC_EnableIRQ:
.LFB107:
	.file 1 "libraries\\IFX_PSOC6_HAL\\mtb-pdl-cat1\\cmsis\\include/core_cm4.h"
	.loc 1 1685 1
	.cfi_startproc
	@ args = 0, pretend = 0, frame = 8
	@ frame_needed = 1, uses_anonymous_args = 0
	@ link register save eliminated.
	push	{r7}
.LCFI0:
	.cfi_def_cfa_offset 4
	.cfi_offset 7, -4
	sub	sp, sp, #12
.LCFI1:
	.cfi_def_cfa_offset 16
	add	r7, sp, #0
.LCFI2:
	.cfi_def_cfa_register 7
	mov	r3, r0
	strh	r3, [r7, #6]	@ movhi
	.loc 1 1686 6
	ldrsh	r3, [r7, #6]
	cmp	r3, #0
	blt	.L3
	.loc 1 1688 5
	.loc 1 1689 121
	ldrh	r3, [r7, #6]
	and	r2, r3, #31
	.loc 1 1689 49
	ldr	r1, .L4
	.loc 1 1689 58
	ldrsh	r3, [r7, #6]
	.loc 1 1689 74
	lsrs	r3, r3, #5
	.loc 1 1689 85
	movs	r0, #1
	lsl	r2, r0, r2
	.loc 1 1689 83
	str	r2, [r1, r3, lsl #2]
	.loc 1 1690 5
.L3:
	.loc 1 1692 1
	nop
	adds	r7, r7, #12
.LCFI3:
	.cfi_def_cfa_offset 4
	mov	sp, r7
.LCFI4:
	.cfi_def_cfa_register 13
	@ sp needed
	ldr	r7, [sp], #4
.LCFI5:
	.cfi_restore 7
	.cfi_def_cfa_offset 0
	bx	lr
.L5:
	.align	2
.L4:
	.word	-536813312
	.cfi_endproc
.LFE107:
	.size	__NVIC_EnableIRQ, .-__NVIC_EnableIRQ
	.section	.text.__NVIC_DisableIRQ,"ax",%progbits
	.align	1
	.syntax unified
	.thumb
	.thumb_func
	.type	__NVIC_DisableIRQ, %function
__NVIC_DisableIRQ:
.LFB109:
	.loc 1 1723 1
	.cfi_startproc
	@ args = 0, pretend = 0, frame = 8
	@ frame_needed = 1, uses_anonymous_args = 0
	@ link register save eliminated.
	push	{r7}
.LCFI6:
	.cfi_def_cfa_offset 4
	.cfi_offset 7, -4
	sub	sp, sp, #12
.LCFI7:
	.cfi_def_cfa_offset 16
	add	r7, sp, #0
.LCFI8:
	.cfi_def_cfa_register 7
	mov	r3, r0
	strh	r3, [r7, #6]	@ movhi
	.loc 1 1724 6
	ldrsh	r3, [r7, #6]
	cmp	r3, #0
	blt	.L8
	.loc 1 1726 121
	ldrh	r3, [r7, #6]
	and	r2, r3, #31
	.loc 1 1726 49
	ldr	r1, .L9
	.loc 1 1726 58
	ldrsh	r3, [r7, #6]
	.loc 1 1726 74
	lsrs	r3, r3, #5
	.loc 1 1726 85
	movs	r0, #1
	lsl	r2, r0, r2
	.loc 1 1726 83
	adds	r3, r3, #32
	str	r2, [r1, r3, lsl #2]
.LBB8:
.LBB9:
	.file 2 "libraries\\IFX_PSOC6_HAL\\mtb-pdl-cat1\\cmsis\\include/cmsis_gcc.h"
	.loc 2 946 3
	.syntax unified
@ 946 "libraries\IFX_PSOC6_HAL\mtb-pdl-cat1\cmsis\include/cmsis_gcc.h" 1
	dsb 0xF
@ 0 "" 2
	.loc 2 947 1
	.thumb
	.syntax unified
	nop
.LBE9:
.LBE8:
.LBB10:
.LBB11:
	.loc 2 935 3
	.syntax unified
@ 935 "libraries\IFX_PSOC6_HAL\mtb-pdl-cat1\cmsis\include/cmsis_gcc.h" 1
	isb 0xF
@ 0 "" 2
	.loc 2 936 1
	.thumb
	.syntax unified
	nop
.L8:
.LBE11:
.LBE10:
	.loc 1 1730 1
	nop
	adds	r7, r7, #12
.LCFI9:
	.cfi_def_cfa_offset 4
	mov	sp, r7
.LCFI10:
	.cfi_def_cfa_register 13
	@ sp needed
	ldr	r7, [sp], #4
.LCFI11:
	.cfi_restore 7
	.cfi_def_cfa_offset 0
	bx	lr
.L10:
	.align	2
.L9:
	.word	-536813312
	.cfi_endproc
.LFE109:
	.size	__NVIC_DisableIRQ, .-__NVIC_DisableIRQ
	.section	.text.__NVIC_ClearPendingIRQ,"ax",%progbits
	.align	1
	.syntax unified
	.thumb
	.thumb_func
	.type	__NVIC_ClearPendingIRQ, %function
__NVIC_ClearPendingIRQ:
.LFB112:
	.loc 1 1776 1
	.cfi_startproc
	@ args = 0, pretend = 0, frame = 8
	@ frame_needed = 1, uses_anonymous_args = 0
	@ link register save eliminated.
	push	{r7}
.LCFI12:
	.cfi_def_cfa_offset 4
	.cfi_offset 7, -4
	sub	sp, sp, #12
.LCFI13:
	.cfi_def_cfa_offset 16
	add	r7, sp, #0
.LCFI14:
	.cfi_def_cfa_register 7
	mov	r3, r0
	strh	r3, [r7, #6]	@ movhi
	.loc 1 1777 6
	ldrsh	r3, [r7, #6]
	cmp	r3, #0
	blt	.L13
	.loc 1 1779 121
	ldrh	r3, [r7, #6]
	and	r2, r3, #31
	.loc 1 1779 49
	ldr	r1, .L14
	.loc 1 1779 58
	ldrsh	r3, [r7, #6]
	.loc 1 1779 74
	lsrs	r3, r3, #5
	.loc 1 1779 85
	movs	r0, #1
	lsl	r2, r0, r2
	.loc 1 1779 83
	adds	r3, r3, #96
	str	r2, [r1, r3, lsl #2]
.L13:
	.loc 1 1781 1
	nop
	adds	r7, r7, #12
.LCFI15:
	.cfi_def_cfa_offset 4
	mov	sp, r7
.LCFI16:
	.cfi_def_cfa_register 13
	@ sp needed
	ldr	r7, [sp], #4
.LCFI17:
	.cfi_restore 7
	.cfi_def_cfa_offset 0
	bx	lr
.L15:
	.align	2
.L14:
	.word	-536813312
	.cfi_endproc
.LFE112:
	.size	__NVIC_ClearPendingIRQ, .-__NVIC_ClearPendingIRQ
	.section	.text.__NVIC_SetPriority,"ax",%progbits
	.align	1
	.syntax unified
	.thumb
	.thumb_func
	.type	__NVIC_SetPriority, %function
__NVIC_SetPriority:
.LFB114:
	.loc 1 1815 1
	.cfi_startproc
	@ args = 0, pretend = 0, frame = 8
	@ frame_needed = 1, uses_anonymous_args = 0
	@ link register save eliminated.
	push	{r7}
.LCFI18:
	.cfi_def_cfa_offset 4
	.cfi_offset 7, -4
	sub	sp, sp, #12
.LCFI19:
	.cfi_def_cfa_offset 16
	add	r7, sp, #0
.LCFI20:
	.cfi_def_cfa_register 7
	mov	r3, r0
	str	r1, [r7]
	strh	r3, [r7, #6]	@ movhi
	.loc 1 1816 6
	ldrsh	r3, [r7, #6]
	cmp	r3, #0
	blt	.L17
	.loc 1 1818 74
	ldr	r3, [r7]
	uxtb	r2, r3
	.loc 1 1818 49
	ldr	r1, .L20
	.loc 1 1818 55
	ldrsh	r3, [r7, #6]
	.loc 1 1818 74
	lsls	r2, r2, #5
	uxtb	r2, r2
	.loc 1 1818 72
	add	r3, r3, r1
	strb	r2, [r3, #768]
	.loc 1 1824 1
	b	.L19
.L17:
	.loc 1 1822 88
	ldr	r3, [r7]
	uxtb	r2, r3
	.loc 1 1822 48
	ldr	r1, .L20+4
	.loc 1 1822 72
	ldrh	r3, [r7, #6]
	and	r3, r3, #15
	.loc 1 1822 80
	subs	r3, r3, #4
	.loc 1 1822 88
	lsls	r2, r2, #5
	uxtb	r2, r2
	.loc 1 1822 86
	add	r3, r3, r1
	strb	r2, [r3, #24]
.L19:
	.loc 1 1824 1
	nop
	adds	r7, r7, #12
.LCFI21:
	.cfi_def_cfa_offset 4
	mov	sp, r7
.LCFI22:
	.cfi_def_cfa_register 13
	@ sp needed
	ldr	r7, [sp], #4
.LCFI23:
	.cfi_restore 7
	.cfi_def_cfa_offset 0
	bx	lr
.L21:
	.align	2
.L20:
	.word	-536813312
	.word	-536810240
	.cfi_endproc
.LFE114:
	.size	__NVIC_SetPriority, .-__NVIC_SetPriority
	.section	.text.CY_HALT,"ax",%progbits
	.align	1
	.syntax unified
	.thumb
	.thumb_func
	.type	CY_HALT, %function
CY_HALT:
.LFB133:
	.file 3 "libraries\\IFX_PSOC6_HAL\\core-lib\\include/cy_utils.h"
	.loc 3 49 1
	.cfi_startproc
	@ args = 0, pretend = 0, frame = 0
	@ frame_needed = 1, uses_anonymous_args = 0
	@ link register save eliminated.
	push	{r7}
.LCFI24:
	.cfi_def_cfa_offset 4
	.cfi_offset 7, -4
	add	r7, sp, #0
.LCFI25:
	.cfi_def_cfa_register 7
	.loc 3 50 5
	.syntax unified
@ 50 "libraries\IFX_PSOC6_HAL\core-lib\include/cy_utils.h" 1
	    bkpt    1
@ 0 "" 2
	.loc 3 51 1
	.thumb
	.syntax unified
	nop
	mov	sp, r7
.LCFI26:
	.cfi_def_cfa_register 13
	@ sp needed
	ldr	r7, [sp], #4
.LCFI27:
	.cfi_restore 7
	.cfi_def_cfa_offset 0
	bx	lr
	.cfi_endproc
.LFE133:
	.size	CY_HALT, .-CY_HALT
	.section	.text.Cy_GPIO_PortToAddr,"ax",%progbits
	.align	1
	.syntax unified
	.thumb
	.thumb_func
	.type	Cy_GPIO_PortToAddr, %function
Cy_GPIO_PortToAddr:
.LFB466:
	.file 4 "libraries\\IFX_PSOC6_HAL\\mtb-pdl-cat1\\drivers\\include/cy_gpio.h"
	.loc 4 989 1
	.cfi_startproc
	@ args = 0, pretend = 0, frame = 16
	@ frame_needed = 1, uses_anonymous_args = 0
	@ link register save eliminated.
	push	{r7}
.LCFI28:
	.cfi_def_cfa_offset 4
	.cfi_offset 7, -4
	sub	sp, sp, #20
.LCFI29:
	.cfi_def_cfa_offset 24
	add	r7, sp, #0
.LCFI30:
	.cfi_def_cfa_register 7
	str	r0, [r7, #4]
	.loc 4 992 7
	ldr	r3, [r7, #4]
	cmp	r3, #14
	bhi	.L24
	.loc 4 994 59
	ldr	r3, .L27
	ldr	r3, [r3]
	ldr	r2, [r3, #24]
	.loc 4 994 88
	ldr	r3, [r7, #4]
	lsls	r3, r3, #7
	.loc 4 994 72
	add	r3, r3, r2
	.loc 4 994 18
	str	r3, [r7, #12]
	b	.L25
.L24:
	.loc 4 999 59
	ldr	r3, .L27
	ldr	r3, [r3]
	ldr	r3, [r3, #24]
	.loc 4 999 18
	str	r3, [r7, #12]
.L25:
	.loc 4 1002 12
	ldr	r3, [r7, #12]
	.loc 4 1003 1
	mov	r0, r3
	adds	r7, r7, #20
.LCFI31:
	.cfi_def_cfa_offset 4
	mov	sp, r7
.LCFI32:
	.cfi_def_cfa_register 13
	@ sp needed
	ldr	r7, [sp], #4
.LCFI33:
	.cfi_restore 7
	.cfi_def_cfa_offset 0
	bx	lr
.L28:
	.align	2
.L27:
	.word	cy_device
	.cfi_endproc
.LFE466:
	.size	Cy_GPIO_PortToAddr, .-Cy_GPIO_PortToAddr
	.section	.text.Cy_SCB_GetNumInRxFifo,"ax",%progbits
	.align	1
	.syntax unified
	.thumb
	.thumb_func
	.type	Cy_SCB_GetNumInRxFifo, %function
Cy_SCB_GetNumInRxFifo:
.LFB626:
	.file 5 "libraries\\IFX_PSOC6_HAL\\mtb-pdl-cat1\\drivers\\include/cy_scb_common.h"
	.loc 5 893 1
	.cfi_startproc
	@ args = 0, pretend = 0, frame = 8
	@ frame_needed = 1, uses_anonymous_args = 0
	@ link register save eliminated.
	push	{r7}
.LCFI34:
	.cfi_def_cfa_offset 4
	.cfi_offset 7, -4
	sub	sp, sp, #12
.LCFI35:
	.cfi_def_cfa_offset 16
	add	r7, sp, #0
.LCFI36:
	.cfi_def_cfa_register 7
	str	r0, [r7, #4]
	.loc 5 894 51
	ldr	r3, [r7, #4]
	ldr	r3, [r3, #776]
	.loc 5 894 81
	ubfx	r3, r3, #0, #9
	.loc 5 895 1
	mov	r0, r3
	adds	r7, r7, #12
.LCFI37:
	.cfi_def_cfa_offset 4
	mov	sp, r7
.LCFI38:
	.cfi_def_cfa_register 13
	@ sp needed
	ldr	r7, [sp], #4
.LCFI39:
	.cfi_restore 7
	.cfi_def_cfa_offset 0
	bx	lr
	.cfi_endproc
.LFE626:
	.size	Cy_SCB_GetNumInRxFifo, .-Cy_SCB_GetNumInRxFifo
	.section	.text.Cy_SCB_ClearRxFifo,"ax",%progbits
	.align	1
	.syntax unified
	.thumb
	.thumb_func
	.type	Cy_SCB_ClearRxFifo, %function
Cy_SCB_ClearRxFifo:
.LFB628:
	.loc 5 931 1
	.cfi_startproc
	@ args = 0, pretend = 0, frame = 8
	@ frame_needed = 1, uses_anonymous_args = 0
	@ link register save eliminated.
	push	{r7}
.LCFI40:
	.cfi_def_cfa_offset 4
	.cfi_offset 7, -4
	sub	sp, sp, #12
.LCFI41:
	.cfi_def_cfa_offset 16
	add	r7, sp, #0
.LCFI42:
	.cfi_def_cfa_register 7
	str	r0, [r7, #4]
	.loc 5 932 47
	ldr	r3, [r7, #4]
	ldr	r3, [r3, #772]
	orr	r2, r3, #65536
	ldr	r3, [r7, #4]
	str	r2, [r3, #772]
	.loc 5 933 47
	ldr	r3, [r7, #4]
	ldr	r3, [r3, #772]
	bic	r2, r3, #65536
	ldr	r3, [r7, #4]
	str	r2, [r3, #772]
	.loc 5 935 5
	ldr	r3, [r7, #4]
	ldr	r3, [r3, #772]
	.loc 5 936 1
	nop
	adds	r7, r7, #12
.LCFI43:
	.cfi_def_cfa_offset 4
	mov	sp, r7
.LCFI44:
	.cfi_def_cfa_register 13
	@ sp needed
	ldr	r7, [sp], #4
.LCFI45:
	.cfi_restore 7
	.cfi_def_cfa_offset 0
	bx	lr
	.cfi_endproc
.LFE628:
	.size	Cy_SCB_ClearRxFifo, .-Cy_SCB_ClearRxFifo
	.section	.text.Cy_SCB_GetNumInTxFifo,"ax",%progbits
	.align	1
	.syntax unified
	.thumb
	.thumb_func
	.type	Cy_SCB_GetNumInTxFifo, %function
Cy_SCB_GetNumInTxFifo:
.LFB631:
	.loc 5 997 1
	.cfi_startproc
	@ args = 0, pretend = 0, frame = 8
	@ frame_needed = 1, uses_anonymous_args = 0
	@ link register save eliminated.
	push	{r7}
.LCFI46:
	.cfi_def_cfa_offset 4
	.cfi_offset 7, -4
	sub	sp, sp, #12
.LCFI47:
	.cfi_def_cfa_offset 16
	add	r7, sp, #0
.LCFI48:
	.cfi_def_cfa_register 7
	str	r0, [r7, #4]
	.loc 5 998 51
	ldr	r3, [r7, #4]
	ldr	r3, [r3, #520]
	.loc 5 998 81
	ubfx	r3, r3, #0, #9
	.loc 5 999 1
	mov	r0, r3
	adds	r7, r7, #12
.LCFI49:
	.cfi_def_cfa_offset 4
	mov	sp, r7
.LCFI50:
	.cfi_def_cfa_register 13
	@ sp needed
	ldr	r7, [sp], #4
.LCFI51:
	.cfi_restore 7
	.cfi_def_cfa_offset 0
	bx	lr
	.cfi_endproc
.LFE631:
	.size	Cy_SCB_GetNumInTxFifo, .-Cy_SCB_GetNumInTxFifo
	.section	.text.Cy_SCB_GetTxSrValid,"ax",%progbits
	.align	1
	.syntax unified
	.thumb
	.thumb_func
	.type	Cy_SCB_GetTxSrValid, %function
Cy_SCB_GetTxSrValid:
.LFB632:
	.loc 5 1016 1
	.cfi_startproc
	@ args = 0, pretend = 0, frame = 8
	@ frame_needed = 1, uses_anonymous_args = 0
	@ link register save eliminated.
	push	{r7}
.LCFI52:
	.cfi_def_cfa_offset 4
	.cfi_offset 7, -4
	sub	sp, sp, #12
.LCFI53:
	.cfi_def_cfa_offset 16
	add	r7, sp, #0
.LCFI54:
	.cfi_def_cfa_register 7
	str	r0, [r7, #4]
	.loc 5 1017 51
	ldr	r3, [r7, #4]
	ldr	r3, [r3, #520]
	.loc 5 1017 82
	lsrs	r3, r3, #15
	and	r3, r3, #1
	.loc 5 1018 1
	mov	r0, r3
	adds	r7, r7, #12
.LCFI55:
	.cfi_def_cfa_offset 4
	mov	sp, r7
.LCFI56:
	.cfi_def_cfa_register 13
	@ sp needed
	ldr	r7, [sp], #4
.LCFI57:
	.cfi_restore 7
	.cfi_def_cfa_offset 0
	bx	lr
	.cfi_endproc
.LFE632:
	.size	Cy_SCB_GetTxSrValid, .-Cy_SCB_GetTxSrValid
	.section	.text.Cy_SCB_IsTxComplete,"ax",%progbits
	.align	1
	.syntax unified
	.thumb
	.thumb_func
	.type	Cy_SCB_IsTxComplete, %function
Cy_SCB_IsTxComplete:
.LFB633:
	.loc 5 1035 1
	.cfi_startproc
	@ args = 0, pretend = 0, frame = 8
	@ frame_needed = 1, uses_anonymous_args = 0
	push	{r4, r7, lr}
.LCFI58:
	.cfi_def_cfa_offset 12
	.cfi_offset 4, -12
	.cfi_offset 7, -8
	.cfi_offset 14, -4
	sub	sp, sp, #12
.LCFI59:
	.cfi_def_cfa_offset 24
	add	r7, sp, #0
.LCFI60:
	.cfi_def_cfa_register 7
	str	r0, [r7, #4]
	.loc 5 1036 22
	ldr	r0, [r7, #4]
	bl	Cy_SCB_GetNumInTxFifo
	mov	r4, r0
	.loc 5 1036 52
	ldr	r0, [r7, #4]
	bl	Cy_SCB_GetTxSrValid
	mov	r3, r0
	.loc 5 1036 50
	add	r3, r3, r4
	.loc 5 1036 18
	cmp	r3, #0
	ite	eq
	moveq	r3, #1
	movne	r3, #0
	uxtb	r3, r3
	.loc 5 1037 1
	mov	r0, r3
	adds	r7, r7, #12
.LCFI61:
	.cfi_def_cfa_offset 12
	mov	sp, r7
.LCFI62:
	.cfi_def_cfa_register 13
	@ sp needed
	pop	{r4, r7, pc}
	.cfi_endproc
.LFE633:
	.size	Cy_SCB_IsTxComplete, .-Cy_SCB_IsTxComplete
	.section	.text.Cy_SCB_ClearTxFifo,"ax",%progbits
	.align	1
	.syntax unified
	.thumb
	.thumb_func
	.type	Cy_SCB_ClearTxFifo, %function
Cy_SCB_ClearTxFifo:
.LFB634:
	.loc 5 1056 1
	.cfi_startproc
	@ args = 0, pretend = 0, frame = 8
	@ frame_needed = 1, uses_anonymous_args = 0
	@ link register save eliminated.
	push	{r7}
.LCFI63:
	.cfi_def_cfa_offset 4
	.cfi_offset 7, -4
	sub	sp, sp, #12
.LCFI64:
	.cfi_def_cfa_offset 16
	add	r7, sp, #0
.LCFI65:
	.cfi_def_cfa_register 7
	str	r0, [r7, #4]
	.loc 5 1057 47
	ldr	r3, [r7, #4]
	ldr	r3, [r3, #516]
	orr	r2, r3, #65536
	ldr	r3, [r7, #4]
	str	r2, [r3, #516]
	.loc 5 1058 47
	ldr	r3, [r7, #4]
	ldr	r3, [r3, #516]
	bic	r2, r3, #65536
	ldr	r3, [r7, #4]
	str	r2, [r3, #516]
	.loc 5 1060 5
	ldr	r3, [r7, #4]
	ldr	r3, [r3, #516]
	.loc 5 1061 1
	nop
	adds	r7, r7, #12
.LCFI66:
	.cfi_def_cfa_offset 4
	mov	sp, r7
.LCFI67:
	.cfi_def_cfa_register 13
	@ sp needed
	ldr	r7, [sp], #4
.LCFI68:
	.cfi_restore 7
	.cfi_def_cfa_offset 0
	bx	lr
	.cfi_endproc
.LFE634:
	.size	Cy_SCB_ClearTxFifo, .-Cy_SCB_ClearTxFifo
	.section	.text.Cy_SCB_SetRxInterruptMask,"ax",%progbits
	.align	1
	.syntax unified
	.thumb
	.thumb_func
	.type	Cy_SCB_SetRxInterruptMask, %function
Cy_SCB_SetRxInterruptMask:
.LFB638:
	.loc 5 1196 1
	.cfi_startproc
	@ args = 0, pretend = 0, frame = 8
	@ frame_needed = 1, uses_anonymous_args = 0
	push	{r7, lr}
.LCFI69:
	.cfi_def_cfa_offset 8
	.cfi_offset 7, -8
	.cfi_offset 14, -4
	sub	sp, sp, #8
.LCFI70:
	.cfi_def_cfa_offset 16
	add	r7, sp, #0
.LCFI71:
	.cfi_def_cfa_register 7
	str	r0, [r7, #4]
	str	r1, [r7]
	.loc 5 1197 41
	ldr	r3, [r7]
	bic	r3, r3, #2912
	bic	r3, r3, #13
	.loc 5 1197 12
	cmp	r3, #0
	beq	.L40
	.loc 5 1197 138 discriminator 1
	bl	CY_HALT
.L40:
	.loc 5 1199 47
	ldr	r3, [r7, #4]
	ldr	r2, [r7]
	str	r2, [r3, #4040]
	.loc 5 1200 1
	nop
	adds	r7, r7, #8
.LCFI72:
	.cfi_def_cfa_offset 8
	mov	sp, r7
.LCFI73:
	.cfi_def_cfa_register 13
	@ sp needed
	pop	{r7, pc}
	.cfi_endproc
.LFE638:
	.size	Cy_SCB_SetRxInterruptMask, .-Cy_SCB_SetRxInterruptMask
	.section	.text.Cy_SCB_GetRxInterruptMask,"ax",%progbits
	.align	1
	.syntax unified
	.thumb
	.thumb_func
	.type	Cy_SCB_GetRxInterruptMask, %function
Cy_SCB_GetRxInterruptMask:
.LFB639:
	.loc 5 1219 1
	.cfi_startproc
	@ args = 0, pretend = 0, frame = 8
	@ frame_needed = 1, uses_anonymous_args = 0
	@ link register save eliminated.
	push	{r7}
.LCFI74:
	.cfi_def_cfa_offset 4
	.cfi_offset 7, -4
	sub	sp, sp, #12
.LCFI75:
	.cfi_def_cfa_offset 16
	add	r7, sp, #0
.LCFI76:
	.cfi_def_cfa_register 7
	str	r0, [r7, #4]
	.loc 5 1220 39
	ldr	r3, [r7, #4]
	ldr	r3, [r3, #4040]
	.loc 5 1221 1
	mov	r0, r3
	adds	r7, r7, #12
.LCFI77:
	.cfi_def_cfa_offset 4
	mov	sp, r7
.LCFI78:
	.cfi_def_cfa_register 13
	@ sp needed
	ldr	r7, [sp], #4
.LCFI79:
	.cfi_restore 7
	.cfi_def_cfa_offset 0
	bx	lr
	.cfi_endproc
.LFE639:
	.size	Cy_SCB_GetRxInterruptMask, .-Cy_SCB_GetRxInterruptMask
	.section	.text.Cy_SCB_GetRxInterruptStatusMasked,"ax",%progbits
	.align	1
	.syntax unified
	.thumb
	.thumb_func
	.type	Cy_SCB_GetRxInterruptStatusMasked, %function
Cy_SCB_GetRxInterruptStatusMasked:
.LFB640:
	.loc 5 1243 1
	.cfi_startproc
	@ args = 0, pretend = 0, frame = 8
	@ frame_needed = 1, uses_anonymous_args = 0
	@ link register save eliminated.
	push	{r7}
.LCFI80:
	.cfi_def_cfa_offset 4
	.cfi_offset 7, -4
	sub	sp, sp, #12
.LCFI81:
	.cfi_def_cfa_offset 16
	add	r7, sp, #0
.LCFI82:
	.cfi_def_cfa_register 7
	str	r0, [r7, #4]
	.loc 5 1244 39
	ldr	r3, [r7, #4]
	ldr	r3, [r3, #4044]
	.loc 5 1245 1
	mov	r0, r3
	adds	r7, r7, #12
.LCFI83:
	.cfi_def_cfa_offset 4
	mov	sp, r7
.LCFI84:
	.cfi_def_cfa_register 13
	@ sp needed
	ldr	r7, [sp], #4
.LCFI85:
	.cfi_restore 7
	.cfi_def_cfa_offset 0
	bx	lr
	.cfi_endproc
.LFE640:
	.size	Cy_SCB_GetRxInterruptStatusMasked, .-Cy_SCB_GetRxInterruptStatusMasked
	.section	.text.Cy_SCB_ClearRxInterrupt,"ax",%progbits
	.align	1
	.syntax unified
	.thumb
	.thumb_func
	.type	Cy_SCB_ClearRxInterrupt, %function
Cy_SCB_ClearRxInterrupt:
.LFB641:
	.loc 5 1271 1
	.cfi_startproc
	@ args = 0, pretend = 0, frame = 8
	@ frame_needed = 1, uses_anonymous_args = 0
	push	{r7, lr}
.LCFI86:
	.cfi_def_cfa_offset 8
	.cfi_offset 7, -8
	.cfi_offset 14, -4
	sub	sp, sp, #8
.LCFI87:
	.cfi_def_cfa_offset 16
	add	r7, sp, #0
.LCFI88:
	.cfi_def_cfa_register 7
	str	r0, [r7, #4]
	str	r1, [r7]
	.loc 5 1272 41
	ldr	r3, [r7]
	bic	r3, r3, #2912
	bic	r3, r3, #13
	.loc 5 1272 12
	cmp	r3, #0
	beq	.L46
	.loc 5 1272 138 discriminator 1
	bl	CY_HALT
.L46:
	.loc 5 1274 42
	ldr	r3, [r7, #4]
	ldr	r2, [r7]
	str	r2, [r3, #4032]
	.loc 5 1275 5
	ldr	r3, [r7, #4]
	ldr	r3, [r3, #4032]
	.loc 5 1276 1
	nop
	adds	r7, r7, #8
.LCFI89:
	.cfi_def_cfa_offset 8
	mov	sp, r7
.LCFI90:
	.cfi_def_cfa_register 13
	@ sp needed
	pop	{r7, pc}
	.cfi_endproc
.LFE641:
	.size	Cy_SCB_ClearRxInterrupt, .-Cy_SCB_ClearRxInterrupt
	.section	.text.Cy_SCB_SetTxInterruptMask,"ax",%progbits
	.align	1
	.syntax unified
	.thumb
	.thumb_func
	.type	Cy_SCB_SetTxInterruptMask, %function
Cy_SCB_SetTxInterruptMask:
.LFB644:
	.loc 5 1340 1
	.cfi_startproc
	@ args = 0, pretend = 0, frame = 8
	@ frame_needed = 1, uses_anonymous_args = 0
	push	{r7, lr}
.LCFI91:
	.cfi_def_cfa_offset 8
	.cfi_offset 7, -8
	.cfi_offset 14, -4
	sub	sp, sp, #8
.LCFI92:
	.cfi_def_cfa_offset 16
	add	r7, sp, #0
.LCFI93:
	.cfi_def_cfa_register 7
	str	r0, [r7, #4]
	str	r1, [r7]
	.loc 5 1341 41
	ldr	r3, [r7]
	bic	r3, r3, #1904
	bic	r3, r3, #3
	.loc 5 1341 12
	cmp	r3, #0
	beq	.L48
	.loc 5 1341 139 discriminator 1
	bl	CY_HALT
.L48:
	.loc 5 1343 47
	ldr	r3, [r7, #4]
	ldr	r2, [r7]
	str	r2, [r3, #3976]
	.loc 5 1344 1
	nop
	adds	r7, r7, #8
.LCFI94:
	.cfi_def_cfa_offset 8
	mov	sp, r7
.LCFI95:
	.cfi_def_cfa_register 13
	@ sp needed
	pop	{r7, pc}
	.cfi_endproc
.LFE644:
	.size	Cy_SCB_SetTxInterruptMask, .-Cy_SCB_SetTxInterruptMask
	.section	.text.Cy_SCB_GetTxInterruptMask,"ax",%progbits
	.align	1
	.syntax unified
	.thumb
	.thumb_func
	.type	Cy_SCB_GetTxInterruptMask, %function
Cy_SCB_GetTxInterruptMask:
.LFB645:
	.loc 5 1363 1
	.cfi_startproc
	@ args = 0, pretend = 0, frame = 8
	@ frame_needed = 1, uses_anonymous_args = 0
	@ link register save eliminated.
	push	{r7}
.LCFI96:
	.cfi_def_cfa_offset 4
	.cfi_offset 7, -4
	sub	sp, sp, #12
.LCFI97:
	.cfi_def_cfa_offset 16
	add	r7, sp, #0
.LCFI98:
	.cfi_def_cfa_register 7
	str	r0, [r7, #4]
	.loc 5 1364 39
	ldr	r3, [r7, #4]
	ldr	r3, [r3, #3976]
	.loc 5 1365 1
	mov	r0, r3
	adds	r7, r7, #12
.LCFI99:
	.cfi_def_cfa_offset 4
	mov	sp, r7
.LCFI100:
	.cfi_def_cfa_register 13
	@ sp needed
	ldr	r7, [sp], #4
.LCFI101:
	.cfi_restore 7
	.cfi_def_cfa_offset 0
	bx	lr
	.cfi_endproc
.LFE645:
	.size	Cy_SCB_GetTxInterruptMask, .-Cy_SCB_GetTxInterruptMask
	.section	.text.Cy_SCB_GetTxInterruptStatusMasked,"ax",%progbits
	.align	1
	.syntax unified
	.thumb
	.thumb_func
	.type	Cy_SCB_GetTxInterruptStatusMasked, %function
Cy_SCB_GetTxInterruptStatusMasked:
.LFB646:
	.loc 5 1387 1
	.cfi_startproc
	@ args = 0, pretend = 0, frame = 8
	@ frame_needed = 1, uses_anonymous_args = 0
	@ link register save eliminated.
	push	{r7}
.LCFI102:
	.cfi_def_cfa_offset 4
	.cfi_offset 7, -4
	sub	sp, sp, #12
.LCFI103:
	.cfi_def_cfa_offset 16
	add	r7, sp, #0
.LCFI104:
	.cfi_def_cfa_register 7
	str	r0, [r7, #4]
	.loc 5 1388 39
	ldr	r3, [r7, #4]
	ldr	r3, [r3, #3980]
	.loc 5 1389 1
	mov	r0, r3
	adds	r7, r7, #12
.LCFI105:
	.cfi_def_cfa_offset 4
	mov	sp, r7
.LCFI106:
	.cfi_def_cfa_register 13
	@ sp needed
	ldr	r7, [sp], #4
.LCFI107:
	.cfi_restore 7
	.cfi_def_cfa_offset 0
	bx	lr
	.cfi_endproc
.LFE646:
	.size	Cy_SCB_GetTxInterruptStatusMasked, .-Cy_SCB_GetTxInterruptStatusMasked
	.section	.text.Cy_SCB_ClearTxInterrupt,"ax",%progbits
	.align	1
	.syntax unified
	.thumb
	.thumb_func
	.type	Cy_SCB_ClearTxInterrupt, %function
Cy_SCB_ClearTxInterrupt:
.LFB647:
	.loc 5 1417 1
	.cfi_startproc
	@ args = 0, pretend = 0, frame = 8
	@ frame_needed = 1, uses_anonymous_args = 0
	push	{r7, lr}
.LCFI108:
	.cfi_def_cfa_offset 8
	.cfi_offset 7, -8
	.cfi_offset 14, -4
	sub	sp, sp, #8
.LCFI109:
	.cfi_def_cfa_offset 16
	add	r7, sp, #0
.LCFI110:
	.cfi_def_cfa_register 7
	str	r0, [r7, #4]
	str	r1, [r7]
	.loc 5 1418 41
	ldr	r3, [r7]
	bic	r3, r3, #1904
	bic	r3, r3, #3
	.loc 5 1418 12
	cmp	r3, #0
	beq	.L54
	.loc 5 1418 139 discriminator 1
	bl	CY_HALT
.L54:
	.loc 5 1420 42
	ldr	r3, [r7, #4]
	ldr	r2, [r7]
	str	r2, [r3, #3968]
	.loc 5 1421 5
	ldr	r3, [r7, #4]
	ldr	r3, [r3, #3968]
	.loc 5 1422 1
	nop
	adds	r7, r7, #8
.LCFI111:
	.cfi_def_cfa_offset 8
	mov	sp, r7
.LCFI112:
	.cfi_def_cfa_register 13
	@ sp needed
	pop	{r7, pc}
	.cfi_endproc
.LFE647:
	.size	Cy_SCB_ClearTxInterrupt, .-Cy_SCB_ClearTxInterrupt
	.section	.text.Cy_SCB_GetFifoSize,"ax",%progbits
	.align	1
	.syntax unified
	.thumb
	.thumb_func
	.type	Cy_SCB_GetFifoSize, %function
Cy_SCB_GetFifoSize:
.LFB671:
	.loc 5 1964 1
	.cfi_startproc
	@ args = 0, pretend = 0, frame = 8
	@ frame_needed = 1, uses_anonymous_args = 0
	@ link register save eliminated.
	push	{r7}
.LCFI113:
	.cfi_def_cfa_offset 4
	.cfi_offset 7, -4
	sub	sp, sp, #12
.LCFI114:
	.cfi_def_cfa_offset 16
	add	r7, sp, #0
.LCFI115:
	.cfi_def_cfa_register 7
	str	r0, [r7, #4]
	.loc 5 1968 43
	ldr	r3, [r7, #4]
	ldr	r3, [r3]
	.loc 5 1968 52
	and	r3, r3, #2048
	.loc 5 1968 85
	cmp	r3, #0
	beq	.L56
	.loc 5 1968 85 is_stmt 0 discriminator 1
	movs	r3, #128
	b	.L58
.L56:
	.loc 5 1968 85 discriminator 2
	movs	r3, #64
.L58:
	.loc 5 1973 1 is_stmt 1 discriminator 5
	mov	r0, r3
	adds	r7, r7, #12
.LCFI116:
	.cfi_def_cfa_offset 4
	mov	sp, r7
.LCFI117:
	.cfi_def_cfa_register 13
	@ sp needed
	ldr	r7, [sp], #4
.LCFI118:
	.cfi_restore 7
	.cfi_def_cfa_offset 0
	bx	lr
	.cfi_endproc
.LFE671:
	.size	Cy_SCB_GetFifoSize, .-Cy_SCB_GetFifoSize
	.section	.text.Cy_SCB_UART_Enable,"ax",%progbits
	.align	1
	.syntax unified
	.thumb
	.thumb_func
	.type	Cy_SCB_UART_Enable, %function
Cy_SCB_UART_Enable:
.LFB710:
	.file 6 "libraries\\IFX_PSOC6_HAL\\mtb-pdl-cat1\\drivers\\include/cy_scb_uart.h"
	.loc 6 991 1
	.cfi_startproc
	@ args = 0, pretend = 0, frame = 8
	@ frame_needed = 1, uses_anonymous_args = 0
	@ link register save eliminated.
	push	{r7}
.LCFI119:
	.cfi_def_cfa_offset 4
	.cfi_offset 7, -4
	sub	sp, sp, #12
.LCFI120:
	.cfi_def_cfa_offset 16
	add	r7, sp, #0
.LCFI121:
	.cfi_def_cfa_register 7
	str	r0, [r7, #4]
	.loc 6 992 39
	ldr	r3, [r7, #4]
	ldr	r3, [r3]
	orr	r2, r3, #-2147483648
	ldr	r3, [r7, #4]
	str	r2, [r3]
	.loc 6 993 1
	nop
	adds	r7, r7, #12
.LCFI122:
	.cfi_def_cfa_offset 4
	mov	sp, r7
.LCFI123:
	.cfi_def_cfa_register 13
	@ sp needed
	ldr	r7, [sp], #4
.LCFI124:
	.cfi_restore 7
	.cfi_def_cfa_offset 0
	bx	lr
	.cfi_endproc
.LFE710:
	.size	Cy_SCB_UART_Enable, .-Cy_SCB_UART_Enable
	.section	.text.Cy_SCB_UART_EnableCts,"ax",%progbits
	.align	1
	.syntax unified
	.thumb
	.thumb_func
	.type	Cy_SCB_UART_EnableCts, %function
Cy_SCB_UART_EnableCts:
.LFB711:
	.loc 6 1008 1
	.cfi_startproc
	@ args = 0, pretend = 0, frame = 8
	@ frame_needed = 1, uses_anonymous_args = 0
	@ link register save eliminated.
	push	{r7}
.LCFI125:
	.cfi_def_cfa_offset 4
	.cfi_offset 7, -4
	sub	sp, sp, #12
.LCFI126:
	.cfi_def_cfa_offset 16
	add	r7, sp, #0
.LCFI127:
	.cfi_def_cfa_register 7
	str	r0, [r7, #4]
	.loc 6 1009 49
	ldr	r3, [r7, #4]
	ldr	r3, [r3, #80]
	orr	r2, r3, #33554432
	ldr	r3, [r7, #4]
	str	r2, [r3, #80]
	.loc 6 1010 1
	nop
	adds	r7, r7, #12
.LCFI128:
	.cfi_def_cfa_offset 4
	mov	sp, r7
.LCFI129:
	.cfi_def_cfa_register 13
	@ sp needed
	ldr	r7, [sp], #4
.LCFI130:
	.cfi_restore 7
	.cfi_def_cfa_offset 0
	bx	lr
	.cfi_endproc
.LFE711:
	.size	Cy_SCB_UART_EnableCts, .-Cy_SCB_UART_EnableCts
	.section	.text.Cy_SCB_UART_DisableCts,"ax",%progbits
	.align	1
	.syntax unified
	.thumb
	.thumb_func
	.type	Cy_SCB_UART_DisableCts, %function
Cy_SCB_UART_DisableCts:
.LFB712:
	.loc 6 1025 1
	.cfi_startproc
	@ args = 0, pretend = 0, frame = 8
	@ frame_needed = 1, uses_anonymous_args = 0
	@ link register save eliminated.
	push	{r7}
.LCFI131:
	.cfi_def_cfa_offset 4
	.cfi_offset 7, -4
	sub	sp, sp, #12
.LCFI132:
	.cfi_def_cfa_offset 16
	add	r7, sp, #0
.LCFI133:
	.cfi_def_cfa_register 7
	str	r0, [r7, #4]
	.loc 6 1026 49
	ldr	r3, [r7, #4]
	ldr	r3, [r3, #80]
	bic	r2, r3, #33554432
	ldr	r3, [r7, #4]
	str	r2, [r3, #80]
	.loc 6 1027 1
	nop
	adds	r7, r7, #12
.LCFI134:
	.cfi_def_cfa_offset 4
	mov	sp, r7
.LCFI135:
	.cfi_def_cfa_register 13
	@ sp needed
	ldr	r7, [sp], #4
.LCFI136:
	.cfi_restore 7
	.cfi_def_cfa_offset 0
	bx	lr
	.cfi_endproc
.LFE712:
	.size	Cy_SCB_UART_DisableCts, .-Cy_SCB_UART_DisableCts
	.section	.text.Cy_SCB_UART_Get,"ax",%progbits
	.align	1
	.syntax unified
	.thumb
	.thumb_func
	.type	Cy_SCB_UART_Get, %function
Cy_SCB_UART_Get:
.LFB723:
	.loc 6 1281 1
	.cfi_startproc
	@ args = 0, pretend = 0, frame = 16
	@ frame_needed = 1, uses_anonymous_args = 0
	@ link register save eliminated.
	push	{r7}
.LCFI137:
	.cfi_def_cfa_offset 4
	.cfi_offset 7, -4
	sub	sp, sp, #20
.LCFI138:
	.cfi_def_cfa_offset 24
	add	r7, sp, #0
.LCFI139:
	.cfi_def_cfa_register 7
	str	r0, [r7, #4]
	ldr	r3, [r7, #4]
	str	r3, [r7, #12]
.LBB12:
.LBB13:
	.loc 5 853 39
	ldr	r3, [r7, #12]
	ldr	r3, [r3, #832]
.LBE13:
.LBE12:
	.loc 6 1283 1
	mov	r0, r3
	adds	r7, r7, #20
.LCFI140:
	.cfi_def_cfa_offset 4
	mov	sp, r7
.LCFI141:
	.cfi_def_cfa_register 13
	@ sp needed
	ldr	r7, [sp], #4
.LCFI142:
	.cfi_restore 7
	.cfi_def_cfa_offset 0
	bx	lr
	.cfi_endproc
.LFE723:
	.size	Cy_SCB_UART_Get, .-Cy_SCB_UART_Get
	.section	.text.Cy_SCB_UART_GetArray,"ax",%progbits
	.align	1
	.syntax unified
	.thumb
	.thumb_func
	.type	Cy_SCB_UART_GetArray, %function
Cy_SCB_UART_GetArray:
.LFB724:
	.loc 6 1310 1
	.cfi_startproc
	@ args = 0, pretend = 0, frame = 16
	@ frame_needed = 1, uses_anonymous_args = 0
	push	{r7, lr}
.LCFI143:
	.cfi_def_cfa_offset 8
	.cfi_offset 7, -8
	.cfi_offset 14, -4
	sub	sp, sp, #16
.LCFI144:
	.cfi_def_cfa_offset 24
	add	r7, sp, #0
.LCFI145:
	.cfi_def_cfa_register 7
	str	r0, [r7, #12]
	str	r1, [r7, #8]
	str	r2, [r7, #4]
	.loc 6 1311 12
	ldr	r3, [r7, #8]
	cmp	r3, #0
	beq	.L66
	.loc 6 1311 13 discriminator 2
	ldr	r3, [r7, #4]
	cmp	r3, #0
	bne	.L67
.L66:
	.loc 6 1311 41 discriminator 3
	bl	CY_HALT
.L67:
	.loc 6 1313 12
	ldr	r2, [r7, #4]
	ldr	r1, [r7, #8]
	ldr	r0, [r7, #12]
	bl	Cy_SCB_ReadArray
	mov	r3, r0
	.loc 6 1314 1
	mov	r0, r3
	adds	r7, r7, #16
.LCFI146:
	.cfi_def_cfa_offset 8
	mov	sp, r7
.LCFI147:
	.cfi_def_cfa_register 13
	@ sp needed
	pop	{r7, pc}
	.cfi_endproc
.LFE724:
	.size	Cy_SCB_UART_GetArray, .-Cy_SCB_UART_GetArray
	.section	.text.Cy_SCB_UART_GetNumInRxFifo,"ax",%progbits
	.align	1
	.syntax unified
	.thumb
	.thumb_func
	.type	Cy_SCB_UART_GetNumInRxFifo, %function
Cy_SCB_UART_GetNumInRxFifo:
.LFB728:
	.loc 6 1408 1
	.cfi_startproc
	@ args = 0, pretend = 0, frame = 8
	@ frame_needed = 1, uses_anonymous_args = 0
	push	{r7, lr}
.LCFI148:
	.cfi_def_cfa_offset 8
	.cfi_offset 7, -8
	.cfi_offset 14, -4
	sub	sp, sp, #8
.LCFI149:
	.cfi_def_cfa_offset 16
	add	r7, sp, #0
.LCFI150:
	.cfi_def_cfa_register 7
	str	r0, [r7, #4]
	.loc 6 1409 12
	ldr	r0, [r7, #4]
	bl	Cy_SCB_GetNumInRxFifo
	mov	r3, r0
	.loc 6 1410 1
	mov	r0, r3
	adds	r7, r7, #8
.LCFI151:
	.cfi_def_cfa_offset 8
	mov	sp, r7
.LCFI152:
	.cfi_def_cfa_register 13
	@ sp needed
	pop	{r7, pc}
	.cfi_endproc
.LFE728:
	.size	Cy_SCB_UART_GetNumInRxFifo, .-Cy_SCB_UART_GetNumInRxFifo
	.section	.text.Cy_SCB_UART_ClearRxFifo,"ax",%progbits
	.align	1
	.syntax unified
	.thumb
	.thumb_func
	.type	Cy_SCB_UART_ClearRxFifo, %function
Cy_SCB_UART_ClearRxFifo:
.LFB729:
	.loc 6 1426 1
	.cfi_startproc
	@ args = 0, pretend = 0, frame = 8
	@ frame_needed = 1, uses_anonymous_args = 0
	push	{r7, lr}
.LCFI153:
	.cfi_def_cfa_offset 8
	.cfi_offset 7, -8
	.cfi_offset 14, -4
	sub	sp, sp, #8
.LCFI154:
	.cfi_def_cfa_offset 16
	add	r7, sp, #0
.LCFI155:
	.cfi_def_cfa_register 7
	str	r0, [r7, #4]
	.loc 6 1427 5
	ldr	r0, [r7, #4]
	bl	Cy_SCB_ClearRxFifo
	.loc 6 1428 1
	nop
	adds	r7, r7, #8
.LCFI156:
	.cfi_def_cfa_offset 8
	mov	sp, r7
.LCFI157:
	.cfi_def_cfa_register 13
	@ sp needed
	pop	{r7, pc}
	.cfi_endproc
.LFE729:
	.size	Cy_SCB_UART_ClearRxFifo, .-Cy_SCB_UART_ClearRxFifo
	.section	.text.Cy_SCB_UART_Put,"ax",%progbits
	.align	1
	.syntax unified
	.thumb
	.thumb_func
	.type	Cy_SCB_UART_Put, %function
Cy_SCB_UART_Put:
.LFB730:
	.loc 6 1452 1
	.cfi_startproc
	@ args = 0, pretend = 0, frame = 8
	@ frame_needed = 1, uses_anonymous_args = 0
	push	{r7, lr}
.LCFI158:
	.cfi_def_cfa_offset 8
	.cfi_offset 7, -8
	.cfi_offset 14, -4
	sub	sp, sp, #8
.LCFI159:
	.cfi_def_cfa_offset 16
	add	r7, sp, #0
.LCFI160:
	.cfi_def_cfa_register 7
	str	r0, [r7, #4]
	str	r1, [r7]
	.loc 6 1453 12
	ldr	r1, [r7]
	ldr	r0, [r7, #4]
	bl	Cy_SCB_Write
	mov	r3, r0
	.loc 6 1454 1
	mov	r0, r3
	adds	r7, r7, #8
.LCFI161:
	.cfi_def_cfa_offset 8
	mov	sp, r7
.LCFI162:
	.cfi_def_cfa_register 13
	@ sp needed
	pop	{r7, pc}
	.cfi_endproc
.LFE730:
	.size	Cy_SCB_UART_Put, .-Cy_SCB_UART_Put
	.section	.text.Cy_SCB_UART_PutArray,"ax",%progbits
	.align	1
	.syntax unified
	.thumb
	.thumb_func
	.type	Cy_SCB_UART_PutArray, %function
Cy_SCB_UART_PutArray:
.LFB731:
	.loc 6 1481 1
	.cfi_startproc
	@ args = 0, pretend = 0, frame = 16
	@ frame_needed = 1, uses_anonymous_args = 0
	push	{r7, lr}
.LCFI163:
	.cfi_def_cfa_offset 8
	.cfi_offset 7, -8
	.cfi_offset 14, -4
	sub	sp, sp, #16
.LCFI164:
	.cfi_def_cfa_offset 24
	add	r7, sp, #0
.LCFI165:
	.cfi_def_cfa_register 7
	str	r0, [r7, #12]
	str	r1, [r7, #8]
	str	r2, [r7, #4]
	.loc 6 1482 12
	ldr	r3, [r7, #8]
	cmp	r3, #0
	beq	.L75
	.loc 6 1482 13 discriminator 2
	ldr	r3, [r7, #4]
	cmp	r3, #0
	bne	.L76
.L75:
	.loc 6 1482 41 discriminator 3
	bl	CY_HALT
.L76:
	.loc 6 1484 12
	ldr	r2, [r7, #4]
	ldr	r1, [r7, #8]
	ldr	r0, [r7, #12]
	bl	Cy_SCB_WriteArray
	mov	r3, r0
	.loc 6 1485 1
	mov	r0, r3
	adds	r7, r7, #16
.LCFI166:
	.cfi_def_cfa_offset 8
	mov	sp, r7
.LCFI167:
	.cfi_def_cfa_register 13
	@ sp needed
	pop	{r7, pc}
	.cfi_endproc
.LFE731:
	.size	Cy_SCB_UART_PutArray, .-Cy_SCB_UART_PutArray
	.section	.text.Cy_SCB_UART_IsTxComplete,"ax",%progbits
	.align	1
	.syntax unified
	.thumb
	.thumb_func
	.type	Cy_SCB_UART_IsTxComplete, %function
Cy_SCB_UART_IsTxComplete:
.LFB737:
	.loc 6 1623 1
	.cfi_startproc
	@ args = 0, pretend = 0, frame = 8
	@ frame_needed = 1, uses_anonymous_args = 0
	push	{r7, lr}
.LCFI168:
	.cfi_def_cfa_offset 8
	.cfi_offset 7, -8
	.cfi_offset 14, -4
	sub	sp, sp, #8
.LCFI169:
	.cfi_def_cfa_offset 16
	add	r7, sp, #0
.LCFI170:
	.cfi_def_cfa_register 7
	str	r0, [r7, #4]
	.loc 6 1624 12
	ldr	r0, [r7, #4]
	bl	Cy_SCB_IsTxComplete
	mov	r3, r0
	.loc 6 1625 1
	mov	r0, r3
	adds	r7, r7, #8
.LCFI171:
	.cfi_def_cfa_offset 8
	mov	sp, r7
.LCFI172:
	.cfi_def_cfa_register 13
	@ sp needed
	pop	{r7, pc}
	.cfi_endproc
.LFE737:
	.size	Cy_SCB_UART_IsTxComplete, .-Cy_SCB_UART_IsTxComplete
	.section	.text.Cy_SCB_UART_ClearTxFifo,"ax",%progbits
	.align	1
	.syntax unified
	.thumb
	.thumb_func
	.type	Cy_SCB_UART_ClearTxFifo, %function
Cy_SCB_UART_ClearTxFifo:
.LFB738:
	.loc 6 1645 1
	.cfi_startproc
	@ args = 0, pretend = 0, frame = 8
	@ frame_needed = 1, uses_anonymous_args = 0
	push	{r7, lr}
.LCFI173:
	.cfi_def_cfa_offset 8
	.cfi_offset 7, -8
	.cfi_offset 14, -4
	sub	sp, sp, #8
.LCFI174:
	.cfi_def_cfa_offset 16
	add	r7, sp, #0
.LCFI175:
	.cfi_def_cfa_register 7
	str	r0, [r7, #4]
	.loc 6 1646 5
	ldr	r0, [r7, #4]
	bl	Cy_SCB_ClearTxFifo
	.loc 6 1647 1
	nop
	adds	r7, r7, #8
.LCFI176:
	.cfi_def_cfa_offset 8
	mov	sp, r7
.LCFI177:
	.cfi_def_cfa_register 13
	@ sp needed
	pop	{r7, pc}
	.cfi_endproc
.LFE738:
	.size	Cy_SCB_UART_ClearTxFifo, .-Cy_SCB_UART_ClearTxFifo
	.section	.text.Cy_SCB_UART_RegisterCallback,"ax",%progbits
	.align	1
	.syntax unified
	.thumb
	.thumb_func
	.type	Cy_SCB_UART_RegisterCallback, %function
Cy_SCB_UART_RegisterCallback:
.LFB739:
	.loc 6 1681 1
	.cfi_startproc
	@ args = 0, pretend = 0, frame = 16
	@ frame_needed = 1, uses_anonymous_args = 0
	@ link register save eliminated.
	push	{r7}
.LCFI178:
	.cfi_def_cfa_offset 4
	.cfi_offset 7, -4
	sub	sp, sp, #20
.LCFI179:
	.cfi_def_cfa_offset 24
	add	r7, sp, #0
.LCFI180:
	.cfi_def_cfa_register 7
	str	r0, [r7, #12]
	str	r1, [r7, #8]
	str	r2, [r7, #4]
	.loc 6 1685 23
	ldr	r3, [r7, #4]
	ldr	r2, [r7, #8]
	str	r2, [r3, #52]
	.loc 6 1686 1
	nop
	adds	r7, r7, #20
.LCFI181:
	.cfi_def_cfa_offset 4
	mov	sp, r7
.LCFI182:
	.cfi_def_cfa_register 13
	@ sp needed
	ldr	r7, [sp], #4
.LCFI183:
	.cfi_restore 7
	.cfi_def_cfa_offset 0
	bx	lr
	.cfi_endproc
.LFE739:
	.size	Cy_SCB_UART_RegisterCallback, .-Cy_SCB_UART_RegisterCallback
	.section	.text._cyhal_utils_get_peripheral_clock_frequency,"ax",%progbits
	.align	1
	.syntax unified
	.thumb
	.thumb_func
	.type	_cyhal_utils_get_peripheral_clock_frequency, %function
_cyhal_utils_get_peripheral_clock_frequency:
.LFB977:
	.file 7 "libraries\\IFX_PSOC6_HAL\\mtb-hal-cat1\\include_pvt/cyhal_utils_impl.h"
	.loc 7 111 1
	.cfi_startproc
	@ args = 0, pretend = 0, frame = 8
	@ frame_needed = 1, uses_anonymous_args = 0
	push	{r7, lr}
.LCFI184:
	.cfi_def_cfa_offset 8
	.cfi_offset 7, -8
	.cfi_offset 14, -4
	sub	sp, sp, #8
.LCFI185:
	.cfi_def_cfa_offset 16
	add	r7, sp, #0
.LCFI186:
	.cfi_def_cfa_register 7
	str	r0, [r7, #4]
	.loc 7 114 12
	bl	Cy_SysClk_ClkPeriGetFrequency
	mov	r3, r0
	.loc 7 124 1
	mov	r0, r3
	adds	r7, r7, #8
.LCFI187:
	.cfi_def_cfa_offset 8
	mov	sp, r7
.LCFI188:
	.cfi_def_cfa_register 13
	@ sp needed
	pop	{r7, pc}
	.cfi_endproc
.LFE977:
	.size	_cyhal_utils_get_peripheral_clock_frequency, .-_cyhal_utils_get_peripheral_clock_frequency
	.section	.text._cyhal_utils_divider_value,"ax",%progbits
	.align	1
	.syntax unified
	.thumb
	.thumb_func
	.type	_cyhal_utils_divider_value, %function
_cyhal_utils_divider_value:
.LFB978:
	.loc 7 138 1
	.cfi_startproc
	@ args = 0, pretend = 0, frame = 16
	@ frame_needed = 1, uses_anonymous_args = 0
	push	{r7, lr}
.LCFI189:
	.cfi_def_cfa_offset 8
	.cfi_offset 7, -8
	.cfi_offset 14, -4
	sub	sp, sp, #16
.LCFI190:
	.cfi_def_cfa_offset 24
	add	r7, sp, #0
.LCFI191:
	.cfi_def_cfa_register 7
	str	r0, [r7, #12]
	str	r1, [r7, #8]
	str	r2, [r7, #4]
	.loc 7 139 14
	ldr	r0, [r7, #12]
	bl	_cyhal_utils_get_peripheral_clock_frequency
	mov	r2, r0
	.loc 7 139 72
	ldr	r3, [r7, #4]
	lsls	r2, r2, r3
	.loc 7 139 105
	ldr	r3, [r7, #8]
	lsrs	r3, r3, #1
	.loc 7 139 92
	add	r2, r2, r3
	.loc 7 139 111
	ldr	r3, [r7, #8]
	udiv	r3, r2, r3
	.loc 7 140 1
	mov	r0, r3
	adds	r7, r7, #16
.LCFI192:
	.cfi_def_cfa_offset 8
	mov	sp, r7
.LCFI193:
	.cfi_def_cfa_register 13
	@ sp needed
	pop	{r7, pc}
	.cfi_endproc
.LFE978:
	.size	_cyhal_utils_divider_value, .-_cyhal_utils_divider_value
	.section	.text._cyhal_utils_peri_pclk_assign_divider,"ax",%progbits
	.align	1
	.syntax unified
	.thumb
	.thumb_func
	.type	_cyhal_utils_peri_pclk_assign_divider, %function
_cyhal_utils_peri_pclk_assign_divider:
.LFB984:
	.loc 7 299 1
	.cfi_startproc
	@ args = 0, pretend = 0, frame = 8
	@ frame_needed = 1, uses_anonymous_args = 0
	push	{r7, lr}
.LCFI194:
	.cfi_def_cfa_offset 8
	.cfi_offset 7, -8
	.cfi_offset 14, -4
	sub	sp, sp, #8
.LCFI195:
	.cfi_def_cfa_offset 16
	add	r7, sp, #0
.LCFI196:
	.cfi_def_cfa_register 7
	mov	r3, r0
	str	r1, [r7]
	strb	r3, [r7, #7]
	.loc 7 303 87
	ldr	r3, [r7]
	ldrb	r3, [r3]	@ zero_extendqisi2
	.loc 7 303 96
	and	r3, r3, #3
	uxtb	r1, r3
	.loc 7 303 111
	ldr	r3, [r7]
	ldrb	r3, [r3, #1]	@ zero_extendqisi2
	.loc 7 303 16
	mov	r2, r3
	ldrb	r3, [r7, #7]	@ zero_extendqisi2
	mov	r0, r3
	bl	Cy_SysClk_PeriphAssignDivider
	mov	r3, r0
	.loc 7 305 1
	mov	r0, r3
	adds	r7, r7, #8
.LCFI197:
	.cfi_def_cfa_offset 8
	mov	sp, r7
.LCFI198:
	.cfi_def_cfa_register 13
	@ sp needed
	pop	{r7, pc}
	.cfi_endproc
.LFE984:
	.size	_cyhal_utils_peri_pclk_assign_divider, .-_cyhal_utils_peri_pclk_assign_divider
	.section	.text._cyhal_irq_set_priority,"ax",%progbits
	.align	1
	.syntax unified
	.thumb
	.thumb_func
	.type	_cyhal_irq_set_priority, %function
_cyhal_irq_set_priority:
.LFB993:
	.file 8 "libraries\\IFX_PSOC6_HAL\\mtb-hal-cat1\\include_pvt/cyhal_irq_impl.h"
	.loc 8 103 1
	.cfi_startproc
	@ args = 0, pretend = 0, frame = 16
	@ frame_needed = 1, uses_anonymous_args = 0
	push	{r7, lr}
.LCFI199:
	.cfi_def_cfa_offset 8
	.cfi_offset 7, -8
	.cfi_offset 14, -4
	sub	sp, sp, #16
.LCFI200:
	.cfi_def_cfa_offset 24
	add	r7, sp, #0
.LCFI201:
	.cfi_def_cfa_register 7
	mov	r3, r0
	mov	r2, r1
	strh	r3, [r7, #6]	@ movhi
	mov	r3, r2
	strb	r3, [r7, #5]
	.loc 8 114 15
	ldrh	r3, [r7, #6]	@ movhi
	strh	r3, [r7, #14]	@ movhi
	.loc 8 115 13
	ldrb	r3, [r7, #5]
	strb	r3, [r7, #13]
	.loc 8 117 5
	ldrb	r2, [r7, #13]	@ zero_extendqisi2
	ldrsh	r3, [r7, #14]
	mov	r1, r2
	mov	r0, r3
	bl	__NVIC_SetPriority
	.loc 8 118 1
	nop
	adds	r7, r7, #16
.LCFI202:
	.cfi_def_cfa_offset 8
	mov	sp, r7
.LCFI203:
	.cfi_def_cfa_register 13
	@ sp needed
	pop	{r7, pc}
	.cfi_endproc
.LFE993:
	.size	_cyhal_irq_set_priority, .-_cyhal_irq_set_priority
	.section	.text._cyhal_irq_clear_pending,"ax",%progbits
	.align	1
	.syntax unified
	.thumb
	.thumb_func
	.type	_cyhal_irq_clear_pending, %function
_cyhal_irq_clear_pending:
.LFB995:
	.loc 8 135 1
	.cfi_startproc
	@ args = 0, pretend = 0, frame = 16
	@ frame_needed = 1, uses_anonymous_args = 0
	push	{r7, lr}
.LCFI204:
	.cfi_def_cfa_offset 8
	.cfi_offset 7, -8
	.cfi_offset 14, -4
	sub	sp, sp, #16
.LCFI205:
	.cfi_def_cfa_offset 24
	add	r7, sp, #0
.LCFI206:
	.cfi_def_cfa_register 7
	mov	r3, r0
	strh	r3, [r7, #6]	@ movhi
	.loc 8 143 15
	ldrh	r3, [r7, #6]	@ movhi
	strh	r3, [r7, #14]	@ movhi
	.loc 8 145 5
	ldrsh	r3, [r7, #14]
	mov	r0, r3
	bl	__NVIC_ClearPendingIRQ
	.loc 8 146 1
	nop
	adds	r7, r7, #16
.LCFI207:
	.cfi_def_cfa_offset 8
	mov	sp, r7
.LCFI208:
	.cfi_def_cfa_register 13
	@ sp needed
	pop	{r7, pc}
	.cfi_endproc
.LFE995:
	.size	_cyhal_irq_clear_pending, .-_cyhal_irq_clear_pending
	.section	.text._cyhal_irq_enable,"ax",%progbits
	.align	1
	.syntax unified
	.thumb
	.thumb_func
	.type	_cyhal_irq_enable, %function
_cyhal_irq_enable:
.LFB996:
	.loc 8 149 1
	.cfi_startproc
	@ args = 0, pretend = 0, frame = 16
	@ frame_needed = 1, uses_anonymous_args = 0
	push	{r7, lr}
.LCFI209:
	.cfi_def_cfa_offset 8
	.cfi_offset 7, -8
	.cfi_offset 14, -4
	sub	sp, sp, #16
.LCFI210:
	.cfi_def_cfa_offset 24
	add	r7, sp, #0
.LCFI211:
	.cfi_def_cfa_register 7
	mov	r3, r0
	strh	r3, [r7, #6]	@ movhi
	.loc 8 158 15
	ldrh	r3, [r7, #6]	@ movhi
	strh	r3, [r7, #14]	@ movhi
	.loc 8 160 5
	ldrsh	r3, [r7, #14]
	mov	r0, r3
	bl	__NVIC_EnableIRQ
	.loc 8 161 1
	nop
	adds	r7, r7, #16
.LCFI212:
	.cfi_def_cfa_offset 8
	mov	sp, r7
.LCFI213:
	.cfi_def_cfa_register 13
	@ sp needed
	pop	{r7, pc}
	.cfi_endproc
.LFE996:
	.size	_cyhal_irq_enable, .-_cyhal_irq_enable
	.section	.text._cyhal_irq_disable,"ax",%progbits
	.align	1
	.syntax unified
	.thumb
	.thumb_func
	.type	_cyhal_irq_disable, %function
_cyhal_irq_disable:
.LFB997:
	.loc 8 164 1
	.cfi_startproc
	@ args = 0, pretend = 0, frame = 8
	@ frame_needed = 1, uses_anonymous_args = 0
	push	{r7, lr}
.LCFI214:
	.cfi_def_cfa_offset 8
	.cfi_offset 7, -8
	.cfi_offset 14, -4
	sub	sp, sp, #8
.LCFI215:
	.cfi_def_cfa_offset 16
	add	r7, sp, #0
.LCFI216:
	.cfi_def_cfa_register 7
	mov	r3, r0
	strh	r3, [r7, #6]	@ movhi
	.loc 8 174 5
	ldrsh	r3, [r7, #6]
	mov	r0, r3
	bl	__NVIC_DisableIRQ
	.loc 8 176 1
	nop
	adds	r7, r7, #8
.LCFI217:
	.cfi_def_cfa_offset 8
	mov	sp, r7
.LCFI218:
	.cfi_def_cfa_register 13
	@ sp needed
	pop	{r7, pc}
	.cfi_endproc
.LFE997:
	.size	_cyhal_irq_disable, .-_cyhal_irq_disable
	.section	.text._cyhal_irq_free,"ax",%progbits
	.align	1
	.syntax unified
	.thumb
	.thumb_func
	.type	_cyhal_irq_free, %function
_cyhal_irq_free:
.LFB998:
	.loc 8 183 1
	.cfi_startproc
	@ args = 0, pretend = 0, frame = 8
	@ frame_needed = 1, uses_anonymous_args = 0
	push	{r7, lr}
.LCFI219:
	.cfi_def_cfa_offset 8
	.cfi_offset 7, -8
	.cfi_offset 14, -4
	sub	sp, sp, #8
.LCFI220:
	.cfi_def_cfa_offset 16
	add	r7, sp, #0
.LCFI221:
	.cfi_def_cfa_register 7
	mov	r3, r0
	strh	r3, [r7, #6]	@ movhi
	.loc 8 209 5
	ldrsh	r3, [r7, #6]
	mov	r0, r3
	bl	_cyhal_irq_disable
	.loc 8 210 1
	nop
	adds	r7, r7, #8
.LCFI222:
	.cfi_def_cfa_offset 8
	mov	sp, r7
.LCFI223:
	.cfi_def_cfa_register 13
	@ sp needed
	pop	{r7, pc}
	.cfi_endproc
.LFE998:
	.size	_cyhal_irq_free, .-_cyhal_irq_free
	.section	.text._cyhal_scb_get_clock_index,"ax",%progbits
	.align	1
	.syntax unified
	.thumb
	.thumb_func
	.type	_cyhal_scb_get_clock_index, %function
_cyhal_scb_get_clock_index:
.LFB1001:
	.file 9 "libraries\\IFX_PSOC6_HAL\\mtb-hal-cat1\\include_pvt/cyhal_scb_common.h"
	.loc 9 221 1
	.cfi_startproc
	@ args = 0, pretend = 0, frame = 16
	@ frame_needed = 1, uses_anonymous_args = 0
	@ link register save eliminated.
	push	{r7}
.LCFI224:
	.cfi_def_cfa_offset 4
	.cfi_offset 7, -4
	sub	sp, sp, #20
.LCFI225:
	.cfi_def_cfa_offset 24
	add	r7, sp, #0
.LCFI226:
	.cfi_def_cfa_register 7
	str	r0, [r7, #4]
	.loc 9 232 13
	ldr	r3, [r7, #4]
	strb	r3, [r7, #15]
	.loc 9 234 12
	ldrb	r3, [r7, #15]	@ zero_extendqisi2
	.loc 9 235 1
	mov	r0, r3
	adds	r7, r7, #20
.LCFI227:
	.cfi_def_cfa_offset 4
	mov	sp, r7
.LCFI228:
	.cfi_def_cfa_register 13
	@ sp needed
	ldr	r7, [sp], #4
.LCFI229:
	.cfi_restore 7
	.cfi_def_cfa_offset 0
	bx	lr
	.cfi_endproc
.LFE1001:
	.size	_cyhal_scb_get_clock_index, .-_cyhal_scb_get_clock_index
	.section	.rodata._cyhal_uart_default_config,"a"
	.align	2
	.type	_cyhal_uart_default_config, %object
	.size	_cyhal_uart_default_config, 64
_cyhal_uart_default_config:
	.byte	0
	.space	3
	.word	12
	.word	8
	.byte	0
	.byte	2
	.byte	0
	.byte	0
	.byte	0
	.byte	0
	.byte	0
	.space	1
	.word	0
	.word	0
	.byte	0
	.byte	0
	.byte	0
	.byte	0
	.byte	0
	.byte	0
	.space	2
	.word	20
	.byte	0
	.space	3
	.word	11
	.word	0
	.word	0
	.word	63
	.word	0
	.section	.bss._cyhal_uart_irq_obj,"aw",%nobits
	.align	2
	.type	_cyhal_uart_irq_obj, %object
	.size	_cyhal_uart_irq_obj, 4
_cyhal_uart_irq_obj:
	.space	4
	.section	.text._cyhal_uart_irq_handler,"ax",%progbits
	.align	1
	.syntax unified
	.thumb
	.thumb_func
	.type	_cyhal_uart_irq_handler, %function
_cyhal_uart_irq_handler:
.LFB1008:
	.file 10 "libraries\\IFX_PSOC6_HAL\\mtb-hal-cat1\\source\\cyhal_uart.c"
	.loc 10 101 1
	.cfi_startproc
	@ args = 0, pretend = 0, frame = 16
	@ frame_needed = 1, uses_anonymous_args = 0
	push	{r4, r7, lr}
.LCFI230:
	.cfi_def_cfa_offset 12
	.cfi_offset 4, -12
	.cfi_offset 7, -8
	.cfi_offset 14, -4
	sub	sp, sp, #20
.LCFI231:
	.cfi_def_cfa_offset 32
	add	r7, sp, #0
.LCFI232:
	.cfi_def_cfa_register 7
	.loc 10 105 19
	ldr	r3, .L105
	ldr	r3, [r3]
	str	r3, [r7, #12]
	.loc 10 109 43
	bl	_cyhal_scb_get_irq_obj
	mov	r3, r0
	.loc 10 109 25
	ldr	r2, .L105
	str	r3, [r2]
	.loc 10 112 13
	ldr	r3, .L105
	ldr	r3, [r3]
	.loc 10 112 8
	cmp	r3, #0
	beq	.L104
	.loc 10 117 19
	ldr	r3, .L105
	ldr	r3, [r3]
	str	r3, [r7, #8]
	.loc 10 120 62
	ldr	r3, [r7, #8]
	ldr	r3, [r3]
	.loc 10 120 25
	mov	r0, r3
	bl	Cy_SCB_GetTxInterruptStatusMasked
	str	r0, [r7, #4]
	.loc 10 121 62
	ldr	r3, [r7, #8]
	ldr	r3, [r3]
	.loc 10 121 25
	mov	r0, r3
	bl	Cy_SCB_GetRxInterruptStatusMasked
	str	r0, [r7]
	.loc 10 124 5
	ldr	r3, [r7, #8]
	ldr	r2, [r3]
	ldr	r3, [r7, #8]
	adds	r3, r3, #24
	mov	r1, r3
	mov	r0, r2
	bl	Cy_SCB_UART_Interrupt
	.loc 10 129 26
	ldr	r3, [r7, #4]
	and	r3, r3, #32
	.loc 10 129 8
	cmp	r3, #0
	beq	.L98
	.loc 10 131 9
	ldr	r3, [r7, #8]
	ldr	r3, [r3]
	movs	r1, #32
	mov	r0, r3
	bl	Cy_SCB_ClearTxInterrupt
	.loc 10 133 32
	ldr	r3, [r7, #8]
	ldr	r3, [r3, #76]
	.loc 10 133 12
	cmp	r3, #0
	beq	.L98
	.loc 10 135 25
	ldr	r3, [r7, #8]
	ldr	r3, [r3, #76]
	.loc 10 135 13
	movs	r0, #32
	blx	r3
.LVL0:
.L98:
	.loc 10 142 26
	ldr	r3, [r7, #4]
	and	r3, r3, #64
	.loc 10 142 8
	cmp	r3, #0
	beq	.L99
	.loc 10 144 9
	ldr	r3, [r7, #8]
	ldr	r3, [r3]
	movs	r1, #64
	mov	r0, r3
	bl	Cy_SCB_ClearTxInterrupt
	.loc 10 146 32
	ldr	r3, [r7, #8]
	ldr	r3, [r3, #76]
	.loc 10 146 12
	cmp	r3, #0
	beq	.L99
	.loc 10 148 25
	ldr	r3, [r7, #8]
	ldr	r3, [r3, #76]
	.loc 10 148 13
	movs	r0, #32
	blx	r3
.LVL1:
.L99:
	.loc 10 155 25
	ldr	r3, [r7, #4]
	and	r3, r3, #1
	.loc 10 155 8
	cmp	r3, #0
	beq	.L100
	.loc 10 157 32
	ldr	r3, [r7, #8]
	ldr	r3, [r3, #76]
	.loc 10 157 12
	cmp	r3, #0
	beq	.L100
	.loc 10 160 25
	ldr	r3, [r7, #8]
	ldr	r3, [r3, #76]
	.loc 10 160 13
	mov	r0, #256
	blx	r3
.LVL2:
.L100:
	.loc 10 165 27
	ldr	r3, [r7, #4]
	and	r3, r3, #512
	.loc 10 165 8
	cmp	r3, #0
	beq	.L101
	.loc 10 167 9
	ldr	r3, [r7, #8]
	ldr	r3, [r3]
	mov	r1, #512
	mov	r0, r3
	bl	Cy_SCB_ClearTxInterrupt
	.loc 10 168 9
	ldr	r3, [r7, #8]
	ldr	r4, [r3]
	.loc 10 168 75
	ldr	r3, [r7, #8]
	ldr	r3, [r3]
	.loc 10 168 46
	mov	r0, r3
	bl	Cy_SCB_GetTxInterruptMask
	mov	r3, r0
	.loc 10 168 9
	orr	r3, r3, #512
	mov	r1, r3
	mov	r0, r4
	bl	Cy_SCB_SetTxInterruptMask
.L101:
	.loc 10 174 24
	ldr	r3, [r7]
	and	r3, r3, #64
	.loc 10 174 8
	cmp	r3, #0
	beq	.L102
	.loc 10 176 9
	ldr	r3, [r7, #8]
	ldr	r3, [r3]
	movs	r1, #64
	mov	r0, r3
	bl	Cy_SCB_ClearRxInterrupt
	.loc 10 178 32
	ldr	r3, [r7, #8]
	ldr	r3, [r3, #76]
	.loc 10 178 12
	cmp	r3, #0
	beq	.L102
	.loc 10 180 25
	ldr	r3, [r7, #8]
	ldr	r3, [r3, #76]
	.loc 10 180 13
	movs	r0, #16
	blx	r3
.LVL3:
.L102:
	.loc 10 187 25
	ldr	r3, [r7]
	and	r3, r3, #1
	.loc 10 187 8
	cmp	r3, #0
	beq	.L103
	.loc 10 189 32
	ldr	r3, [r7, #8]
	ldr	r3, [r3, #76]
	.loc 10 189 12
	cmp	r3, #0
	beq	.L103
	.loc 10 192 25
	ldr	r3, [r7, #8]
	ldr	r3, [r3, #76]
	.loc 10 192 13
	mov	r0, #512
	blx	r3
.LVL4:
.L103:
	.loc 10 196 25
	ldr	r2, .L105
	ldr	r3, [r7, #12]
	str	r3, [r2]
	b	.L95
.L104:
	.loc 10 114 9
	nop
.L95:
	.loc 10 197 1
	adds	r7, r7, #20
.LCFI233:
	.cfi_def_cfa_offset 12
	mov	sp, r7
.LCFI234:
	.cfi_def_cfa_register 13
	@ sp needed
	pop	{r4, r7, pc}
.L106:
	.align	2
.L105:
	.word	_cyhal_uart_irq_obj
	.cfi_endproc
.LFE1008:
	.size	_cyhal_uart_irq_handler, .-_cyhal_uart_irq_handler
	.section	.text._cyhal_uart_cb_wrapper,"ax",%progbits
	.align	1
	.syntax unified
	.thumb
	.thumb_func
	.type	_cyhal_uart_cb_wrapper, %function
_cyhal_uart_cb_wrapper:
.LFB1009:
	.loc 10 219 1
	.cfi_startproc
	@ args = 0, pretend = 0, frame = 24
	@ frame_needed = 1, uses_anonymous_args = 0
	push	{r7, lr}
.LCFI235:
	.cfi_def_cfa_offset 8
	.cfi_offset 7, -8
	.cfi_offset 14, -4
	sub	sp, sp, #24
.LCFI236:
	.cfi_def_cfa_offset 32
	add	r7, sp, #0
.LCFI237:
	.cfi_def_cfa_register 7
	str	r0, [r7, #4]
	.loc 10 238 26
	ldr	r2, [r7, #4]
	movs	r1, #11
	ldr	r0, .L110
	bl	_cyhal_utils_convert_flags
	str	r0, [r7, #20]
	.loc 10 242 19
	ldr	r3, .L110+4
	ldr	r3, [r3]
	str	r3, [r7, #16]
	.loc 10 243 63
	ldr	r3, [r7, #16]
	ldr	r3, [r3, #148]
	.loc 10 243 39
	uxth	r2, r3
	ldr	r3, [r7, #20]
	uxth	r3, r3
	.loc 10 243 24
	ands	r3, r3, r2
	strh	r3, [r7, #14]	@ movhi
	.loc 10 244 8
	ldrh	r3, [r7, #14]
	cmp	r3, #0
	beq	.L109
.LBB14:
	.loc 10 246 37
	ldr	r3, [r7, #16]
	ldr	r3, [r3, #156]
	str	r3, [r7, #8]
	.loc 10 247 9
	ldr	r3, [r7, #16]
	ldr	r2, [r3, #160]
	ldrh	r1, [r7, #14]
	ldr	r3, [r7, #8]
	mov	r0, r2
	blx	r3
.LVL5:
.L109:
.LBE14:
	.loc 10 249 1
	nop
	adds	r7, r7, #24
.LCFI238:
	.cfi_def_cfa_offset 8
	mov	sp, r7
.LCFI239:
	.cfi_def_cfa_register 13
	@ sp needed
	pop	{r7, pc}
.L111:
	.align	2
.L110:
	.word	status_map.0
	.word	_cyhal_uart_irq_obj
	.cfi_endproc
.LFE1009:
	.size	_cyhal_uart_cb_wrapper, .-_cyhal_uart_cb_wrapper
	.section	.text._cyhal_uart_pm_callback_instance,"ax",%progbits
	.align	1
	.syntax unified
	.thumb
	.thumb_func
	.type	_cyhal_uart_pm_callback_instance, %function
_cyhal_uart_pm_callback_instance:
.LFB1010:
	.loc 10 252 1
	.cfi_startproc
	@ args = 0, pretend = 0, frame = 32
	@ frame_needed = 1, uses_anonymous_args = 0
	push	{r7, lr}
.LCFI240:
	.cfi_def_cfa_offset 8
	.cfi_offset 7, -8
	.cfi_offset 14, -4
	sub	sp, sp, #32
.LCFI241:
	.cfi_def_cfa_offset 40
	add	r7, sp, #0
.LCFI242:
	.cfi_def_cfa_register 7
	str	r0, [r7, #4]
	mov	r3, r1
	strb	r3, [r7, #3]
	mov	r3, r2
	strb	r3, [r7, #2]
	.loc 10 254 19
	ldr	r3, [r7, #4]
	str	r3, [r7, #24]
	.loc 10 255 9
	movs	r3, #0
	strb	r3, [r7, #31]
	.loc 10 259 32
	ldr	r3, [r7, #24]
	ldrb	r3, [r3, #8]	@ zero_extendqisi2
	.loc 10 259 113
	cmp	r3, #255
	beq	.L113
	.loc 10 259 93 discriminator 1
	ldr	r3, [r7, #24]
	ldrb	r3, [r3, #8]	@ zero_extendqisi2
	.loc 10 259 50 discriminator 1
	lsrs	r3, r3, #3
	uxtb	r3, r3
	mov	r0, r3
	bl	Cy_GPIO_PortToAddr
	mov	r3, r0
	b	.L114
.L113:
	.loc 10 259 113 discriminator 2
	movs	r3, #0
.L114:
	.loc 10 259 20 discriminator 4
	str	r3, [r7, #20]
	.loc 10 260 35 discriminator 4
	ldr	r3, [r7, #24]
	ldrb	r3, [r3, #10]	@ zero_extendqisi2
	.loc 10 260 140 discriminator 4
	cmp	r3, #255
	beq	.L115
	.loc 10 260 58 discriminator 1
	ldr	r3, [r7, #24]
	ldrb	r3, [r3, #12]	@ zero_extendqisi2
	.loc 10 260 52 discriminator 1
	cmp	r3, #0
	beq	.L115
	.loc 10 260 119 discriminator 3
	ldr	r3, [r7, #24]
	ldrb	r3, [r3, #10]	@ zero_extendqisi2
	.loc 10 260 76 discriminator 3
	lsrs	r3, r3, #3
	uxtb	r3, r3
	mov	r0, r3
	bl	Cy_GPIO_PortToAddr
	mov	r3, r0
	.loc 10 260 140 discriminator 3
	b	.L116
.L115:
	.loc 10 260 140 is_stmt 0 discriminator 4
	movs	r3, #0
.L116:
	.loc 10 260 20 is_stmt 1 discriminator 6
	str	r3, [r7, #16]
	.loc 10 261 54 discriminator 6
	ldr	r3, [r7, #24]
	ldrb	r3, [r3, #8]	@ zero_extendqisi2
	.loc 10 261 13 discriminator 6
	and	r3, r3, #7
	strb	r3, [r7, #15]
	.loc 10 262 55 discriminator 6
	ldr	r3, [r7, #24]
	ldrb	r3, [r3, #10]	@ zero_extendqisi2
	.loc 10 262 13 discriminator 6
	and	r3, r3, #7
	strb	r3, [r7, #14]
	.loc 10 268 5 discriminator 6
	ldrb	r3, [r7, #2]	@ zero_extendqisi2
	subs	r3, r3, #1
	cmp	r3, #7
	bhi	.L129
	adr	r2, .L119
	ldr	pc, [r2, r3, lsl #2]
	.p2align 2
.L119:
	.word	.L121+1
	.word	.L118+1
	.word	.L129+1
	.word	.L120+1
	.word	.L129+1
	.word	.L129+1
	.word	.L129+1
	.word	.L118+1
	.p2align 1
.L121:
	.loc 10 274 70
	ldr	r3, [r7, #24]
	ldr	r2, [r3]
	.loc 10 274 78
	ldr	r3, [r7, #24]
	adds	r3, r3, #24
	.loc 10 274 37
	mov	r1, r3
	mov	r0, r2
	bl	Cy_SCB_UART_GetTransmitStatus
	mov	r3, r0
	.loc 10 274 35
	and	r3, r3, #1
	.loc 10 274 16
	cmp	r3, #0
	bne	.L130
	.loc 10 275 70 discriminator 1
	ldr	r3, [r7, #24]
	ldr	r2, [r3]
	.loc 10 275 78 discriminator 1
	ldr	r3, [r7, #24]
	adds	r3, r3, #24
	.loc 10 275 37 discriminator 1
	mov	r1, r3
	mov	r0, r2
	bl	Cy_SCB_UART_GetReceiveStatus
	mov	r3, r0
	.loc 10 275 35 discriminator 1
	and	r3, r3, #1
	.loc 10 274 97 discriminator 1
	cmp	r3, #0
	bne	.L130
	.loc 10 281 49
	ldr	r3, [r7, #24]
	ldr	r3, [r3]
	.loc 10 281 21
	mov	r0, r3
	bl	Cy_SCB_UART_IsTxComplete
	mov	r3, r0
	.loc 10 281 20
	cmp	r3, #0
	beq	.L130
	.loc 10 283 62
	ldr	r3, [r7, #24]
	ldr	r3, [r3]
	.loc 10 283 32
	mov	r0, r3
	bl	Cy_SCB_UART_GetNumInRxFifo
	mov	r3, r0
	.loc 10 283 24
	cmp	r3, #0
	bne	.L130
	.loc 10 292 28
	ldr	r3, [r7, #20]
	cmp	r3, #0
	beq	.L123
	.loc 10 294 51
	ldrb	r3, [r7, #15]	@ zero_extendqisi2
	mov	r1, r3
	ldr	r0, [r7, #20]
	bl	Cy_GPIO_GetHSIOM
	mov	r3, r0
	mov	r2, r3
	.loc 10 294 49
	ldr	r3, [r7, #24]
	strb	r2, [r3, #152]
	.loc 10 295 29
	ldrb	r3, [r7, #15]	@ zero_extendqisi2
	mov	r1, r3
	ldr	r0, [r7, #20]
	bl	Cy_GPIO_Set
	.loc 10 296 29
	ldrb	r3, [r7, #15]	@ zero_extendqisi2
	movs	r2, #0
	mov	r1, r3
	ldr	r0, [r7, #20]
	bl	Cy_GPIO_SetHSIOM
.L123:
	.loc 10 298 28
	ldr	r3, [r7, #16]
	cmp	r3, #0
	beq	.L124
	.loc 10 300 52
	ldrb	r3, [r7, #14]	@ zero_extendqisi2
	mov	r1, r3
	ldr	r0, [r7, #16]
	bl	Cy_GPIO_GetHSIOM
	mov	r3, r0
	mov	r2, r3
	.loc 10 300 50
	ldr	r3, [r7, #24]
	strb	r2, [r3, #153]
	.loc 10 301 29
	ldrb	r3, [r7, #14]	@ zero_extendqisi2
	mov	r1, r3
	ldr	r0, [r7, #16]
	bl	Cy_GPIO_Set
	.loc 10 302 29
	ldrb	r3, [r7, #14]	@ zero_extendqisi2
	movs	r2, #0
	mov	r1, r3
	ldr	r0, [r7, #16]
	bl	Cy_GPIO_SetHSIOM
.L124:
	.loc 10 305 25
	ldr	r3, [r7, #24]
	ldr	r2, [r3]
	ldr	r3, [r7, #24]
	adds	r3, r3, #24
	mov	r1, r3
	mov	r0, r2
	bl	Cy_SCB_UART_Disable
	.loc 10 306 31
	movs	r3, #1
	strb	r3, [r7, #31]
	.loc 10 311 13
	b	.L130
.L118:
	.loc 10 315 19
	movs	r3, #1
	strb	r3, [r7, #31]
	.loc 10 316 13
	ldr	r3, [r7, #24]
	ldr	r3, [r3]
	mov	r0, r3
	bl	Cy_SCB_UART_Enable
	.loc 10 317 16
	ldr	r3, [r7, #20]
	cmp	r3, #0
	beq	.L126
	.loc 10 319 17
	ldrb	r1, [r7, #15]	@ zero_extendqisi2
	ldr	r3, [r7, #24]
	ldrb	r3, [r3, #152]	@ zero_extendqisi2
	mov	r2, r3
	ldr	r0, [r7, #20]
	bl	Cy_GPIO_SetHSIOM
.L126:
	.loc 10 321 16
	ldr	r3, [r7, #16]
	cmp	r3, #0
	beq	.L131
	.loc 10 323 17
	ldrb	r1, [r7, #14]	@ zero_extendqisi2
	ldr	r3, [r7, #24]
	ldrb	r3, [r3, #153]	@ zero_extendqisi2
	mov	r2, r3
	ldr	r0, [r7, #16]
	bl	Cy_GPIO_SetHSIOM
	.loc 10 325 13
	b	.L131
.L120:
	.loc 10 328 19
	movs	r3, #1
	strb	r3, [r7, #31]
	.loc 10 329 13
	b	.L125
.L129:
	.loc 10 336 17 discriminator 1
	bl	CY_HALT
	.loc 10 337 13 discriminator 1
	b	.L125
.L130:
	.loc 10 311 13
	nop
	b	.L125
.L131:
	.loc 10 325 13
	nop
.L125:
	.loc 10 339 12
	ldrb	r3, [r7, #31]	@ zero_extendqisi2
	.loc 10 340 1
	mov	r0, r3
	adds	r7, r7, #32
.LCFI243:
	.cfi_def_cfa_offset 8
	mov	sp, r7
.LCFI244:
	.cfi_def_cfa_register 13
	@ sp needed
	pop	{r7, pc}
	.cfi_endproc
.LFE1010:
	.size	_cyhal_uart_pm_callback_instance, .-_cyhal_uart_pm_callback_instance
	.section	.text._cyhal_uart_convert_parity,"ax",%progbits
	.align	1
	.syntax unified
	.thumb
	.thumb_func
	.type	_cyhal_uart_convert_parity, %function
_cyhal_uart_convert_parity:
.LFB1011:
	.loc 10 342 1
	.cfi_startproc
	@ args = 0, pretend = 0, frame = 8
	@ frame_needed = 1, uses_anonymous_args = 0
	@ link register save eliminated.
	push	{r7}
.LCFI245:
	.cfi_def_cfa_offset 4
	.cfi_offset 7, -4
	sub	sp, sp, #12
.LCFI246:
	.cfi_def_cfa_offset 16
	add	r7, sp, #0
.LCFI247:
	.cfi_def_cfa_register 7
	mov	r3, r0
	strb	r3, [r7, #7]
	.loc 10 343 5
	ldrb	r3, [r7, #7]	@ zero_extendqisi2
	cmp	r3, #2
	beq	.L133
	cmp	r3, #2
	bgt	.L134
	cmp	r3, #0
	beq	.L135
	cmp	r3, #1
	beq	.L136
	b	.L134
.L135:
	.loc 10 346 20
	movs	r3, #0
	b	.L137
.L136:
	.loc 10 348 20
	movs	r3, #2
	b	.L137
.L133:
	.loc 10 350 20
	movs	r3, #3
	b	.L137
.L134:
	.loc 10 352 20
	movs	r3, #0
.L137:
	.loc 10 354 1
	mov	r0, r3
	adds	r7, r7, #12
.LCFI248:
	.cfi_def_cfa_offset 4
	mov	sp, r7
.LCFI249:
	.cfi_def_cfa_register 13
	@ sp needed
	ldr	r7, [sp], #4
.LCFI250:
	.cfi_restore 7
	.cfi_def_cfa_offset 0
	bx	lr
	.cfi_endproc
.LFE1011:
	.size	_cyhal_uart_convert_parity, .-_cyhal_uart_convert_parity
	.section	.text._cyhal_uart_convert_stopbits,"ax",%progbits
	.align	1
	.syntax unified
	.thumb
	.thumb_func
	.type	_cyhal_uart_convert_stopbits, %function
_cyhal_uart_convert_stopbits:
.LFB1012:
	.loc 10 357 1
	.cfi_startproc
	@ args = 0, pretend = 0, frame = 8
	@ frame_needed = 1, uses_anonymous_args = 0
	push	{r7, lr}
.LCFI251:
	.cfi_def_cfa_offset 8
	.cfi_offset 7, -8
	.cfi_offset 14, -4
	sub	sp, sp, #8
.LCFI252:
	.cfi_def_cfa_offset 16
	add	r7, sp, #0
.LCFI253:
	.cfi_def_cfa_register 7
	mov	r3, r0
	strb	r3, [r7, #7]
	.loc 10 358 5
	ldrb	r3, [r7, #7]	@ zero_extendqisi2
	subs	r3, r3, #1
	cmp	r3, #3
	bhi	.L146
	adr	r2, .L141
	ldr	pc, [r2, r3, lsl #2]
	.p2align 2
.L141:
	.word	.L144+1
	.word	.L143+1
	.word	.L142+1
	.word	.L140+1
	.p2align 1
.L144:
	.loc 10 361 20
	movs	r3, #2
	b	.L145
.L143:
	.loc 10 363 20
	movs	r3, #4
	b	.L145
.L142:
	.loc 10 365 20
	movs	r3, #6
	b	.L145
.L140:
	.loc 10 367 20
	movs	r3, #8
	b	.L145
.L146:
	.loc 10 369 17 discriminator 1
	bl	CY_HALT
	.loc 10 370 20 discriminator 1
	movs	r3, #2
.L145:
	.loc 10 372 1
	mov	r0, r3
	adds	r7, r7, #8
.LCFI254:
	.cfi_def_cfa_offset 8
	mov	sp, r7
.LCFI255:
	.cfi_def_cfa_register 13
	@ sp needed
	pop	{r7, pc}
	.cfi_endproc
.LFE1012:
	.size	_cyhal_uart_convert_stopbits, .-_cyhal_uart_convert_stopbits
	.section	.text._cyhal_uart_actual_baud,"ax",%progbits
	.align	1
	.syntax unified
	.thumb
	.thumb_func
	.type	_cyhal_uart_actual_baud, %function
_cyhal_uart_actual_baud:
.LFB1013:
	.loc 10 375 1
	.cfi_startproc
	@ args = 0, pretend = 0, frame = 16
	@ frame_needed = 1, uses_anonymous_args = 0
	push	{r7, lr}
.LCFI256:
	.cfi_def_cfa_offset 8
	.cfi_offset 7, -8
	.cfi_offset 14, -4
	sub	sp, sp, #16
.LCFI257:
	.cfi_def_cfa_offset 24
	add	r7, sp, #0
.LCFI258:
	.cfi_def_cfa_register 7
	str	r0, [r7, #12]
	str	r1, [r7, #8]
	str	r2, [r7, #4]
	.loc 10 376 12
	ldr	r0, [r7, #12]
	bl	_cyhal_utils_get_peripheral_clock_frequency
	mov	r1, r0
	.loc 10 376 77
	ldr	r3, [r7, #8]
	ldr	r2, [r7, #4]
	mul	r3, r2, r3
	.loc 10 376 66
	udiv	r3, r1, r3
	.loc 10 377 1
	mov	r0, r3
	adds	r7, r7, #16
.LCFI259:
	.cfi_def_cfa_offset 8
	mov	sp, r7
.LCFI260:
	.cfi_def_cfa_register 13
	@ sp needed
	pop	{r7, pc}
	.cfi_endproc
.LFE1013:
	.size	_cyhal_uart_actual_baud, .-_cyhal_uart_actual_baud
	.section	.text._cyhal_uart_baud_perdif,"ax",%progbits
	.align	1
	.syntax unified
	.thumb
	.thumb_func
	.type	_cyhal_uart_baud_perdif, %function
_cyhal_uart_baud_perdif:
.LFB1014:
	.loc 10 380 1
	.cfi_startproc
	@ args = 0, pretend = 0, frame = 8
	@ frame_needed = 1, uses_anonymous_args = 0
	@ link register save eliminated.
	push	{r7}
.LCFI261:
	.cfi_def_cfa_offset 4
	.cfi_offset 7, -4
	sub	sp, sp, #12
.LCFI262:
	.cfi_def_cfa_offset 16
	add	r7, sp, #0
.LCFI263:
	.cfi_def_cfa_register 7
	str	r0, [r7, #4]
	str	r1, [r7]
	.loc 10 383 9
	ldr	r2, [r7]
	ldr	r3, [r7, #4]
	cmp	r2, r3
	bls	.L150
	.loc 10 382 32 discriminator 1
	ldr	r2, [r7]
	ldr	r3, [r7, #4]
	subs	r3, r2, r3
	movs	r2, #100
	mul	r2, r3, r2
	.loc 10 383 9 discriminator 1
	ldr	r3, [r7, #4]
	udiv	r3, r2, r3
	b	.L152
.L150:
	.loc 10 383 33 discriminator 2
	ldr	r2, [r7, #4]
	ldr	r3, [r7]
	subs	r3, r2, r3
	movs	r2, #100
	mul	r2, r3, r2
	.loc 10 383 9 discriminator 2
	ldr	r3, [r7, #4]
	udiv	r3, r2, r3
.L152:
	.loc 10 384 1 discriminator 5
	mov	r0, r3
	adds	r7, r7, #12
.LCFI264:
	.cfi_def_cfa_offset 4
	mov	sp, r7
.LCFI265:
	.cfi_def_cfa_register 13
	@ sp needed
	ldr	r7, [sp], #4
.LCFI266:
	.cfi_restore 7
	.cfi_def_cfa_offset 0
	bx	lr
	.cfi_endproc
.LFE1014:
	.size	_cyhal_uart_baud_perdif, .-_cyhal_uart_baud_perdif
	.section	.text._cyhal_uart_best_oversample,"ax",%progbits
	.align	1
	.syntax unified
	.thumb
	.thumb_func
	.type	_cyhal_uart_best_oversample, %function
_cyhal_uart_best_oversample:
.LFB1015:
	.loc 10 387 1
	.cfi_startproc
	@ args = 0, pretend = 0, frame = 24
	@ frame_needed = 1, uses_anonymous_args = 0
	push	{r7, lr}
.LCFI267:
	.cfi_def_cfa_offset 8
	.cfi_offset 7, -8
	.cfi_offset 14, -4
	sub	sp, sp, #24
.LCFI268:
	.cfi_def_cfa_offset 32
	add	r7, sp, #0
.LCFI269:
	.cfi_def_cfa_register 7
	str	r0, [r7, #4]
	str	r1, [r7]
	.loc 10 388 13
	movs	r3, #8
	strb	r3, [r7, #23]
	.loc 10 389 13
	movs	r3, #255
	strb	r3, [r7, #22]
.LBB15:
	.loc 10 391 18
	movs	r3, #8
	strb	r3, [r7, #21]
	.loc 10 391 5
	b	.L154
.L156:
.LBB16:
	.loc 10 393 28
	ldrb	r3, [r7, #21]	@ zero_extendqisi2
	ldr	r2, [r7]
	mul	r3, r2, r3
	movs	r2, #0
	mov	r1, r3
	ldr	r0, [r7, #4]
	bl	_cyhal_utils_divider_value
	str	r0, [r7, #16]
	.loc 10 394 39
	ldrb	r3, [r7, #21]	@ zero_extendqisi2
	mov	r2, r3
	ldr	r1, [r7, #16]
	ldr	r0, [r7, #4]
	bl	_cyhal_uart_actual_baud
	mov	r3, r0
	mov	r1, r3
	ldr	r0, [r7]
	bl	_cyhal_uart_baud_perdif
	mov	r3, r0
	.loc 10 394 17
	strb	r3, [r7, #15]
	.loc 10 396 12
	ldrb	r2, [r7, #15]	@ zero_extendqisi2
	ldrb	r3, [r7, #22]	@ zero_extendqisi2
	cmp	r2, r3
	bcs	.L155
	.loc 10 398 29
	ldrb	r3, [r7, #15]
	strb	r3, [r7, #22]
	.loc 10 399 29
	ldrb	r3, [r7, #21]
	strb	r3, [r7, #23]
.L155:
.LBE16:
	.loc 10 391 42 discriminator 2
	ldrb	r3, [r7, #21]	@ zero_extendqisi2
	adds	r3, r3, #1
	strb	r3, [r7, #21]
.L154:
	.loc 10 391 5 discriminator 1
	ldrb	r3, [r7, #21]	@ zero_extendqisi2
	cmp	r3, #16
	bls	.L156
.LBE15:
	.loc 10 403 12
	ldrb	r3, [r7, #23]	@ zero_extendqisi2
	.loc 10 404 1
	mov	r0, r3
	adds	r7, r7, #24
.LCFI270:
	.cfi_def_cfa_offset 8
	mov	sp, r7
.LCFI271:
	.cfi_def_cfa_register 13
	@ sp needed
	pop	{r7, pc}
	.cfi_endproc
.LFE1015:
	.size	_cyhal_uart_best_oversample, .-_cyhal_uart_best_oversample
	.section	.text._cyhal_uart_setup_resources,"ax",%progbits
	.align	1
	.syntax unified
	.thumb
	.thumb_func
	.type	_cyhal_uart_setup_resources, %function
_cyhal_uart_setup_resources:
.LFB1016:
	.loc 10 408 1
	.cfi_startproc
	@ args = 8, pretend = 0, frame = 48
	@ frame_needed = 1, uses_anonymous_args = 0
	push	{r7, lr}
.LCFI272:
	.cfi_def_cfa_offset 8
	.cfi_offset 7, -8
	.cfi_offset 14, -4
	sub	sp, sp, #48
.LCFI273:
	.cfi_def_cfa_offset 56
	add	r7, sp, #0
.LCFI274:
	.cfi_def_cfa_register 7
	str	r0, [r7, #4]
	mov	r0, r1
	mov	r1, r2
	mov	r2, r3
	mov	r3, r0
	strb	r3, [r7, #3]
	mov	r3, r1
	strb	r3, [r7, #2]
	mov	r3, r2
	strb	r3, [r7, #1]
	.loc 10 412 24
	ldr	r3, [r7, #4]
	movs	r2, #30
	strb	r2, [r3, #4]
	.loc 10 413 25
	ldr	r3, [r7, #4]
	movs	r2, #0
	strb	r2, [r3, #13]
	.loc 10 414 17
	ldr	r3, [r7, #4]
	movs	r2, #255
	strb	r2, [r3, #7]
	.loc 10 415 17
	ldr	r3, [r7, #4]
	movs	r2, #255
	strb	r2, [r3, #8]
	.loc 10 416 18
	ldr	r3, [r7, #4]
	movs	r2, #255
	strb	r2, [r3, #9]
	.loc 10 417 18
	ldr	r3, [r7, #4]
	movs	r2, #255
	strb	r2, [r3, #10]
	.loc 10 420 8
	ldrb	r3, [r7, #3]	@ zero_extendqisi2
	cmp	r3, #255
	bne	.L159
	.loc 10 420 19 discriminator 1
	ldrb	r3, [r7, #56]	@ zero_extendqisi2
	cmp	r3, #255
	bne	.L160
.L159:
	.loc 10 420 33 discriminator 3
	ldrb	r3, [r7, #2]	@ zero_extendqisi2
	cmp	r3, #255
	bne	.L161
	.loc 10 420 46 discriminator 4
	ldrb	r3, [r7, #1]	@ zero_extendqisi2
	cmp	r3, #255
	bne	.L160
.L161:
	.loc 10 420 60 discriminator 6
	ldrb	r3, [r7, #3]	@ zero_extendqisi2
	cmp	r3, #255
	bne	.L162
	.loc 10 420 73 discriminator 7
	ldrb	r3, [r7, #2]	@ zero_extendqisi2
	cmp	r3, #255
	bne	.L162
.L160:
	.loc 10 422 16
	ldr	r3, .L185
	b	.L184
.L162:
	.loc 10 425 34
	bl	Cy_SysLib_EnterCriticalSection
	str	r0, [r7, #32]
	.loc 10 430 14
	ldr	r3, .L185+4
	ldr	r3, [r3]
	str	r3, [r7, #40]
	.loc 10 431 8
	ldrb	r3, [r7, #3]	@ zero_extendqisi2
	cmp	r3, #255
	beq	.L164
	.loc 10 433 24
	ldrb	r3, [r7, #3]	@ zero_extendqisi2
	movs	r2, #11
	ldr	r1, .L185+8
	mov	r0, r3
	bl	_cyhal_scb_check_pin_affiliation
	mov	r2, r0
	.loc 10 433 21
	ldr	r3, [r7, #40]
	ands	r3, r3, r2
	str	r3, [r7, #40]
.L164:
	.loc 10 435 8
	ldrb	r3, [r7, #2]	@ zero_extendqisi2
	cmp	r3, #255
	beq	.L165
	.loc 10 437 24
	ldrb	r3, [r7, #2]	@ zero_extendqisi2
	movs	r2, #11
	ldr	r1, .L185+12
	mov	r0, r3
	bl	_cyhal_scb_check_pin_affiliation
	mov	r2, r0
	.loc 10 437 21
	ldr	r3, [r7, #40]
	ands	r3, r3, r2
	str	r3, [r7, #40]
.L165:
	.loc 10 439 8
	ldrb	r3, [r7, #1]	@ zero_extendqisi2
	cmp	r3, #255
	beq	.L166
	.loc 10 441 24
	ldrb	r3, [r7, #1]	@ zero_extendqisi2
	movs	r2, #10
	ldr	r1, .L185+16
	mov	r0, r3
	bl	_cyhal_scb_check_pin_affiliation
	mov	r2, r0
	.loc 10 441 21
	ldr	r3, [r7, #40]
	ands	r3, r3, r2
	str	r3, [r7, #40]
.L166:
	.loc 10 443 8
	ldrb	r3, [r7, #56]	@ zero_extendqisi2
	cmp	r3, #255
	beq	.L167
	.loc 10 445 24
	ldrb	r3, [r7, #56]	@ zero_extendqisi2
	movs	r2, #10
	ldr	r1, .L185+20
	mov	r0, r3
	bl	_cyhal_scb_check_pin_affiliation
	mov	r2, r0
	.loc 10 445 21
	ldr	r3, [r7, #40]
	ands	r3, r3, r2
	str	r3, [r7, #40]
.L167:
	.loc 10 449 8
	ldr	r3, [r7, #40]
	cmp	r3, #0
	bne	.L168
	.loc 10 451 9
	ldr	r0, [r7, #32]
	bl	Cy_SysLib_ExitCriticalSection
	.loc 10 452 16
	ldr	r3, .L185
	b	.L184
.L168:
	.loc 10 455 13
	movs	r3, #0
	strb	r3, [r7, #39]
	.loc 10 456 10
	b	.L169
.L170:
	.loc 10 458 24
	ldrb	r3, [r7, #39]	@ zero_extendqisi2
	adds	r3, r3, #1
	strb	r3, [r7, #39]
.L169:
	.loc 10 456 25
	ldrb	r3, [r7, #39]	@ zero_extendqisi2
	ldr	r2, [r7, #40]
	lsr	r3, r2, r3
	.loc 10 456 45
	and	r3, r3, #1
	.loc 10 456 10
	cmp	r3, #0
	beq	.L170
	.loc 10 461 27
	movs	r3, #23
	strb	r3, [r7, #12]
	ldrb	r3, [r7, #39]
	strb	r3, [r7, #13]
	movs	r3, #0
	strb	r3, [r7, #14]
	.loc 10 464 50
	add	r3, r7, #12
	ldrb	r0, [r7, #3]	@ zero_extendqisi2
	movs	r2, #11
	ldr	r1, .L185+8
	bl	_cyhal_scb_find_map
	str	r0, [r7, #28]
	.loc 10 465 50
	add	r3, r7, #12
	ldrb	r0, [r7, #2]	@ zero_extendqisi2
	movs	r2, #11
	ldr	r1, .L185+12
	bl	_cyhal_scb_find_map
	str	r0, [r7, #24]
	.loc 10 466 51
	add	r3, r7, #12
	ldrb	r0, [r7, #1]	@ zero_extendqisi2
	movs	r2, #10
	ldr	r1, .L185+16
	bl	_cyhal_scb_find_map
	str	r0, [r7, #20]
	.loc 10 467 51
	add	r3, r7, #12
	ldrb	r0, [r7, #56]	@ zero_extendqisi2
	movs	r2, #10
	ldr	r1, .L185+20
	bl	_cyhal_scb_find_map
	str	r0, [r7, #16]
	.loc 10 469 8
	ldrb	r3, [r7, #3]	@ zero_extendqisi2
	cmp	r3, #255
	beq	.L171
	.loc 10 469 19 discriminator 1
	ldr	r3, [r7, #28]
	cmp	r3, #0
	beq	.L172
.L171:
	.loc 10 469 37 discriminator 3
	ldrb	r3, [r7, #2]	@ zero_extendqisi2
	cmp	r3, #255
	beq	.L173
	.loc 10 469 50 discriminator 4
	ldr	r3, [r7, #24]
	cmp	r3, #0
	beq	.L172
.L173:
	.loc 10 469 69 discriminator 6
	ldrb	r3, [r7, #1]	@ zero_extendqisi2
	cmp	r3, #255
	beq	.L174
	.loc 10 469 83 discriminator 7
	ldr	r3, [r7, #20]
	cmp	r3, #0
	beq	.L172
.L174:
	.loc 10 469 103 discriminator 9
	ldrb	r3, [r7, #56]	@ zero_extendqisi2
	cmp	r3, #255
	beq	.L175
	.loc 10 469 117 discriminator 10
	ldr	r3, [r7, #16]
	cmp	r3, #0
	bne	.L175
.L172:
	.loc 10 472 13 discriminator 1
	bl	CY_HALT
.L175:
	.loc 10 475 14
	add	r3, r7, #12
	mov	r0, r3
	bl	cyhal_hwmgr_reserve
	str	r0, [r7, #44]
	.loc 10 476 5
	ldr	r0, [r7, #32]
	bl	Cy_SysLib_ExitCriticalSection
	.loc 10 477 8
	ldr	r3, [r7, #44]
	cmp	r3, #0
	beq	.L176
	.loc 10 479 16
	ldr	r3, [r7, #44]
	b	.L184
.L176:
	.loc 10 482 19
	ldr	r3, [r7, #4]
	adds	r3, r3, #4
	add	r2, r7, #12
	ldr	r2, [r2]
	mov	r1, r2	@ movhi
	strh	r1, [r3]	@ movhi
	adds	r3, r3, #2
	lsrs	r2, r2, #16
	strb	r2, [r3]
	.loc 10 485 8
	ldr	r3, [r7, #44]
	cmp	r3, #0
	bne	.L177
	.loc 10 485 46 discriminator 1
	ldrb	r3, [r7, #3]	@ zero_extendqisi2
	cmp	r3, #255
	beq	.L177
	.loc 10 487 18
	movs	r1, #6
	ldr	r0, [r7, #28]
	bl	_cyhal_utils_reserve_and_connect
	str	r0, [r7, #44]
	.loc 10 488 12
	ldr	r3, [r7, #44]
	cmp	r3, #0
	bne	.L177
	.loc 10 490 25
	ldr	r3, [r7, #4]
	ldrb	r2, [r7, #3]
	strb	r2, [r3, #8]
.L177:
	.loc 10 495 8
	ldr	r3, [r7, #44]
	cmp	r3, #0
	bne	.L178
	.loc 10 495 46 discriminator 1
	ldrb	r3, [r7, #2]	@ zero_extendqisi2
	cmp	r3, #255
	beq	.L178
	.loc 10 497 18
	movs	r1, #8
	ldr	r0, [r7, #24]
	bl	_cyhal_utils_reserve_and_connect
	str	r0, [r7, #44]
	.loc 10 498 12
	ldr	r3, [r7, #44]
	cmp	r3, #0
	bne	.L178
	.loc 10 500 25
	ldr	r3, [r7, #4]
	ldrb	r2, [r7, #2]
	strb	r2, [r3, #7]
.L178:
	.loc 10 504 8
	ldr	r3, [r7, #44]
	cmp	r3, #0
	bne	.L179
	.loc 10 504 46 discriminator 1
	ldr	r3, [r7, #20]
	cmp	r3, #0
	beq	.L179
	.loc 10 507 18
	movs	r1, #8
	ldr	r0, [r7, #20]
	bl	_cyhal_utils_reserve_and_connect
	str	r0, [r7, #44]
	.loc 10 508 12
	ldr	r3, [r7, #44]
	cmp	r3, #0
	bne	.L179
	.loc 10 510 30
	ldr	r3, [r7, #4]
	movs	r2, #1
	strb	r2, [r3, #11]
	.loc 10 511 26
	ldr	r3, [r7, #4]
	ldrb	r2, [r7, #1]
	strb	r2, [r3, #9]
.L179:
	.loc 10 515 8
	ldr	r3, [r7, #44]
	cmp	r3, #0
	bne	.L180
	.loc 10 515 46 discriminator 1
	ldr	r3, [r7, #16]
	cmp	r3, #0
	beq	.L180
	.loc 10 518 18
	movs	r1, #6
	ldr	r0, [r7, #16]
	bl	_cyhal_utils_reserve_and_connect
	str	r0, [r7, #44]
	.loc 10 519 12
	ldr	r3, [r7, #44]
	cmp	r3, #0
	bne	.L180
	.loc 10 521 30
	ldr	r3, [r7, #4]
	movs	r2, #1
	strb	r2, [r3, #12]
	.loc 10 522 26
	ldr	r3, [r7, #4]
	ldrb	r2, [r7, #56]
	strb	r2, [r3, #10]
.L180:
	.loc 10 526 8
	ldr	r3, [r7, #44]
	cmp	r3, #0
	bne	.L181
	.loc 10 528 12
	ldr	r3, [r7, #60]
	cmp	r3, #0
	bne	.L182
	.loc 10 530 22
	ldr	r3, [r7, #4]
	add	r0, r3, #16
	.loc 10 530 65
	ldr	r3, [r7, #4]
	adds	r1, r3, #4
	.loc 10 530 22
	movs	r3, #1
	movs	r2, #1
	bl	_cyhal_utils_allocate_clock
	str	r0, [r7, #44]
	.loc 10 531 61
	ldr	r3, [r7, #44]
	cmp	r3, #0
	ite	eq
	moveq	r3, #1
	movne	r3, #0
	uxtb	r2, r3
	.loc 10 531 33
	ldr	r3, [r7, #4]
	strb	r2, [r3, #13]
	b	.L181
.L182:
	.loc 10 535 33
	ldr	r3, [r7, #4]
	movs	r2, #0
	strb	r2, [r3, #13]
	.loc 10 536 24
	ldr	r3, [r7, #4]
	ldr	r2, [r7, #60]
	adds	r3, r3, #16
	ldm	r2, {r0, r1}
	stm	r3, {r0, r1}
.L181:
	.loc 10 540 8
	ldr	r3, [r7, #44]
	cmp	r3, #0
	bne	.L183
	.loc 10 543 53
	ldr	r3, [r7, #4]
	ldrb	r3, [r3, #5]	@ zero_extendqisi2
	.loc 10 542 18
	mov	r0, r3
	bl	_cyhal_scb_get_clock_index
	mov	r3, r0
	mov	r2, r3
	.loc 10 543 66
	ldr	r3, [r7, #4]
	adds	r3, r3, #16
	.loc 10 542 18
	mov	r1, r3
	mov	r0, r2
	bl	_cyhal_utils_peri_pclk_assign_divider
	str	r0, [r7, #44]
.L183:
	.loc 10 546 12
	ldr	r3, [r7, #44]
.L184:
	.loc 10 547 1 discriminator 1
	mov	r0, r3
	adds	r7, r7, #48
.LCFI275:
	.cfi_def_cfa_offset 8
	mov	sp, r7
.LCFI276:
	.cfi_def_cfa_register 13
	@ sp needed
	pop	{r7, pc}
.L186:
	.align	2
.L185:
	.word	67247872
	.word	_CYHAL_SCB_AVAILABLE_BLOCKS_MASK
	.word	cyhal_pin_map_scb_uart_tx
	.word	cyhal_pin_map_scb_uart_rx
	.word	cyhal_pin_map_scb_uart_cts
	.word	cyhal_pin_map_scb_uart_rts
	.cfi_endproc
.LFE1016:
	.size	_cyhal_uart_setup_resources, .-_cyhal_uart_setup_resources
	.section	.text._cyhal_uart_init_hw,"ax",%progbits
	.align	1
	.syntax unified
	.thumb
	.thumb_func
	.type	_cyhal_uart_init_hw, %function
_cyhal_uart_init_hw:
.LFB1017:
	.loc 10 550 1
	.cfi_startproc
	@ args = 0, pretend = 0, frame = 16
	@ frame_needed = 1, uses_anonymous_args = 0
	push	{r7, lr}
.LCFI277:
	.cfi_def_cfa_offset 8
	.cfi_offset 7, -8
	.cfi_offset 14, -4
	sub	sp, sp, #16
.LCFI278:
	.cfi_def_cfa_offset 24
	add	r7, sp, #0
.LCFI279:
	.cfi_def_cfa_register 7
	str	r0, [r7, #4]
	.loc 10 551 29
	ldr	r3, [r7, #4]
	ldrb	r3, [r3, #5]	@ zero_extendqisi2
	mov	r0, r3
	bl	_cyhal_scb_get_block_index
	mov	r3, r0
	strb	r3, [r7, #15]
	.loc 10 552 42
	ldrb	r3, [r7, #15]	@ zero_extendqisi2
	ldr	r2, .L190
	ldr	r2, [r2, r3, lsl #2]
	.loc 10 552 15
	ldr	r3, [r7, #4]
	str	r2, [r3]
	.loc 10 554 36
	ldr	r3, [r7, #4]
	ldr	r0, [r3]
	.loc 10 554 64
	ldr	r3, [r7, #4]
	add	r1, r3, #84
	.loc 10 554 36
	ldr	r3, [r7, #4]
	adds	r3, r3, #24
	mov	r2, r3
	bl	Cy_SCB_UART_Init
	str	r0, [r7, #8]
	.loc 10 556 8
	ldr	r3, [r7, #8]
	cmp	r3, #0
	bne	.L188
	.loc 10 558 37
	ldr	r3, [r7, #4]
	movs	r2, #0
	str	r2, [r3, #156]
	.loc 10 559 41
	ldr	r3, [r7, #4]
	movs	r2, #0
	str	r2, [r3, #160]
	.loc 10 560 24
	ldr	r3, [r7, #4]
	movs	r2, #0
	str	r2, [r3, #148]
	.loc 10 567 9
	ldrb	r3, [r7, #15]	@ zero_extendqisi2
	ldr	r2, .L190+4
	ldrsh	r3, [r2, r3, lsl #1]
	ldr	r2, .L190+8
	movs	r1, #3
	mov	r0, r3
	bl	_cyhal_irq_register
	.loc 10 568 9
	ldrb	r3, [r7, #15]	@ zero_extendqisi2
	ldr	r2, .L190+4
	ldrsh	r3, [r2, r3, lsl #1]
	mov	r0, r3
	bl	_cyhal_irq_enable
	.loc 10 570 9
	ldr	r3, [r7, #4]
	ldrb	r3, [r3, #5]	@ zero_extendqisi2
	ldr	r2, .L190+12
	ldr	r1, [r7, #4]
	mov	r0, r3
	bl	_cyhal_scb_update_instance_data
	.loc 10 572 9
	ldr	r3, [r7, #4]
	ldr	r3, [r3]
	mov	r0, r3
	bl	Cy_SCB_UART_Enable
.L188:
	.loc 10 575 12
	ldr	r3, [r7, #8]
	.loc 10 576 1
	mov	r0, r3
	adds	r7, r7, #16
.LCFI280:
	.cfi_def_cfa_offset 8
	mov	sp, r7
.LCFI281:
	.cfi_def_cfa_register 13
	@ sp needed
	pop	{r7, pc}
.L191:
	.align	2
.L190:
	.word	_CYHAL_SCB_BASE_ADDRESSES
	.word	_CYHAL_SCB_IRQ_N
	.word	_cyhal_uart_irq_handler
	.word	_cyhal_uart_pm_callback_instance
	.cfi_endproc
.LFE1017:
	.size	_cyhal_uart_init_hw, .-_cyhal_uart_init_hw
	.section	.text.cyhal_uart_init,"ax",%progbits
	.align	1
	.global	cyhal_uart_init
	.syntax unified
	.thumb
	.thumb_func
	.type	cyhal_uart_init, %function
cyhal_uart_init:
.LFB1018:
	.loc 10 580 1
	.cfi_startproc
	@ args = 12, pretend = 0, frame = 16
	@ frame_needed = 1, uses_anonymous_args = 0
	push	{r4, r5, r7, lr}
.LCFI282:
	.cfi_def_cfa_offset 16
	.cfi_offset 4, -16
	.cfi_offset 5, -12
	.cfi_offset 7, -8
	.cfi_offset 14, -4
	sub	sp, sp, #24
.LCFI283:
	.cfi_def_cfa_offset 40
	add	r7, sp, #8
.LCFI284:
	.cfi_def_cfa 7, 32
	str	r0, [r7, #4]
	mov	r0, r1
	mov	r1, r2
	mov	r2, r3
	mov	r3, r0
	strb	r3, [r7, #3]
	mov	r3, r1
	strb	r3, [r7, #2]
	mov	r3, r2
	strb	r3, [r7, #1]
	.loc 10 581 12
	ldr	r3, [r7, #4]
	cmp	r3, #0
	bne	.L193
	.loc 10 581 15 discriminator 1
	bl	CY_HALT
.L193:
	.loc 10 582 5
	movs	r2, #168
	movs	r1, #0
	ldr	r0, [r7, #4]
	bl	memset
	.loc 10 584 24
	ldr	r3, [r7, #4]
	movs	r2, #0
	strb	r2, [r3, #164]
	.loc 10 585 24
	ldrb	r0, [r7, #1]	@ zero_extendqisi2
	ldrb	r2, [r7, #2]	@ zero_extendqisi2
	ldrb	r1, [r7, #3]	@ zero_extendqisi2
	ldr	r3, [r7, #36]
	str	r3, [sp, #4]
	ldrb	r3, [r7, #32]	@ zero_extendqisi2
	str	r3, [sp]
	mov	r3, r0
	ldr	r0, [r7, #4]
	bl	_cyhal_uart_setup_resources
	str	r0, [r7, #12]
	.loc 10 587 8
	ldr	r3, [r7, #12]
	cmp	r3, #0
	bne	.L194
	.loc 10 589 21
	ldr	r3, [r7, #4]
	ldr	r2, .L200
	add	r4, r3, #84
	mov	r5, r2
	ldmia	r5!, {r0, r1, r2, r3}
	stmia	r4!, {r0, r1, r2, r3}
	ldmia	r5!, {r0, r1, r2, r3}
	stmia	r4!, {r0, r1, r2, r3}
	ldmia	r5!, {r0, r1, r2, r3}
	stmia	r4!, {r0, r1, r2, r3}
	ldm	r5, {r0, r1, r2, r3}
	stm	r4, {r0, r1, r2, r3}
	.loc 10 590 36
	ldr	r3, [r7, #4]
	ldrb	r2, [r3, #11]	@ zero_extendqisi2
	.loc 10 590 31
	ldr	r3, [r7, #4]
	strb	r2, [r3, #116]
	.loc 10 592 12
	ldr	r3, [r7, #40]
	cmp	r3, #0
	beq	.L195
	.loc 10 594 40
	ldr	r3, [r7, #40]
	ldr	r2, [r3]
	.loc 10 594 35
	ldr	r3, [r7, #4]
	str	r2, [r3, #92]
	.loc 10 595 77
	ldr	r3, [r7, #40]
	ldr	r3, [r3, #4]
	.loc 10 595 36
	uxtb	r3, r3
	mov	r0, r3
	bl	_cyhal_uart_convert_stopbits
	mov	r3, r0
	mov	r2, r3
	.loc 10 595 34
	ldr	r3, [r7, #4]
	strb	r2, [r3, #97]
	.loc 10 596 34
	ldr	r3, [r7, #40]
	ldrb	r3, [r3, #8]	@ zero_extendqisi2
	mov	r0, r3
	bl	_cyhal_uart_convert_parity
	mov	r3, r0
	mov	r2, r3
	.loc 10 596 32
	ldr	r3, [r7, #4]
	strb	r2, [r3, #98]
.L195:
	.loc 10 599 18
	ldr	r0, [r7, #4]
	bl	_cyhal_uart_init_hw
	str	r0, [r7, #12]
.L194:
	.loc 10 602 8
	ldr	r3, [r7, #12]
	cmp	r3, #0
	bne	.L196
	.loc 10 604 12
	ldr	r3, [r7, #40]
	cmp	r3, #0
	beq	.L197
	.loc 10 604 33 discriminator 1
	ldr	r3, [r7, #40]
	ldr	r3, [r3, #12]
	.loc 10 604 26 discriminator 1
	cmp	r3, #0
	beq	.L197
	.loc 10 606 13
	ldr	r3, [r7, #40]
	ldr	r1, [r3, #12]
	ldr	r3, [r7, #40]
	ldr	r3, [r3, #16]
	mov	r2, r3
	ldr	r0, [r7, #4]
	bl	cyhal_uart_config_software_buffer
.L197:
	.loc 10 609 16
	ldr	r3, [r7, #4]
	ldrb	r3, [r3, #13]	@ zero_extendqisi2
	.loc 10 609 12
	cmp	r3, #0
	beq	.L196
	.loc 10 611 22
	movs	r2, #0
	mov	r1, #115200
	ldr	r0, [r7, #4]
	bl	cyhal_uart_set_baud
	str	r0, [r7, #12]
.L196:
	.loc 10 615 8
	ldr	r3, [r7, #12]
	cmp	r3, #0
	beq	.L198
	.loc 10 617 9
	ldr	r0, [r7, #4]
	bl	cyhal_uart_free
.L198:
	.loc 10 619 12
	ldr	r3, [r7, #12]
	.loc 10 620 1
	mov	r0, r3
	adds	r7, r7, #16
.LCFI285:
	.cfi_def_cfa_offset 16
	mov	sp, r7
.LCFI286:
	.cfi_def_cfa_register 13
	@ sp needed
	pop	{r4, r5, r7, pc}
.L201:
	.align	2
.L200:
	.word	_cyhal_uart_default_config
	.cfi_endproc
.LFE1018:
	.size	cyhal_uart_init, .-cyhal_uart_init
	.section	.text.cyhal_uart_init_cfg,"ax",%progbits
	.align	1
	.global	cyhal_uart_init_cfg
	.syntax unified
	.thumb
	.thumb_func
	.type	cyhal_uart_init_cfg, %function
cyhal_uart_init_cfg:
.LFB1019:
	.loc 10 623 1
	.cfi_startproc
	@ args = 0, pretend = 0, frame = 8
	@ frame_needed = 1, uses_anonymous_args = 0
	push	{r4, r5, r7, lr}
.LCFI287:
	.cfi_def_cfa_offset 16
	.cfi_offset 4, -16
	.cfi_offset 5, -12
	.cfi_offset 7, -8
	.cfi_offset 14, -4
	sub	sp, sp, #8
.LCFI288:
	.cfi_def_cfa_offset 24
	add	r7, sp, #0
.LCFI289:
	.cfi_def_cfa_register 7
	str	r0, [r7, #4]
	str	r1, [r7]
	.loc 10 624 12
	ldr	r3, [r7, #4]
	cmp	r3, #0
	bne	.L203
	.loc 10 624 15 discriminator 1
	bl	CY_HALT
.L203:
	.loc 10 625 12
	ldr	r3, [r7]
	cmp	r3, #0
	bne	.L204
	.loc 10 625 15 discriminator 1
	bl	CY_HALT
.L204:
	.loc 10 626 10
	ldr	r3, [r7]
	ldr	r3, [r3, #4]
	.loc 10 626 12
	cmp	r3, #0
	bne	.L205
	.loc 10 626 23 discriminator 1
	bl	CY_HALT
.L205:
	.loc 10 627 5
	movs	r2, #168
	movs	r1, #0
	ldr	r0, [r7, #4]
	bl	memset
	.loc 10 629 25
	ldr	r3, [r7]
	ldr	r2, [r3]
	.loc 10 629 19
	ldr	r3, [r7, #4]
	adds	r3, r3, #4
	ldrh	r1, [r2]	@ unaligned
	ldrb	r2, [r2, #2]
	strh	r1, [r3]	@ unaligned
	strb	r2, [r3, #2]
	.loc 10 630 22
	ldr	r3, [r7]
	ldr	r2, [r3, #8]
	.loc 10 630 16
	ldr	r3, [r7, #4]
	adds	r3, r3, #16
	ldm	r2, {r0, r1}
	stm	r3, {r0, r1}
	.loc 10 631 25
	ldr	r3, [r7, #4]
	movs	r2, #0
	strb	r2, [r3, #13]
	.loc 10 632 29
	ldr	r3, [r7]
	ldrb	r2, [r3, #12]	@ zero_extendqisi2
	.loc 10 632 17
	ldr	r3, [r7, #4]
	strb	r2, [r3, #8]
	.loc 10 633 30
	ldr	r3, [r7]
	ldrb	r2, [r3, #13]	@ zero_extendqisi2
	.loc 10 633 18
	ldr	r3, [r7, #4]
	strb	r2, [r3, #10]
	.loc 10 634 30
	ldr	r3, [r7]
	ldrb	r2, [r3, #14]	@ zero_extendqisi2
	.loc 10 634 18
	ldr	r3, [r7, #4]
	strb	r2, [r3, #9]
	.loc 10 635 24
	ldr	r3, [r7, #4]
	movs	r2, #1
	strb	r2, [r3, #164]
	.loc 10 636 27
	ldr	r3, [r7]
	ldr	r3, [r3, #4]
	.loc 10 636 35
	ldrb	r2, [r3, #32]	@ zero_extendqisi2
	.loc 10 636 22
	ldr	r3, [r7, #4]
	strb	r2, [r3, #11]
	.loc 10 637 41
	ldr	r3, [r7]
	ldrb	r3, [r3, #13]	@ zero_extendqisi2
	.loc 10 637 28
	cmp	r3, #255
	ite	ne
	movne	r3, #1
	moveq	r3, #0
	uxtb	r2, r3
	.loc 10 637 22
	ldr	r3, [r7, #4]
	strb	r2, [r3, #12]
	.loc 10 639 23
	ldr	r3, [r7]
	ldr	r2, [r3, #4]
	.loc 10 639 17
	ldr	r3, [r7, #4]
	add	r4, r3, #84
	mov	r5, r2
	ldmia	r5!, {r0, r1, r2, r3}
	stmia	r4!, {r0, r1, r2, r3}
	ldmia	r5!, {r0, r1, r2, r3}
	stmia	r4!, {r0, r1, r2, r3}
	ldmia	r5!, {r0, r1, r2, r3}
	stmia	r4!, {r0, r1, r2, r3}
	ldm	r5, {r0, r1, r2, r3}
	stm	r4, {r0, r1, r2, r3}
	.loc 10 640 12
	ldr	r0, [r7, #4]
	bl	_cyhal_uart_init_hw
	mov	r3, r0
	.loc 10 641 1
	mov	r0, r3
	adds	r7, r7, #8
.LCFI290:
	.cfi_def_cfa_offset 16
	mov	sp, r7
.LCFI291:
	.cfi_def_cfa_register 13
	@ sp needed
	pop	{r4, r5, r7, pc}
	.cfi_endproc
.LFE1019:
	.size	cyhal_uart_init_cfg, .-cyhal_uart_init_cfg
	.section	.text.cyhal_uart_free,"ax",%progbits
	.align	1
	.global	cyhal_uart_free
	.syntax unified
	.thumb
	.thumb_func
	.type	cyhal_uart_free, %function
cyhal_uart_free:
.LFB1020:
	.loc 10 644 1
	.cfi_startproc
	@ args = 0, pretend = 0, frame = 16
	@ frame_needed = 1, uses_anonymous_args = 0
	push	{r7, lr}
.LCFI292:
	.cfi_def_cfa_offset 8
	.cfi_offset 7, -8
	.cfi_offset 14, -4
	sub	sp, sp, #16
.LCFI293:
	.cfi_def_cfa_offset 24
	add	r7, sp, #0
.LCFI294:
	.cfi_def_cfa_register 7
	str	r0, [r7, #4]
	.loc 10 645 12
	ldr	r3, [r7, #4]
	cmp	r3, #0
	bne	.L208
	.loc 10 645 15 discriminator 1
	bl	CY_HALT
.L208:
	.loc 10 647 19
	ldr	r3, [r7, #4]
	ldr	r3, [r3]
	.loc 10 647 8
	cmp	r3, #0
	beq	.L209
	.loc 10 649 9
	ldr	r3, [r7, #4]
	ldr	r2, [r3]
	ldr	r3, [r7, #4]
	adds	r3, r3, #24
	mov	r1, r3
	mov	r0, r2
	bl	Cy_SCB_UART_Disable
	.loc 10 650 9
	ldr	r3, [r7, #4]
	ldr	r3, [r3]
	mov	r0, r3
	bl	Cy_SCB_UART_DeInit
	.loc 10 651 19
	ldr	r3, [r7, #4]
	movs	r2, #0
	str	r2, [r3]
.L209:
	.loc 10 654 22
	ldr	r3, [r7, #4]
	ldrb	r3, [r3, #4]	@ zero_extendqisi2
	.loc 10 654 8
	cmp	r3, #30
	beq	.L210
.LBB17:
	.loc 10 656 33
	ldr	r3, [r7, #4]
	ldrb	r3, [r3, #5]	@ zero_extendqisi2
	mov	r0, r3
	bl	_cyhal_scb_get_block_index
	mov	r3, r0
	strb	r3, [r7, #15]
	.loc 10 657 52
	ldrb	r3, [r7, #15]	@ zero_extendqisi2
	.loc 10 657 29
	ldr	r2, .L214
	ldrh	r3, [r2, r3, lsl #1]	@ movhi
	strh	r3, [r7, #12]	@ movhi
	.loc 10 658 9
	ldrsh	r3, [r7, #12]
	mov	r0, r3
	bl	_cyhal_irq_free
	.loc 10 660 9
	ldr	r3, [r7, #4]
	ldrb	r3, [r3, #5]	@ zero_extendqisi2
	movs	r2, #0
	movs	r1, #0
	mov	r0, r3
	bl	_cyhal_scb_update_instance_data
	.loc 10 662 24
	ldr	r3, [r7, #4]
	ldrb	r3, [r3, #164]	@ zero_extendqisi2
	.loc 10 662 18
	eor	r3, r3, #1
	uxtb	r3, r3
	.loc 10 662 12
	cmp	r3, #0
	beq	.L211
	.loc 10 664 30
	ldr	r3, [r7, #4]
	adds	r3, r3, #4
	.loc 10 664 13
	mov	r0, r3
	bl	cyhal_hwmgr_free
.L211:
	.loc 10 667 28
	ldr	r3, [r7, #4]
	movs	r2, #30
	strb	r2, [r3, #4]
.L210:
.LBE17:
	.loc 10 670 20
	ldr	r3, [r7, #4]
	ldrb	r3, [r3, #164]	@ zero_extendqisi2
	.loc 10 670 14
	eor	r3, r3, #1
	uxtb	r3, r3
	.loc 10 670 8
	cmp	r3, #0
	beq	.L213
	.loc 10 672 9
	ldr	r3, [r7, #4]
	adds	r3, r3, #7
	mov	r0, r3
	bl	_cyhal_utils_release_if_used
	.loc 10 673 9
	ldr	r3, [r7, #4]
	adds	r3, r3, #8
	mov	r0, r3
	bl	_cyhal_utils_release_if_used
	.loc 10 674 9
	ldr	r3, [r7, #4]
	adds	r3, r3, #10
	mov	r0, r3
	bl	_cyhal_utils_release_if_used
	.loc 10 675 9
	ldr	r3, [r7, #4]
	adds	r3, r3, #9
	mov	r0, r3
	bl	_cyhal_utils_release_if_used
	.loc 10 677 16
	ldr	r3, [r7, #4]
	ldrb	r3, [r3, #13]	@ zero_extendqisi2
	.loc 10 677 12
	cmp	r3, #0
	beq	.L213
	.loc 10 679 13
	ldr	r3, [r7, #4]
	adds	r3, r3, #16
	mov	r0, r3
	bl	cyhal_clock_free
.L213:
	.loc 10 682 1
	nop
	adds	r7, r7, #16
.LCFI295:
	.cfi_def_cfa_offset 8
	mov	sp, r7
.LCFI296:
	.cfi_def_cfa_register 13
	@ sp needed
	pop	{r7, pc}
.L215:
	.align	2
.L214:
	.word	_CYHAL_SCB_IRQ_N
	.cfi_endproc
.LFE1020:
	.size	cyhal_uart_free, .-cyhal_uart_free
	.section	.text.cyhal_uart_set_baud,"ax",%progbits
	.align	1
	.global	cyhal_uart_set_baud
	.syntax unified
	.thumb
	.thumb_func
	.type	cyhal_uart_set_baud, %function
cyhal_uart_set_baud:
.LFB1021:
	.loc 10 685 1
	.cfi_startproc
	@ args = 0, pretend = 0, frame = 40
	@ frame_needed = 1, uses_anonymous_args = 0
	push	{r7, lr}
.LCFI297:
	.cfi_def_cfa_offset 8
	.cfi_offset 7, -8
	.cfi_offset 14, -4
	sub	sp, sp, #40
.LCFI298:
	.cfi_def_cfa_offset 48
	add	r7, sp, #0
.LCFI299:
	.cfi_def_cfa_register 7
	str	r0, [r7, #12]
	str	r1, [r7, #8]
	str	r2, [r7, #4]
	.loc 10 688 12
	ldr	r3, [r7, #12]
	ldrb	r3, [r3, #13]	@ zero_extendqisi2
	.loc 10 688 8
	cmp	r3, #0
	beq	.L217
.LBB18:
	.loc 10 694 9
	ldr	r3, [r7, #12]
	ldr	r3, [r3]
	movs	r1, #0
	mov	r0, r3
	bl	Cy_SCB_UART_Disable
	.loc 10 695 18
	ldr	r3, [r7, #12]
	adds	r3, r3, #16
	movs	r2, #0
	movs	r1, #0
	mov	r0, r3
	bl	cyhal_clock_set_enabled
	str	r0, [r7, #36]
	.loc 10 696 11
	ldr	r3, [r7, #36]
	cmp	r3, #0
	beq	.L218
	.loc 10 698 13
	ldr	r3, [r7, #12]
	ldr	r3, [r3]
	mov	r0, r3
	bl	Cy_SCB_UART_Enable
	.loc 10 699 20
	ldr	r3, [r7, #36]
	b	.L219
.L218:
	.loc 10 702 56
	ldr	r3, [r7, #12]
	adds	r3, r3, #4
	.loc 10 702 28
	ldr	r1, [r7, #8]
	mov	r0, r3
	bl	_cyhal_uart_best_oversample
	mov	r3, r0
	strb	r3, [r7, #35]
	.loc 10 703 32
	ldrb	r2, [r7, #35]	@ zero_extendqisi2
	ldr	r3, [r7, #12]
	str	r2, [r3, #88]
	.loc 10 705 46
	ldr	r3, [r7, #12]
	adds	r0, r3, #4
	.loc 10 705 19
	ldrb	r3, [r7, #35]	@ zero_extendqisi2
	ldr	r2, [r7, #8]
	mul	r3, r2, r3
	movs	r2, #0
	mov	r1, r3
	bl	_cyhal_utils_divider_value
	str	r0, [r7, #28]
	.loc 10 711 22
	ldr	r3, [r7, #12]
	adds	r3, r3, #16
	ldr	r1, [r7, #28]
	mov	r0, r3
	bl	cyhal_clock_set_divider
	str	r0, [r7, #36]
	.loc 10 713 11
	ldr	r3, [r7, #36]
	cmp	r3, #0
	beq	.L220
	.loc 10 715 13
	ldr	r3, [r7, #12]
	adds	r3, r3, #16
	movs	r2, #0
	movs	r1, #1
	mov	r0, r3
	bl	cyhal_clock_set_enabled
	.loc 10 716 13
	ldr	r3, [r7, #12]
	ldr	r3, [r3]
	mov	r0, r3
	bl	Cy_SCB_UART_Enable
	.loc 10 717 20
	ldr	r3, [r7, #36]
	b	.L219
.L220:
	.loc 10 720 51
	ldr	r3, [r7, #12]
	adds	r3, r3, #4
	.loc 10 720 27
	ldrb	r2, [r7, #35]	@ zero_extendqisi2
	ldr	r1, [r7, #28]
	mov	r0, r3
	bl	_cyhal_uart_actual_baud
	str	r0, [r7, #24]
	.loc 10 722 12
	ldr	r3, [r7, #4]
	cmp	r3, #0
	beq	.L221
	.loc 10 723 25
	ldr	r3, [r7, #4]
	ldr	r2, [r7, #24]
	str	r2, [r3]
.L221:
	.loc 10 724 36
	ldr	r1, [r7, #24]
	ldr	r0, [r7, #8]
	bl	_cyhal_uart_baud_perdif
	str	r0, [r7, #20]
	.loc 10 725 12
	ldr	r3, [r7, #20]
	cmp	r3, #10
	bls	.L222
	.loc 10 726 20
	ldr	r3, .L228
	str	r3, [r7, #36]
.L222:
	.loc 10 728 18
	ldr	r3, [r7, #12]
	adds	r3, r3, #16
	movs	r2, #0
	movs	r1, #1
	mov	r0, r3
	bl	cyhal_clock_set_enabled
	str	r0, [r7, #36]
	.loc 10 744 64
	ldr	r3, [r7, #12]
	ldrb	r3, [r3, #112]	@ zero_extendqisi2
	.loc 10 744 46
	cmp	r3, #0
	beq	.L223
	.loc 10 744 46 is_stmt 0 discriminator 1
	mov	r2, #65536
	b	.L224
.L223:
	.loc 10 744 46 discriminator 2
	movs	r2, #0
.L224:
	.loc 10 745 36 is_stmt 1
	ldr	r3, [r7, #12]
	ldr	r3, [r3, #92]
	.loc 10 745 34
	cmp	r3, #8
	bhi	.L225
	.loc 10 745 34 is_stmt 0 discriminator 1
	mov	r3, #2048
	b	.L226
.L225:
	.loc 10 745 34 discriminator 2
	movs	r3, #0
.L226:
	.loc 10 744 53 is_stmt 1
	orrs	r2, r2, r3
	.loc 10 746 51
	ldrb	r3, [r7, #35]	@ zero_extendqisi2
	subs	r3, r3, #1
	.loc 10 746 64
	and	r3, r3, #15
	.loc 10 745 41
	orrs	r2, r2, r3
	.loc 10 744 32
	ldr	r3, [r7, #12]
	ldr	r3, [r3]
	.loc 10 746 73
	orr	r2, r2, #33554432
	.loc 10 744 48
	str	r2, [r3]
	.loc 10 750 9
	ldr	r3, [r7, #12]
	ldr	r3, [r3]
	mov	r0, r3
	bl	Cy_SCB_UART_Enable
.LBE18:
	b	.L227
.L217:
	.loc 10 755 16
	ldr	r3, .L228+4
	str	r3, [r7, #36]
.L227:
	.loc 10 758 12
	ldr	r3, [r7, #36]
.L219:
	.loc 10 759 1
	mov	r0, r3
	adds	r7, r7, #40
.LCFI300:
	.cfi_def_cfa_offset 8
	mov	sp, r7
.LCFI301:
	.cfi_def_cfa_register 13
	@ sp needed
	pop	{r7, pc}
.L229:
	.align	2
.L228:
	.word	67182339
	.word	67247878
	.cfi_endproc
.LFE1021:
	.size	cyhal_uart_set_baud, .-cyhal_uart_set_baud
	.section	.text.cyhal_uart_configure,"ax",%progbits
	.align	1
	.global	cyhal_uart_configure
	.syntax unified
	.thumb
	.thumb_func
	.type	cyhal_uart_configure, %function
cyhal_uart_configure:
.LFB1022:
	.loc 10 762 1
	.cfi_startproc
	@ args = 0, pretend = 0, frame = 8
	@ frame_needed = 1, uses_anonymous_args = 0
	push	{r7, lr}
.LCFI302:
	.cfi_def_cfa_offset 8
	.cfi_offset 7, -8
	.cfi_offset 14, -4
	sub	sp, sp, #8
.LCFI303:
	.cfi_def_cfa_offset 16
	add	r7, sp, #0
.LCFI304:
	.cfi_def_cfa_register 7
	str	r0, [r7, #4]
	str	r1, [r7]
	.loc 10 763 12
	ldr	r3, [r7, #4]
	cmp	r3, #0
	bne	.L231
	.loc 10 763 15 discriminator 1
	bl	CY_HALT
.L231:
	.loc 10 764 12
	ldr	r3, [r7]
	cmp	r3, #0
	bne	.L232
	.loc 10 764 15 discriminator 1
	bl	CY_HALT
.L232:
	.loc 10 765 5
	ldr	r3, [r7, #4]
	ldr	r3, [r3]
	movs	r1, #0
	mov	r0, r3
	bl	Cy_SCB_UART_Disable
	.loc 10 766 32
	ldr	r3, [r7]
	ldr	r2, [r3]
	.loc 10 766 27
	ldr	r3, [r7, #4]
	str	r2, [r3, #92]
	.loc 10 767 69
	ldr	r3, [r7]
	ldr	r3, [r3, #4]
	.loc 10 767 28
	uxtb	r3, r3
	mov	r0, r3
	bl	_cyhal_uart_convert_stopbits
	mov	r3, r0
	mov	r2, r3
	.loc 10 767 26
	ldr	r3, [r7, #4]
	strb	r2, [r3, #97]
	.loc 10 768 26
	ldr	r3, [r7]
	ldrb	r3, [r3, #8]	@ zero_extendqisi2
	mov	r0, r3
	bl	_cyhal_uart_convert_parity
	mov	r3, r0
	mov	r2, r3
	.loc 10 768 24
	ldr	r3, [r7, #4]
	strb	r2, [r3, #98]
	.loc 10 769 32
	ldr	r3, [r7, #4]
	ldrb	r2, [r3, #11]	@ zero_extendqisi2
	.loc 10 769 27
	ldr	r3, [r7, #4]
	strb	r2, [r3, #116]
	.loc 10 771 5
	ldr	r3, [r7, #4]
	ldr	r0, [r3]
	.loc 10 771 33
	ldr	r3, [r7, #4]
	adds	r3, r3, #84
	.loc 10 771 5
	movs	r2, #0
	mov	r1, r3
	bl	Cy_SCB_UART_Init
	.loc 10 772 5
	ldr	r3, [r7, #4]
	ldr	r3, [r3]
	mov	r0, r3
	bl	Cy_SCB_UART_Enable
	.loc 10 773 12
	movs	r3, #0
	.loc 10 774 1
	mov	r0, r3
	adds	r7, r7, #8
.LCFI305:
	.cfi_def_cfa_offset 8
	mov	sp, r7
.LCFI306:
	.cfi_def_cfa_register 13
	@ sp needed
	pop	{r7, pc}
	.cfi_endproc
.LFE1022:
	.size	cyhal_uart_configure, .-cyhal_uart_configure
	.section	.text.cyhal_uart_getc,"ax",%progbits
	.align	1
	.global	cyhal_uart_getc
	.syntax unified
	.thumb
	.thumb_func
	.type	cyhal_uart_getc, %function
cyhal_uart_getc:
.LFB1023:
	.loc 10 777 1
	.cfi_startproc
	@ args = 0, pretend = 0, frame = 24
	@ frame_needed = 1, uses_anonymous_args = 0
	push	{r7, lr}
.LCFI307:
	.cfi_def_cfa_offset 8
	.cfi_offset 7, -8
	.cfi_offset 14, -4
	sub	sp, sp, #24
.LCFI308:
	.cfi_def_cfa_offset 32
	add	r7, sp, #0
.LCFI309:
	.cfi_def_cfa_register 7
	str	r0, [r7, #12]
	str	r1, [r7, #8]
	str	r2, [r7, #4]
	.loc 10 778 9
	bl	_cyhal_scb_pm_transition_pending
	mov	r3, r0
	.loc 10 778 8
	cmp	r3, #0
	beq	.L235
	.loc 10 779 16
	ldr	r3, .L241
	b	.L236
.L235:
	.loc 10 781 46
	ldr	r3, [r7, #12]
	ldr	r3, [r3]
	.loc 10 781 27
	mov	r0, r3
	bl	Cy_SCB_UART_Get
	str	r0, [r7, #20]
	.loc 10 782 14
	ldr	r3, [r7, #4]
	str	r3, [r7, #16]
	.loc 10 783 11
	b	.L237
.L240:
	.loc 10 785 11
	ldr	r3, [r7, #4]
	cmp	r3, #0
	beq	.L238
	.loc 10 787 15
	ldr	r3, [r7, #16]
	cmp	r3, #0
	beq	.L239
	.loc 10 789 17
	movs	r0, #1
	bl	Cy_SysLib_Delay
	.loc 10 790 29
	ldr	r3, [r7, #16]
	subs	r3, r3, #1
	str	r3, [r7, #16]
	b	.L238
.L239:
	.loc 10 794 24
	ldr	r3, .L241+4
	b	.L236
.L238:
	.loc 10 797 41
	ldr	r3, [r7, #12]
	ldr	r3, [r3]
	.loc 10 797 22
	mov	r0, r3
	bl	Cy_SCB_UART_Get
	str	r0, [r7, #20]
.L237:
	.loc 10 783 11
	ldr	r3, [r7, #20]
	cmp	r3, #-1
	beq	.L240
	.loc 10 799 14
	ldr	r3, [r7, #20]
	uxtb	r2, r3
	.loc 10 799 12
	ldr	r3, [r7, #8]
	strb	r2, [r3]
	.loc 10 800 12
	movs	r3, #0
.L236:
	.loc 10 801 1
	mov	r0, r3
	adds	r7, r7, #24
.LCFI310:
	.cfi_def_cfa_offset 8
	mov	sp, r7
.LCFI311:
	.cfi_def_cfa_register 13
	@ sp needed
	pop	{r7, pc}
.L242:
	.align	2
.L241:
	.word	67246595
	.word	67247874
	.cfi_endproc
.LFE1023:
	.size	cyhal_uart_getc, .-cyhal_uart_getc
	.section	.text.cyhal_uart_putc,"ax",%progbits
	.align	1
	.global	cyhal_uart_putc
	.syntax unified
	.thumb
	.thumb_func
	.type	cyhal_uart_putc, %function
cyhal_uart_putc:
.LFB1024:
	.loc 10 804 1
	.cfi_startproc
	@ args = 0, pretend = 0, frame = 16
	@ frame_needed = 1, uses_anonymous_args = 0
	push	{r7, lr}
.LCFI312:
	.cfi_def_cfa_offset 8
	.cfi_offset 7, -8
	.cfi_offset 14, -4
	sub	sp, sp, #16
.LCFI313:
	.cfi_def_cfa_offset 24
	add	r7, sp, #0
.LCFI314:
	.cfi_def_cfa_register 7
	str	r0, [r7, #4]
	str	r1, [r7]
	.loc 10 805 9
	bl	_cyhal_scb_pm_transition_pending
	mov	r3, r0
	.loc 10 805 8
	cmp	r3, #0
	beq	.L244
	.loc 10 806 16
	ldr	r3, .L248
	b	.L245
.L244:
	.loc 10 808 14
	movs	r3, #0
	str	r3, [r7, #12]
	.loc 10 809 11
	b	.L246
.L247:
	.loc 10 811 17
	ldr	r3, [r7, #4]
	ldr	r3, [r3]
	ldr	r1, [r7]
	mov	r0, r3
	bl	Cy_SCB_UART_Put
	str	r0, [r7, #12]
.L246:
	.loc 10 809 11
	ldr	r3, [r7, #12]
	cmp	r3, #0
	beq	.L247
	.loc 10 814 12
	movs	r3, #0
.L245:
	.loc 10 815 1
	mov	r0, r3
	adds	r7, r7, #16
.LCFI315:
	.cfi_def_cfa_offset 8
	mov	sp, r7
.LCFI316:
	.cfi_def_cfa_register 13
	@ sp needed
	pop	{r7, pc}
.L249:
	.align	2
.L248:
	.word	67246595
	.cfi_endproc
.LFE1024:
	.size	cyhal_uart_putc, .-cyhal_uart_putc
	.section	.text.cyhal_uart_readable,"ax",%progbits
	.align	1
	.global	cyhal_uart_readable
	.syntax unified
	.thumb
	.thumb_func
	.type	cyhal_uart_readable, %function
cyhal_uart_readable:
.LFB1025:
	.loc 10 818 1
	.cfi_startproc
	@ args = 0, pretend = 0, frame = 16
	@ frame_needed = 1, uses_anonymous_args = 0
	push	{r7, lr}
.LCFI317:
	.cfi_def_cfa_offset 8
	.cfi_offset 7, -8
	.cfi_offset 14, -4
	sub	sp, sp, #16
.LCFI318:
	.cfi_def_cfa_offset 24
	add	r7, sp, #0
.LCFI319:
	.cfi_def_cfa_register 7
	str	r0, [r7, #4]
	.loc 10 819 63
	ldr	r3, [r7, #4]
	ldr	r3, [r3]
	.loc 10 819 33
	mov	r0, r3
	bl	Cy_SCB_UART_GetNumInRxFifo
	str	r0, [r7, #12]
	.loc 10 820 20
	ldr	r3, [r7, #4]
	ldr	r3, [r3, #32]
	.loc 10 820 7
	cmp	r3, #0
	beq	.L251
	.loc 10 822 63
	ldr	r3, [r7, #4]
	ldr	r2, [r3]
	.loc 10 822 71
	ldr	r3, [r7, #4]
	adds	r3, r3, #24
	.loc 10 822 29
	mov	r1, r3
	mov	r0, r2
	bl	Cy_SCB_UART_GetNumInRingBuffer
	mov	r2, r0
	.loc 10 822 26
	ldr	r3, [r7, #12]
	add	r3, r3, r2
	str	r3, [r7, #12]
.L251:
	.loc 10 824 12
	ldr	r3, [r7, #12]
	.loc 10 825 1
	mov	r0, r3
	adds	r7, r7, #16
.LCFI320:
	.cfi_def_cfa_offset 8
	mov	sp, r7
.LCFI321:
	.cfi_def_cfa_register 13
	@ sp needed
	pop	{r7, pc}
	.cfi_endproc
.LFE1025:
	.size	cyhal_uart_readable, .-cyhal_uart_readable
	.section	.text.cyhal_uart_writable,"ax",%progbits
	.align	1
	.global	cyhal_uart_writable
	.syntax unified
	.thumb
	.thumb_func
	.type	cyhal_uart_writable, %function
cyhal_uart_writable:
.LFB1026:
	.loc 10 828 1
	.cfi_startproc
	@ args = 0, pretend = 0, frame = 8
	@ frame_needed = 1, uses_anonymous_args = 0
	push	{r4, r7, lr}
.LCFI322:
	.cfi_def_cfa_offset 12
	.cfi_offset 4, -12
	.cfi_offset 7, -8
	.cfi_offset 14, -4
	sub	sp, sp, #12
.LCFI323:
	.cfi_def_cfa_offset 24
	add	r7, sp, #0
.LCFI324:
	.cfi_def_cfa_register 7
	str	r0, [r7, #4]
	.loc 10 829 34
	ldr	r3, [r7, #4]
	ldr	r3, [r3]
	.loc 10 829 12
	mov	r0, r3
	bl	Cy_SCB_GetFifoSize
	mov	r4, r0
	.loc 10 829 69
	ldr	r3, [r7, #4]
	ldr	r3, [r3]
	.loc 10 829 44
	mov	r0, r3
	bl	Cy_SCB_GetNumInTxFifo
	mov	r3, r0
	.loc 10 829 42
	subs	r3, r4, r3
	.loc 10 830 1
	mov	r0, r3
	adds	r7, r7, #12
.LCFI325:
	.cfi_def_cfa_offset 12
	mov	sp, r7
.LCFI326:
	.cfi_def_cfa_register 13
	@ sp needed
	pop	{r4, r7, pc}
	.cfi_endproc
.LFE1026:
	.size	cyhal_uart_writable, .-cyhal_uart_writable
	.section	.text.cyhal_uart_clear,"ax",%progbits
	.align	1
	.global	cyhal_uart_clear
	.syntax unified
	.thumb
	.thumb_func
	.type	cyhal_uart_clear, %function
cyhal_uart_clear:
.LFB1027:
	.loc 10 833 1
	.cfi_startproc
	@ args = 0, pretend = 0, frame = 8
	@ frame_needed = 1, uses_anonymous_args = 0
	push	{r7, lr}
.LCFI327:
	.cfi_def_cfa_offset 8
	.cfi_offset 7, -8
	.cfi_offset 14, -4
	sub	sp, sp, #8
.LCFI328:
	.cfi_def_cfa_offset 16
	add	r7, sp, #0
.LCFI329:
	.cfi_def_cfa_register 7
	str	r0, [r7, #4]
	.loc 10 834 5
	ldr	r3, [r7, #4]
	ldr	r3, [r3]
	mov	r0, r3
	bl	Cy_SCB_UART_ClearRxFifo
	.loc 10 835 5
	ldr	r3, [r7, #4]
	ldr	r3, [r3]
	mov	r0, r3
	bl	Cy_SCB_UART_ClearTxFifo
	.loc 10 837 20
	ldr	r3, [r7, #4]
	ldr	r3, [r3, #32]
	.loc 10 837 7
	cmp	r3, #0
	beq	.L256
	.loc 10 839 40
	ldr	r3, [r7, #4]
	ldr	r2, [r3]
	.loc 10 839 9
	ldr	r3, [r7, #4]
	adds	r3, r3, #24
	mov	r1, r3
	mov	r0, r2
	bl	Cy_SCB_UART_ClearRingBuffer
.L256:
	.loc 10 842 12
	movs	r3, #0
	.loc 10 843 1
	mov	r0, r3
	adds	r7, r7, #8
.LCFI330:
	.cfi_def_cfa_offset 8
	mov	sp, r7
.LCFI331:
	.cfi_def_cfa_register 13
	@ sp needed
	pop	{r7, pc}
	.cfi_endproc
.LFE1027:
	.size	cyhal_uart_clear, .-cyhal_uart_clear
	.section	.text.cyhal_uart_enable_flow_control,"ax",%progbits
	.align	1
	.global	cyhal_uart_enable_flow_control
	.syntax unified
	.thumb
	.thumb_func
	.type	cyhal_uart_enable_flow_control, %function
cyhal_uart_enable_flow_control:
.LFB1028:
	.loc 10 846 1
	.cfi_startproc
	@ args = 0, pretend = 0, frame = 24
	@ frame_needed = 1, uses_anonymous_args = 0
	push	{r7, lr}
.LCFI332:
	.cfi_def_cfa_offset 8
	.cfi_offset 7, -8
	.cfi_offset 14, -4
	sub	sp, sp, #24
.LCFI333:
	.cfi_def_cfa_offset 32
	add	r7, sp, #0
.LCFI334:
	.cfi_def_cfa_register 7
	str	r0, [r7, #4]
	mov	r3, r1
	strb	r3, [r7, #3]
	mov	r3, r2
	strb	r3, [r7, #2]
	.loc 10 847 15
	movs	r3, #0
	str	r3, [r7, #20]
	.loc 10 849 12
	ldr	r3, [r7, #4]
	ldrb	r3, [r3, #9]	@ zero_extendqisi2
	.loc 10 849 8
	cmp	r3, #255
	beq	.L259
	.loc 10 851 12
	ldrb	r3, [r7, #3]	@ zero_extendqisi2
	cmp	r3, #0
	beq	.L260
	.loc 10 851 39 discriminator 1
	ldr	r3, [r7, #4]
	ldrb	r3, [r3, #11]	@ zero_extendqisi2
	.loc 10 851 33 discriminator 1
	eor	r3, r3, #1
	uxtb	r3, r3
	.loc 10 851 24 discriminator 1
	cmp	r3, #0
	beq	.L260
.LBB19:
	.loc 10 853 59
	ldr	r3, [r7, #4]
	ldrb	r0, [r3, #9]	@ zero_extendqisi2
	.loc 10 853 194
	ldr	r3, [r7, #4]
	adds	r3, r3, #4
	.loc 10 853 59
	movs	r2, #10
	ldr	r1, .L274
	bl	_cyhal_scb_find_map
	str	r0, [r7, #16]
	.loc 10 854 28
	ldr	r3, [r7, #4]
	ldrb	r3, [r3, #164]	@ zero_extendqisi2
	.loc 10 854 22
	eor	r3, r3, #1
	uxtb	r3, r3
	.loc 10 854 16
	cmp	r3, #0
	beq	.L261
	.loc 10 856 26
	movs	r1, #8
	ldr	r0, [r7, #16]
	bl	_cyhal_utils_reserve_and_connect
	str	r0, [r7, #20]
	b	.L262
.L261:
	.loc 10 860 26
	movs	r1, #8
	ldr	r0, [r7, #16]
	bl	cyhal_connect_pin
	str	r0, [r7, #20]
.L262:
	.loc 10 862 16
	ldr	r3, [r7, #20]
	cmp	r3, #0
	bne	.L273
	.loc 10 864 17
	ldr	r3, [r7, #4]
	ldr	r3, [r3]
	mov	r0, r3
	bl	Cy_SCB_UART_EnableCts
	.loc 10 865 34
	ldr	r3, [r7, #4]
	movs	r2, #1
	strb	r2, [r3, #11]
.LBE19:
	.loc 10 852 9
	b	.L273
.L260:
	.loc 10 868 18
	ldrb	r3, [r7, #3]
	eor	r3, r3, #1
	uxtb	r3, r3
	.loc 10 868 17
	cmp	r3, #0
	beq	.L259
	.loc 10 870 28
	ldr	r3, [r7, #4]
	ldrb	r3, [r3, #164]	@ zero_extendqisi2
	.loc 10 870 22
	eor	r3, r3, #1
	uxtb	r3, r3
	.loc 10 870 16
	cmp	r3, #0
	beq	.L264
	.loc 10 872 17
	ldr	r3, [r7, #4]
	ldrb	r3, [r3, #9]	@ zero_extendqisi2
	mov	r0, r3
	bl	_cyhal_utils_disconnect_and_free
	b	.L265
.L264:
	.loc 10 876 26
	ldr	r3, [r7, #4]
	ldrb	r3, [r3, #9]	@ zero_extendqisi2
	mov	r0, r3
	bl	cyhal_disconnect_pin
	str	r0, [r7, #20]
.L265:
	.loc 10 878 16
	ldr	r3, [r7, #20]
	cmp	r3, #0
	bne	.L259
	.loc 10 880 17
	ldr	r3, [r7, #4]
	ldr	r3, [r3]
	mov	r0, r3
	bl	Cy_SCB_UART_DisableCts
	.loc 10 881 34
	ldr	r3, [r7, #4]
	movs	r2, #0
	strb	r2, [r3, #11]
	b	.L259
.L273:
	.loc 10 852 9
	nop
.L259:
	.loc 10 886 8
	ldr	r3, [r7, #20]
	cmp	r3, #0
	bne	.L266
	.loc 10 886 53 discriminator 1
	ldr	r3, [r7, #4]
	ldrb	r3, [r3, #10]	@ zero_extendqisi2
	.loc 10 886 46 discriminator 1
	cmp	r3, #255
	beq	.L266
	.loc 10 888 12
	ldrb	r3, [r7, #2]	@ zero_extendqisi2
	cmp	r3, #0
	beq	.L267
	.loc 10 888 39 discriminator 1
	ldr	r3, [r7, #4]
	ldrb	r3, [r3, #12]	@ zero_extendqisi2
	.loc 10 888 33 discriminator 1
	eor	r3, r3, #1
	uxtb	r3, r3
	.loc 10 888 24 discriminator 1
	cmp	r3, #0
	beq	.L267
.LBB20:
	.loc 10 890 59
	ldr	r3, [r7, #4]
	ldrb	r0, [r3, #10]	@ zero_extendqisi2
	.loc 10 890 194
	ldr	r3, [r7, #4]
	adds	r3, r3, #4
	.loc 10 890 59
	movs	r2, #10
	ldr	r1, .L274+4
	bl	_cyhal_scb_find_map
	str	r0, [r7, #12]
	.loc 10 891 28
	ldr	r3, [r7, #4]
	ldrb	r3, [r3, #164]	@ zero_extendqisi2
	.loc 10 891 22
	eor	r3, r3, #1
	uxtb	r3, r3
	.loc 10 891 16
	cmp	r3, #0
	beq	.L268
	.loc 10 893 26
	movs	r1, #6
	ldr	r0, [r7, #12]
	bl	_cyhal_utils_reserve_and_connect
	str	r0, [r7, #20]
	b	.L269
.L268:
	.loc 10 897 26
	movs	r1, #6
	ldr	r0, [r7, #12]
	bl	cyhal_connect_pin
	str	r0, [r7, #20]
.L269:
	.loc 10 899 58
	ldr	r3, [r7, #20]
	cmp	r3, #0
	ite	eq
	moveq	r3, #1
	movne	r3, #0
	uxtb	r2, r3
	.loc 10 899 30
	ldr	r3, [r7, #4]
	strb	r2, [r3, #12]
.LBE20:
	.loc 10 889 9
	b	.L266
.L267:
	.loc 10 901 18
	ldrb	r3, [r7, #2]
	eor	r3, r3, #1
	uxtb	r3, r3
	.loc 10 901 17
	cmp	r3, #0
	beq	.L266
	.loc 10 903 28
	ldr	r3, [r7, #4]
	ldrb	r3, [r3, #164]	@ zero_extendqisi2
	.loc 10 903 22
	eor	r3, r3, #1
	uxtb	r3, r3
	.loc 10 903 16
	cmp	r3, #0
	beq	.L270
	.loc 10 905 17
	ldr	r3, [r7, #4]
	ldrb	r3, [r3, #10]	@ zero_extendqisi2
	mov	r0, r3
	bl	_cyhal_utils_disconnect_and_free
	b	.L271
.L270:
	.loc 10 909 26
	ldr	r3, [r7, #4]
	ldrb	r3, [r3, #10]	@ zero_extendqisi2
	mov	r0, r3
	bl	cyhal_disconnect_pin
	str	r0, [r7, #20]
.L271:
	.loc 10 911 16
	ldr	r3, [r7, #20]
	cmp	r3, #0
	bne	.L266
	.loc 10 913 34
	ldr	r3, [r7, #4]
	movs	r2, #0
	strb	r2, [r3, #12]
.L266:
	.loc 10 918 12
	ldr	r3, [r7, #20]
	.loc 10 919 1
	mov	r0, r3
	adds	r7, r7, #24
.LCFI335:
	.cfi_def_cfa_offset 8
	mov	sp, r7
.LCFI336:
	.cfi_def_cfa_register 13
	@ sp needed
	pop	{r7, pc}
.L275:
	.align	2
.L274:
	.word	cyhal_pin_map_scb_uart_cts
	.word	cyhal_pin_map_scb_uart_rts
	.cfi_endproc
.LFE1028:
	.size	cyhal_uart_enable_flow_control, .-cyhal_uart_enable_flow_control
	.section	.text.cyhal_uart_write,"ax",%progbits
	.align	1
	.global	cyhal_uart_write
	.syntax unified
	.thumb
	.thumb_func
	.type	cyhal_uart_write, %function
cyhal_uart_write:
.LFB1029:
	.loc 10 922 1
	.cfi_startproc
	@ args = 0, pretend = 0, frame = 16
	@ frame_needed = 1, uses_anonymous_args = 0
	push	{r7, lr}
.LCFI337:
	.cfi_def_cfa_offset 8
	.cfi_offset 7, -8
	.cfi_offset 14, -4
	sub	sp, sp, #16
.LCFI338:
	.cfi_def_cfa_offset 24
	add	r7, sp, #0
.LCFI339:
	.cfi_def_cfa_register 7
	str	r0, [r7, #12]
	str	r1, [r7, #8]
	str	r2, [r7, #4]
	.loc 10 923 9
	bl	_cyhal_scb_pm_transition_pending
	mov	r3, r0
	.loc 10 923 8
	cmp	r3, #0
	beq	.L277
	.loc 10 924 16
	ldr	r3, .L279
	b	.L278
.L277:
	.loc 10 926 18
	ldr	r3, [r7, #12]
	ldr	r0, [r3]
	ldr	r3, [r7, #4]
	ldr	r3, [r3]
	mov	r2, r3
	ldr	r1, [r7, #8]
	bl	Cy_SCB_UART_PutArray
	mov	r2, r0
	.loc 10 926 16
	ldr	r3, [r7, #4]
	str	r2, [r3]
	.loc 10 928 12
	movs	r3, #0
.L278:
	.loc 10 929 1
	mov	r0, r3
	adds	r7, r7, #16
.LCFI340:
	.cfi_def_cfa_offset 8
	mov	sp, r7
.LCFI341:
	.cfi_def_cfa_register 13
	@ sp needed
	pop	{r7, pc}
.L280:
	.align	2
.L279:
	.word	67246595
	.cfi_endproc
.LFE1029:
	.size	cyhal_uart_write, .-cyhal_uart_write
	.section	.text.cyhal_uart_read,"ax",%progbits
	.align	1
	.global	cyhal_uart_read
	.syntax unified
	.thumb
	.thumb_func
	.type	cyhal_uart_read, %function
cyhal_uart_read:
.LFB1030:
	.loc 10 932 1
	.cfi_startproc
	@ args = 0, pretend = 0, frame = 16
	@ frame_needed = 1, uses_anonymous_args = 0
	push	{r7, lr}
.LCFI342:
	.cfi_def_cfa_offset 8
	.cfi_offset 7, -8
	.cfi_offset 14, -4
	sub	sp, sp, #16
.LCFI343:
	.cfi_def_cfa_offset 24
	add	r7, sp, #0
.LCFI344:
	.cfi_def_cfa_register 7
	str	r0, [r7, #12]
	str	r1, [r7, #8]
	str	r2, [r7, #4]
	.loc 10 933 9
	bl	_cyhal_scb_pm_transition_pending
	mov	r3, r0
	.loc 10 933 8
	cmp	r3, #0
	beq	.L282
	.loc 10 934 16
	ldr	r3, .L284
	b	.L283
.L282:
	.loc 10 936 42
	ldr	r3, [r7, #12]
	ldr	r0, [r3]
	.loc 10 936 18
	ldr	r3, [r7, #4]
	ldr	r3, [r3]
	mov	r2, r3
	ldr	r1, [r7, #8]
	bl	Cy_SCB_UART_GetArray
	mov	r2, r0
	.loc 10 936 16
	ldr	r3, [r7, #4]
	str	r2, [r3]
	.loc 10 937 12
	movs	r3, #0
.L283:
	.loc 10 938 1
	mov	r0, r3
	adds	r7, r7, #16
.LCFI345:
	.cfi_def_cfa_offset 8
	mov	sp, r7
.LCFI346:
	.cfi_def_cfa_register 13
	@ sp needed
	pop	{r7, pc}
.L285:
	.align	2
.L284:
	.word	67246595
	.cfi_endproc
.LFE1030:
	.size	cyhal_uart_read, .-cyhal_uart_read
	.section	.text.cyhal_uart_write_async,"ax",%progbits
	.align	1
	.global	cyhal_uart_write_async
	.syntax unified
	.thumb
	.thumb_func
	.type	cyhal_uart_write_async, %function
cyhal_uart_write_async:
.LFB1031:
	.loc 10 941 1
	.cfi_startproc
	@ args = 0, pretend = 0, frame = 16
	@ frame_needed = 1, uses_anonymous_args = 0
	push	{r7, lr}
.LCFI347:
	.cfi_def_cfa_offset 8
	.cfi_offset 7, -8
	.cfi_offset 14, -4
	sub	sp, sp, #16
.LCFI348:
	.cfi_def_cfa_offset 24
	add	r7, sp, #0
.LCFI349:
	.cfi_def_cfa_register 7
	str	r0, [r7, #12]
	str	r1, [r7, #8]
	str	r2, [r7, #4]
	.loc 10 942 9
	bl	_cyhal_scb_pm_transition_pending
	mov	r3, r0
	.loc 10 942 8
	cmp	r3, #0
	beq	.L287
	.loc 10 943 16
	ldr	r3, .L289
	b	.L288
.L287:
	.loc 10 945 12
	ldr	r3, [r7, #12]
	ldr	r0, [r3]
	ldr	r3, [r7, #12]
	adds	r3, r3, #24
	ldr	r2, [r7, #4]
	ldr	r1, [r7, #8]
	bl	Cy_SCB_UART_Transmit
	mov	r3, r0
.L288:
	.loc 10 946 1
	mov	r0, r3
	adds	r7, r7, #16
.LCFI350:
	.cfi_def_cfa_offset 8
	mov	sp, r7
.LCFI351:
	.cfi_def_cfa_register 13
	@ sp needed
	pop	{r7, pc}
.L290:
	.align	2
.L289:
	.word	67246595
	.cfi_endproc
.LFE1031:
	.size	cyhal_uart_write_async, .-cyhal_uart_write_async
	.section	.text.cyhal_uart_read_async,"ax",%progbits
	.align	1
	.global	cyhal_uart_read_async
	.syntax unified
	.thumb
	.thumb_func
	.type	cyhal_uart_read_async, %function
cyhal_uart_read_async:
.LFB1032:
	.loc 10 949 1
	.cfi_startproc
	@ args = 0, pretend = 0, frame = 16
	@ frame_needed = 1, uses_anonymous_args = 0
	push	{r7, lr}
.LCFI352:
	.cfi_def_cfa_offset 8
	.cfi_offset 7, -8
	.cfi_offset 14, -4
	sub	sp, sp, #16
.LCFI353:
	.cfi_def_cfa_offset 24
	add	r7, sp, #0
.LCFI354:
	.cfi_def_cfa_register 7
	str	r0, [r7, #12]
	str	r1, [r7, #8]
	str	r2, [r7, #4]
	.loc 10 950 9
	bl	_cyhal_scb_pm_transition_pending
	mov	r3, r0
	.loc 10 950 8
	cmp	r3, #0
	beq	.L292
	.loc 10 951 16
	ldr	r3, .L294
	b	.L293
.L292:
	.loc 10 953 12
	ldr	r3, [r7, #12]
	ldr	r0, [r3]
	ldr	r3, [r7, #12]
	adds	r3, r3, #24
	ldr	r2, [r7, #4]
	ldr	r1, [r7, #8]
	bl	Cy_SCB_UART_Receive
	mov	r3, r0
.L293:
	.loc 10 954 1
	mov	r0, r3
	adds	r7, r7, #16
.LCFI355:
	.cfi_def_cfa_offset 8
	mov	sp, r7
.LCFI356:
	.cfi_def_cfa_register 13
	@ sp needed
	pop	{r7, pc}
.L295:
	.align	2
.L294:
	.word	67246595
	.cfi_endproc
.LFE1032:
	.size	cyhal_uart_read_async, .-cyhal_uart_read_async
	.section	.text.cyhal_uart_is_tx_active,"ax",%progbits
	.align	1
	.global	cyhal_uart_is_tx_active
	.syntax unified
	.thumb
	.thumb_func
	.type	cyhal_uart_is_tx_active, %function
cyhal_uart_is_tx_active:
.LFB1033:
	.loc 10 957 1
	.cfi_startproc
	@ args = 0, pretend = 0, frame = 8
	@ frame_needed = 1, uses_anonymous_args = 0
	push	{r7, lr}
.LCFI357:
	.cfi_def_cfa_offset 8
	.cfi_offset 7, -8
	.cfi_offset 14, -4
	sub	sp, sp, #8
.LCFI358:
	.cfi_def_cfa_offset 16
	add	r7, sp, #0
.LCFI359:
	.cfi_def_cfa_register 7
	str	r0, [r7, #4]
	.loc 10 958 33
	ldr	r3, [r7, #4]
	ldr	r3, [r3, #24]
	.loc 10 958 43
	and	r3, r3, #1
	.loc 10 958 56
	cmp	r3, #0
	bne	.L297
	.loc 10 958 83 discriminator 2
	ldr	r3, [r7, #4]
	ldr	r3, [r3]
	.loc 10 958 60 discriminator 2
	mov	r0, r3
	bl	Cy_SCB_IsTxComplete
	mov	r3, r0
	.loc 10 958 59 discriminator 2
	eor	r3, r3, #1
	uxtb	r3, r3
	.loc 10 958 56 discriminator 2
	cmp	r3, #0
	beq	.L298
.L297:
	.loc 10 958 56 is_stmt 0 discriminator 3
	movs	r3, #1
	b	.L299
.L298:
	.loc 10 958 56 discriminator 4
	movs	r3, #0
.L299:
	.loc 10 958 56 discriminator 6
	and	r3, r3, #1
	uxtb	r3, r3
	.loc 10 959 1 is_stmt 1 discriminator 6
	mov	r0, r3
	adds	r7, r7, #8
.LCFI360:
	.cfi_def_cfa_offset 8
	mov	sp, r7
.LCFI361:
	.cfi_def_cfa_register 13
	@ sp needed
	pop	{r7, pc}
	.cfi_endproc
.LFE1033:
	.size	cyhal_uart_is_tx_active, .-cyhal_uart_is_tx_active
	.section	.text.cyhal_uart_is_rx_active,"ax",%progbits
	.align	1
	.global	cyhal_uart_is_rx_active
	.syntax unified
	.thumb
	.thumb_func
	.type	cyhal_uart_is_rx_active, %function
cyhal_uart_is_rx_active:
.LFB1034:
	.loc 10 962 1
	.cfi_startproc
	@ args = 0, pretend = 0, frame = 8
	@ frame_needed = 1, uses_anonymous_args = 0
	@ link register save eliminated.
	push	{r7}
.LCFI362:
	.cfi_def_cfa_offset 4
	.cfi_offset 7, -4
	sub	sp, sp, #12
.LCFI363:
	.cfi_def_cfa_offset 16
	add	r7, sp, #0
.LCFI364:
	.cfi_def_cfa_register 7
	str	r0, [r7, #4]
	.loc 10 963 33
	ldr	r3, [r7, #4]
	ldr	r3, [r3, #28]
	.loc 10 963 43
	and	r3, r3, #1
	.loc 10 963 17
	cmp	r3, #0
	ite	ne
	movne	r3, #1
	moveq	r3, #0
	uxtb	r3, r3
	.loc 10 964 1
	mov	r0, r3
	adds	r7, r7, #12
.LCFI365:
	.cfi_def_cfa_offset 4
	mov	sp, r7
.LCFI366:
	.cfi_def_cfa_register 13
	@ sp needed
	ldr	r7, [sp], #4
.LCFI367:
	.cfi_restore 7
	.cfi_def_cfa_offset 0
	bx	lr
	.cfi_endproc
.LFE1034:
	.size	cyhal_uart_is_rx_active, .-cyhal_uart_is_rx_active
	.section	.text.cyhal_uart_write_abort,"ax",%progbits
	.align	1
	.global	cyhal_uart_write_abort
	.syntax unified
	.thumb
	.thumb_func
	.type	cyhal_uart_write_abort, %function
cyhal_uart_write_abort:
.LFB1035:
	.loc 10 967 1
	.cfi_startproc
	@ args = 0, pretend = 0, frame = 8
	@ frame_needed = 1, uses_anonymous_args = 0
	push	{r7, lr}
.LCFI368:
	.cfi_def_cfa_offset 8
	.cfi_offset 7, -8
	.cfi_offset 14, -4
	sub	sp, sp, #8
.LCFI369:
	.cfi_def_cfa_offset 16
	add	r7, sp, #0
.LCFI370:
	.cfi_def_cfa_register 7
	str	r0, [r7, #4]
	.loc 10 968 5
	ldr	r3, [r7, #4]
	ldr	r2, [r3]
	ldr	r3, [r7, #4]
	adds	r3, r3, #24
	mov	r1, r3
	mov	r0, r2
	bl	Cy_SCB_UART_AbortTransmit
	.loc 10 969 12
	movs	r3, #0
	.loc 10 970 1
	mov	r0, r3
	adds	r7, r7, #8
.LCFI371:
	.cfi_def_cfa_offset 8
	mov	sp, r7
.LCFI372:
	.cfi_def_cfa_register 13
	@ sp needed
	pop	{r7, pc}
	.cfi_endproc
.LFE1035:
	.size	cyhal_uart_write_abort, .-cyhal_uart_write_abort
	.section	.text.cyhal_uart_read_abort,"ax",%progbits
	.align	1
	.global	cyhal_uart_read_abort
	.syntax unified
	.thumb
	.thumb_func
	.type	cyhal_uart_read_abort, %function
cyhal_uart_read_abort:
.LFB1036:
	.loc 10 973 1
	.cfi_startproc
	@ args = 0, pretend = 0, frame = 8
	@ frame_needed = 1, uses_anonymous_args = 0
	push	{r7, lr}
.LCFI373:
	.cfi_def_cfa_offset 8
	.cfi_offset 7, -8
	.cfi_offset 14, -4
	sub	sp, sp, #8
.LCFI374:
	.cfi_def_cfa_offset 16
	add	r7, sp, #0
.LCFI375:
	.cfi_def_cfa_register 7
	str	r0, [r7, #4]
	.loc 10 974 5
	ldr	r3, [r7, #4]
	ldr	r2, [r3]
	ldr	r3, [r7, #4]
	adds	r3, r3, #24
	mov	r1, r3
	mov	r0, r2
	bl	Cy_SCB_UART_AbortReceive
	.loc 10 975 12
	movs	r3, #0
	.loc 10 976 1
	mov	r0, r3
	adds	r7, r7, #8
.LCFI376:
	.cfi_def_cfa_offset 8
	mov	sp, r7
.LCFI377:
	.cfi_def_cfa_register 13
	@ sp needed
	pop	{r7, pc}
	.cfi_endproc
.LFE1036:
	.size	cyhal_uart_read_abort, .-cyhal_uart_read_abort
	.section	.text.cyhal_uart_register_callback,"ax",%progbits
	.align	1
	.global	cyhal_uart_register_callback
	.syntax unified
	.thumb
	.thumb_func
	.type	cyhal_uart_register_callback, %function
cyhal_uart_register_callback:
.LFB1037:
	.loc 10 979 1
	.cfi_startproc
	@ args = 0, pretend = 0, frame = 24
	@ frame_needed = 1, uses_anonymous_args = 0
	push	{r7, lr}
.LCFI378:
	.cfi_def_cfa_offset 8
	.cfi_offset 7, -8
	.cfi_offset 14, -4
	sub	sp, sp, #24
.LCFI379:
	.cfi_def_cfa_offset 32
	add	r7, sp, #0
.LCFI380:
	.cfi_def_cfa_register 7
	str	r0, [r7, #12]
	str	r1, [r7, #8]
	str	r2, [r7, #4]
	.loc 10 980 32
	bl	Cy_SysLib_EnterCriticalSection
	str	r0, [r7, #20]
	.loc 10 981 33
	ldr	r3, [r7, #12]
	ldr	r2, [r7, #8]
	str	r2, [r3, #156]
	.loc 10 982 37
	ldr	r3, [r7, #12]
	ldr	r2, [r7, #4]
	str	r2, [r3, #160]
	.loc 10 983 5
	ldr	r0, [r7, #20]
	bl	Cy_SysLib_ExitCriticalSection
	.loc 10 984 37
	ldr	r3, [r7, #12]
	ldr	r0, [r3]
	.loc 10 984 5
	ldr	r3, [r7, #12]
	adds	r3, r3, #24
	mov	r2, r3
	ldr	r1, .L308
	bl	Cy_SCB_UART_RegisterCallback
	.loc 10 986 20
	ldr	r3, [r7, #12]
	movs	r2, #0
	str	r2, [r3, #148]
	.loc 10 987 1
	nop
	adds	r7, r7, #24
.LCFI381:
	.cfi_def_cfa_offset 8
	mov	sp, r7
.LCFI382:
	.cfi_def_cfa_register 13
	@ sp needed
	pop	{r7, pc}
.L309:
	.align	2
.L308:
	.word	_cyhal_uart_cb_wrapper
	.cfi_endproc
.LFE1037:
	.size	cyhal_uart_register_callback, .-cyhal_uart_register_callback
	.section	.text.cyhal_uart_enable_event,"ax",%progbits
	.align	1
	.global	cyhal_uart_enable_event
	.syntax unified
	.thumb
	.thumb_func
	.type	cyhal_uart_enable_event, %function
cyhal_uart_enable_event:
.LFB1038:
	.loc 10 990 1
	.cfi_startproc
	@ args = 0, pretend = 0, frame = 16
	@ frame_needed = 1, uses_anonymous_args = 0
	push	{r4, r7, lr}
.LCFI383:
	.cfi_def_cfa_offset 12
	.cfi_offset 4, -12
	.cfi_offset 7, -8
	.cfi_offset 14, -4
	sub	sp, sp, #20
.LCFI384:
	.cfi_def_cfa_offset 32
	add	r7, sp, #0
.LCFI385:
	.cfi_def_cfa_register 7
	str	r0, [r7, #4]
	mov	r0, r1
	mov	r1, r2
	mov	r2, r3
	mov	r3, r0	@ movhi
	strh	r3, [r7, #2]	@ movhi
	mov	r3, r1
	strb	r3, [r7, #1]
	mov	r3, r2
	strb	r3, [r7]
	.loc 10 991 29
	ldr	r3, [r7, #4]
	ldrb	r3, [r3, #5]	@ zero_extendqisi2
	mov	r0, r3
	bl	_cyhal_scb_get_block_index
	mov	r3, r0
	strb	r3, [r7, #15]
	.loc 10 992 5
	ldrb	r3, [r7, #15]	@ zero_extendqisi2
	ldr	r2, .L328
	ldrsh	r3, [r2, r3, lsl #1]
	mov	r0, r3
	bl	_cyhal_irq_disable
	.loc 10 993 5
	ldrb	r3, [r7, #15]	@ zero_extendqisi2
	ldr	r2, .L328
	ldrsh	r3, [r2, r3, lsl #1]
	mov	r0, r3
	bl	_cyhal_irq_clear_pending
	.loc 10 995 8
	ldrb	r3, [r7]	@ zero_extendqisi2
	cmp	r3, #0
	beq	.L311
	.loc 10 997 24
	ldr	r3, [r7, #4]
	ldr	r2, [r3, #148]
	ldrh	r3, [r7, #2]
	orrs	r2, r2, r3
	ldr	r3, [r7, #4]
	str	r2, [r3, #148]
	.loc 10 998 19
	ldrh	r3, [r7, #2]
	and	r3, r3, #256
	.loc 10 998 12
	cmp	r3, #0
	beq	.L312
	.loc 10 1000 13
	ldr	r3, [r7, #4]
	ldr	r3, [r3]
	movs	r1, #16
	mov	r0, r3
	bl	Cy_SCB_ClearTxInterrupt
	.loc 10 1001 13
	ldr	r3, [r7, #4]
	ldr	r4, [r3]
	.loc 10 1001 79
	ldr	r3, [r7, #4]
	ldr	r3, [r3]
	.loc 10 1001 50
	mov	r0, r3
	bl	Cy_SCB_GetTxInterruptMask
	mov	r3, r0
	.loc 10 1001 13
	orr	r3, r3, #16
	mov	r1, r3
	mov	r0, r4
	bl	Cy_SCB_SetTxInterruptMask
.L312:
	.loc 10 1003 19
	ldrh	r3, [r7, #2]
	and	r3, r3, #4
	.loc 10 1003 12
	cmp	r3, #0
	beq	.L313
	.loc 10 1005 13
	ldr	r3, [r7, #4]
	ldr	r3, [r3]
	mov	r1, #512
	mov	r0, r3
	bl	Cy_SCB_ClearTxInterrupt
	.loc 10 1006 13
	ldr	r3, [r7, #4]
	ldr	r4, [r3]
	.loc 10 1006 79
	ldr	r3, [r7, #4]
	ldr	r3, [r3]
	.loc 10 1006 50
	mov	r0, r3
	bl	Cy_SCB_GetTxInterruptMask
	mov	r3, r0
	.loc 10 1006 13
	orr	r3, r3, #512
	mov	r1, r3
	mov	r0, r4
	bl	Cy_SCB_SetTxInterruptMask
.L313:
	.loc 10 1008 19
	ldrh	r3, [r7, #2]
	and	r3, r3, #8
	.loc 10 1008 12
	cmp	r3, #0
	beq	.L314
	.loc 10 1012 27
	ldr	r3, [r7, #4]
	ldrb	r3, [r3, #84]	@ zero_extendqisi2
	.loc 10 1012 15
	cmp	r3, #0
	bne	.L315
	.loc 10 1014 17
	ldr	r3, [r7, #4]
	ldr	r3, [r3]
	mov	r1, #1312
	mov	r0, r3
	bl	Cy_SCB_ClearTxInterrupt
	.loc 10 1015 17
	ldr	r3, [r7, #4]
	ldr	r4, [r3]
	.loc 10 1015 83
	ldr	r3, [r7, #4]
	ldr	r3, [r3]
	.loc 10 1015 54
	mov	r0, r3
	bl	Cy_SCB_GetTxInterruptMask
	mov	r3, r0
	.loc 10 1015 17
	orr	r3, r3, #1312
	mov	r1, r3
	mov	r0, r4
	bl	Cy_SCB_SetTxInterruptMask
	b	.L314
.L315:
	.loc 10 1018 32
	ldr	r3, [r7, #4]
	ldrb	r3, [r3, #84]	@ zero_extendqisi2
	.loc 10 1018 20
	cmp	r3, #1
	bne	.L316
	.loc 10 1020 17
	ldr	r3, [r7, #4]
	ldr	r3, [r3]
	mov	r1, #1312
	mov	r0, r3
	bl	Cy_SCB_ClearTxInterrupt
	.loc 10 1021 17
	ldr	r3, [r7, #4]
	ldr	r4, [r3]
	.loc 10 1021 83
	ldr	r3, [r7, #4]
	ldr	r3, [r3]
	.loc 10 1021 54
	mov	r0, r3
	bl	Cy_SCB_GetTxInterruptMask
	mov	r3, r0
	.loc 10 1021 17
	orr	r3, r3, #1312
	mov	r1, r3
	mov	r0, r4
	bl	Cy_SCB_SetTxInterruptMask
	b	.L314
.L316:
	.loc 10 1026 17
	ldr	r3, [r7, #4]
	ldr	r3, [r3]
	mov	r1, #1312
	mov	r0, r3
	bl	Cy_SCB_ClearTxInterrupt
	.loc 10 1027 17
	ldr	r3, [r7, #4]
	ldr	r4, [r3]
	.loc 10 1027 83
	ldr	r3, [r7, #4]
	ldr	r3, [r3]
	.loc 10 1027 54
	mov	r0, r3
	bl	Cy_SCB_GetTxInterruptMask
	mov	r3, r0
	.loc 10 1027 17
	orr	r3, r3, #1312
	mov	r1, r3
	mov	r0, r4
	bl	Cy_SCB_SetTxInterruptMask
.L314:
	.loc 10 1030 19
	ldrh	r3, [r7, #2]
	and	r3, r3, #512
	.loc 10 1030 12
	cmp	r3, #0
	beq	.L317
	.loc 10 1032 13
	ldr	r3, [r7, #4]
	ldr	r3, [r3]
	movs	r1, #1
	mov	r0, r3
	bl	Cy_SCB_ClearTxInterrupt
	.loc 10 1033 13
	ldr	r3, [r7, #4]
	ldr	r4, [r3]
	.loc 10 1033 79
	ldr	r3, [r7, #4]
	ldr	r3, [r3]
	.loc 10 1033 50
	mov	r0, r3
	bl	Cy_SCB_GetTxInterruptMask
	mov	r3, r0
	.loc 10 1033 13
	orr	r3, r3, #1
	mov	r1, r3
	mov	r0, r4
	bl	Cy_SCB_SetTxInterruptMask
.L317:
	.loc 10 1036 19
	ldrh	r3, [r7, #2]
	and	r3, r3, #128
	.loc 10 1036 12
	cmp	r3, #0
	beq	.L318
	.loc 10 1038 13
	ldr	r3, [r7, #4]
	ldr	r3, [r3]
	movs	r1, #4
	mov	r0, r3
	bl	Cy_SCB_ClearRxInterrupt
	.loc 10 1039 13
	ldr	r3, [r7, #4]
	ldr	r4, [r3]
	.loc 10 1039 79
	ldr	r3, [r7, #4]
	ldr	r3, [r3]
	.loc 10 1039 50
	mov	r0, r3
	bl	Cy_SCB_GetRxInterruptMask
	mov	r3, r0
	.loc 10 1039 13
	orr	r3, r3, #4
	mov	r1, r3
	mov	r0, r4
	bl	Cy_SCB_SetRxInterruptMask
.L318:
	.loc 10 1041 19
	ldrh	r3, [r7, #2]
	and	r3, r3, #64
	.loc 10 1041 12
	cmp	r3, #0
	beq	.L319
	.loc 10 1044 13
	ldr	r3, [r7, #4]
	ldr	r3, [r3]
	mov	r1, #800
	mov	r0, r3
	bl	Cy_SCB_ClearRxInterrupt
	.loc 10 1045 13
	ldr	r3, [r7, #4]
	ldr	r4, [r3]
	.loc 10 1045 79
	ldr	r3, [r7, #4]
	ldr	r3, [r3]
	.loc 10 1045 50
	mov	r0, r3
	bl	Cy_SCB_GetRxInterruptMask
	mov	r3, r0
	.loc 10 1045 13
	orr	r3, r3, #800
	mov	r1, r3
	mov	r0, r4
	bl	Cy_SCB_SetRxInterruptMask
.L319:
	.loc 10 1047 19
	ldrh	r3, [r7, #2]
	and	r3, r3, #1024
	.loc 10 1047 12
	cmp	r3, #0
	beq	.L320
	.loc 10 1049 13
	ldr	r3, [r7, #4]
	ldr	r3, [r3]
	movs	r1, #1
	mov	r0, r3
	bl	Cy_SCB_ClearRxInterrupt
	.loc 10 1050 13
	ldr	r3, [r7, #4]
	ldr	r4, [r3]
	.loc 10 1050 79
	ldr	r3, [r7, #4]
	ldr	r3, [r3]
	.loc 10 1050 50
	mov	r0, r3
	bl	Cy_SCB_GetRxInterruptMask
	mov	r3, r0
	.loc 10 1050 13
	orr	r3, r3, #1
	mov	r1, r3
	mov	r0, r4
	bl	Cy_SCB_SetRxInterruptMask
	b	.L320
.L329:
	.align	2
.L328:
	.word	_CYHAL_SCB_IRQ_N
.L311:
	.loc 10 1055 24
	ldr	r3, [r7, #4]
	ldr	r3, [r3, #148]
	.loc 10 1055 27
	ldrh	r2, [r7, #2]
	mvns	r2, r2
	.loc 10 1055 24
	ands	r2, r2, r3
	ldr	r3, [r7, #4]
	str	r2, [r3, #148]
	.loc 10 1056 19
	ldrh	r3, [r7, #2]
	and	r3, r3, #256
	.loc 10 1056 12
	cmp	r3, #0
	beq	.L321
	.loc 10 1058 13
	ldr	r3, [r7, #4]
	ldr	r4, [r3]
	.loc 10 1058 79
	ldr	r3, [r7, #4]
	ldr	r3, [r3]
	.loc 10 1058 50
	mov	r0, r3
	bl	Cy_SCB_GetTxInterruptMask
	mov	r3, r0
	.loc 10 1058 13
	bic	r3, r3, #16
	mov	r1, r3
	mov	r0, r4
	bl	Cy_SCB_SetTxInterruptMask
.L321:
	.loc 10 1060 19
	ldrh	r3, [r7, #2]
	and	r3, r3, #4
	.loc 10 1060 12
	cmp	r3, #0
	beq	.L322
	.loc 10 1062 13
	ldr	r3, [r7, #4]
	ldr	r4, [r3]
	.loc 10 1062 79
	ldr	r3, [r7, #4]
	ldr	r3, [r3]
	.loc 10 1062 50
	mov	r0, r3
	bl	Cy_SCB_GetTxInterruptMask
	mov	r3, r0
	.loc 10 1062 13
	bic	r3, r3, #512
	mov	r1, r3
	mov	r0, r4
	bl	Cy_SCB_SetTxInterruptMask
.L322:
	.loc 10 1064 19
	ldrh	r3, [r7, #2]
	and	r3, r3, #8
	.loc 10 1064 12
	cmp	r3, #0
	beq	.L323
	.loc 10 1066 13
	ldr	r3, [r7, #4]
	ldr	r4, [r3]
	.loc 10 1066 79
	ldr	r3, [r7, #4]
	ldr	r3, [r3]
	.loc 10 1066 50
	mov	r0, r3
	bl	Cy_SCB_GetTxInterruptMask
	mov	r3, r0
	.loc 10 1066 13
	bic	r3, r3, #1312
	mov	r1, r3
	mov	r0, r4
	bl	Cy_SCB_SetTxInterruptMask
.L323:
	.loc 10 1068 19
	ldrh	r3, [r7, #2]
	and	r3, r3, #512
	.loc 10 1068 12
	cmp	r3, #0
	beq	.L324
	.loc 10 1070 13
	ldr	r3, [r7, #4]
	ldr	r4, [r3]
	.loc 10 1070 79
	ldr	r3, [r7, #4]
	ldr	r3, [r3]
	.loc 10 1070 50
	mov	r0, r3
	bl	Cy_SCB_GetTxInterruptMask
	mov	r3, r0
	.loc 10 1070 13
	bic	r3, r3, #1
	mov	r1, r3
	mov	r0, r4
	bl	Cy_SCB_SetTxInterruptMask
.L324:
	.loc 10 1073 19
	ldrh	r3, [r7, #2]
	and	r3, r3, #128
	.loc 10 1073 12
	cmp	r3, #0
	beq	.L325
	.loc 10 1075 13
	ldr	r3, [r7, #4]
	ldr	r4, [r3]
	.loc 10 1075 79
	ldr	r3, [r7, #4]
	ldr	r3, [r3]
	.loc 10 1075 50
	mov	r0, r3
	bl	Cy_SCB_GetRxInterruptMask
	mov	r3, r0
	.loc 10 1075 13
	bic	r3, r3, #4
	mov	r1, r3
	mov	r0, r4
	bl	Cy_SCB_SetRxInterruptMask
.L325:
	.loc 10 1077 19
	ldrh	r3, [r7, #2]
	and	r3, r3, #64
	.loc 10 1077 12
	cmp	r3, #0
	beq	.L326
	.loc 10 1079 13
	ldr	r3, [r7, #4]
	ldr	r4, [r3]
	.loc 10 1079 79
	ldr	r3, [r7, #4]
	ldr	r3, [r3]
	.loc 10 1079 50
	mov	r0, r3
	bl	Cy_SCB_GetRxInterruptMask
	mov	r3, r0
	.loc 10 1079 13
	bic	r3, r3, #800
	mov	r1, r3
	mov	r0, r4
	bl	Cy_SCB_SetRxInterruptMask
.L326:
	.loc 10 1081 19
	ldrh	r3, [r7, #2]
	and	r3, r3, #1024
	.loc 10 1081 12
	cmp	r3, #0
	beq	.L320
	.loc 10 1083 13
	ldr	r3, [r7, #4]
	ldr	r4, [r3]
	.loc 10 1083 79
	ldr	r3, [r7, #4]
	ldr	r3, [r3]
	.loc 10 1083 50
	mov	r0, r3
	bl	Cy_SCB_GetRxInterruptMask
	mov	r3, r0
	.loc 10 1083 13
	bic	r3, r3, #1
	mov	r1, r3
	mov	r0, r4
	bl	Cy_SCB_SetRxInterruptMask
.L320:
	.loc 10 1099 8
	ldrh	r3, [r7, #2]
	cmp	r3, #0
	bne	.L327
	.loc 10 1102 9
	ldr	r3, [r7, #4]
	ldr	r3, [r3]
	movw	r1, #2925
	mov	r0, r3
	bl	Cy_SCB_ClearRxInterrupt
	.loc 10 1103 9
	ldr	r3, [r7, #4]
	ldr	r3, [r3]
	movw	r1, #1907
	mov	r0, r3
	bl	Cy_SCB_ClearTxInterrupt
	.loc 10 1104 9
	ldr	r3, [r7, #4]
	ldr	r4, [r3]
	.loc 10 1104 75
	ldr	r3, [r7, #4]
	ldr	r3, [r3]
	.loc 10 1104 46
	mov	r0, r3
	bl	Cy_SCB_GetRxInterruptMask
	mov	r3, r0
	.loc 10 1104 9
	bic	r3, r3, #2912
	bic	r3, r3, #13
	mov	r1, r3
	mov	r0, r4
	bl	Cy_SCB_SetRxInterruptMask
	.loc 10 1105 9
	ldr	r3, [r7, #4]
	ldr	r4, [r3]
	.loc 10 1105 75
	ldr	r3, [r7, #4]
	ldr	r3, [r3]
	.loc 10 1105 46
	mov	r0, r3
	bl	Cy_SCB_GetTxInterruptMask
	mov	r3, r0
	.loc 10 1105 9
	bic	r3, r3, #1904
	bic	r3, r3, #3
	mov	r1, r3
	mov	r0, r4
	bl	Cy_SCB_SetTxInterruptMask
.L327:
	.loc 10 1108 5
	ldrb	r3, [r7, #15]	@ zero_extendqisi2
	ldr	r2, .L330
	ldrsh	r3, [r2, r3, lsl #1]
	ldrb	r2, [r7, #1]	@ zero_extendqisi2
	mov	r1, r2
	mov	r0, r3
	bl	_cyhal_irq_set_priority
	.loc 10 1109 5
	ldrb	r3, [r7, #15]	@ zero_extendqisi2
	ldr	r2, .L330
	ldrsh	r3, [r2, r3, lsl #1]
	mov	r0, r3
	bl	_cyhal_irq_enable
	.loc 10 1110 1
	nop
	adds	r7, r7, #20
.LCFI386:
	.cfi_def_cfa_offset 12
	mov	sp, r7
.LCFI387:
	.cfi_def_cfa_register 13
	@ sp needed
	pop	{r4, r7, pc}
.L331:
	.align	2
.L330:
	.word	_CYHAL_SCB_IRQ_N
	.cfi_endproc
.LFE1038:
	.size	cyhal_uart_enable_event, .-cyhal_uart_enable_event
	.section	.text.cyhal_uart_set_fifo_level,"ax",%progbits
	.align	1
	.global	cyhal_uart_set_fifo_level
	.syntax unified
	.thumb
	.thumb_func
	.type	cyhal_uart_set_fifo_level, %function
cyhal_uart_set_fifo_level:
.LFB1039:
	.loc 10 1113 1
	.cfi_startproc
	@ args = 0, pretend = 0, frame = 8
	@ frame_needed = 1, uses_anonymous_args = 0
	push	{r7, lr}
.LCFI388:
	.cfi_def_cfa_offset 8
	.cfi_offset 7, -8
	.cfi_offset 14, -4
	sub	sp, sp, #8
.LCFI389:
	.cfi_def_cfa_offset 16
	add	r7, sp, #0
.LCFI390:
	.cfi_def_cfa_register 7
	str	r0, [r7, #4]
	mov	r3, r1
	strb	r3, [r7, #3]
	mov	r3, r2	@ movhi
	strh	r3, [r7]	@ movhi
	.loc 10 1114 12
	ldr	r3, [r7, #4]
	ldr	r3, [r3]
	ldrh	r2, [r7]
	ldrb	r1, [r7, #3]	@ zero_extendqisi2
	mov	r0, r3
	bl	_cyhal_scb_set_fifo_level
	mov	r3, r0
	.loc 10 1115 1
	mov	r0, r3
	adds	r7, r7, #8
.LCFI391:
	.cfi_def_cfa_offset 8
	mov	sp, r7
.LCFI392:
	.cfi_def_cfa_register 13
	@ sp needed
	pop	{r7, pc}
	.cfi_endproc
.LFE1039:
	.size	cyhal_uart_set_fifo_level, .-cyhal_uart_set_fifo_level
	.section	.text.cyhal_uart_enable_output,"ax",%progbits
	.align	1
	.global	cyhal_uart_enable_output
	.syntax unified
	.thumb
	.thumb_func
	.type	cyhal_uart_enable_output, %function
cyhal_uart_enable_output:
.LFB1040:
	.loc 10 1118 1
	.cfi_startproc
	@ args = 0, pretend = 0, frame = 16
	@ frame_needed = 1, uses_anonymous_args = 0
	push	{r7, lr}
.LCFI393:
	.cfi_def_cfa_offset 8
	.cfi_offset 7, -8
	.cfi_offset 14, -4
	sub	sp, sp, #16
.LCFI394:
	.cfi_def_cfa_offset 24
	add	r7, sp, #0
.LCFI395:
	.cfi_def_cfa_register 7
	str	r0, [r7, #12]
	mov	r3, r1
	str	r2, [r7, #4]
	strb	r3, [r7, #11]
	.loc 10 1119 12
	ldrb	r1, [r7, #11]	@ zero_extendqisi2
	ldr	r3, [r7, #12]
	ldr	r2, [r7, #4]
	ldr	r0, [r3, #4]
	bl	_cyhal_scb_enable_output
	mov	r3, r0
	.loc 10 1120 1
	mov	r0, r3
	adds	r7, r7, #16
.LCFI396:
	.cfi_def_cfa_offset 8
	mov	sp, r7
.LCFI397:
	.cfi_def_cfa_register 13
	@ sp needed
	pop	{r7, pc}
	.cfi_endproc
.LFE1040:
	.size	cyhal_uart_enable_output, .-cyhal_uart_enable_output
	.section	.text.cyhal_uart_disable_output,"ax",%progbits
	.align	1
	.global	cyhal_uart_disable_output
	.syntax unified
	.thumb
	.thumb_func
	.type	cyhal_uart_disable_output, %function
cyhal_uart_disable_output:
.LFB1041:
	.loc 10 1123 1
	.cfi_startproc
	@ args = 0, pretend = 0, frame = 8
	@ frame_needed = 1, uses_anonymous_args = 0
	push	{r7, lr}
.LCFI398:
	.cfi_def_cfa_offset 8
	.cfi_offset 7, -8
	.cfi_offset 14, -4
	sub	sp, sp, #8
.LCFI399:
	.cfi_def_cfa_offset 16
	add	r7, sp, #0
.LCFI400:
	.cfi_def_cfa_register 7
	str	r0, [r7, #4]
	mov	r3, r1
	strb	r3, [r7, #3]
	.loc 10 1125 12
	ldrb	r3, [r7, #3]	@ zero_extendqisi2
	mov	r0, r3
	bl	_cyhal_scb_disable_output
	mov	r3, r0
	.loc 10 1126 1
	mov	r0, r3
	adds	r7, r7, #8
.LCFI401:
	.cfi_def_cfa_offset 8
	mov	sp, r7
.LCFI402:
	.cfi_def_cfa_register 13
	@ sp needed
	pop	{r7, pc}
	.cfi_endproc
.LFE1041:
	.size	cyhal_uart_disable_output, .-cyhal_uart_disable_output
	.section	.text.cyhal_uart_config_software_buffer,"ax",%progbits
	.align	1
	.global	cyhal_uart_config_software_buffer
	.syntax unified
	.thumb
	.thumb_func
	.type	cyhal_uart_config_software_buffer, %function
cyhal_uart_config_software_buffer:
.LFB1042:
	.loc 10 1129 1
	.cfi_startproc
	@ args = 0, pretend = 0, frame = 16
	@ frame_needed = 1, uses_anonymous_args = 0
	push	{r7, lr}
.LCFI403:
	.cfi_def_cfa_offset 8
	.cfi_offset 7, -8
	.cfi_offset 14, -4
	sub	sp, sp, #16
.LCFI404:
	.cfi_def_cfa_offset 24
	add	r7, sp, #0
.LCFI405:
	.cfi_def_cfa_register 7
	str	r0, [r7, #12]
	str	r1, [r7, #8]
	str	r2, [r7, #4]
	.loc 10 1130 12
	ldr	r3, [r7, #12]
	cmp	r3, #0
	bne	.L339
	.loc 10 1130 15 discriminator 1
	bl	CY_HALT
.L339:
	.loc 10 1131 12
	ldr	r3, [r7, #8]
	cmp	r3, #0
	bne	.L340
	.loc 10 1131 21 discriminator 1
	bl	CY_HALT
.L340:
	.loc 10 1133 5
	ldr	r3, [r7, #12]
	ldr	r0, [r3]
	ldr	r3, [r7, #12]
	adds	r3, r3, #24
	ldr	r2, [r7, #4]
	ldr	r1, [r7, #8]
	bl	Cy_SCB_UART_StartRingBuffer
	.loc 10 1135 12
	movs	r3, #0
	.loc 10 1136 1
	mov	r0, r3
	adds	r7, r7, #16
.LCFI406:
	.cfi_def_cfa_offset 8
	mov	sp, r7
.LCFI407:
	.cfi_def_cfa_register 13
	@ sp needed
	pop	{r7, pc}
	.cfi_endproc
.LFE1042:
	.size	cyhal_uart_config_software_buffer, .-cyhal_uart_config_software_buffer
	.section	.rodata.status_map.0,"a"
	.align	2
	.type	status_map.0, %object
	.size	status_map.0, 44
status_map.0:
	.word	0
	.word	2
	.word	4
	.word	32
	.word	16
	.word	64
	.word	8
	.word	128
	.word	256
	.word	512
	.word	1024
	.text
.Letext0:
	.file 11 "d:\\llc\\softwares\\env-windows-v1.3.5\\tools\\gnu_gcc\\arm_gcc\\mingw\\lib\\gcc\\arm-none-eabi\\10.3.1\\include\\stddef.h"
	.file 12 "d:\\llc\\softwares\\env-windows-v1.3.5\\tools\\gnu_gcc\\arm_gcc\\mingw\\arm-none-eabi\\include\\machine\\_default_types.h"
	.file 13 "d:\\llc\\softwares\\env-windows-v1.3.5\\tools\\gnu_gcc\\arm_gcc\\mingw\\arm-none-eabi\\include\\sys\\_stdint.h"
	.file 14 "libraries\\IFX_PSOC6_HAL\\core-lib\\include/cy_result.h"
	.file 15 "libraries\\IFX_PSOC6_HAL\\mtb-pdl-cat1\\devices\\COMPONENT_CAT1A\\include/ip/cyip_gpio_v2.h"
	.file 16 "libraries\\IFX_PSOC6_HAL\\mtb-pdl-cat1\\devices\\COMPONENT_CAT1A\\include/cy8c624alqi_s2d42.h"
	.file 17 "libraries\\IFX_PSOC6_HAL\\mtb-pdl-cat1\\devices\\COMPONENT_CAT1A\\include/psoc6_02_config.h"
	.file 18 "libraries\\IFX_PSOC6_HAL\\mtb-pdl-cat1\\devices\\COMPONENT_CAT1A\\include/ip/cyip_scb.h"
	.file 19 "libraries\\IFX_PSOC6_HAL\\mtb-pdl-cat1\\devices\\COMPONENT_CAT1A\\include/gpio_psoc6_02_68_qfn.h"
	.file 20 "libraries\\IFX_PSOC6_HAL\\mtb-pdl-cat1\\devices\\COMPONENT_CAT1A\\include/cy_device.h"
	.file 21 "libraries\\IFX_PSOC6_HAL\\mtb-pdl-cat1\\drivers\\include/cy_syslib.h"
	.file 22 "libraries\\IFX_PSOC6_HAL\\mtb-pdl-cat1\\drivers\\include/cy_syspm.h"
	.file 23 "libraries\\IFX_PSOC6_HAL\\mtb-pdl-cat1\\drivers\\include/cy_sysclk.h"
	.file 24 "libraries\\IFX_PSOC6_HAL\\mtb-hal-cat1\\include/cyhal_general_types.h"
	.file 25 "libraries\\IFX_PSOC6_HAL\\mtb-hal-cat1\\include_pvt/cyhal_hw_resources.h"
	.file 26 "libraries\\IFX_PSOC6_HAL\\mtb-hal-cat1\\include_pvt/cyhal_pin_package.h"
	.file 27 "libraries\\IFX_PSOC6_HAL\\mtb-hal-cat1\\COMPONENT_CAT1A\\include/pin_packages/cyhal_psoc6_02_68_qfn.h"
	.file 28 "libraries\\IFX_PSOC6_HAL\\mtb-hal-cat1\\COMPONENT_CAT1A\\include/triggers/cyhal_triggers_psoc6_02.h"
	.file 29 "libraries\\IFX_PSOC6_HAL\\mtb-hal-cat1\\include_pvt/cyhal_hw_types.h"
	.file 30 "libraries\\IFX_PSOC6_HAL\\mtb-hal-cat1\\include/cyhal_uart.h"