	.cpu cortex-m4
	.arch armv7e-m
	.fpu fpv4-sp-d16
	.eabi_attribute 27, 1
	.eabi_attribute 28, 1
	.eabi_attribute 20, 1
	.eabi_attribute 21, 1
	.eabi_attribute 23, 3
	.eabi_attribute 24, 1
	.eabi_attribute 25, 1
	.eabi_attribute 26, 1
	.eabi_attribute 30, 6
	.eabi_attribute 34, 1
	.eabi_attribute 18, 4
	.file	"cyhal_lptimer.c"
	.text
.Ltext0:
	.cfi_sections	.debug_frame
	.section	.text.__NVIC_EnableIRQ,"ax",%progbits
	.align	1
	.syntax unified
	.thumb
	.thumb_func
	.type	__NVIC_EnableIRQ, %function
__NVIC_EnableIRQ:
.LFB107:
	.file 1 "libraries\\IFX_PSOC6_HAL\\mtb-pdl-cat1\\cmsis\\include/core_cm4.h"
	.loc 1 1685 1
	.cfi_startproc
	@ args = 0, pretend = 0, frame = 8
	@ frame_needed = 1, uses_anonymous_args = 0
	@ link register save eliminated.
	push	{r7}
.LCFI0:
	.cfi_def_cfa_offset 4
	.cfi_offset 7, -4
	sub	sp, sp, #12
.LCFI1:
	.cfi_def_cfa_offset 16
	add	r7, sp, #0
.LCFI2:
	.cfi_def_cfa_register 7
	mov	r3, r0
	strh	r3, [r7, #6]	@ movhi
	.loc 1 1686 6
	ldrsh	r3, [r7, #6]
	cmp	r3, #0
	blt	.L3
	.loc 1 1688 5
	.loc 1 1689 121
	ldrh	r3, [r7, #6]
	and	r2, r3, #31
	.loc 1 1689 49
	ldr	r1, .L4
	.loc 1 1689 58
	ldrsh	r3, [r7, #6]
	.loc 1 1689 74
	lsrs	r3, r3, #5
	.loc 1 1689 85
	movs	r0, #1
	lsl	r2, r0, r2
	.loc 1 1689 83
	str	r2, [r1, r3, lsl #2]
	.loc 1 1690 5
.L3:
	.loc 1 1692 1
	nop
	adds	r7, r7, #12
.LCFI3:
	.cfi_def_cfa_offset 4
	mov	sp, r7
.LCFI4:
	.cfi_def_cfa_register 13
	@ sp needed
	ldr	r7, [sp], #4
.LCFI5:
	.cfi_restore 7
	.cfi_def_cfa_offset 0
	bx	lr
.L5:
	.align	2
.L4:
	.word	-536813312
	.cfi_endproc
.LFE107:
	.size	__NVIC_EnableIRQ, .-__NVIC_EnableIRQ
	.section	.text.__NVIC_DisableIRQ,"ax",%progbits
	.align	1
	.syntax unified
	.thumb
	.thumb_func
	.type	__NVIC_DisableIRQ, %function
__NVIC_DisableIRQ:
.LFB109:
	.loc 1 1723 1
	.cfi_startproc
	@ args = 0, pretend = 0, frame = 8
	@ frame_needed = 1, uses_anonymous_args = 0
	@ link register save eliminated.
	push	{r7}
.LCFI6:
	.cfi_def_cfa_offset 4
	.cfi_offset 7, -4
	sub	sp, sp, #12
.LCFI7:
	.cfi_def_cfa_offset 16
	add	r7, sp, #0
.LCFI8:
	.cfi_def_cfa_register 7
	mov	r3, r0
	strh	r3, [r7, #6]	@ movhi
	.loc 1 1724 6
	ldrsh	r3, [r7, #6]
	cmp	r3, #0
	blt	.L8
	.loc 1 1726 121
	ldrh	r3, [r7, #6]
	and	r2, r3, #31
	.loc 1 1726 49
	ldr	r1, .L9
	.loc 1 1726 58
	ldrsh	r3, [r7, #6]
	.loc 1 1726 74
	lsrs	r3, r3, #5
	.loc 1 1726 85
	movs	r0, #1
	lsl	r2, r0, r2
	.loc 1 1726 83
	adds	r3, r3, #32
	str	r2, [r1, r3, lsl #2]
.LBB8:
.LBB9:
	.file 2 "libraries\\IFX_PSOC6_HAL\\mtb-pdl-cat1\\cmsis\\include/cmsis_gcc.h"
	.loc 2 946 3
	.syntax unified
@ 946 "libraries\IFX_PSOC6_HAL\mtb-pdl-cat1\cmsis\include/cmsis_gcc.h" 1
	dsb 0xF
@ 0 "" 2
	.loc 2 947 1
	.thumb
	.syntax unified
	nop
.LBE9:
.LBE8:
.LBB10:
.LBB11:
	.loc 2 935 3
	.syntax unified
@ 935 "libraries\IFX_PSOC6_HAL\mtb-pdl-cat1\cmsis\include/cmsis_gcc.h" 1
	isb 0xF
@ 0 "" 2
	.loc 2 936 1
	.thumb
	.syntax unified
	nop
.L8:
.LBE11:
.LBE10:
	.loc 1 1730 1
	nop
	adds	r7, r7, #12
.LCFI9:
	.cfi_def_cfa_offset 4
	mov	sp, r7
.LCFI10:
	.cfi_def_cfa_register 13
	@ sp needed
	ldr	r7, [sp], #4
.LCFI11:
	.cfi_restore 7
	.cfi_def_cfa_offset 0
	bx	lr
.L10:
	.align	2
.L9:
	.word	-536813312
	.cfi_endproc
.LFE109:
	.size	__NVIC_DisableIRQ, .-__NVIC_DisableIRQ
	.section	.text.__NVIC_SetPriority,"ax",%progbits
	.align	1
	.syntax unified
	.thumb
	.thumb_func
	.type	__NVIC_SetPriority, %function
__NVIC_SetPriority:
.LFB114:
	.loc 1 1815 1
	.cfi_startproc
	@ args = 0, pretend = 0, frame = 8
	@ frame_needed = 1, uses_anonymous_args = 0
	@ link register save eliminated.
	push	{r7}
.LCFI12:
	.cfi_def_cfa_offset 4
	.cfi_offset 7, -4
	sub	sp, sp, #12
.LCFI13:
	.cfi_def_cfa_offset 16
	add	r7, sp, #0
.LCFI14:
	.cfi_def_cfa_register 7
	mov	r3, r0
	str	r1, [r7]
	strh	r3, [r7, #6]	@ movhi
	.loc 1 1816 6
	ldrsh	r3, [r7, #6]
	cmp	r3, #0
	blt	.L12
	.loc 1 1818 74
	ldr	r3, [r7]
	uxtb	r2, r3
	.loc 1 1818 49
	ldr	r1, .L15
	.loc 1 1818 55
	ldrsh	r3, [r7, #6]
	.loc 1 1818 74
	lsls	r2, r2, #5
	uxtb	r2, r2
	.loc 1 1818 72
	add	r3, r3, r1
	strb	r2, [r3, #768]
	.loc 1 1824 1
	b	.L14
.L12:
	.loc 1 1822 88
	ldr	r3, [r7]
	uxtb	r2, r3
	.loc 1 1822 48
	ldr	r1, .L15+4
	.loc 1 1822 72
	ldrh	r3, [r7, #6]
	and	r3, r3, #15
	.loc 1 1822 80
	subs	r3, r3, #4
	.loc 1 1822 88
	lsls	r2, r2, #5
	uxtb	r2, r2
	.loc 1 1822 86
	add	r3, r3, r1
	strb	r2, [r3, #24]
.L14:
	.loc 1 1824 1
	nop
	adds	r7, r7, #12
.LCFI15:
	.cfi_def_cfa_offset 4
	mov	sp, r7
.LCFI16:
	.cfi_def_cfa_register 13
	@ sp needed
	ldr	r7, [sp], #4
.LCFI17:
	.cfi_restore 7
	.cfi_def_cfa_offset 0
	bx	lr
.L16:
	.align	2
.L15:
	.word	-536813312
	.word	-536810240
	.cfi_endproc
.LFE114:
	.size	__NVIC_SetPriority, .-__NVIC_SetPriority
	.section	.text.CY_HALT,"ax",%progbits
	.align	1
	.syntax unified
	.thumb
	.thumb_func
	.type	CY_HALT, %function
CY_HALT:
.LFB133:
	.file 3 "libraries\\IFX_PSOC6_HAL\\core-lib\\include/cy_utils.h"
	.loc 3 49 1
	.cfi_startproc
	@ args = 0, pretend = 0, frame = 0
	@ frame_needed = 1, uses_anonymous_args = 0
	@ link register save eliminated.
	push	{r7}
.LCFI18:
	.cfi_def_cfa_offset 4
	.cfi_offset 7, -4
	add	r7, sp, #0
.LCFI19:
	.cfi_def_cfa_register 7
	.loc 3 50 5
	.syntax unified
@ 50 "libraries\IFX_PSOC6_HAL\core-lib\include/cy_utils.h" 1
	    bkpt    1
@ 0 "" 2
	.loc 3 51 1
	.thumb
	.syntax unified
	nop
	mov	sp, r7
.LCFI20:
	.cfi_def_cfa_register 13
	@ sp needed
	ldr	r7, [sp], #4
.LCFI21:
	.cfi_restore 7
	.cfi_def_cfa_offset 0
	bx	lr
	.cfi_endproc
.LFE133:
	.size	CY_HALT, .-CY_HALT
	.section	.text.Cy_MCWDT_Enable,"ax",%progbits
	.align	1
	.syntax unified
	.thumb
	.thumb_func
	.type	Cy_MCWDT_Enable, %function
Cy_MCWDT_Enable:
.LFB523:
	.file 4 "libraries\\IFX_PSOC6_HAL\\mtb-pdl-cat1\\drivers\\include/cy_mcwdt.h"
	.loc 4 704 1
	.cfi_startproc
	@ args = 0, pretend = 0, frame = 24
	@ frame_needed = 1, uses_anonymous_args = 0
	push	{r7, lr}
.LCFI22:
	.cfi_def_cfa_offset 8
	.cfi_offset 7, -8
	.cfi_offset 14, -4
	sub	sp, sp, #24
.LCFI23:
	.cfi_def_cfa_offset 32
	add	r7, sp, #0
.LCFI24:
	.cfi_def_cfa_register 7
	str	r0, [r7, #12]
	str	r1, [r7, #8]
	mov	r3, r2
	strh	r3, [r7, #6]	@ movhi
	.loc 4 723 34
	ldr	r3, [r7, #8]
	bic	r3, r3, #7
	.loc 4 723 12
	cmp	r3, #0
	beq	.L19
	.loc 4 723 101 discriminator 1
	bl	CY_HALT
.L19:
	.loc 4 726 67
	ldr	r3, [r7, #8]
	and	r2, r3, #1
	.loc 4 727 69
	ldr	r3, [r7, #8]
	lsls	r3, r3, #7
	and	r3, r3, #256
	.loc 4 726 74
	orrs	r2, r2, r3
	.loc 4 728 71
	ldr	r3, [r7, #8]
	lsls	r3, r3, #14
	and	r3, r3, #65536
	.loc 4 726 20
	orrs	r3, r3, r2
	str	r3, [r7, #20]
	.loc 4 730 51
	ldr	r3, [r7, #12]
	ldr	r2, [r3, #20]
	ldr	r3, [r7, #20]
	orrs	r2, r2, r3
	ldr	r3, [r7, #12]
	str	r2, [r3, #20]
	.loc 4 733 5
	ldrh	r3, [r7, #6]
	mov	r0, r3
	bl	Cy_SysLib_DelayUs
	.loc 4 734 1
	nop
	adds	r7, r7, #24
.LCFI25:
	.cfi_def_cfa_offset 8
	mov	sp, r7
.LCFI26:
	.cfi_def_cfa_register 13
	@ sp needed
	pop	{r7, pc}
	.cfi_endproc
.LFE523:
	.size	Cy_MCWDT_Enable, .-Cy_MCWDT_Enable
	.section	.text.Cy_MCWDT_Disable,"ax",%progbits
	.align	1
	.syntax unified
	.thumb
	.thumb_func
	.type	Cy_MCWDT_Disable, %function
Cy_MCWDT_Disable:
.LFB524:
	.loc 4 762 1
	.cfi_startproc
	@ args = 0, pretend = 0, frame = 24
	@ frame_needed = 1, uses_anonymous_args = 0
	push	{r7, lr}
.LCFI27:
	.cfi_def_cfa_offset 8
	.cfi_offset 7, -8
	.cfi_offset 14, -4
	sub	sp, sp, #24
.LCFI28:
	.cfi_def_cfa_offset 32
	add	r7, sp, #0
.LCFI29:
	.cfi_def_cfa_register 7
	str	r0, [r7, #12]
	str	r1, [r7, #8]
	mov	r3, r2
	strh	r3, [r7, #6]	@ movhi
	.loc 4 780 34
	ldr	r3, [r7, #8]
	bic	r3, r3, #7
	.loc 4 780 12
	cmp	r3, #0
	beq	.L21
	.loc 4 780 101 discriminator 1
	bl	CY_HALT
.L21:
	.loc 4 783 68
	ldr	r3, [r7, #8]
	and	r2, r3, #1
	.loc 4 784 70
	ldr	r3, [r7, #8]
	lsls	r3, r3, #7
	and	r3, r3, #256
	.loc 4 783 75
	orrs	r2, r2, r3
	.loc 4 785 72
	ldr	r3, [r7, #8]
	lsls	r3, r3, #14
	and	r3, r3, #65536
	.loc 4 783 21
	orrs	r3, r3, r2
	str	r3, [r7, #20]
	.loc 4 787 51
	ldr	r3, [r7, #12]
	ldr	r2, [r3, #20]
	.loc 4 787 54
	ldr	r3, [r7, #20]
	mvns	r3, r3
	.loc 4 787 51
	ands	r2, r2, r3
	ldr	r3, [r7, #12]
	str	r2, [r3, #20]
	.loc 4 790 5
	ldrh	r3, [r7, #6]
	mov	r0, r3
	bl	Cy_SysLib_DelayUs
	.loc 4 791 1
	nop
	adds	r7, r7, #24
.LCFI30:
	.cfi_def_cfa_offset 8
	mov	sp, r7
.LCFI31:
	.cfi_def_cfa_register 13
	@ sp needed
	pop	{r7, pc}
	.cfi_endproc
.LFE524:
	.size	Cy_MCWDT_Disable, .-Cy_MCWDT_Disable
	.section	.text.Cy_MCWDT_GetEnabledStatus,"ax",%progbits
	.align	1
	.syntax unified
	.thumb
	.thumb_func
	.type	Cy_MCWDT_GetEnabledStatus, %function
Cy_MCWDT_GetEnabledStatus:
.LFB525:
	.loc 4 811 1
	.cfi_startproc
	@ args = 0, pretend = 0, frame = 16
	@ frame_needed = 1, uses_anonymous_args = 0
	push	{r7, lr}
.LCFI32:
	.cfi_def_cfa_offset 8
	.cfi_offset 7, -8
	.cfi_offset 14, -4
	sub	sp, sp, #16
.LCFI33:
	.cfi_def_cfa_offset 24
	add	r7, sp, #0
.LCFI34:
	.cfi_def_cfa_register 7
	str	r0, [r7, #4]
	mov	r3, r1
	strb	r3, [r7, #3]
	.loc 4 812 14
	movs	r3, #0
	str	r3, [r7, #12]
	.loc 4 814 12
	ldrb	r3, [r7, #3]	@ zero_extendqisi2
	cmp	r3, #0
	beq	.L23
	.loc 4 814 49 discriminator 1
	ldrb	r3, [r7, #3]	@ zero_extendqisi2
	cmp	r3, #1
	beq	.L23
	.loc 4 814 13 discriminator 2
	ldrb	r3, [r7, #3]	@ zero_extendqisi2
	cmp	r3, #2
	beq	.L23
	.loc 4 814 126 discriminator 3
	bl	CY_HALT
.L23:
	.loc 4 833 5
	ldrb	r3, [r7, #3]	@ zero_extendqisi2
	cmp	r3, #2
	beq	.L24
	cmp	r3, #2
	bgt	.L30
	cmp	r3, #0
	beq	.L26
	cmp	r3, #1
	beq	.L27
	b	.L30
.L26:
	.loc 4 836 68
	ldr	r3, [r7, #4]
	ldr	r3, [r3, #20]
	.loc 4 836 91
	lsrs	r3, r3, #1
	.loc 4 836 20
	and	r3, r3, #1
	str	r3, [r7, #12]
	.loc 4 837 13
	b	.L28
.L27:
	.loc 4 839 68
	ldr	r3, [r7, #4]
	ldr	r3, [r3, #20]
	.loc 4 839 93
	lsrs	r3, r3, #9
	.loc 4 839 20
	and	r3, r3, #1
	str	r3, [r7, #12]
	.loc 4 840 13
	b	.L28
.L24:
	.loc 4 842 68
	ldr	r3, [r7, #4]
	ldr	r3, [r3, #20]
	.loc 4 842 95
	lsrs	r3, r3, #17
	.loc 4 842 20
	and	r3, r3, #1
	str	r3, [r7, #12]
	.loc 4 843 13
	b	.L28
.L30:
	.loc 4 846 36 discriminator 1
	bl	CY_HALT
	.loc 4 847 9 discriminator 1
	nop
.L28:
	.loc 4 851 12
	ldr	r3, [r7, #12]
	.loc 4 852 1
	mov	r0, r3
	adds	r7, r7, #16
.LCFI35:
	.cfi_def_cfa_offset 8
	mov	sp, r7
.LCFI36:
	.cfi_def_cfa_register 13
	@ sp needed
	pop	{r7, pc}
	.cfi_endproc
.LFE525:
	.size	Cy_MCWDT_GetEnabledStatus, .-Cy_MCWDT_GetEnabledStatus
	.section	.text.Cy_MCWDT_SetMatch,"ax",%progbits
	.align	1
	.syntax unified
	.thumb
	.thumb_func
	.type	Cy_MCWDT_SetMatch, %function
Cy_MCWDT_SetMatch:
.LFB535:
	.loc 4 1180 1
	.cfi_startproc
	@ args = 0, pretend = 0, frame = 16
	@ frame_needed = 1, uses_anonymous_args = 0
	push	{r7, lr}
.LCFI37:
	.cfi_def_cfa_offset 8
	.cfi_offset 7, -8
	.cfi_offset 14, -4
	sub	sp, sp, #16
.LCFI38:
	.cfi_def_cfa_offset 24
	add	r7, sp, #0
.LCFI39:
	.cfi_def_cfa_register 7
	str	r0, [r7, #12]
	str	r2, [r7, #4]
	mov	r2, r3
	mov	r3, r1
	strb	r3, [r7, #11]
	mov	r3, r2	@ movhi
	strh	r3, [r7, #8]	@ movhi
	.loc 4 1181 12
	ldrb	r3, [r7, #11]	@ zero_extendqisi2
	cmp	r3, #0
	beq	.L32
	.loc 4 1181 49 discriminator 1
	ldrb	r3, [r7, #11]	@ zero_extendqisi2
	cmp	r3, #1
	beq	.L32
	.loc 4 1181 13 discriminator 2
	ldrb	r3, [r7, #11]	@ zero_extendqisi2
	cmp	r3, #2
	beq	.L32
	.loc 4 1181 126 discriminator 3
	bl	CY_HALT
.L32:
	.loc 4 1182 187
	ldrb	r3, [r7, #11]	@ zero_extendqisi2
	cmp	r3, #0
	bne	.L33
	.loc 4 1182 85 discriminator 1
	ldr	r3, [r7, #12]
	ldr	r3, [r3, #16]
	.loc 4 1182 101 discriminator 1
	and	r3, r3, #4
	.loc 4 1182 187 discriminator 1
	cmp	r3, #0
	ite	ne
	movne	r3, #1
	moveq	r3, #0
	uxtb	r3, r3
	b	.L34
.L33:
	.loc 4 1182 153 discriminator 2
	ldr	r3, [r7, #12]
	ldr	r3, [r3, #16]
	.loc 4 1182 169 discriminator 2
	and	r3, r3, #1024
	.loc 4 1182 187 discriminator 2
	cmp	r3, #0
	ite	ne
	movne	r3, #1
	moveq	r3, #0
	uxtb	r3, r3
.L34:
	.loc 4 1182 13 discriminator 4
	cmp	r3, #0
	beq	.L35
	.loc 4 1182 13 is_stmt 0 discriminator 5
	ldr	r3, [r7, #4]
	cmp	r3, #0
	ite	eq
	moveq	r3, #1
	movne	r3, #0
	uxtb	r3, r3
	b	.L36
.L35:
	.loc 4 1182 13 discriminator 6
	movs	r3, #0
.L36:
	.loc 4 1182 12 is_stmt 1 discriminator 8
	cmp	r3, #0
	beq	.L37
	.loc 4 1182 10 discriminator 9
	bl	CY_HALT
.L37:
	.loc 4 1189 76
	ldrb	r3, [r7, #11]	@ zero_extendqisi2
	cmp	r3, #0
	bne	.L38
	.loc 4 1188 45 discriminator 1
	ldr	r3, [r7, #12]
	ldr	r3, [r3, #12]
	.loc 4 1188 61 discriminator 1
	lsrs	r3, r3, #16
	lsls	r3, r3, #16
	.loc 4 1188 134 discriminator 1
	ldr	r2, [r7, #4]
	uxth	r2, r2
	.loc 4 1189 76 discriminator 1
	orrs	r3, r3, r2
	b	.L39
.L38:
	.loc 4 1190 45 discriminator 2
	ldr	r3, [r7, #12]
	ldr	r3, [r3, #12]
	.loc 4 1190 61 discriminator 2
	uxth	r2, r3
	.loc 4 1190 139 discriminator 2
	ldr	r3, [r7, #4]
	lsls	r3, r3, #16
	.loc 4 1189 76 discriminator 2
	orrs	r3, r3, r2
.L39:
	.loc 4 1187 53
	ldr	r2, [r7, #12]
	str	r3, [r2, #12]
	.loc 4 1193 5
	ldrh	r3, [r7, #8]
	mov	r0, r3
	bl	Cy_SysLib_DelayUs
	.loc 4 1194 1
	nop
	adds	r7, r7, #16
.LCFI40:
	.cfi_def_cfa_offset 8
	mov	sp, r7
.LCFI41:
	.cfi_def_cfa_register 13
	@ sp needed
	pop	{r7, pc}
	.cfi_endproc
.LFE535:
	.size	Cy_MCWDT_SetMatch, .-Cy_MCWDT_SetMatch
	.section	.text.Cy_MCWDT_GetMatch,"ax",%progbits
	.align	1
	.syntax unified
	.thumb
	.thumb_func
	.type	Cy_MCWDT_GetMatch, %function
Cy_MCWDT_GetMatch:
.LFB536:
	.loc 4 1220 1
	.cfi_startproc
	@ args = 0, pretend = 0, frame = 16
	@ frame_needed = 1, uses_anonymous_args = 0
	push	{r7, lr}
.LCFI42:
	.cfi_def_cfa_offset 8
	.cfi_offset 7, -8
	.cfi_offset 14, -4
	sub	sp, sp, #16
.LCFI43:
	.cfi_def_cfa_offset 24
	add	r7, sp, #0
.LCFI44:
	.cfi_def_cfa_register 7
	str	r0, [r7, #4]
	mov	r3, r1
	strb	r3, [r7, #3]
	.loc 4 1223 12
	ldrb	r3, [r7, #3]	@ zero_extendqisi2
	cmp	r3, #0
	beq	.L41
	.loc 4 1223 49 discriminator 1
	ldrb	r3, [r7, #3]	@ zero_extendqisi2
	cmp	r3, #1
	beq	.L41
	.loc 4 1223 13 discriminator 2
	ldrb	r3, [r7, #3]	@ zero_extendqisi2
	cmp	r3, #2
	beq	.L41
	.loc 4 1223 126 discriminator 3
	bl	CY_HALT
.L41:
	.loc 4 1225 128
	ldrb	r3, [r7, #3]	@ zero_extendqisi2
	cmp	r3, #0
	bne	.L42
	.loc 4 1225 92 discriminator 1
	ldr	r3, [r7, #4]
	ldr	r3, [r3, #12]
	.loc 4 1225 128 discriminator 1
	uxth	r3, r3
	b	.L43
.L42:
	.loc 4 1226 89 discriminator 2
	ldr	r3, [r7, #4]
	ldr	r3, [r3, #12]
	.loc 4 1226 121 discriminator 2
	lsrs	r3, r3, #16
	.loc 4 1225 128 discriminator 2
	uxth	r3, r3
.L43:
	.loc 4 1225 11 discriminator 4
	str	r3, [r7, #12]
	.loc 4 1228 12 discriminator 4
	ldr	r3, [r7, #12]
	.loc 4 1229 1 discriminator 4
	mov	r0, r3
	adds	r7, r7, #16
.LCFI45:
	.cfi_def_cfa_offset 8
	mov	sp, r7
.LCFI46:
	.cfi_def_cfa_register 13
	@ sp needed
	pop	{r7, pc}
	.cfi_endproc
.LFE536:
	.size	Cy_MCWDT_GetMatch, .-Cy_MCWDT_GetMatch
	.section	.text.Cy_MCWDT_GetCount,"ax",%progbits
	.align	1
	.syntax unified
	.thumb
	.thumb_func
	.type	Cy_MCWDT_GetCount, %function
Cy_MCWDT_GetCount:
.LFB539:
	.loc 4 1301 1
	.cfi_startproc
	@ args = 0, pretend = 0, frame = 16
	@ frame_needed = 1, uses_anonymous_args = 0
	push	{r7, lr}
.LCFI47:
	.cfi_def_cfa_offset 8
	.cfi_offset 7, -8
	.cfi_offset 14, -4
	sub	sp, sp, #16
.LCFI48:
	.cfi_def_cfa_offset 24
	add	r7, sp, #0
.LCFI49:
	.cfi_def_cfa_register 7
	str	r0, [r7, #4]
	mov	r3, r1
	strb	r3, [r7, #3]
	.loc 4 1302 14
	movs	r3, #0
	str	r3, [r7, #12]
	.loc 4 1304 12
	ldrb	r3, [r7, #3]	@ zero_extendqisi2
	cmp	r3, #0
	beq	.L46
	.loc 4 1304 49 discriminator 1
	ldrb	r3, [r7, #3]	@ zero_extendqisi2
	cmp	r3, #1
	beq	.L46
	.loc 4 1304 13 discriminator 2
	ldrb	r3, [r7, #3]	@ zero_extendqisi2
	cmp	r3, #2
	beq	.L46
	.loc 4 1304 126 discriminator 3
	bl	CY_HALT
.L46:
	.loc 4 1325 5
	ldrb	r3, [r7, #3]	@ zero_extendqisi2
	cmp	r3, #2
	beq	.L47
	cmp	r3, #2
	bgt	.L53
	cmp	r3, #0
	beq	.L49
	cmp	r3, #1
	beq	.L50
	b	.L53
.L49:
	.loc 4 1328 70
	ldr	r3, [r7, #4]
	ldr	r3, [r3, #4]
	.loc 4 1328 22
	uxth	r3, r3
	str	r3, [r7, #12]
	.loc 4 1329 13
	b	.L51
.L50:
	.loc 4 1331 70
	ldr	r3, [r7, #4]
	ldr	r3, [r3, #4]
	.loc 4 1331 103
	lsrs	r3, r3, #16
	.loc 4 1331 22
	uxth	r3, r3
	str	r3, [r7, #12]
	.loc 4 1332 13
	b	.L51
.L47:
	.loc 4 1334 22
	ldr	r3, [r7, #4]
	ldr	r3, [r3, #8]
	str	r3, [r7, #12]
	.loc 4 1335 13
	b	.L51
.L53:
	.loc 4 1337 36 discriminator 1
	bl	CY_HALT
	.loc 4 1338 13 discriminator 1
	nop
.L51:
	.loc 4 1342 12
	ldr	r3, [r7, #12]
	.loc 4 1343 1
	mov	r0, r3
	adds	r7, r7, #16
.LCFI50:
	.cfi_def_cfa_offset 8
	mov	sp, r7
.LCFI51:
	.cfi_def_cfa_register 13
	@ sp needed
	pop	{r7, pc}
	.cfi_endproc
.LFE539:
	.size	Cy_MCWDT_GetCount, .-Cy_MCWDT_GetCount
	.section	.text.Cy_MCWDT_ResetCounters,"ax",%progbits
	.align	1
	.syntax unified
	.thumb
	.thumb_func
	.type	Cy_MCWDT_ResetCounters, %function
Cy_MCWDT_ResetCounters:
.LFB540:
	.loc 4 1378 1
	.cfi_startproc
	@ args = 0, pretend = 0, frame = 24
	@ frame_needed = 1, uses_anonymous_args = 0
	push	{r7, lr}
.LCFI52:
	.cfi_def_cfa_offset 8
	.cfi_offset 7, -8
	.cfi_offset 14, -4
	sub	sp, sp, #24
.LCFI53:
	.cfi_def_cfa_offset 32
	add	r7, sp, #0
.LCFI54:
	.cfi_def_cfa_register 7
	str	r0, [r7, #12]
	str	r1, [r7, #8]
	mov	r3, r2
	strh	r3, [r7, #6]	@ movhi
	.loc 4 1393 34
	ldr	r3, [r7, #8]
	bic	r3, r3, #7
	.loc 4 1393 12
	cmp	r3, #0
	beq	.L55
	.loc 4 1393 101 discriminator 1
	bl	CY_HALT
.L55:
	.loc 4 1396 66
	ldr	r3, [r7, #8]
	lsls	r3, r3, #3
	and	r2, r3, #8
	.loc 4 1397 68
	ldr	r3, [r7, #8]
	lsls	r3, r3, #10
	and	r3, r3, #2048
	.loc 4 1396 73
	orrs	r2, r2, r3
	.loc 4 1398 70
	ldr	r3, [r7, #8]
	lsls	r3, r3, #17
	and	r3, r3, #524288
	.loc 4 1396 19
	orrs	r3, r3, r2
	str	r3, [r7, #20]
	.loc 4 1400 51
	ldr	r3, [r7, #12]
	ldr	r2, [r3, #20]
	ldr	r3, [r7, #20]
	orrs	r2, r2, r3
	ldr	r3, [r7, #12]
	str	r2, [r3, #20]
	.loc 4 1402 5
	ldrh	r3, [r7, #6]
	mov	r0, r3
	bl	Cy_SysLib_DelayUs
	.loc 4 1404 51
	ldr	r3, [r7, #12]
	ldr	r2, [r3, #20]
	ldr	r3, [r7, #20]
	orrs	r2, r2, r3
	ldr	r3, [r7, #12]
	str	r2, [r3, #20]
	.loc 4 1407 5
	ldrh	r3, [r7, #6]
	mov	r0, r3
	bl	Cy_SysLib_DelayUs
	.loc 4 1408 1
	nop
	adds	r7, r7, #24
.LCFI55:
	.cfi_def_cfa_offset 8
	mov	sp, r7
.LCFI56:
	.cfi_def_cfa_register 13
	@ sp needed
	pop	{r7, pc}
	.cfi_endproc
.LFE540:
	.size	Cy_MCWDT_ResetCounters, .-Cy_MCWDT_ResetCounters
	.section	.text.Cy_MCWDT_ClearInterrupt,"ax",%progbits
	.align	1
	.syntax unified
	.thumb
	.thumb_func
	.type	Cy_MCWDT_ClearInterrupt, %function
Cy_MCWDT_ClearInterrupt:
.LFB542:
	.loc 4 1449 1
	.cfi_startproc
	@ args = 0, pretend = 0, frame = 8
	@ frame_needed = 1, uses_anonymous_args = 0
	push	{r7, lr}
.LCFI57:
	.cfi_def_cfa_offset 8
	.cfi_offset 7, -8
	.cfi_offset 14, -4
	sub	sp, sp, #8
.LCFI58:
	.cfi_def_cfa_offset 16
	add	r7, sp, #0
.LCFI59:
	.cfi_def_cfa_register 7
	str	r0, [r7, #4]
	str	r1, [r7]
	.loc 4 1450 34
	ldr	r3, [r7]
	bic	r3, r3, #7
	.loc 4 1450 12
	cmp	r3, #0
	beq	.L57
	.loc 4 1450 101 discriminator 1
	bl	CY_HALT
.L57:
	.loc 4 1452 52
	ldr	r3, [r7, #4]
	ldr	r2, [r7]
	str	r2, [r3, #24]
	.loc 4 1453 5
	ldr	r3, [r7, #4]
	ldr	r3, [r3, #24]
	.loc 4 1454 1
	nop
	adds	r7, r7, #8
.LCFI60:
	.cfi_def_cfa_offset 8
	mov	sp, r7
.LCFI61:
	.cfi_def_cfa_register 13
	@ sp needed
	pop	{r7, pc}
	.cfi_endproc
.LFE542:
	.size	Cy_MCWDT_ClearInterrupt, .-Cy_MCWDT_ClearInterrupt
	.section	.text.Cy_MCWDT_SetInterruptMask,"ax",%progbits
	.align	1
	.syntax unified
	.thumb
	.thumb_func
	.type	Cy_MCWDT_SetInterruptMask, %function
Cy_MCWDT_SetInterruptMask:
.LFB545:
	.loc 4 1516 1
	.cfi_startproc
	@ args = 0, pretend = 0, frame = 8
	@ frame_needed = 1, uses_anonymous_args = 0
	push	{r7, lr}
.LCFI62:
	.cfi_def_cfa_offset 8
	.cfi_offset 7, -8
	.cfi_offset 14, -4
	sub	sp, sp, #8
.LCFI63:
	.cfi_def_cfa_offset 16
	add	r7, sp, #0
.LCFI64:
	.cfi_def_cfa_register 7
	str	r0, [r7, #4]
	str	r1, [r7]
	.loc 4 1517 34
	ldr	r3, [r7]
	bic	r3, r3, #7
	.loc 4 1517 12
	cmp	r3, #0
	beq	.L59
	.loc 4 1517 101 discriminator 1
	bl	CY_HALT
.L59:
	.loc 4 1519 57
	ldr	r3, [r7, #4]
	ldr	r2, [r7]
	str	r2, [r3, #32]
	.loc 4 1520 1
	nop
	adds	r7, r7, #8
.LCFI65:
	.cfi_def_cfa_offset 8
	mov	sp, r7
.LCFI66:
	.cfi_def_cfa_register 13
	@ sp needed
	pop	{r7, pc}
	.cfi_endproc
.LFE545:
	.size	Cy_MCWDT_SetInterruptMask, .-Cy_MCWDT_SetInterruptMask
	.section	.text._cyhal_irq_set_priority,"ax",%progbits
	.align	1
	.syntax unified
	.thumb
	.thumb_func
	.type	_cyhal_irq_set_priority, %function
_cyhal_irq_set_priority:
.LFB993:
	.file 5 "libraries\\IFX_PSOC6_HAL\\mtb-hal-cat1\\include_pvt/cyhal_irq_impl.h"
	.loc 5 103 1
	.cfi_startproc
	@ args = 0, pretend = 0, frame = 16
	@ frame_needed = 1, uses_anonymous_args = 0
	push	{r7, lr}
.LCFI67:
	.cfi_def_cfa_offset 8
	.cfi_offset 7, -8
	.cfi_offset 14, -4
	sub	sp, sp, #16
.LCFI68:
	.cfi_def_cfa_offset 24
	add	r7, sp, #0
.LCFI69:
	.cfi_def_cfa_register 7
	mov	r3, r0
	mov	r2, r1
	strh	r3, [r7, #6]	@ movhi
	mov	r3, r2
	strb	r3, [r7, #5]
	.loc 5 114 15
	ldrh	r3, [r7, #6]	@ movhi
	strh	r3, [r7, #14]	@ movhi
	.loc 5 115 13
	ldrb	r3, [r7, #5]
	strb	r3, [r7, #13]
	.loc 5 117 5
	ldrb	r2, [r7, #13]	@ zero_extendqisi2
	ldrsh	r3, [r7, #14]
	mov	r1, r2
	mov	r0, r3
	bl	__NVIC_SetPriority
	.loc 5 118 1
	nop
	adds	r7, r7, #16
.LCFI70:
	.cfi_def_cfa_offset 8
	mov	sp, r7
.LCFI71:
	.cfi_def_cfa_register 13
	@ sp needed
	pop	{r7, pc}
	.cfi_endproc
.LFE993:
	.size	_cyhal_irq_set_priority, .-_cyhal_irq_set_priority
	.section	.text._cyhal_irq_enable,"ax",%progbits
	.align	1
	.syntax unified
	.thumb
	.thumb_func
	.type	_cyhal_irq_enable, %function
_cyhal_irq_enable:
.LFB996:
	.loc 5 149 1
	.cfi_startproc
	@ args = 0, pretend = 0, frame = 16
	@ frame_needed = 1, uses_anonymous_args = 0
	push	{r7, lr}
.LCFI72:
	.cfi_def_cfa_offset 8
	.cfi_offset 7, -8
	.cfi_offset 14, -4
	sub	sp, sp, #16
.LCFI73:
	.cfi_def_cfa_offset 24
	add	r7, sp, #0
.LCFI74:
	.cfi_def_cfa_register 7
	mov	r3, r0
	strh	r3, [r7, #6]	@ movhi
	.loc 5 158 15
	ldrh	r3, [r7, #6]	@ movhi
	strh	r3, [r7, #14]	@ movhi
	.loc 5 160 5
	ldrsh	r3, [r7, #14]
	mov	r0, r3
	bl	__NVIC_EnableIRQ
	.loc 5 161 1
	nop
	adds	r7, r7, #16
.LCFI75:
	.cfi_def_cfa_offset 8
	mov	sp, r7
.LCFI76:
	.cfi_def_cfa_register 13
	@ sp needed
	pop	{r7, pc}
	.cfi_endproc
.LFE996:
	.size	_cyhal_irq_enable, .-_cyhal_irq_enable
	.section	.text._cyhal_irq_disable,"ax",%progbits
	.align	1
	.syntax unified
	.thumb
	.thumb_func
	.type	_cyhal_irq_disable, %function
_cyhal_irq_disable:
.LFB997:
	.loc 5 164 1
	.cfi_startproc
	@ args = 0, pretend = 0, frame = 8
	@ frame_needed = 1, uses_anonymous_args = 0
	push	{r7, lr}
.LCFI77:
	.cfi_def_cfa_offset 8
	.cfi_offset 7, -8
	.cfi_offset 14, -4
	sub	sp, sp, #8
.LCFI78:
	.cfi_def_cfa_offset 16
	add	r7, sp, #0
.LCFI79:
	.cfi_def_cfa_register 7
	mov	r3, r0
	strh	r3, [r7, #6]	@ movhi
	.loc 5 174 5
	ldrsh	r3, [r7, #6]
	mov	r0, r3
	bl	__NVIC_DisableIRQ
	.loc 5 176 1
	nop
	adds	r7, r7, #8
.LCFI80:
	.cfi_def_cfa_offset 8
	mov	sp, r7
.LCFI81:
	.cfi_def_cfa_register 13
	@ sp needed
	pop	{r7, pc}
	.cfi_endproc
.LFE997:
	.size	_cyhal_irq_disable, .-_cyhal_irq_disable
	.section	.text._cyhal_irq_free,"ax",%progbits
	.align	1
	.syntax unified
	.thumb
	.thumb_func
	.type	_cyhal_irq_free, %function
_cyhal_irq_free:
.LFB998:
	.loc 5 183 1
	.cfi_startproc
	@ args = 0, pretend = 0, frame = 8
	@ frame_needed = 1, uses_anonymous_args = 0
	push	{r7, lr}
.LCFI82:
	.cfi_def_cfa_offset 8
	.cfi_offset 7, -8
	.cfi_offset 14, -4
	sub	sp, sp, #8
.LCFI83:
	.cfi_def_cfa_offset 16
	add	r7, sp, #0
.LCFI84:
	.cfi_def_cfa_register 7
	mov	r3, r0
	strh	r3, [r7, #6]	@ movhi
	.loc 5 209 5
	ldrsh	r3, [r7, #6]
	mov	r0, r3
	bl	_cyhal_irq_disable
	.loc 5 210 1
	nop
	adds	r7, r7, #8
.LCFI85:
	.cfi_def_cfa_offset 8
	mov	sp, r7
.LCFI86:
	.cfi_def_cfa_register 13
	@ sp needed
	pop	{r7, pc}
	.cfi_endproc
.LFE998:
	.size	_cyhal_irq_free, .-_cyhal_irq_free
	.section	.text._cyhal_irq_get_active,"ax",%progbits
	.align	1
	.syntax unified
	.thumb
	.thumb_func
	.type	_cyhal_irq_get_active, %function
_cyhal_irq_get_active:
.LFB1000:
	.loc 5 250 1
	.cfi_startproc
	@ args = 0, pretend = 0, frame = 8
	@ frame_needed = 1, uses_anonymous_args = 0
	@ link register save eliminated.
	push	{r7}
.LCFI87:
	.cfi_def_cfa_offset 4
	.cfi_offset 7, -4
	sub	sp, sp, #12
.LCFI88:
	.cfi_def_cfa_offset 16
	add	r7, sp, #0
.LCFI89:
	.cfi_def_cfa_register 7
.LBB12:
.LBB13:
	.loc 2 276 3
	.syntax unified
@ 276 "libraries\IFX_PSOC6_HAL\mtb-pdl-cat1\cmsis\include/cmsis_gcc.h" 1
	MRS r3, ipsr
@ 0 "" 2
	.thumb
	.syntax unified
	str	r3, [r7]
	.loc 2 277 9
	ldr	r3, [r7]
.LBE13:
.LBE12:
	.loc 5 251 49
	uxth	r3, r3
	subs	r3, r3, #16
	uxth	r3, r3
	.loc 5 251 15
	strh	r3, [r7, #6]	@ movhi
	.loc 5 261 12
	ldrsh	r3, [r7, #6]
	.loc 5 263 1
	mov	r0, r3
	adds	r7, r7, #12
.LCFI90:
	.cfi_def_cfa_offset 4
	mov	sp, r7
.LCFI91:
	.cfi_def_cfa_register 13
	@ sp needed
	ldr	r7, [sp], #4
.LCFI92:
	.cfi_restore 7
	.cfi_def_cfa_offset 0
	bx	lr
	.cfi_endproc
.LFE1000:
	.size	_cyhal_irq_get_active, .-_cyhal_irq_get_active
	.section	.rodata._CYHAL_LPTIMER_BASE_ADDRESSES,"a"
	.align	2
	.type	_CYHAL_LPTIMER_BASE_ADDRESSES, %object
	.size	_CYHAL_LPTIMER_BASE_ADDRESSES, 8
_CYHAL_LPTIMER_BASE_ADDRESSES:
	.word	1076232704
	.word	1076232768
	.section	.bss._cyhal_lptimer_config_structs,"aw",%nobits
	.align	2
	.type	_cyhal_lptimer_config_structs, %object
	.size	_cyhal_lptimer_config_structs, 8
_cyhal_lptimer_config_structs:
	.space	8
	.section	.rodata._CYHAL_LPTIMER_RESET_TIME_US,"a"
	.align	1
	.type	_CYHAL_LPTIMER_RESET_TIME_US, %object
	.size	_CYHAL_LPTIMER_RESET_TIME_US, 2
_CYHAL_LPTIMER_RESET_TIME_US:
	.short	62
	.section	.rodata._CYHAL_LPTIMER_SETMATCH_TIME_US,"a"
	.align	1
	.type	_CYHAL_LPTIMER_SETMATCH_TIME_US, %object
	.size	_CYHAL_LPTIMER_SETMATCH_TIME_US, 2
_CYHAL_LPTIMER_SETMATCH_TIME_US:
	.space	2
	.section	.rodata.default_cfg,"a"
	.align	2
	.type	default_cfg, %object
	.size	default_cfg, 12
default_cfg:
	.short	-1
	.short	-1
	.byte	1
	.byte	1
	.byte	0
	.byte	0
	.byte	0
	.byte	0
	.byte	1
	.byte	0
	.section	.rodata._CYHAL_MCWDT_DISCONNECTED_IRQ,"a"
	.align	1
	.type	_CYHAL_MCWDT_DISCONNECTED_IRQ, %object
	.size	_CYHAL_MCWDT_DISCONNECTED_IRQ, 2
_CYHAL_MCWDT_DISCONNECTED_IRQ:
	.short	1023
	.section	.rodata._CYHAL_MCWDT_IRQS,"a"
	.align	2
	.type	_CYHAL_MCWDT_IRQS, %object
	.size	_CYHAL_MCWDT_IRQS, 4
_CYHAL_MCWDT_IRQS:
	.short	19
	.short	20
	.section	.text._cyhal_lptimer_get_instance_from_irq,"ax",%progbits
	.align	1
	.syntax unified
	.thumb
	.thumb_func
	.type	_cyhal_lptimer_get_instance_from_irq, %function
_cyhal_lptimer_get_instance_from_irq:
.LFB1004:
	.file 6 "libraries\\IFX_PSOC6_HAL\\mtb-hal-cat1\\source\\cyhal_lptimer.c"
	.loc 6 253 1
	.cfi_startproc
	@ args = 0, pretend = 0, frame = 8
	@ frame_needed = 1, uses_anonymous_args = 0
	push	{r7, lr}
.LCFI93:
	.cfi_def_cfa_offset 8
	.cfi_offset 7, -8
	.cfi_offset 14, -4
	sub	sp, sp, #8
.LCFI94:
	.cfi_def_cfa_offset 16
	add	r7, sp, #0
.LCFI95:
	.cfi_def_cfa_register 7
	.loc 6 254 32
	bl	_cyhal_irq_get_active
	mov	r3, r0
	strh	r3, [r7, #4]	@ movhi
.LBB14:
	.loc 6 255 17
	movs	r3, #0
	strb	r3, [r7, #7]
	.loc 6 255 5
	b	.L68
.L71:
	.loc 6 257 30
	ldrb	r3, [r7, #7]	@ zero_extendqisi2
	ldr	r2, .L72
	ldrsh	r3, [r2, r3, lsl #1]
	.loc 6 257 12
	ldrsh	r2, [r7, #4]
	cmp	r2, r3
	bne	.L69
	.loc 6 259 20
	ldrb	r3, [r7, #7]	@ zero_extendqisi2
	b	.L70
.L69:
	.loc 6 255 84 discriminator 2
	ldrb	r3, [r7, #7]
	adds	r3, r3, #1
	strb	r3, [r7, #7]
.L68:
	.loc 6 255 5 discriminator 1
	ldrb	r3, [r7, #7]	@ zero_extendqisi2
	cmp	r3, #1
	bls	.L71
.LBE14:
	.loc 6 264 12
	movw	r3, #1023
.L70:
	.loc 6 265 1
	mov	r0, r3
	adds	r7, r7, #8
.LCFI96:
	.cfi_def_cfa_offset 8
	mov	sp, r7
.LCFI97:
	.cfi_def_cfa_register 13
	@ sp needed
	pop	{r7, pc}
.L73:
	.align	2
.L72:
	.word	_CYHAL_MCWDT_IRQS
	.cfi_endproc
.LFE1004:
	.size	_cyhal_lptimer_get_instance_from_irq, .-_cyhal_lptimer_get_instance_from_irq
	.section	.text._cyhal_lptimer_irq_handler,"ax",%progbits
	.align	1
	.syntax unified
	.thumb
	.thumb_func
	.type	_cyhal_lptimer_irq_handler, %function
_cyhal_lptimer_irq_handler:
.LFB1005:
	.loc 6 276 1
	.cfi_startproc
	@ args = 0, pretend = 0, frame = 16
	@ frame_needed = 1, uses_anonymous_args = 0
	push	{r7, lr}
.LCFI98:
	.cfi_def_cfa_offset 8
	.cfi_offset 7, -8
	.cfi_offset 14, -4
	sub	sp, sp, #16
.LCFI99:
	.cfi_def_cfa_offset 24
	add	r7, sp, #0
.LCFI100:
	.cfi_def_cfa_register 7
	.loc 6 277 35
	bl	_cyhal_lptimer_get_instance_from_irq
	str	r0, [r7, #12]
	.loc 6 278 18
	movw	r3, #1023
	mov	r2, r3
	.loc 6 278 8
	ldr	r3, [r7, #12]
	cmp	r3, r2
	beq	.L77
.LBB15:
	.loc 6 280 26
	ldr	r2, .L78
	ldr	r3, [r7, #12]
	ldr	r3, [r2, r3, lsl #2]
	str	r3, [r7, #8]
	.loc 6 286 9
	ldr	r3, [r7, #8]
	ldr	r3, [r3]
	movs	r1, #7
	mov	r0, r3
	bl	Cy_MCWDT_ClearInterrupt
	.loc 6 295 16
	ldr	r3, [r7, #8]
	ldrb	r3, [r3, #16]	@ zero_extendqisi2
	.loc 6 295 12
	cmp	r3, #0
	beq	.L76
	.loc 6 298 13
	ldr	r3, [r7, #8]
	ldr	r3, [r3]
	movs	r1, #0
	mov	r0, r3
	bl	Cy_MCWDT_SetInterruptMask
.L76:
	.loc 6 311 42
	ldr	r3, [r7, #8]
	ldr	r3, [r3, #8]
	.loc 6 311 16
	cmp	r3, #0
	beq	.L77
	.loc 6 311 60 discriminator 1
	ldr	r3, [r7, #8]
	ldrb	r3, [r3, #17]	@ zero_extendqisi2
	.loc 6 311 78 discriminator 1
	and	r3, r3, #1
	.loc 6 311 52 discriminator 1
	cmp	r3, #0
	beq	.L77
.LBB16:
	.loc 6 313 48
	ldr	r3, [r7, #8]
	ldr	r3, [r3, #8]
	str	r3, [r7, #4]
	.loc 6 314 17
	ldr	r3, [r7, #8]
	ldr	r2, [r3, #12]
	ldr	r3, [r7, #4]
	movs	r1, #0
	mov	r0, r2
	blx	r3
.LVL0:
.L77:
.LBE16:
.LBE15:
	.loc 6 334 1
	nop
	adds	r7, r7, #16
.LCFI101:
	.cfi_def_cfa_offset 8
	mov	sp, r7
.LCFI102:
	.cfi_def_cfa_register 13
	@ sp needed
	pop	{r7, pc}
.L79:
	.align	2
.L78:
	.word	_cyhal_lptimer_config_structs
	.cfi_endproc
.LFE1005:
	.size	_cyhal_lptimer_irq_handler, .-_cyhal_lptimer_irq_handler
	.section	.text._cyhal_lptimer_set_delay_common,"ax",%progbits
	.align	1
	.syntax unified
	.thumb
	.thumb_func
	.type	_cyhal_lptimer_set_delay_common, %function
_cyhal_lptimer_set_delay_common:
.LFB1006:
	.loc 6 417 1
	.cfi_startproc
	@ args = 0, pretend = 0, frame = 40
	@ frame_needed = 1, uses_anonymous_args = 0
	push	{r7, lr}
.LCFI103:
	.cfi_def_cfa_offset 8
	.cfi_offset 7, -8
	.cfi_offset 14, -4
	sub	sp, sp, #40
.LCFI104:
	.cfi_def_cfa_offset 48
	add	r7, sp, #0
.LCFI105:
	.cfi_def_cfa_register 7
	str	r0, [r7, #4]
	str	r1, [r7]
	.loc 6 418 39
	ldr	r3, [r7, #4]
	ldr	r3, [r3]
	.loc 6 418 10
	movs	r1, #0
	mov	r0, r3
	bl	Cy_MCWDT_GetEnabledStatus
	mov	r3, r0
	.loc 6 418 8
	cmp	r3, #0
	beq	.L81
	.loc 6 419 42
	ldr	r3, [r7, #4]
	ldr	r3, [r3]
	.loc 6 419 13
	movs	r1, #1
	mov	r0, r3
	bl	Cy_MCWDT_GetEnabledStatus
	mov	r3, r0
	.loc 6 419 9
	cmp	r3, #0
	beq	.L81
	.loc 6 420 42
	ldr	r3, [r7, #4]
	ldr	r3, [r3]
	.loc 6 420 13
	movs	r1, #2
	mov	r0, r3
	bl	Cy_MCWDT_GetEnabledStatus
	mov	r3, r0
	.loc 6 420 9
	cmp	r3, #0
	bne	.L82
.L81:
	.loc 6 422 16
	ldr	r3, .L97
	b	.L83
.L82:
	.loc 6 443 8
	ldr	r3, [r7]
	cmp	r3, #3
	bhi	.L84
	.loc 6 445 15
	movs	r3, #3
	str	r3, [r7]
.L84:
	.loc 6 447 8
	ldr	r3, [r7]
	cmn	r3, #983040
	bcc	.L85
	.loc 6 449 15
	mvn	r3, #983040
	str	r3, [r7]
.L85:
	.loc 6 452 5
	ldr	r3, [r7, #4]
	ldr	r3, [r3]
	movs	r1, #2
	mov	r0, r3
	bl	Cy_MCWDT_ClearInterrupt
	.loc 6 453 60
	ldr	r3, [r7, #4]
	ldr	r3, [r3]
	.loc 6 453 39
	movs	r1, #0
	mov	r0, r3
	bl	Cy_MCWDT_GetMatch
	mov	r3, r0
	.loc 6 453 14
	strh	r3, [r7, #26]	@ movhi
	.loc 6 455 33
	bl	Cy_SysLib_EnterCriticalSection
	str	r0, [r7, #20]
	.loc 6 471 20
	movw	r3, #65535
	str	r3, [r7, #16]
	.loc 6 472 14
	ldr	r3, [r7, #16]
	str	r3, [r7, #36]
	.loc 6 473 64
	ldr	r3, [r7, #4]
	ldr	r3, [r3]
	.loc 6 473 43
	movs	r1, #0
	mov	r0, r3
	bl	Cy_MCWDT_GetCount
	mov	r3, r0
	.loc 6 473 14
	strh	r3, [r7, #34]	@ movhi
	.loc 6 476 11
	b	.L86
.L89:
	.loc 6 480 59
	ldr	r3, [r7, #4]
	ldr	r3, [r3]
	.loc 6 480 38
	movs	r1, #0
	mov	r0, r3
	bl	Cy_MCWDT_GetCount
	mov	r3, r0
	.loc 6 480 26
	strh	r3, [r7, #34]	@ movhi
	.loc 6 481 16
	ldr	r3, [r7, #36]
	subs	r3, r3, #1
	str	r3, [r7, #36]
.L86:
	.loc 6 476 15
	ldrh	r3, [r7, #26]	@ movhi
	subs	r3, r3, #1
	uxth	r3, r3
	.loc 6 476 11
	ldrh	r2, [r7, #34]
	cmp	r2, r3
	beq	.L87
	.loc 6 476 66 discriminator 1
	ldrh	r2, [r7, #26]
	ldrh	r3, [r7, #34]
	cmp	r2, r3
	beq	.L87
	.loc 6 478 15
	ldrh	r3, [r7, #26]	@ movhi
	adds	r3, r3, #1
	uxth	r3, r3
	.loc 6 477 60
	ldrh	r2, [r7, #34]
	cmp	r2, r3
	bne	.L88
.L87:
	.loc 6 478 67
	ldr	r3, [r7, #36]
	cmp	r3, #0
	bne	.L89
.L88:
	.loc 6 483 8
	ldr	r3, [r7, #36]
	cmp	r3, #0
	bne	.L90
	.loc 6 486 9
	ldr	r0, [r7, #20]
	bl	Cy_SysLib_ExitCriticalSection
	.loc 6 487 16
	ldr	r3, .L97
	b	.L83
.L90:
	.loc 6 490 25
	ldr	r3, [r7]
	uxth	r2, r3
	.loc 6 490 14
	ldrh	r3, [r7, #34]	@ movhi
	add	r3, r3, r2
	strh	r3, [r7, #14]	@ movhi
	.loc 6 494 13
	ldr	r3, [r7, #16]
	str	r3, [r7, #36]
	.loc 6 495 14
	ldrh	r3, [r7, #34]
	str	r3, [r7, #28]
	.loc 6 496 10
	b	.L91
.L94:
	.loc 6 501 55
	ldr	r3, [r7, #4]
	ldr	r3, [r3]
	.loc 6 501 34
	movs	r1, #0
	mov	r0, r3
	bl	Cy_MCWDT_GetCount
	mov	r3, r0
	.loc 6 501 24
	uxth	r3, r3
	.loc 6 501 22
	str	r3, [r7, #28]
	.loc 6 502 16
	ldr	r3, [r7, #36]
	subs	r3, r3, #1
	str	r3, [r7, #36]
.L91:
	.loc 6 496 26
	ldrh	r3, [r7, #14]
	.loc 6 496 10
	ldr	r2, [r7, #28]
	cmp	r2, r3
	beq	.L92
	.loc 6 497 29 discriminator 1
	ldrh	r3, [r7, #14]	@ movhi
	adds	r3, r3, #1
	uxth	r3, r3
	mov	r2, r3
	.loc 6 496 39 discriminator 1
	ldr	r3, [r7, #28]
	cmp	r3, r2
	beq	.L92
	.loc 6 498 29
	ldrh	r3, [r7, #14]	@ movhi
	adds	r3, r3, #2
	uxth	r3, r3
	mov	r2, r3
	.loc 6 497 56
	ldr	r3, [r7, #28]
	cmp	r3, r2
	bne	.L93
.L92:
	.loc 6 499 9
	ldr	r3, [r7, #36]
	cmp	r3, #0
	bne	.L94
.L93:
	.loc 6 505 28
	ldrh	r3, [r7, #34]
	.loc 6 507 9
	ldr	r2, [r7, #28]
	cmp	r2, r3
	bcc	.L95
	.loc 6 506 25 discriminator 1
	ldrh	r3, [r7, #34]
	.loc 6 507 9 discriminator 1
	ldr	r2, [r7, #28]
	subs	r3, r2, r3
	b	.L96
.L95:
	.loc 6 507 41 discriminator 2
	ldrh	r3, [r7, #34]
	ldr	r2, [r7, #28]
	subs	r3, r2, r3
	.loc 6 507 9 discriminator 2
	add	r3, r3, #65280
	adds	r3, r3, #255
.L96:
	.loc 6 505 11
	ldr	r2, [r7]
	subs	r3, r2, r3
	str	r3, [r7]
	.loc 6 509 16
	ldr	r3, [r7]
	uxth	r2, r3
	.loc 6 509 14
	ldrh	r3, [r7, #34]	@ movhi
	add	r3, r3, r2
	strh	r3, [r7, #14]	@ movhi
	.loc 6 510 64
	ldr	r3, [r7, #4]
	ldr	r3, [r3]
	.loc 6 510 43
	movs	r1, #1
	mov	r0, r3
	bl	Cy_MCWDT_GetCount
	mov	r3, r0
	.loc 6 510 14
	strh	r3, [r7, #12]	@ movhi
	.loc 6 511 62
	ldr	r3, [r7]
	lsrs	r3, r3, #16
	.loc 6 511 25
	uxth	r2, r3
	.loc 6 511 14
	ldrh	r3, [r7, #12]	@ movhi
	add	r3, r3, r2
	strh	r3, [r7, #10]	@ movhi
	.loc 6 519 5
	ldr	r3, [r7, #4]
	ldr	r0, [r3]
	ldrh	r2, [r7, #14]
	movs	r3, #0
	movs	r1, #0
	bl	Cy_MCWDT_SetMatch
	.loc 6 520 5
	ldr	r3, [r7, #4]
	ldr	r0, [r3]
	ldrh	r2, [r7, #10]
	movs	r3, #0
	movs	r1, #1
	bl	Cy_MCWDT_SetMatch
	.loc 6 521 5
	ldr	r0, [r7, #20]
	bl	Cy_SysLib_ExitCriticalSection
	.loc 6 523 5
	ldr	r3, [r7, #4]
	ldr	r3, [r3]
	movs	r1, #2
	mov	r0, r3
	bl	Cy_MCWDT_SetInterruptMask
	.loc 6 527 12
	movs	r3, #0
.L83:
	.loc 6 528 1
	mov	r0, r3
	adds	r7, r7, #40
.LCFI106:
	.cfi_def_cfa_offset 8
	mov	sp, r7
.LCFI107:
	.cfi_def_cfa_register 13
	@ sp needed
	pop	{r7, pc}
.L98:
	.align	2
.L97:
	.word	67244034
	.cfi_endproc
.LFE1006:
	.size	_cyhal_lptimer_set_delay_common, .-_cyhal_lptimer_set_delay_common
	.section	.text.cyhal_lptimer_init,"ax",%progbits
	.align	1
	.global	cyhal_lptimer_init
	.syntax unified
	.thumb
	.thumb_func
	.type	cyhal_lptimer_init, %function
cyhal_lptimer_init:
.LFB1007:
	.loc 6 532 1
	.cfi_startproc
	@ args = 0, pretend = 0, frame = 32
	@ frame_needed = 1, uses_anonymous_args = 0
	push	{r7, lr}
.LCFI108:
	.cfi_def_cfa_offset 8
	.cfi_offset 7, -8
	.cfi_offset 14, -4
	sub	sp, sp, #32
.LCFI109:
	.cfi_def_cfa_offset 40
	add	r7, sp, #0
.LCFI110:
	.cfi_def_cfa_register 7
	str	r0, [r7, #4]
	.loc 6 533 12
	ldr	r3, [r7, #4]
	cmp	r3, #0
	bne	.L100
	.loc 6 533 15 discriminator 1
	bl	CY_HALT
.L100:
	.loc 6 535 24
	ldr	r3, [r7, #4]
	movs	r2, #30
	strb	r2, [r3, #4]
	.loc 6 536 25
	ldr	r3, [r7, #4]
	movs	r2, #0
	strb	r2, [r3, #16]
	.loc 6 537 26
	ldr	r3, [r7, #4]
	movs	r2, #0
	strb	r2, [r3, #17]
	.loc 6 538 15
	ldr	r3, .L111
	str	r3, [r7, #28]
.LBB17:
	.loc 6 539 17
	movs	r3, #0
	strb	r3, [r7, #27]
	.loc 6 539 5
	b	.L101
.L105:
	.loc 6 541 29
	ldrb	r3, [r7, #27]	@ zero_extendqisi2
	ldr	r2, .L111+4
	ldrsh	r3, [r2, r3, lsl #1]
	.loc 6 541 36
	movw	r2, #1023
	.loc 6 541 11
	cmp	r3, r2
	beq	.L102
.LBB18:
	.loc 6 544 35
	movs	r3, #18
	strb	r3, [r7, #20]
	ldrb	r3, [r7, #27]
	strb	r3, [r7, #21]
	movs	r3, #0
	strb	r3, [r7, #22]
	.loc 6 550 20
	add	r3, r7, #20
	mov	r0, r3
	bl	cyhal_hwmgr_reserve
	str	r0, [r7, #28]
	.loc 6 551 15
	ldr	r3, [r7, #28]
	cmp	r3, #0
	bne	.L102
	.loc 6 553 31
	ldr	r3, [r7, #4]
	adds	r3, r3, #4
	add	r2, r7, #20
	ldr	r2, [r2]
	mov	r1, r2	@ movhi
	strh	r1, [r3]	@ movhi
	adds	r3, r3, #2
	lsrs	r2, r2, #16
	strb	r2, [r3]
	b	.L104
.L102:
.LBE18:
	.loc 6 539 36 discriminator 2
	ldrb	r3, [r7, #27]
	adds	r3, r3, #1
	strb	r3, [r7, #27]
.L101:
	.loc 6 539 5 discriminator 1
	ldrb	r3, [r7, #27]	@ zero_extendqisi2
	cmp	r3, #1
	bls	.L105
.L104:
.LBE17:
	.loc 6 558 8
	ldr	r3, [r7, #28]
	cmp	r3, #0
	bne	.L106
.LBB19:
	.loc 6 560 64
	ldr	r3, [r7, #4]
	ldrb	r3, [r3, #5]	@ zero_extendqisi2
	mov	r2, r3
	.loc 6 560 50
	ldr	r3, .L111+8
	ldr	r2, [r3, r2, lsl #2]
	.loc 6 560 19
	ldr	r3, [r7, #4]
	str	r2, [r3]
	.loc 6 567 31
	ldr	r2, .L111+12
	add	r3, r7, #8
	ldm	r2, {r0, r1, r2}
	stm	r3, {r0, r1, r2}
	.loc 6 575 28
	ldr	r3, [r7, #4]
	ldr	r3, [r3]
	add	r2, r7, #8
	mov	r1, r2
	mov	r0, r3
	bl	Cy_MCWDT_Init
	str	r0, [r7, #28]
.L106:
.LBE19:
	.loc 6 578 8
	ldr	r3, [r7, #28]
	cmp	r3, #0
	bne	.L107
	.loc 6 580 37
	ldr	r3, [r7, #4]
	movs	r2, #0
	str	r2, [r3, #8]
	.loc 6 581 41
	ldr	r3, [r7, #4]
	movs	r2, #0
	str	r2, [r3, #12]
	.loc 6 582 52
	ldr	r3, [r7, #4]
	ldrb	r3, [r3, #5]	@ zero_extendqisi2
	mov	r1, r3
	.loc 6 582 64
	ldr	r2, .L111+16
	ldr	r3, [r7, #4]
	str	r3, [r2, r1, lsl #2]
.L107:
	.loc 6 585 8
	ldr	r3, [r7, #28]
	cmp	r3, #0
	bne	.L108
.LBB20:
	.loc 6 587 67
	ldr	r3, [r7, #4]
	ldrb	r3, [r3, #5]	@ zero_extendqisi2
	mov	r2, r3
	.loc 6 587 29
	ldr	r3, .L111+4
	ldrh	r3, [r3, r2, lsl #1]	@ movhi
	strh	r3, [r7, #24]	@ movhi
	.loc 6 588 9
	ldrsh	r3, [r7, #24]
	ldr	r2, .L111+20
	movs	r1, #3
	mov	r0, r3
	bl	_cyhal_irq_register
	.loc 6 590 12
	ldr	r3, [r7, #28]
	cmp	r3, #0
	bne	.L108
	.loc 6 592 13
	ldrsh	r3, [r7, #24]
	mov	r0, r3
	bl	_cyhal_irq_enable
	.loc 6 598 13
	ldr	r3, [r7, #4]
	ldr	r3, [r3]
	movs	r2, #62
	movs	r1, #7
	mov	r0, r3
	bl	Cy_MCWDT_Enable
.L108:
.LBE20:
	.loc 6 603 8
	ldr	r3, [r7, #28]
	cmp	r3, #0
	beq	.L109
	.loc 6 605 9
	ldr	r0, [r7, #4]
	bl	cyhal_lptimer_free
.L109:
	.loc 6 608 12
	ldr	r3, [r7, #28]
	.loc 6 609 1
	mov	r0, r3
	adds	r7, r7, #32
.LCFI111:
	.cfi_def_cfa_offset 8
	mov	sp, r7
.LCFI112:
	.cfi_def_cfa_register 13
	@ sp needed
	pop	{r7, pc}
.L112:
	.align	2
.L111:
	.word	67244033
	.word	_CYHAL_MCWDT_IRQS
	.word	_CYHAL_LPTIMER_BASE_ADDRESSES
	.word	default_cfg
	.word	_cyhal_lptimer_config_structs
	.word	_cyhal_lptimer_irq_handler
	.cfi_endproc
.LFE1007:
	.size	cyhal_lptimer_init, .-cyhal_lptimer_init
	.section	.text.cyhal_lptimer_free,"ax",%progbits
	.align	1
	.global	cyhal_lptimer_free
	.syntax unified
	.thumb
	.thumb_func
	.type	cyhal_lptimer_free, %function
cyhal_lptimer_free:
.LFB1008:
	.loc 6 612 1
	.cfi_startproc
	@ args = 0, pretend = 0, frame = 16
	@ frame_needed = 1, uses_anonymous_args = 0
	push	{r7, lr}
.LCFI113:
	.cfi_def_cfa_offset 8
	.cfi_offset 7, -8
	.cfi_offset 14, -4
	sub	sp, sp, #16
.LCFI114:
	.cfi_def_cfa_offset 24
	add	r7, sp, #0
.LCFI115:
	.cfi_def_cfa_register 7
	str	r0, [r7, #4]
	.loc 6 613 43
	ldr	r3, [r7, #4]
	ldrb	r3, [r3, #4]	@ zero_extendqisi2
	.loc 6 613 8
	cmp	r3, #30
	beq	.L114
.LBB21:
	.loc 6 615 67
	ldr	r3, [r7, #4]
	ldrb	r3, [r3, #5]	@ zero_extendqisi2
	mov	r2, r3
	.loc 6 615 29
	ldr	r3, .L117
	ldrh	r3, [r3, r2, lsl #1]	@ movhi
	strh	r3, [r7, #14]	@ movhi
	.loc 6 616 9
	ldrsh	r3, [r7, #14]
	mov	r0, r3
	bl	_cyhal_irq_free
	.loc 6 618 26
	ldr	r3, [r7, #4]
	adds	r3, r3, #4
	.loc 6 618 9
	mov	r0, r3
	bl	cyhal_hwmgr_free
	.loc 6 619 28
	ldr	r3, [r7, #4]
	movs	r2, #30
	strb	r2, [r3, #4]
.L114:
.LBE21:
	.loc 6 621 19
	ldr	r3, [r7, #4]
	ldr	r3, [r3]
	.loc 6 621 8
	cmp	r3, #0
	beq	.L116
	.loc 6 630 9
	ldr	r3, [r7, #4]
	ldr	r3, [r3]
	movs	r2, #62
	movs	r1, #7
	mov	r0, r3
	bl	Cy_MCWDT_Disable
	.loc 6 636 9
	ldr	r3, [r7, #4]
	ldr	r3, [r3]
	mov	r0, r3
	bl	Cy_MCWDT_DeInit
	.loc 6 638 19
	ldr	r3, [r7, #4]
	movs	r2, #0
	str	r2, [r3]
.L116:
	.loc 6 640 1
	nop
	adds	r7, r7, #16
.LCFI116:
	.cfi_def_cfa_offset 8
	mov	sp, r7
.LCFI117:
	.cfi_def_cfa_register 13
	@ sp needed
	pop	{r7, pc}
.L118:
	.align	2
.L117:
	.word	_CYHAL_MCWDT_IRQS
	.cfi_endproc
.LFE1008:
	.size	cyhal_lptimer_free, .-cyhal_lptimer_free
	.section	.text.cyhal_lptimer_reload,"ax",%progbits
	.align	1
	.global	cyhal_lptimer_reload
	.syntax unified
	.thumb
	.thumb_func
	.type	cyhal_lptimer_reload, %function
cyhal_lptimer_reload:
.LFB1009:
	.loc 6 643 1
	.cfi_startproc
	@ args = 0, pretend = 0, frame = 8
	@ frame_needed = 1, uses_anonymous_args = 0
	push	{r7, lr}
.LCFI118:
	.cfi_def_cfa_offset 8
	.cfi_offset 7, -8
	.cfi_offset 14, -4
	sub	sp, sp, #8
.LCFI119:
	.cfi_def_cfa_offset 16
	add	r7, sp, #0
.LCFI120:
	.cfi_def_cfa_register 7
	str	r0, [r7, #4]
	.loc 6 656 5
	ldr	r3, [r7, #4]
	ldr	r3, [r3]
	movs	r2, #62
	lsls	r2, r2, #1
	uxth	r2, r2
	movs	r1, #7
	mov	r0, r3
	bl	Cy_MCWDT_ResetCounters
	.loc 6 658 12
	movs	r3, #0
	.loc 6 659 1
	mov	r0, r3
	adds	r7, r7, #8
.LCFI121:
	.cfi_def_cfa_offset 8
	mov	sp, r7
.LCFI122:
	.cfi_def_cfa_register 13
	@ sp needed
	pop	{r7, pc}
	.cfi_endproc
.LFE1009:
	.size	cyhal_lptimer_reload, .-cyhal_lptimer_reload
	.section	.text.cyhal_lptimer_set_match,"ax",%progbits
	.align	1
	.global	cyhal_lptimer_set_match
	.syntax unified
	.thumb
	.thumb_func
	.type	cyhal_lptimer_set_match, %function
cyhal_lptimer_set_match:
.LFB1010:
	.loc 6 662 1
	.cfi_startproc
	@ args = 0, pretend = 0, frame = 16
	@ frame_needed = 1, uses_anonymous_args = 0
	push	{r7, lr}
.LCFI123:
	.cfi_def_cfa_offset 8
	.cfi_offset 7, -8
	.cfi_offset 14, -4
	sub	sp, sp, #16
.LCFI124:
	.cfi_def_cfa_offset 24
	add	r7, sp, #0
.LCFI125:
	.cfi_def_cfa_register 7
	str	r0, [r7, #4]
	str	r1, [r7]
	.loc 6 663 25
	ldr	r3, [r7, #4]
	movs	r2, #0
	strb	r2, [r3, #16]
	.loc 6 664 27
	ldr	r0, [r7, #4]
	bl	cyhal_lptimer_read
	str	r0, [r7, #12]
	.loc 6 672 12
	ldr	r2, [r7]
	ldr	r3, [r7, #12]
	subs	r3, r2, r3
	mov	r1, r3
	ldr	r0, [r7, #4]
	bl	_cyhal_lptimer_set_delay_common
	mov	r3, r0
	.loc 6 673 1
	mov	r0, r3
	adds	r7, r7, #16
.LCFI126:
	.cfi_def_cfa_offset 8
	mov	sp, r7
.LCFI127:
	.cfi_def_cfa_register 13
	@ sp needed
	pop	{r7, pc}
	.cfi_endproc
.LFE1010:
	.size	cyhal_lptimer_set_match, .-cyhal_lptimer_set_match
	.section	.text.cyhal_lptimer_set_delay,"ax",%progbits
	.align	1
	.global	cyhal_lptimer_set_delay
	.syntax unified
	.thumb
	.thumb_func
	.type	cyhal_lptimer_set_delay, %function
cyhal_lptimer_set_delay:
.LFB1011:
	.loc 6 676 1
	.cfi_startproc
	@ args = 0, pretend = 0, frame = 8
	@ frame_needed = 1, uses_anonymous_args = 0
	push	{r7, lr}
.LCFI128:
	.cfi_def_cfa_offset 8
	.cfi_offset 7, -8
	.cfi_offset 14, -4
	sub	sp, sp, #8
.LCFI129:
	.cfi_def_cfa_offset 16
	add	r7, sp, #0
.LCFI130:
	.cfi_def_cfa_register 7
	str	r0, [r7, #4]
	str	r1, [r7]
	.loc 6 677 25
	ldr	r3, [r7, #4]
	movs	r2, #1
	strb	r2, [r3, #16]
	.loc 6 681 12
	ldr	r1, [r7]
	ldr	r0, [r7, #4]
	bl	_cyhal_lptimer_set_delay_common
	mov	r3, r0
	.loc 6 682 1
	mov	r0, r3
	adds	r7, r7, #8
.LCFI131:
	.cfi_def_cfa_offset 8
	mov	sp, r7
.LCFI132:
	.cfi_def_cfa_register 13
	@ sp needed
	pop	{r7, pc}
	.cfi_endproc
.LFE1011:
	.size	cyhal_lptimer_set_delay, .-cyhal_lptimer_set_delay
	.section	.text.cyhal_lptimer_read,"ax",%progbits
	.align	1
	.global	cyhal_lptimer_read
	.syntax unified
	.thumb
	.thumb_func
	.type	cyhal_lptimer_read, %function
cyhal_lptimer_read:
.LFB1012:
	.loc 6 685 1
	.cfi_startproc
	@ args = 0, pretend = 0, frame = 8
	@ frame_needed = 1, uses_anonymous_args = 0
	push	{r7, lr}
.LCFI133:
	.cfi_def_cfa_offset 8
	.cfi_offset 7, -8
	.cfi_offset 14, -4
	sub	sp, sp, #8
.LCFI134:
	.cfi_def_cfa_offset 16
	add	r7, sp, #0
.LCFI135:
	.cfi_def_cfa_register 7
	str	r0, [r7, #4]
	.loc 6 697 33
	ldr	r3, [r7, #4]
	ldr	r3, [r3]
	.loc 6 697 12
	movs	r1, #2
	mov	r0, r3
	bl	Cy_MCWDT_GetCount
	mov	r3, r0
	.loc 6 699 1
	mov	r0, r3
	adds	r7, r7, #8
.LCFI136:
	.cfi_def_cfa_offset 8
	mov	sp, r7
.LCFI137:
	.cfi_def_cfa_register 13
	@ sp needed
	pop	{r7, pc}
	.cfi_endproc
.LFE1012:
	.size	cyhal_lptimer_read, .-cyhal_lptimer_read
	.section	.text.cyhal_lptimer_register_callback,"ax",%progbits
	.align	1
	.global	cyhal_lptimer_register_callback
	.syntax unified
	.thumb
	.thumb_func
	.type	cyhal_lptimer_register_callback, %function
cyhal_lptimer_register_callback:
.LFB1013:
	.loc 6 702 1
	.cfi_startproc
	@ args = 0, pretend = 0, frame = 24
	@ frame_needed = 1, uses_anonymous_args = 0
	push	{r7, lr}
.LCFI138:
	.cfi_def_cfa_offset 8
	.cfi_offset 7, -8
	.cfi_offset 14, -4
	sub	sp, sp, #24
.LCFI139:
	.cfi_def_cfa_offset 32
	add	r7, sp, #0
.LCFI140:
	.cfi_def_cfa_register 7
	str	r0, [r7, #12]
	str	r1, [r7, #8]
	str	r2, [r7, #4]
	.loc 6 703 49
	ldr	r3, [r7, #12]
	ldrb	r3, [r3, #5]	@ zero_extendqisi2
	.loc 6 703 12
	cmp	r3, #30
	bne	.L128
	.loc 6 703 64 discriminator 1
	bl	CY_HALT
.L128:
	.loc 6 705 32
	bl	Cy_SysLib_EnterCriticalSection
	str	r0, [r7, #20]
	.loc 6 706 33
	ldr	r3, [r7, #12]
	ldr	r2, [r7, #8]
	str	r2, [r3, #8]
	.loc 6 707 37
	ldr	r3, [r7, #12]
	ldr	r2, [r7, #4]
	str	r2, [r3, #12]
	.loc 6 708 5
	ldr	r0, [r7, #20]
	bl	Cy_SysLib_ExitCriticalSection
	.loc 6 709 1
	nop
	adds	r7, r7, #24
.LCFI141:
	.cfi_def_cfa_offset 8
	mov	sp, r7
.LCFI142:
	.cfi_def_cfa_register 13
	@ sp needed
	pop	{r7, pc}
	.cfi_endproc
.LFE1013:
	.size	cyhal_lptimer_register_callback, .-cyhal_lptimer_register_callback
	.section	.text.cyhal_lptimer_enable_event,"ax",%progbits
	.align	1
	.global	cyhal_lptimer_enable_event
	.syntax unified
	.thumb
	.thumb_func
	.type	cyhal_lptimer_enable_event, %function
cyhal_lptimer_enable_event:
.LFB1014:
	.loc 6 712 1
	.cfi_startproc
	@ args = 0, pretend = 0, frame = 16
	@ frame_needed = 1, uses_anonymous_args = 0
	push	{r7, lr}
.LCFI143:
	.cfi_def_cfa_offset 8
	.cfi_offset 7, -8
	.cfi_offset 14, -4
	sub	sp, sp, #16
.LCFI144:
	.cfi_def_cfa_offset 24
	add	r7, sp, #0
.LCFI145:
	.cfi_def_cfa_register 7
	str	r0, [r7, #4]
	mov	r0, r1
	mov	r1, r2
	mov	r2, r3
	mov	r3, r0
	strb	r3, [r7, #3]
	mov	r3, r1
	strb	r3, [r7, #2]
	mov	r3, r2
	strb	r3, [r7, #1]
	.loc 6 714 12
	ldrb	r3, [r7, #3]	@ zero_extendqisi2
	cmp	r3, #0
	beq	.L130
	.loc 6 714 56 discriminator 1
	bl	CY_HALT
.L130:
	.loc 6 716 26
	ldr	r3, [r7, #4]
	ldrb	r3, [r3, #17]	@ zero_extendqisi2
	bic	r3, r3, #1
	uxtb	r2, r3
	ldr	r3, [r7, #4]
	strb	r2, [r3, #17]
	.loc 6 717 26
	ldr	r3, [r7, #4]
	ldrb	r2, [r3, #17]	@ zero_extendqisi2
	ldrb	r3, [r7, #1]	@ zero_extendqisi2
	orrs	r3, r3, r2
	uxtb	r2, r3
	ldr	r3, [r7, #4]
	strb	r2, [r3, #17]
	.loc 6 719 62
	ldr	r3, [r7, #4]
	ldrb	r3, [r3, #5]	@ zero_extendqisi2
	mov	r2, r3
	.loc 6 719 25
	ldr	r3, .L134
	ldrh	r3, [r3, r2, lsl #1]	@ movhi
	strh	r3, [r7, #14]	@ movhi
	.loc 6 720 5
	ldrb	r2, [r7, #2]	@ zero_extendqisi2
	ldrsh	r3, [r7, #14]
	mov	r1, r2
	mov	r0, r3
	bl	_cyhal_irq_set_priority
	.loc 6 722 8
	ldrb	r3, [r7, #1]	@ zero_extendqisi2
	cmp	r3, #0
	beq	.L131
	.loc 6 728 13
	ldr	r3, [r7, #4]
	ldr	r3, [r3]
	movs	r1, #2
	mov	r0, r3
	bl	Cy_MCWDT_ClearInterrupt
	.loc 6 729 13
	ldr	r3, [r7, #4]
	ldr	r3, [r3]
	movs	r1, #2
	mov	r0, r3
	bl	Cy_MCWDT_SetInterruptMask
	.loc 6 756 1
	b	.L133
.L131:
	.loc 6 749 17
	ldr	r3, [r7, #4]
	ldr	r3, [r3]
	movs	r1, #2
	mov	r0, r3
	bl	Cy_MCWDT_ClearInterrupt
	.loc 6 750 17
	ldr	r3, [r7, #4]
	ldr	r3, [r3]
	movs	r1, #0
	mov	r0, r3
	bl	Cy_MCWDT_SetInterruptMask
.L133:
	.loc 6 756 1
	nop
	adds	r7, r7, #16
.LCFI146:
	.cfi_def_cfa_offset 8
	mov	sp, r7
.LCFI147:
	.cfi_def_cfa_register 13
	@ sp needed
	pop	{r7, pc}
.L135:
	.align	2
.L134:
	.word	_CYHAL_MCWDT_IRQS
	.cfi_endproc
.LFE1014:
	.size	cyhal_lptimer_enable_event, .-cyhal_lptimer_enable_event
	.section	.text.cyhal_lptimer_irq_trigger,"ax",%progbits
	.align	1
	.global	cyhal_lptimer_irq_trigger
	.syntax unified
	.thumb
	.thumb_func
	.type	cyhal_lptimer_irq_trigger, %function
cyhal_lptimer_irq_trigger:
.LFB1015:
	.loc 6 759 1
	.cfi_startproc
	@ args = 0, pretend = 0, frame = 16
	@ frame_needed = 1, uses_anonymous_args = 0
	push	{r7, lr}
.LCFI148:
	.cfi_def_cfa_offset 8
	.cfi_offset 7, -8
	.cfi_offset 14, -4
	sub	sp, sp, #16
.LCFI149:
	.cfi_def_cfa_offset 24
	add	r7, sp, #0
.LCFI150:
	.cfi_def_cfa_register 7
	str	r0, [r7, #4]
	.loc 6 760 49
	ldr	r3, [r7, #4]
	ldrb	r3, [r3, #5]	@ zero_extendqisi2
	.loc 6 760 12
	cmp	r3, #30
	bne	.L137
	.loc 6 760 64 discriminator 1
	bl	CY_HALT
.L137:
	.loc 6 761 36
	ldr	r3, [r7, #4]
	ldr	r3, [r3, #8]
	str	r3, [r7, #12]
	.loc 6 762 5
	ldr	r3, [r7, #4]
	ldr	r2, [r3, #12]
	ldr	r3, [r7, #12]
	movs	r1, #0
	mov	r0, r2
	blx	r3
.LVL1:
	.loc 6 763 1
	nop
	adds	r7, r7, #16
.LCFI151:
	.cfi_def_cfa_offset 8
	mov	sp, r7
.LCFI152:
	.cfi_def_cfa_register 13
	@ sp needed
	pop	{r7, pc}
	.cfi_endproc
.LFE1015:
	.size	cyhal_lptimer_irq_trigger, .-cyhal_lptimer_irq_trigger
	.section	.text.cyhal_lptimer_get_info,"ax",%progbits
	.align	1
	.global	cyhal_lptimer_get_info
	.syntax unified
	.thumb
	.thumb_func
	.type	cyhal_lptimer_get_info, %function
cyhal_lptimer_get_info:
.LFB1016:
	.loc 6 766 1
	.cfi_startproc
	@ args = 0, pretend = 0, frame = 16
	@ frame_needed = 1, uses_anonymous_args = 0
	push	{r7, lr}
.LCFI153:
	.cfi_def_cfa_offset 8
	.cfi_offset 7, -8
	.cfi_offset 14, -4
	sub	sp, sp, #16
.LCFI154:
	.cfi_def_cfa_offset 24
	add	r7, sp, #0
.LCFI155:
	.cfi_def_cfa_register 7
	str	r0, [r7, #4]
	str	r1, [r7]
	.loc 6 768 12
	ldr	r3, [r7]
	cmp	r3, #0
	bne	.L139
	.loc 6 768 9 discriminator 1
	bl	CY_HALT
.L139:
	.loc 6 773 26
	ldr	r3, .L140
	str	r3, [r7, #12]
	.loc 6 775 26
	ldr	r0, [r7, #12]
	bl	cyhal_clock_get_frequency
	mov	r2, r0
	.loc 6 775 24
	ldr	r3, [r7]
	str	r2, [r3]
	.loc 6 776 25
	ldr	r3, [r7]
	movs	r2, #3
	strb	r2, [r3, #4]
	.loc 6 777 29
	ldr	r3, [r7]
	mov	r2, #-1
	str	r2, [r3, #8]
	.loc 6 778 1
	nop
	adds	r7, r7, #16
.LCFI156:
	.cfi_def_cfa_offset 8
	mov	sp, r7
.LCFI157:
	.cfi_def_cfa_register 13
	@ sp needed
	pop	{r7, pc}
.L141:
	.align	2
.L140:
	.word	CYHAL_CLOCK_LF
	.cfi_endproc
.LFE1016:
	.size	cyhal_lptimer_get_info, .-cyhal_lptimer_get_info
	.text
.Letext0:
	.file 7 "d:\\llc\\softwares\\env-windows-v1.3.5\\tools\\gnu_gcc\\arm_gcc\\mingw\\arm-none-eabi\\include\\machine\\_default_types.h"
	.file 8 "d:\\llc\\softwares\\env-windows-v1.3.5\\tools\\gnu_gcc\\arm_gcc\\mingw\\arm-none-eabi\\include\\sys\\_stdint.h"
	.file 9 "libraries\\IFX_PSOC6_HAL\\mtb-pdl-cat1\\devices\\COMPONENT_CAT1A\\include/ip/cyip_srss.h"
	.file 10 "libraries\\IFX_PSOC6_HAL\\mtb-pdl-cat1\\devices\\COMPONENT_CAT1A\\include/cy8c624alqi_s2d42.h"
	.file 11 "libraries\\IFX_PSOC6_HAL\\mtb-pdl-cat1\\devices\\COMPONENT_CAT1A\\include/psoc6_02_config.h"
	.file 12 "libraries\\IFX_PSOC6_HAL\\core-lib\\include/cy_result.h"
	.file 13 "libraries\\IFX_PSOC6_HAL\\mtb-pdl-cat1\\drivers\\include/cy_syslib.h"
	.file 14 "libraries\\IFX_PSOC6_HAL\\mtb-pdl-cat1\\drivers\\include/cy_sysclk.h"
	.file 15 "libraries\\IFX_PSOC6_HAL\\mtb-hal-cat1\\include/cyhal_general_types.h"
	.file 16 "libraries\\IFX_PSOC6_HAL\\mtb-hal-cat1\\include_pvt/cyhal_hw_resources.h"
	.file 17 "libraries\\IFX_PSOC6_HAL\\mtb-hal-cat1\\include_pvt/cyhal_pin_package.h"
	.file 18 "libraries\\IFX_PSOC6_HAL\\mtb-hal-cat1\\COMPONENT_CAT1A\\include/triggers/cyhal_triggers_psoc6_02.h"
	.file 19 "libraries\\IFX_PSOC6_HAL\\mtb-hal-cat1\\include_pvt/cyhal_hw_types.h"
	.file 20 "libraries\\IFX_PSOC6_HAL\\mtb-hal-cat1\\include/cyhal_lptimer.h"
	.file 21 "libraries\\IFX_PSOC6_HAL\\mtb-hal-cat1\\include_pvt/cyhal_clock_impl.h"