	.cpu cortex-m4
	.arch armv7e-m
	.fpu fpv4-sp-d16
	.eabi_attribute 27, 1
	.eabi_attribute 28, 1
	.eabi_attribute 20, 1
	.eabi_attribute 21, 1
	.eabi_attribute 23, 3
	.eabi_attribute 24, 1
	.eabi_attribute 25, 1
	.eabi_attribute 26, 1
	.eabi_attribute 30, 6
	.eabi_attribute 34, 1
	.eabi_attribute 18, 4
	.file	"cyhal_hwmgr.c"
	.text
.Ltext0:
	.cfi_sections	.debug_frame
	.section	.text.CY_HALT,"ax",%progbits
	.align	1
	.syntax unified
	.thumb
	.thumb_func
	.type	CY_HALT, %function
CY_HALT:
.LFB0:
	.file 1 "libraries\\IFX_PSOC6_HAL\\core-lib\\include/cy_utils.h"
	.loc 1 49 1
	.cfi_startproc
	@ args = 0, pretend = 0, frame = 0
	@ frame_needed = 1, uses_anonymous_args = 0
	@ link register save eliminated.
	push	{r7}
.LCFI0:
	.cfi_def_cfa_offset 4
	.cfi_offset 7, -4
	add	r7, sp, #0
.LCFI1:
	.cfi_def_cfa_register 7
	.loc 1 50 5
	.syntax unified
@ 50 "libraries\IFX_PSOC6_HAL\core-lib\include/cy_utils.h" 1
	    bkpt    1
@ 0 "" 2
	.loc 1 51 1
	.thumb
	.syntax unified
	nop
	mov	sp, r7
.LCFI2:
	.cfi_def_cfa_register 13
	@ sp needed
	ldr	r7, [sp], #4
.LCFI3:
	.cfi_restore 7
	.cfi_def_cfa_offset 0
	bx	lr
	.cfi_endproc
.LFE0:
	.size	CY_HALT, .-CY_HALT
	.section	.rodata.cyhal_block_offsets_clock,"a"
	.align	2
	.type	cyhal_block_offsets_clock, %object
	.size	cyhal_block_offsets_clock, 52
cyhal_block_offsets_clock:
	.short	0
	.short	8
	.short	24
	.short	28
	.short	29
	.short	30
	.short	31
	.short	32
	.short	33
	.short	34
	.short	35
	.short	36
	.short	37
	.short	38
	.short	44
	.short	45
	.short	47
	.short	48
	.short	49
	.short	55
	.short	56
	.short	57
	.short	58
	.short	59
	.short	60
	.short	61
	.section	.rodata.cyhal_block_offsets_dma,"a"
	.align	2
	.type	cyhal_block_offsets_dma, %object
	.size	cyhal_block_offsets_dma, 2
cyhal_block_offsets_dma:
	.space	2
	.section	.rodata.cyhal_block_offsets_dw,"a"
	.align	2
	.type	cyhal_block_offsets_dw, %object
	.size	cyhal_block_offsets_dw, 4
cyhal_block_offsets_dw:
	.short	0
	.short	29
	.section	.rodata.cyhal_block_offsets_tdm,"a"
	.align	2
	.type	cyhal_block_offsets_tdm, %object
	.size	cyhal_block_offsets_tdm, 2
cyhal_block_offsets_tdm:
	.space	2
	.section	.rodata.cyhal_block_offsets_gpio,"a"
	.align	2
	.type	cyhal_block_offsets_gpio, %object
	.size	cyhal_block_offsets_gpio, 32
cyhal_block_offsets_gpio:
	.short	0
	.short	8
	.short	16
	.short	24
	.short	32
	.short	40
	.short	48
	.short	56
	.short	64
	.short	72
	.short	80
	.short	88
	.short	96
	.short	104
	.short	112
	.short	120
	.section	.rodata.cyhal_block_offsets_can,"a"
	.align	2
	.type	cyhal_block_offsets_can, %object
	.size	cyhal_block_offsets_can, 2
cyhal_block_offsets_can:
	.space	2
	.section	.rodata.cyhal_block_offsets_lpcomp,"a"
	.align	2
	.type	cyhal_block_offsets_lpcomp, %object
	.size	cyhal_block_offsets_lpcomp, 2
cyhal_block_offsets_lpcomp:
	.space	2
	.section	.rodata.cyhal_block_offsets_opamp,"a"
	.align	2
	.type	cyhal_block_offsets_opamp, %object
	.size	cyhal_block_offsets_opamp, 2
cyhal_block_offsets_opamp:
	.space	2
	.section	.rodata.cyhal_block_offsets_tcpwm,"a"
	.align	2
	.type	cyhal_block_offsets_tcpwm, %object
	.size	cyhal_block_offsets_tcpwm, 4
cyhal_block_offsets_tcpwm:
	.short	0
	.short	8
	.section	.bss.cyhal_used,"aw",%nobits
	.align	2
	.type	cyhal_used, %object
	.size	cyhal_used, 38
cyhal_used:
	.space	38
	.section	.rodata.cyhal_resource_offsets,"a"
	.align	2
	.type	cyhal_resource_offsets, %object
	.size	cyhal_resource_offsets, 60
cyhal_resource_offsets:
	.short	0
	.short	1
	.short	1
	.short	1
	.short	1
	.short	1
	.short	63
	.short	64
	.short	64
	.short	68
	.short	126
	.short	126
	.short	246
	.short	248
	.short	248
	.short	248
	.short	249
	.short	249
	.short	251
	.short	253
	.short	253
	.short	255
	.short	256
	.short	257
	.short	265
	.short	266
	.short	266
	.short	298
	.short	298
	.short	298
	.section	.rodata.cyhal_has_channels,"a"
	.align	2
	.type	cyhal_has_channels, %object
	.size	cyhal_has_channels, 4
cyhal_has_channels:
	.word	201984808
	.section	.text._cyhal_uses_channels,"ax",%progbits
	.align	1
	.syntax unified
	.thumb
	.thumb_func
	.type	_cyhal_uses_channels, %function
_cyhal_uses_channels:
.LFB1002:
	.file 2 "libraries\\IFX_PSOC6_HAL\\mtb-hal-cat1\\source\\cyhal_hwmgr_impl_part.h"
	.loc 2 1440 1
	.cfi_startproc
	@ args = 0, pretend = 0, frame = 8
	@ frame_needed = 1, uses_anonymous_args = 0
	@ link register save eliminated.
	push	{r7}
.LCFI4:
	.cfi_def_cfa_offset 4
	.cfi_offset 7, -4
	sub	sp, sp, #12
.LCFI5:
	.cfi_def_cfa_offset 16
	add	r7, sp, #0
.LCFI6:
	.cfi_def_cfa_register 7
	mov	r3, r0
	strb	r3, [r7, #7]
	.loc 2 1441 37
	ldrb	r3, [r7, #7]	@ zero_extendqisi2
	movs	r2, #1
	lsl	r3, r2, r3
	mov	r2, r3
	.loc 2 1441 32
	ldr	r3, .L4
	ands	r3, r3, r2
	.loc 2 1441 47
	cmp	r3, #0
	ite	ne
	movne	r3, #1
	moveq	r3, #0
	uxtb	r3, r3
	uxth	r3, r3
	.loc 2 1442 1
	mov	r0, r3
	adds	r7, r7, #12
.LCFI7:
	.cfi_def_cfa_offset 4
	mov	sp, r7
.LCFI8:
	.cfi_def_cfa_register 13
	@ sp needed
	ldr	r7, [sp], #4
.LCFI9:
	.cfi_restore 7
	.cfi_def_cfa_offset 0
	bx	lr
.L5:
	.align	2
.L4:
	.word	201984808
	.cfi_endproc
.LFE1002:
	.size	_cyhal_uses_channels, .-_cyhal_uses_channels
	.section	.text._cyhal_get_resource_offset,"ax",%progbits
	.align	1
	.syntax unified
	.thumb
	.thumb_func
	.type	_cyhal_get_resource_offset, %function
_cyhal_get_resource_offset:
.LFB1003:
	.loc 2 1445 1
	.cfi_startproc
	@ args = 0, pretend = 0, frame = 8
	@ frame_needed = 1, uses_anonymous_args = 0
	@ link register save eliminated.
	push	{r7}
.LCFI10:
	.cfi_def_cfa_offset 4
	.cfi_offset 7, -4
	sub	sp, sp, #12
.LCFI11:
	.cfi_def_cfa_offset 16
	add	r7, sp, #0
.LCFI12:
	.cfi_def_cfa_register 7
	mov	r3, r0
	strb	r3, [r7, #7]
	.loc 2 1446 34
	ldrb	r3, [r7, #7]	@ zero_extendqisi2
	ldr	r2, .L8
	ldrh	r3, [r2, r3, lsl #1]
	.loc 2 1447 1
	mov	r0, r3
	adds	r7, r7, #12
.LCFI13:
	.cfi_def_cfa_offset 4
	mov	sp, r7
.LCFI14:
	.cfi_def_cfa_register 13
	@ sp needed
	ldr	r7, [sp], #4
.LCFI15:
	.cfi_restore 7
	.cfi_def_cfa_offset 0
	bx	lr
.L9:
	.align	2
.L8:
	.word	cyhal_resource_offsets
	.cfi_endproc
.LFE1003:
	.size	_cyhal_get_resource_offset, .-_cyhal_get_resource_offset
	.section	.text._cyhal_get_block_offsets,"ax",%progbits
	.align	1
	.syntax unified
	.thumb
	.thumb_func
	.type	_cyhal_get_block_offsets, %function
_cyhal_get_block_offsets:
.LFB1004:
	.loc 2 1450 1
	.cfi_startproc
	@ args = 0, pretend = 0, frame = 8
	@ frame_needed = 1, uses_anonymous_args = 0
	push	{r7, lr}
.LCFI16:
	.cfi_def_cfa_offset 8
	.cfi_offset 7, -8
	.cfi_offset 14, -4
	sub	sp, sp, #8
.LCFI17:
	.cfi_def_cfa_offset 16
	add	r7, sp, #0
.LCFI18:
	.cfi_def_cfa_register 7
	mov	r3, r0
	strb	r3, [r7, #7]
	.loc 2 1451 5
	ldrb	r3, [r7, #7]	@ zero_extendqisi2
	subs	r3, r3, #3
	cmp	r3, #24
	bhi	.L23
	adr	r2, .L13
	ldr	pc, [r2, r3, lsl #2]
	.p2align 2
.L13:
	.word	.L21+1
	.word	.L23+1
	.word	.L20+1
	.word	.L23+1
	.word	.L23+1
	.word	.L19+1
	.word	.L18+1
	.word	.L23+1
	.word	.L17+1
	.word	.L23+1
	.word	.L23+1
	.word	.L23+1
	.word	.L23+1
	.word	.L23+1
	.word	.L16+1
	.word	.L23+1
	.word	.L15+1
	.word	.L23+1
	.word	.L23+1
	.word	.L23+1
	.word	.L23+1
	.word	.L23+1
	.word	.L23+1
	.word	.L14+1
	.word	.L12+1
	.p2align 1
.L21:
	.loc 2 1454 20
	ldr	r3, .L24
	b	.L22
.L20:
	.loc 2 1456 20
	ldr	r3, .L24+4
	b	.L22
.L19:
	.loc 2 1458 20
	ldr	r3, .L24+8
	b	.L22
.L18:
	.loc 2 1461 20
	ldr	r3, .L24+12
	b	.L22
.L12:
	.loc 2 1463 20
	ldr	r3, .L24+16
	b	.L22
.L17:
	.loc 2 1466 20
	ldr	r3, .L24+20
	b	.L22
.L16:
	.loc 2 1468 20
	ldr	r3, .L24+24
	b	.L22
.L15:
	.loc 2 1470 20
	ldr	r3, .L24+28
	b	.L22
.L14:
	.loc 2 1472 20
	ldr	r3, .L24+32
	b	.L22
.L23:
	.loc 2 1474 17 discriminator 1
	bl	CY_HALT
	.loc 2 1475 19 discriminator 1
	movs	r3, #0
.L22:
	.loc 2 1477 1
	mov	r0, r3
	adds	r7, r7, #8
.LCFI19:
	.cfi_def_cfa_offset 8
	mov	sp, r7
.LCFI20:
	.cfi_def_cfa_register 13
	@ sp needed
	pop	{r7, pc}
.L25:
	.align	2
.L24:
	.word	cyhal_block_offsets_can
	.word	cyhal_block_offsets_clock
	.word	cyhal_block_offsets_dma
	.word	cyhal_block_offsets_dw
	.word	cyhal_block_offsets_tdm
	.word	cyhal_block_offsets_gpio
	.word	cyhal_block_offsets_lpcomp
	.word	cyhal_block_offsets_opamp
	.word	cyhal_block_offsets_tcpwm
	.cfi_endproc
.LFE1004:
	.size	_cyhal_get_block_offsets, .-_cyhal_get_block_offsets
	.section	.text._cyhal_get_block_offset_length,"ax",%progbits
	.align	1
	.syntax unified
	.thumb
	.thumb_func
	.type	_cyhal_get_block_offset_length, %function
_cyhal_get_block_offset_length:
.LFB1005:
	.loc 2 1481 1
	.cfi_startproc
	@ args = 0, pretend = 0, frame = 8
	@ frame_needed = 1, uses_anonymous_args = 0
	push	{r7, lr}
.LCFI21:
	.cfi_def_cfa_offset 8
	.cfi_offset 7, -8
	.cfi_offset 14, -4
	sub	sp, sp, #8
.LCFI22:
	.cfi_def_cfa_offset 16
	add	r7, sp, #0
.LCFI23:
	.cfi_def_cfa_register 7
	mov	r3, r0
	strb	r3, [r7, #7]
	.loc 2 1482 5
	ldrb	r3, [r7, #7]	@ zero_extendqisi2
	subs	r3, r3, #3
	cmp	r3, #24
	bhi	.L39
	adr	r2, .L29
	ldr	pc, [r2, r3, lsl #2]
	.p2align 2
.L29:
	.word	.L37+1
	.word	.L39+1
	.word	.L36+1
	.word	.L39+1
	.word	.L39+1
	.word	.L35+1
	.word	.L34+1
	.word	.L39+1
	.word	.L33+1
	.word	.L39+1
	.word	.L39+1
	.word	.L39+1
	.word	.L39+1
	.word	.L39+1
	.word	.L32+1
	.word	.L39+1
	.word	.L31+1
	.word	.L39+1
	.word	.L39+1
	.word	.L39+1
	.word	.L39+1
	.word	.L39+1
	.word	.L39+1
	.word	.L30+1
	.word	.L28+1
	.p2align 1
.L37:
	.loc 2 1485 20
	movs	r3, #1
	b	.L38
.L36:
	.loc 2 1487 20
	movs	r3, #26
	b	.L38
.L35:
	.loc 2 1489 20
	movs	r3, #1
	b	.L38
.L34:
	.loc 2 1492 20
	movs	r3, #2
	b	.L38
.L28:
	.loc 2 1494 20
	movs	r3, #1
	b	.L38
.L33:
	.loc 2 1497 20
	movs	r3, #16
	b	.L38
.L32:
	.loc 2 1499 20
	movs	r3, #1
	b	.L38
.L31:
	.loc 2 1501 20
	movs	r3, #1
	b	.L38
.L30:
	.loc 2 1503 20
	movs	r3, #2
	b	.L38
.L39:
	.loc 2 1505 17 discriminator 1
	bl	CY_HALT
	.loc 2 1506 20 discriminator 1
	movs	r3, #0
.L38:
	.loc 2 1508 1
	mov	r0, r3
	adds	r7, r7, #8
.LCFI24:
	.cfi_def_cfa_offset 8
	mov	sp, r7
.LCFI25:
	.cfi_def_cfa_register 13
	@ sp needed
	pop	{r7, pc}
	.cfi_endproc
.LFE1005:
	.size	_cyhal_get_block_offset_length, .-_cyhal_get_block_offset_length
	.section	.text._cyhal_get_bit_position,"ax",%progbits
	.align	1
	.syntax unified
	.thumb
	.thumb_func
	.type	_cyhal_get_bit_position, %function
_cyhal_get_bit_position:
.LFB1007:
	.file 3 "libraries\\IFX_PSOC6_HAL\\mtb-hal-cat1\\source\\cyhal_hwmgr.c"
	.loc 3 83 1
	.cfi_startproc
	@ args = 0, pretend = 0, frame = 24
	@ frame_needed = 1, uses_anonymous_args = 0
	push	{r7, lr}
.LCFI26:
	.cfi_def_cfa_offset 8
	.cfi_offset 7, -8
	.cfi_offset 14, -4
	sub	sp, sp, #24
.LCFI27:
	.cfi_def_cfa_offset 32
	add	r7, sp, #0
.LCFI28:
	.cfi_def_cfa_register 7
	str	r3, [r7]
	mov	r3, r0
	strb	r3, [r7, #7]
	mov	r3, r1
	strb	r3, [r7, #6]
	mov	r3, r2
	strb	r3, [r7, #5]
	.loc 3 86 8
	ldrb	r3, [r7, #7]	@ zero_extendqisi2
	cmp	r3, #4
	bne	.L41
	.loc 3 88 17
	ldrb	r3, [r7, #6]
	strb	r3, [r7, #5]
	.loc 3 89 15
	movs	r3, #13
	strb	r3, [r7, #6]
	.loc 3 90 14
	movs	r3, #5
	strb	r3, [r7, #7]
.L41:
	.loc 3 93 26
	ldrb	r3, [r7, #7]	@ zero_extendqisi2
	mov	r0, r3
	bl	_cyhal_get_resource_offset
	mov	r3, r0
	strh	r3, [r7, #20]	@ movhi
	.loc 3 96 36
	ldrb	r3, [r7, #7]	@ zero_extendqisi2
	adds	r3, r3, #1
	.loc 3 96 14
	cmp	r3, #29
	bhi	.L42
	.loc 3 97 62
	ldrb	r3, [r7, #7]
	adds	r3, r3, #1
	uxtb	r3, r3
	.loc 3 97 11
	mov	r0, r3
	bl	_cyhal_get_resource_offset
	mov	r3, r0
	b	.L43
.L42:
	.loc 3 96 14 discriminator 1
	movw	r3, #299
.L43:
	.loc 3 96 14 is_stmt 0 discriminator 2
	strh	r3, [r7, #22]	@ movhi
	.loc 3 100 9 is_stmt 1 discriminator 2
	ldrb	r3, [r7, #7]	@ zero_extendqisi2
	mov	r0, r3
	bl	_cyhal_uses_channels
	mov	r3, r0
	.loc 3 100 8 discriminator 2
	cmp	r3, #0
	beq	.L44
.LBB2:
	.loc 3 102 53
	ldrb	r3, [r7, #7]	@ zero_extendqisi2
	mov	r0, r3
	bl	_cyhal_get_block_offsets
	str	r0, [r7, #16]
	.loc 3 103 22
	ldr	r3, [r7]
	ldrh	r2, [r7, #22]	@ movhi
	strh	r2, [r3]	@ movhi
	.loc 3 104 12
	ldr	r3, [r7, #16]
	cmp	r3, #0
	beq	.L45
.LBB3:
	.loc 3 108 31
	ldrb	r3, [r7, #7]	@ zero_extendqisi2
	mov	r0, r3
	bl	_cyhal_get_block_offset_length
	mov	r3, r0
	.loc 3 108 22
	strh	r3, [r7, #14]	@ movhi
	.loc 3 109 23
	ldrb	r3, [r7, #6]	@ zero_extendqisi2
	uxth	r3, r3
	.loc 3 109 16
	ldrh	r2, [r7, #14]
	cmp	r2, r3
	bls	.L45
	.loc 3 111 56
	ldrb	r3, [r7, #6]	@ zero_extendqisi2
	lsls	r3, r3, #1
	ldr	r2, [r7, #16]
	add	r3, r3, r2
	ldrh	r2, [r3]
	.loc 3 111 42
	ldrh	r3, [r7, #20]	@ movhi
	add	r3, r3, r2
	uxth	r2, r3
	.loc 3 111 64
	ldrb	r3, [r7, #5]	@ zero_extendqisi2
	uxth	r3, r3
	add	r3, r3, r2
	uxth	r2, r3
	.loc 3 111 30
	ldr	r3, [r7]
	strh	r2, [r3]	@ movhi
	.loc 3 112 28
	ldrb	r3, [r7, #6]	@ zero_extendqisi2
	adds	r2, r3, #1
	.loc 3 112 33
	ldrh	r3, [r7, #14]
	.loc 3 112 20
	cmp	r2, r3
	bge	.L45
	.loc 3 114 62
	ldrb	r3, [r7, #6]	@ zero_extendqisi2
	adds	r3, r3, #1
	lsls	r3, r3, #1
	ldr	r2, [r7, #16]
	add	r3, r3, r2
	ldrh	r2, [r3]
	.loc 3 114 36
	ldrh	r3, [r7, #20]	@ movhi
	add	r3, r3, r2
	strh	r3, [r7, #22]	@ movhi
	b	.L45
.L44:
.LBE3:
.LBE2:
	.loc 3 121 34
	ldrb	r3, [r7, #6]	@ zero_extendqisi2
	uxth	r2, r3
	ldrh	r3, [r7, #20]	@ movhi
	add	r3, r3, r2
	uxth	r2, r3
	.loc 3 121 22
	ldr	r3, [r7]
	strh	r2, [r3]	@ movhi
.L45:
	.loc 3 124 13
	ldr	r3, [r7]
	ldrh	r3, [r3]
	.loc 3 126 9
	ldrh	r2, [r7, #22]
	cmp	r2, r3
	bls	.L46
	.loc 3 126 9 is_stmt 0 discriminator 1
	movs	r3, #0
	b	.L48
.L46:
	.loc 3 126 9 discriminator 2
	ldr	r3, .L49
.L48:
	.loc 3 127 1 is_stmt 1 discriminator 5
	mov	r0, r3
	adds	r7, r7, #24
.LCFI29:
	.cfi_def_cfa_offset 8
	mov	sp, r7
.LCFI30:
	.cfi_def_cfa_register 13
	@ sp needed
	pop	{r7, pc}
.L50:
	.align	2
.L49:
	.word	67243520
	.cfi_endproc
.LFE1007:
	.size	_cyhal_get_bit_position, .-_cyhal_get_bit_position
	.section	.text._cyhal_is_set,"ax",%progbits
	.align	1
	.syntax unified
	.thumb
	.thumb_func
	.type	_cyhal_is_set, %function
_cyhal_is_set:
.LFB1008:
	.loc 3 130 1
	.cfi_startproc
	@ args = 4, pretend = 0, frame = 16
	@ frame_needed = 1, uses_anonymous_args = 0
	push	{r7, lr}
.LCFI31:
	.cfi_def_cfa_offset 8
	.cfi_offset 7, -8
	.cfi_offset 14, -4
	sub	sp, sp, #16
.LCFI32:
	.cfi_def_cfa_offset 24
	add	r7, sp, #0
.LCFI33:
	.cfi_def_cfa_register 7
	str	r0, [r7, #4]
	mov	r0, r1
	mov	r1, r2
	mov	r2, r3
	mov	r3, r0
	strb	r3, [r7, #3]
	mov	r3, r1
	strb	r3, [r7, #2]
	mov	r3, r2
	strb	r3, [r7, #1]
	.loc 3 132 24
	add	r3, r7, #8
	ldrb	r2, [r7, #1]	@ zero_extendqisi2
	ldrb	r1, [r7, #2]	@ zero_extendqisi2
	ldrb	r0, [r7, #3]	@ zero_extendqisi2
	bl	_cyhal_get_bit_position
	str	r0, [r7, #12]
	.loc 3 133 8
	ldr	r3, [r7, #12]
	cmp	r3, #0
	bne	.L52
.LBB4:
	.loc 3 135 24
	ldrh	r3, [r7, #8]
	lsrs	r3, r3, #3
	uxth	r3, r3
	.loc 3 135 17
	strb	r3, [r7, #11]
	.loc 3 136 35
	ldrh	r3, [r7, #8]
	uxtb	r3, r3
	.loc 3 136 17
	and	r3, r3, #7
	strb	r3, [r7, #10]
	.loc 3 137 23
	ldrb	r3, [r7, #11]	@ zero_extendqisi2
	ldr	r2, [r7, #4]
	add	r3, r3, r2
	ldrb	r3, [r3]	@ zero_extendqisi2
	mov	r1, r3
	.loc 3 137 35
	ldrb	r3, [r7, #10]	@ zero_extendqisi2
	movs	r2, #1
	lsl	r3, r2, r3
	.loc 3 137 30
	ands	r3, r3, r1
	cmp	r3, #0
	ite	ne
	movne	r3, #1
	moveq	r3, #0
	uxtb	r2, r3
	.loc 3 137 16
	ldr	r3, [r7, #24]
	strb	r2, [r3]
.L52:
.LBE4:
	.loc 3 139 12
	ldr	r3, [r7, #12]
	.loc 3 140 1
	mov	r0, r3
	adds	r7, r7, #16
.LCFI34:
	.cfi_def_cfa_offset 8
	mov	sp, r7
.LCFI35:
	.cfi_def_cfa_register 13
	@ sp needed
	pop	{r7, pc}
	.cfi_endproc
.LFE1008:
	.size	_cyhal_is_set, .-_cyhal_is_set
	.section	.text._cyhal_set_bit,"ax",%progbits
	.align	1
	.syntax unified
	.thumb
	.thumb_func
	.type	_cyhal_set_bit, %function
_cyhal_set_bit:
.LFB1009:
	.loc 3 143 1
	.cfi_startproc
	@ args = 0, pretend = 0, frame = 16
	@ frame_needed = 1, uses_anonymous_args = 0
	push	{r7, lr}
.LCFI36:
	.cfi_def_cfa_offset 8
	.cfi_offset 7, -8
	.cfi_offset 14, -4
	sub	sp, sp, #16
.LCFI37:
	.cfi_def_cfa_offset 24
	add	r7, sp, #0
.LCFI38:
	.cfi_def_cfa_register 7
	str	r0, [r7, #4]
	mov	r0, r1
	mov	r1, r2
	mov	r2, r3
	mov	r3, r0
	strb	r3, [r7, #3]
	mov	r3, r1
	strb	r3, [r7, #2]
	mov	r3, r2
	strb	r3, [r7, #1]
	.loc 3 145 24
	add	r3, r7, #8
	ldrb	r2, [r7, #1]	@ zero_extendqisi2
	ldrb	r1, [r7, #2]	@ zero_extendqisi2
	ldrb	r0, [r7, #3]	@ zero_extendqisi2
	bl	_cyhal_get_bit_position
	str	r0, [r7, #12]
	.loc 3 146 8
	ldr	r3, [r7, #12]
	cmp	r3, #0
	bne	.L55
.LBB5:
	.loc 3 148 24
	ldrh	r3, [r7, #8]
	lsrs	r3, r3, #3
	uxth	r3, r3
	.loc 3 148 17
	strb	r3, [r7, #11]
	.loc 3 149 35
	ldrh	r3, [r7, #8]
	uxtb	r3, r3
	.loc 3 149 17
	and	r3, r3, #7
	strb	r3, [r7, #10]
	.loc 3 150 20
	ldrb	r3, [r7, #11]	@ zero_extendqisi2
	ldr	r2, [r7, #4]
	add	r3, r3, r2
	ldrb	r3, [r3]	@ zero_extendqisi2
	sxtb	r2, r3
	.loc 3 150 26
	ldrb	r3, [r7, #10]	@ zero_extendqisi2
	movs	r1, #1
	lsl	r3, r1, r3
	.loc 3 150 20
	sxtb	r3, r3
	orrs	r3, r3, r2
	sxtb	r1, r3
	ldrb	r3, [r7, #11]	@ zero_extendqisi2
	ldr	r2, [r7, #4]
	add	r3, r3, r2
	uxtb	r2, r1
	strb	r2, [r3]
.L55:
.LBE5:
	.loc 3 152 12
	ldr	r3, [r7, #12]
	.loc 3 153 1
	mov	r0, r3
	adds	r7, r7, #16
.LCFI39:
	.cfi_def_cfa_offset 8
	mov	sp, r7
.LCFI40:
	.cfi_def_cfa_register 13
	@ sp needed
	pop	{r7, pc}
	.cfi_endproc
.LFE1009:
	.size	_cyhal_set_bit, .-_cyhal_set_bit
	.section	.text._cyhal_clear_bit,"ax",%progbits
	.align	1
	.syntax unified
	.thumb
	.thumb_func
	.type	_cyhal_clear_bit, %function
_cyhal_clear_bit:
.LFB1010:
	.loc 3 156 1
	.cfi_startproc
	@ args = 0, pretend = 0, frame = 16
	@ frame_needed = 1, uses_anonymous_args = 0
	push	{r7, lr}
.LCFI41:
	.cfi_def_cfa_offset 8
	.cfi_offset 7, -8
	.cfi_offset 14, -4
	sub	sp, sp, #16
.LCFI42:
	.cfi_def_cfa_offset 24
	add	r7, sp, #0
.LCFI43:
	.cfi_def_cfa_register 7
	str	r0, [r7, #4]
	mov	r0, r1
	mov	r1, r2
	mov	r2, r3
	mov	r3, r0
	strb	r3, [r7, #3]
	mov	r3, r1
	strb	r3, [r7, #2]
	mov	r3, r2
	strb	r3, [r7, #1]
	.loc 3 158 24
	add	r3, r7, #8
	ldrb	r2, [r7, #1]	@ zero_extendqisi2
	ldrb	r1, [r7, #2]	@ zero_extendqisi2
	ldrb	r0, [r7, #3]	@ zero_extendqisi2
	bl	_cyhal_get_bit_position
	str	r0, [r7, #12]
	.loc 3 159 8
	ldr	r3, [r7, #12]
	cmp	r3, #0
	bne	.L58
.LBB6:
	.loc 3 161 24
	ldrh	r3, [r7, #8]
	lsrs	r3, r3, #3
	uxth	r3, r3
	.loc 3 161 17
	strb	r3, [r7, #11]
	.loc 3 162 35
	ldrh	r3, [r7, #8]
	uxtb	r3, r3
	.loc 3 162 17
	and	r3, r3, #7
	strb	r3, [r7, #10]
	.loc 3 163 20
	ldrb	r3, [r7, #11]	@ zero_extendqisi2
	ldr	r2, [r7, #4]
	add	r3, r3, r2
	ldrb	r3, [r3]	@ zero_extendqisi2
	sxtb	r2, r3
	.loc 3 163 27
	ldrb	r3, [r7, #10]	@ zero_extendqisi2
	movs	r1, #1
	lsl	r3, r1, r3
	.loc 3 163 20
	sxtb	r3, r3
	mvns	r3, r3
	sxtb	r3, r3
	ands	r3, r3, r2
	sxtb	r1, r3
	ldrb	r3, [r7, #11]	@ zero_extendqisi2
	ldr	r2, [r7, #4]
	add	r3, r3, r2
	uxtb	r2, r1
	strb	r2, [r3]
.L58:
.LBE6:
	.loc 3 165 12
	ldr	r3, [r7, #12]
	.loc 3 166 1
	mov	r0, r3
	adds	r7, r7, #16
.LCFI44:
	.cfi_def_cfa_offset 8
	mov	sp, r7
.LCFI45:
	.cfi_def_cfa_register 13
	@ sp needed
	pop	{r7, pc}
	.cfi_endproc
.LFE1010:
	.size	_cyhal_clear_bit, .-_cyhal_clear_bit
	.section	.text.cyhal_hwmgr_init,"ax",%progbits
	.align	1
	.global	cyhal_hwmgr_init
	.syntax unified
	.thumb
	.thumb_func
	.type	cyhal_hwmgr_init, %function
cyhal_hwmgr_init:
.LFB1011:
	.loc 3 173 1
	.cfi_startproc
	@ args = 0, pretend = 0, frame = 0
	@ frame_needed = 1, uses_anonymous_args = 0
	@ link register save eliminated.
	push	{r7}
.LCFI46:
	.cfi_def_cfa_offset 4
	.cfi_offset 7, -4
	add	r7, sp, #0
.LCFI47:
	.cfi_def_cfa_register 7
	.loc 3 174 12
	movs	r3, #0
	.loc 3 175 1
	mov	r0, r3
	mov	sp, r7
.LCFI48:
	.cfi_def_cfa_register 13
	@ sp needed
	ldr	r7, [sp], #4
.LCFI49:
	.cfi_restore 7
	.cfi_def_cfa_offset 0
	bx	lr
	.cfi_endproc
.LFE1011:
	.size	cyhal_hwmgr_init, .-cyhal_hwmgr_init
	.section	.text.cyhal_hwmgr_reserve,"ax",%progbits
	.align	1
	.global	cyhal_hwmgr_reserve
	.syntax unified
	.thumb
	.thumb_func
	.type	cyhal_hwmgr_reserve, %function
cyhal_hwmgr_reserve:
.LFB1012:
	.loc 3 178 1
	.cfi_startproc
	@ args = 0, pretend = 0, frame = 24
	@ frame_needed = 1, uses_anonymous_args = 0
	push	{r7, lr}
.LCFI50:
	.cfi_def_cfa_offset 8
	.cfi_offset 7, -8
	.cfi_offset 14, -4
	sub	sp, sp, #32
.LCFI51:
	.cfi_def_cfa_offset 40
	add	r7, sp, #8
.LCFI52:
	.cfi_def_cfa 7, 32
	str	r0, [r7, #4]
	.loc 3 180 22
	bl	Cy_SysLib_EnterCriticalSection
	str	r0, [r7, #16]
	.loc 3 181 22
	ldr	r3, [r7, #4]
	ldrb	r1, [r3]	@ zero_extendqisi2
	ldr	r3, [r7, #4]
	ldrb	r2, [r3, #1]	@ zero_extendqisi2
	ldr	r3, [r7, #4]
	ldrb	r0, [r3, #2]	@ zero_extendqisi2
	add	r3, r7, #15
	str	r3, [sp]
	mov	r3, r0
	ldr	r0, .L66
	bl	_cyhal_is_set
	str	r0, [r7, #20]
	.loc 3 182 8
	ldr	r3, [r7, #20]
	cmp	r3, #0
	bne	.L63
	.loc 3 182 42 discriminator 1
	ldrb	r3, [r7, #15]	@ zero_extendqisi2
	cmp	r3, #0
	beq	.L63
	.loc 3 184 14
	ldr	r3, .L66+4
	str	r3, [r7, #20]
.L63:
	.loc 3 187 8
	ldr	r3, [r7, #20]
	cmp	r3, #0
	bne	.L64
	.loc 3 189 16
	ldr	r3, [r7, #4]
	ldrb	r1, [r3]	@ zero_extendqisi2
	ldr	r3, [r7, #4]
	ldrb	r2, [r3, #1]	@ zero_extendqisi2
	ldr	r3, [r7, #4]
	ldrb	r3, [r3, #2]	@ zero_extendqisi2
	ldr	r0, .L66
	bl	_cyhal_set_bit
	str	r0, [r7, #20]
.L64:
	.loc 3 191 5
	ldr	r0, [r7, #16]
	bl	Cy_SysLib_ExitCriticalSection
	.loc 3 193 12
	ldr	r3, [r7, #20]
	.loc 3 194 1
	mov	r0, r3
	adds	r7, r7, #24
.LCFI53:
	.cfi_def_cfa_offset 8
	mov	sp, r7
.LCFI54:
	.cfi_def_cfa_register 13
	@ sp needed
	pop	{r7, pc}
.L67:
	.align	2
.L66:
	.word	cyhal_used
	.word	67243521
	.cfi_endproc
.LFE1012:
	.size	cyhal_hwmgr_reserve, .-cyhal_hwmgr_reserve
	.section	.text.cyhal_hwmgr_free,"ax",%progbits
	.align	1
	.global	cyhal_hwmgr_free
	.syntax unified
	.thumb
	.thumb_func
	.type	cyhal_hwmgr_free, %function
cyhal_hwmgr_free:
.LFB1013:
	.loc 3 197 1
	.cfi_startproc
	@ args = 0, pretend = 0, frame = 16
	@ frame_needed = 1, uses_anonymous_args = 0
	push	{r7, lr}
.LCFI55:
	.cfi_def_cfa_offset 8
	.cfi_offset 7, -8
	.cfi_offset 14, -4
	sub	sp, sp, #16
.LCFI56:
	.cfi_def_cfa_offset 24
	add	r7, sp, #0
.LCFI57:
	.cfi_def_cfa_register 7
	str	r0, [r7, #4]
	.loc 3 198 22
	bl	Cy_SysLib_EnterCriticalSection
	str	r0, [r7, #12]
	.loc 3 199 22
	ldr	r3, [r7, #4]
	ldrb	r1, [r3]	@ zero_extendqisi2
	ldr	r3, [r7, #4]
	ldrb	r2, [r3, #1]	@ zero_extendqisi2
	ldr	r3, [r7, #4]
	ldrb	r3, [r3, #2]	@ zero_extendqisi2
	ldr	r0, .L70
	bl	_cyhal_clear_bit
	str	r0, [r7, #8]
	.loc 3 201 12
	ldr	r3, [r7, #8]
	cmp	r3, #0
	beq	.L69
	.loc 3 201 52 discriminator 1
	bl	CY_HALT
.L69:
	.loc 3 202 5
	ldr	r0, [r7, #12]
	bl	Cy_SysLib_ExitCriticalSection
	.loc 3 203 1
	nop
	adds	r7, r7, #16
.LCFI58:
	.cfi_def_cfa_offset 8
	mov	sp, r7
.LCFI59:
	.cfi_def_cfa_register 13
	@ sp needed
	pop	{r7, pc}
.L71:
	.align	2
.L70:
	.word	cyhal_used
	.cfi_endproc
.LFE1013:
	.size	cyhal_hwmgr_free, .-cyhal_hwmgr_free
	.section	.text.cyhal_hwmgr_allocate,"ax",%progbits
	.align	1
	.global	cyhal_hwmgr_allocate
	.syntax unified
	.thumb
	.thumb_func
	.type	cyhal_hwmgr_allocate, %function
cyhal_hwmgr_allocate:
.LFB1014:
	.loc 3 207 1
	.cfi_startproc
	@ args = 0, pretend = 0, frame = 8
	@ frame_needed = 1, uses_anonymous_args = 0
	push	{r7, lr}
.LCFI60:
	.cfi_def_cfa_offset 8
	.cfi_offset 7, -8
	.cfi_offset 14, -4
	sub	sp, sp, #16
.LCFI61:
	.cfi_def_cfa_offset 24
	add	r7, sp, #8
.LCFI62:
	.cfi_def_cfa 7, 16
	mov	r3, r0
	str	r1, [r7]
	strb	r3, [r7, #7]
	.loc 3 208 12
	ldrb	r0, [r7, #7]	@ zero_extendqisi2
	ldr	r3, [r7]
	str	r3, [sp, #4]
	movs	r3, #0
	str	r3, [sp]
	movs	r3, #0
	movs	r2, #0
	movs	r1, #0
	bl	_cyhal_hwmgr_allocate_with_connection
	mov	r3, r0
	.loc 3 209 1
	mov	r0, r3
	adds	r7, r7, #8
.LCFI63:
	.cfi_def_cfa_offset 8
	mov	sp, r7
.LCFI64:
	.cfi_def_cfa_register 13
	@ sp needed
	pop	{r7, pc}
	.cfi_endproc
.LFE1014:
	.size	cyhal_hwmgr_allocate, .-cyhal_hwmgr_allocate
	.section	.text._cyhal_hwmgr_allocate_with_connection,"ax",%progbits
	.align	1
	.global	_cyhal_hwmgr_allocate_with_connection
	.syntax unified
	.thumb
	.thumb_func
	.type	_cyhal_hwmgr_allocate_with_connection, %function
_cyhal_hwmgr_allocate_with_connection:
.LFB1015:
	.loc 3 216 1
	.cfi_startproc
	@ args = 8, pretend = 0, frame = 48
	@ frame_needed = 1, uses_anonymous_args = 0
	push	{r7, lr}
.LCFI65:
	.cfi_def_cfa_offset 8
	.cfi_offset 7, -8
	.cfi_offset 14, -4
	sub	sp, sp, #48
.LCFI66:
	.cfi_def_cfa_offset 56
	add	r7, sp, #0
.LCFI67:
	.cfi_def_cfa_register 7
	str	r1, [r7, #8]
	str	r2, [r7, #4]
	str	r3, [r7]
	mov	r3, r0
	strb	r3, [r7, #15]
	.loc 3 217 33
	ldrb	r3, [r7, #15]	@ zero_extendqisi2
	mov	r0, r3
	bl	_cyhal_get_resource_offset
	mov	r3, r0
	strh	r3, [r7, #40]	@ movhi
	.loc 3 218 36
	ldrb	r3, [r7, #15]	@ zero_extendqisi2
	adds	r3, r3, #1
	.loc 3 218 14
	cmp	r3, #29
	bhi	.L75
	.loc 3 219 62
	ldrb	r3, [r7, #15]
	adds	r3, r3, #1
	uxtb	r3, r3
	.loc 3 219 11
	mov	r0, r3
	bl	_cyhal_get_resource_offset
	mov	r3, r0
	b	.L76
.L75:
	.loc 3 218 14 discriminator 1
	movw	r3, #299
.L76:
	.loc 3 218 14 is_stmt 0 discriminator 2
	strh	r3, [r7, #38]	@ movhi
	.loc 3 221 24 is_stmt 1 discriminator 2
	ldrb	r3, [r7, #15]	@ zero_extendqisi2
	mov	r0, r3
	bl	_cyhal_uses_channels
	mov	r3, r0
	.loc 3 221 9 discriminator 2
	cmp	r3, #0
	ite	ne
	movne	r3, #1
	moveq	r3, #0
	strb	r3, [r7, #37]
	.loc 3 223 14 discriminator 2
	ldrh	r2, [r7, #38]	@ movhi
	ldrh	r3, [r7, #40]	@ movhi
	subs	r3, r2, r3
	strh	r3, [r7, #34]	@ movhi
	.loc 3 224 13 discriminator 2
	movs	r3, #0
	strb	r3, [r7, #47]
	.loc 3 225 13 discriminator 2
	movs	r3, #0
	strb	r3, [r7, #46]
.LBB7:
	.loc 3 226 19 discriminator 2
	movs	r3, #0
	strh	r3, [r7, #44]	@ movhi
	.loc 3 226 5 discriminator 2
	b	.L77
.L89:
.LBB8:
	.loc 3 229 13
	movs	r3, #1
	strb	r3, [r7, #43]
	.loc 3 230 12
	ldr	r3, [r7, #8]
	cmp	r3, #0
	beq	.L78
.LBB9:
	.loc 3 232 40
	ldrb	r1, [r7, #46]	@ zero_extendqisi2
	ldrb	r2, [r7, #47]	@ zero_extendqisi2
	ldr	r3, [r7, #56]
	mov	r0, r2
	blx	r3
.LVL0:
	mov	r3, r0
	strb	r3, [r7, #33]
	.loc 3 233 21
	ldr	r3, [r7, #8]
	ldrh	r3, [r3]
	ldrb	r2, [r7, #33]	@ zero_extendqisi2
	mov	r1, r2
	mov	r0, r3
	bl	_cyhal_can_connect_signal
	mov	r3, r0
	strb	r3, [r7, #43]
.L78:
.LBE9:
	.loc 3 235 12
	ldrb	r3, [r7, #43]	@ zero_extendqisi2
	cmp	r3, #0
	beq	.L79
	.loc 3 235 19 discriminator 1
	ldr	r3, [r7, #4]
	cmp	r3, #0
	beq	.L79
.LBB10:
	.loc 3 237 37
	ldrb	r1, [r7, #46]	@ zero_extendqisi2
	ldrb	r2, [r7, #47]	@ zero_extendqisi2
	ldr	r3, [r7]
	mov	r0, r2
	blx	r3
.LVL1:
	mov	r3, r0
	strh	r3, [r7, #30]	@ movhi
	.loc 3 238 21
	ldr	r3, [r7, #4]
	ldrb	r2, [r3]	@ zero_extendqisi2
	ldrh	r3, [r7, #30]
	mov	r1, r2
	mov	r0, r3
	bl	_cyhal_can_connect_signal
	mov	r3, r0
	strb	r3, [r7, #43]
.L79:
.LBE10:
	.loc 3 240 12
	ldrb	r3, [r7, #43]	@ zero_extendqisi2
	cmp	r3, #0
	beq	.L80
.LBB11:
	.loc 3 243 35
	ldrb	r3, [r7, #15]
	strb	r3, [r7, #16]
	ldrb	r3, [r7, #47]
	strb	r3, [r7, #17]
	ldrb	r3, [r7, #46]
	strb	r3, [r7, #18]
	.loc 3 244 45
	add	r3, r7, #16
	mov	r0, r3
	bl	cyhal_hwmgr_reserve
	mov	r3, r0
	.loc 3 244 16
	cmp	r3, #0
	bne	.L80
	.loc 3 246 27
	ldr	r3, [r7, #60]
	ldrb	r2, [r7, #15]
	strb	r2, [r3]
	.loc 3 247 32
	ldr	r3, [r7, #60]
	ldrb	r2, [r7, #47]
	strb	r2, [r3, #1]
	.loc 3 248 34
	ldr	r3, [r7, #60]
	ldrb	r2, [r7, #46]
	strb	r2, [r3, #2]
	.loc 3 249 24
	movs	r3, #0
	b	.L82
.L80:
.LBE11:
	.loc 3 253 12
	ldrb	r3, [r7, #37]	@ zero_extendqisi2
	cmp	r3, #0
	beq	.L83
.LBB12:
	.loc 3 255 57
	ldrb	r3, [r7, #15]	@ zero_extendqisi2
	mov	r0, r3
	bl	_cyhal_get_block_offsets
	str	r0, [r7, #24]
	.loc 3 256 31
	ldrb	r3, [r7, #15]	@ zero_extendqisi2
	mov	r0, r3
	bl	_cyhal_get_block_offset_length
	mov	r3, r0
	.loc 3 256 22
	strh	r3, [r7, #22]	@ movhi
	.loc 3 257 24
	ldrb	r3, [r7, #47]	@ zero_extendqisi2
	adds	r2, r3, #1
	.loc 3 257 29
	ldrh	r3, [r7, #22]
	.loc 3 257 16
	cmp	r2, r3
	bge	.L84
	.loc 3 257 53 discriminator 1
	ldrb	r3, [r7, #47]	@ zero_extendqisi2
	adds	r3, r3, #1
	lsls	r3, r3, #1
	ldr	r2, [r7, #24]
	add	r3, r3, r2
	ldrh	r3, [r3]
	mov	r2, r3
	.loc 3 257 71 discriminator 1
	ldrh	r3, [r7, #44]
	adds	r3, r3, #1
	.loc 3 257 38 discriminator 1
	cmp	r2, r3
	bgt	.L84
	.loc 3 259 25
	movs	r3, #0
	strb	r3, [r7, #46]
.L86:
	.loc 3 262 26 discriminator 2
	ldrb	r3, [r7, #47]	@ zero_extendqisi2
	adds	r3, r3, #1
	strb	r3, [r7, #47]
	.loc 3 264 32 discriminator 2
	ldrb	r3, [r7, #47]	@ zero_extendqisi2
	adds	r2, r3, #1
	.loc 3 264 37 discriminator 2
	ldrh	r3, [r7, #22]
	.loc 3 264 17 discriminator 2
	cmp	r2, r3
	bge	.L90
	.loc 3 264 63 discriminator 1
	ldrb	r3, [r7, #47]	@ zero_extendqisi2
	adds	r3, r3, #1
	lsls	r3, r3, #1
	ldr	r2, [r7, #24]
	add	r3, r3, r2
	ldrh	r2, [r3]
	.loc 3 264 90 discriminator 1
	ldrb	r3, [r7, #47]	@ zero_extendqisi2
	lsls	r3, r3, #1
	ldr	r1, [r7, #24]
	add	r3, r3, r1
	ldrh	r3, [r3]
	.loc 3 264 47 discriminator 1
	cmp	r2, r3
	beq	.L86
	.loc 3 257 16
	b	.L90
.L84:
	.loc 3 268 24
	ldrb	r3, [r7, #46]	@ zero_extendqisi2
	adds	r3, r3, #1
	strb	r3, [r7, #46]
	b	.L88
.L83:
.LBE12:
	.loc 3 273 18
	ldrb	r3, [r7, #47]	@ zero_extendqisi2
	adds	r3, r3, #1
	strb	r3, [r7, #47]
	b	.L88
.L90:
.LBB13:
	.loc 3 257 16
	nop
.L88:
.LBE13:
.LBE8:
	.loc 3 226 38 discriminator 2
	ldrh	r3, [r7, #44]
	adds	r3, r3, #1
	strh	r3, [r7, #44]	@ movhi
.L77:
	.loc 3 226 5 discriminator 1
	ldrh	r2, [r7, #44]
	ldrh	r3, [r7, #34]
	cmp	r2, r3
	bcc	.L89
.LBE7:
	.loc 3 277 12
	ldr	r3, .L91
.L82:
	.loc 3 278 1
	mov	r0, r3
	adds	r7, r7, #48
.LCFI68:
	.cfi_def_cfa_offset 8
	mov	sp, r7
.LCFI69:
	.cfi_def_cfa_register 13
	@ sp needed
	pop	{r7, pc}
.L92:
	.align	2
.L91:
	.word	67243522
	.cfi_endproc
.LFE1015:
	.size	_cyhal_hwmgr_allocate_with_connection, .-_cyhal_hwmgr_allocate_with_connection
	.text
.Letext0:
	.file 4 "d:\\llc\\softwares\\env-windows-v1.3.5\\tools\\gnu_gcc\\arm_gcc\\mingw\\arm-none-eabi\\include\\machine\\_default_types.h"
	.file 5 "d:\\llc\\softwares\\env-windows-v1.3.5\\tools\\gnu_gcc\\arm_gcc\\mingw\\arm-none-eabi\\include\\sys\\_stdint.h"
	.file 6 "libraries\\IFX_PSOC6_HAL\\core-lib\\include/cy_result.h"
	.file 7 "libraries\\IFX_PSOC6_HAL\\mtb-pdl-cat1\\drivers\\include/cy_sysclk.h"
	.file 8 "libraries\\IFX_PSOC6_HAL\\mtb-hal-cat1\\include/cyhal_general_types.h"
	.file 9 "libraries\\IFX_PSOC6_HAL\\mtb-hal-cat1\\include_pvt/cyhal_hw_resources.h"
	.file 10 "libraries\\IFX_PSOC6_HAL\\mtb-hal-cat1\\include_pvt/cyhal_pin_package.h"
	.file 11 "libraries\\IFX_PSOC6_HAL\\mtb-hal-cat1\\COMPONENT_CAT1A\\include/triggers/cyhal_triggers_psoc6_02.h"
	.file 12 "libraries\\IFX_PSOC6_HAL\\mtb-hal-cat1\\include_pvt/cyhal_hwmgr_impl.h"