	.cpu cortex-m4
	.arch armv7e-m
	.fpu fpv4-sp-d16
	.eabi_attribute 27, 1
	.eabi_attribute 28, 1
	.eabi_attribute 20, 1
	.eabi_attribute 21, 1
	.eabi_attribute 23, 3
	.eabi_attribute 24, 1
	.eabi_attribute 25, 1
	.eabi_attribute 26, 1
	.eabi_attribute 30, 6
	.eabi_attribute 34, 1
	.eabi_attribute 18, 4
	.file	"cy_gpio.c"
	.text
.Ltext0:
	.cfi_sections	.debug_frame
	.section	.text.CY_HALT,"ax",%progbits
	.align	1
	.syntax unified
	.thumb
	.thumb_func
	.type	CY_HALT, %function
CY_HALT:
.LFB133:
	.file 1 "libraries\\IFX_PSOC6_HAL\\core-lib\\include/cy_utils.h"
	.loc 1 49 1
	.cfi_startproc
	@ args = 0, pretend = 0, frame = 0
	@ frame_needed = 1, uses_anonymous_args = 0
	@ link register save eliminated.
	push	{r7}
.LCFI0:
	.cfi_def_cfa_offset 4
	.cfi_offset 7, -4
	add	r7, sp, #0
.LCFI1:
	.cfi_def_cfa_register 7
	.loc 1 50 5
	.syntax unified
@ 50 "libraries\IFX_PSOC6_HAL\core-lib\include/cy_utils.h" 1
	    bkpt    1
@ 0 "" 2
	.loc 1 51 1
	.thumb
	.syntax unified
	nop
	mov	sp, r7
.LCFI2:
	.cfi_def_cfa_register 13
	@ sp needed
	ldr	r7, [sp], #4
.LCFI3:
	.cfi_restore 7
	.cfi_def_cfa_offset 0
	bx	lr
	.cfi_endproc
.LFE133:
	.size	CY_HALT, .-CY_HALT
	.section	.text.Cy_GPIO_Pin_Init,"ax",%progbits
	.align	1
	.global	Cy_GPIO_Pin_Init
	.syntax unified
	.thumb
	.thumb_func
	.type	Cy_GPIO_Pin_Init, %function
Cy_GPIO_Pin_Init:
.LFB142:
	.file 2 "libraries\\IFX_PSOC6_HAL\\mtb-pdl-cat1\\drivers\\source\\cy_gpio.c"
	.loc 2 81 1
	.cfi_startproc
	@ args = 0, pretend = 0, frame = 32
	@ frame_needed = 1, uses_anonymous_args = 0
	push	{r7, lr}
.LCFI4:
	.cfi_def_cfa_offset 8
	.cfi_offset 7, -8
	.cfi_offset 14, -4
	sub	sp, sp, #32
.LCFI5:
	.cfi_def_cfa_offset 40
	add	r7, sp, #0
.LCFI6:
	.cfi_def_cfa_register 7
	str	r0, [r7, #12]
	str	r1, [r7, #8]
	str	r2, [r7, #4]
	.loc 2 82 25
	ldr	r3, .L20
	str	r3, [r7, #28]
	.loc 2 84 8
	ldr	r3, [r7, #12]
	cmp	r3, #0
	beq	.L3
	.loc 2 84 23 discriminator 1
	ldr	r3, [r7, #4]
	cmp	r3, #0
	beq	.L3
.LBB2:
	.loc 2 94 16
	ldr	r3, [r7, #8]
	cmp	r3, #7
	bls	.L4
	.loc 2 94 42 discriminator 1
	bl	CY_HALT
.L4:
	.loc 2 95 34
	ldr	r3, [r7, #4]
	ldr	r3, [r3]
	.loc 2 95 16
	cmp	r3, #1
	bls	.L5
	.loc 2 95 49 discriminator 1
	bl	CY_HALT
.L5:
	.loc 2 96 35
	ldr	r3, [r7, #4]
	ldr	r3, [r3, #4]
	.loc 2 96 48
	bic	r3, r3, #15
	.loc 2 96 16
	cmp	r3, #0
	bne	.L6
	.loc 2 96 83 discriminator 2
	ldr	r3, [r7, #4]
	ldr	r3, [r3, #4]
	.loc 2 96 72 discriminator 2
	cmp	r3, #1
	beq	.L6
	.loc 2 96 120 discriminator 4
	ldr	r3, [r7, #4]
	ldr	r3, [r3, #4]
	.loc 2 96 17 discriminator 4
	cmp	r3, #9
	bne	.L7
.L6:
	.loc 2 96 151 discriminator 5
	bl	CY_HALT
.L7:
	.loc 2 97 34
	ldr	r3, [r7, #4]
	ldrb	r3, [r3, #8]	@ zero_extendqisi2
	.loc 2 97 43
	bic	r3, r3, #31
	.loc 2 97 16
	cmp	r3, #0
	beq	.L8
	.loc 2 97 71 discriminator 1
	bl	CY_HALT
.L8:
	.loc 2 98 40
	ldr	r3, [r7, #4]
	ldr	r3, [r3, #12]
	.loc 2 98 16
	cmp	r3, #0
	beq	.L9
	.loc 2 98 75 discriminator 1
	ldr	r3, [r7, #4]
	ldr	r3, [r3, #12]
	.loc 2 98 52 discriminator 1
	cmp	r3, #1
	beq	.L9
	.loc 2 98 110 discriminator 2
	ldr	r3, [r7, #4]
	ldr	r3, [r3, #12]
	.loc 2 98 87 discriminator 2
	cmp	r3, #2
	beq	.L9
	.loc 2 98 145 discriminator 3
	ldr	r3, [r7, #4]
	ldr	r3, [r3, #12]
	.loc 2 98 17 discriminator 3
	cmp	r3, #3
	beq	.L9
	.loc 2 98 162 discriminator 4
	bl	CY_HALT
.L9:
	.loc 2 99 34
	ldr	r3, [r7, #4]
	ldr	r3, [r3, #16]
	.loc 2 99 16
	cmp	r3, #1
	bls	.L10
	.loc 2 99 50 discriminator 1
	bl	CY_HALT
.L10:
	.loc 2 100 34
	ldr	r3, [r7, #4]
	ldr	r3, [r3, #20]
	.loc 2 100 16
	cmp	r3, #1
	bls	.L11
	.loc 2 100 48 discriminator 1
	bl	CY_HALT
.L11:
	.loc 2 102 34
	ldr	r3, [r7, #4]
	ldr	r3, [r3, #32]
	.loc 2 102 16
	cmp	r3, #1
	bls	.L12
	.loc 2 102 49 discriminator 1
	bl	CY_HALT
.L12:
	.loc 2 103 34
	ldr	r3, [r7, #4]
	ldr	r3, [r3, #36]
	.loc 2 103 16
	cmp	r3, #1
	bls	.L13
	.loc 2 103 51 discriminator 1
	bl	CY_HALT
.L13:
	.loc 2 104 34
	ldr	r3, [r7, #4]
	ldr	r3, [r3, #40]
	.loc 2 104 16
	cmp	r3, #1
	bls	.L14
	.loc 2 104 51 discriminator 1
	bl	CY_HALT
.L14:
	.loc 2 105 40
	ldr	r3, [r7, #4]
	ldr	r3, [r3, #44]
	.loc 2 105 16
	cmp	r3, #0
	beq	.L15
	.loc 2 105 75 discriminator 1
	ldr	r3, [r7, #4]
	ldr	r3, [r3, #44]
	.loc 2 105 52 discriminator 1
	cmp	r3, #1
	beq	.L15
	.loc 2 105 110 discriminator 2
	ldr	r3, [r7, #4]
	ldr	r3, [r3, #44]
	.loc 2 105 87 discriminator 2
	cmp	r3, #2
	beq	.L15
	.loc 2 105 145 discriminator 3
	ldr	r3, [r7, #4]
	ldr	r3, [r3, #44]
	.loc 2 105 17 discriminator 3
	cmp	r3, #3
	beq	.L15
	.loc 2 105 162 discriminator 4
	bl	CY_HALT
.L15:
	.loc 2 106 40
	ldr	r3, [r7, #4]
	ldr	r3, [r3, #48]
	.loc 2 106 16
	cmp	r3, #0
	beq	.L16
	.loc 2 106 74 discriminator 1
	ldr	r3, [r7, #4]
	ldr	r3, [r3, #48]
	.loc 2 106 51 discriminator 1
	cmp	r3, #1
	beq	.L16
	.loc 2 106 108 discriminator 2
	ldr	r3, [r7, #4]
	ldr	r3, [r3, #48]
	.loc 2 106 85 discriminator 2
	cmp	r3, #2
	beq	.L16
	.loc 2 106 142 discriminator 3
	ldr	r3, [r7, #4]
	ldr	r3, [r3, #48]
	.loc 2 106 119 discriminator 3
	cmp	r3, #3
	beq	.L16
	.loc 2 106 176 discriminator 4
	ldr	r3, [r7, #4]
	ldr	r3, [r3, #48]
	.loc 2 106 153 discriminator 4
	cmp	r3, #4
	beq	.L16
	.loc 2 106 210 discriminator 5
	ldr	r3, [r7, #4]
	ldr	r3, [r3, #48]
	.loc 2 106 187 discriminator 5
	cmp	r3, #5
	beq	.L16
	.loc 2 106 244 discriminator 6
	ldr	r3, [r7, #4]
	ldr	r3, [r3, #48]
	.loc 2 106 221 discriminator 6
	cmp	r3, #6
	beq	.L16
	.loc 2 106 278 discriminator 7
	ldr	r3, [r7, #4]
	ldr	r3, [r3, #48]
	.loc 2 106 17 discriminator 7
	cmp	r3, #7
	beq	.L16
	.loc 2 106 294 discriminator 8
	bl	CY_HALT
.L16:
	.loc 2 107 40
	ldr	r3, [r7, #4]
	ldr	r3, [r3, #28]
	.loc 2 107 16
	cmp	r3, #0
	beq	.L17
	.loc 2 107 76 discriminator 1
	ldr	r3, [r7, #4]
	ldr	r3, [r3, #28]
	.loc 2 107 53 discriminator 1
	cmp	r3, #1
	beq	.L17
	.loc 2 107 112 discriminator 2
	ldr	r3, [r7, #4]
	ldr	r3, [r3, #28]
	.loc 2 107 89 discriminator 2
	cmp	r3, #2
	beq	.L17
	.loc 2 107 148 discriminator 3
	ldr	r3, [r7, #4]
	ldr	r3, [r3, #28]
	.loc 2 107 17 discriminator 3
	cmp	r3, #3
	beq	.L17
	.loc 2 107 166 discriminator 4
	bl	CY_HALT
.L17:
	.loc 2 115 34
	ldr	r3, [r7, #4]
	ldr	r3, [r3, #24]
	.loc 2 115 16
	cmp	r3, #1
	bls	.L18
	.loc 2 115 51 discriminator 1
	bl	CY_HALT
.L18:
	.loc 2 125 32
	movs	r2, #1
	ldr	r3, [r7, #8]
	lsls	r2, r2, r3
	.loc 2 126 56
	ldr	r3, [r7, #8]
	lsls	r3, r3, #1
	.loc 2 126 63
	adds	r3, r3, #16
	.loc 2 126 34
	movs	r1, #3
	lsl	r3, r1, r3
	.loc 2 125 20
	orrs	r3, r3, r2
	str	r3, [r7, #24]
	.loc 2 138 82
	ldr	r3, .L20+4
	ldr	r3, [r3]
	ldrb	r3, [r3, #131]	@ zero_extendqisi2
	.loc 2 138 62
	mov	r2, r3
	.loc 2 138 43
	ldr	r3, [r7, #12]
	.loc 2 138 60
	add	r3, r3, r2
	.loc 2 138 20
	ldr	r2, [r3]
	.loc 2 138 109
	ldr	r3, [r7, #24]
	mvns	r3, r3
	.loc 2 138 17
	ands	r3, r3, r2
	str	r3, [r7, #20]
	.loc 2 141 38
	ldr	r3, [r7, #4]
	ldr	r3, [r3, #24]
	.loc 2 141 49
	and	r2, r3, #1
	.loc 2 141 61
	ldr	r3, [r7, #8]
	lsls	r2, r2, r3
	.loc 2 141 28
	ldr	r3, [r7, #20]
	orrs	r2, r2, r3
	.loc 2 142 39
	ldr	r3, [r7, #4]
	ldr	r3, [r3, #28]
	.loc 2 142 50
	and	r1, r3, #3
	.loc 2 142 84
	ldr	r3, [r7, #8]
	lsls	r3, r3, #1
	.loc 2 142 91
	adds	r3, r3, #16
	.loc 2 142 62
	lsl	r3, r1, r3
	.loc 2 141 18
	orrs	r3, r3, r2
	str	r3, [r7, #16]
	.loc 2 154 72
	ldr	r3, .L20+4
	ldr	r3, [r3]
	ldrb	r3, [r3, #131]	@ zero_extendqisi2
	.loc 2 154 52
	mov	r2, r3
	.loc 2 154 33
	ldr	r3, [r7, #12]
	.loc 2 154 50
	add	r3, r3, r2
	.loc 2 154 11
	mov	r2, r3
	.loc 2 154 97
	ldr	r3, [r7, #16]
	str	r3, [r2]
	.loc 2 166 9
	ldr	r3, [r7, #4]
	ldrb	r3, [r3, #8]	@ zero_extendqisi2
	mov	r2, r3
	ldr	r1, [r7, #8]
	ldr	r0, [r7, #12]
	bl	Cy_GPIO_SetHSIOM
	.loc 2 167 9
	ldr	r3, [r7, #4]
	ldr	r3, [r3, #4]
	mov	r2, r3
	ldr	r1, [r7, #8]
	ldr	r0, [r7, #12]
	bl	Cy_GPIO_SetDrivemode
	.loc 2 169 9
	ldr	r3, [r7, #4]
	ldr	r3, [r3, #12]
	mov	r2, r3
	ldr	r1, [r7, #8]
	ldr	r0, [r7, #12]
	bl	Cy_GPIO_SetInterruptEdge
	.loc 2 170 9
	ldr	r3, [r7, #4]
	ldr	r3, [r3, #16]
	mov	r2, r3
	ldr	r1, [r7, #8]
	ldr	r0, [r7, #12]
	bl	Cy_GPIO_SetInterruptMask
	.loc 2 171 9
	ldr	r3, [r7, #4]
	ldr	r3, [r3, #20]
	mov	r2, r3
	ldr	r1, [r7, #8]
	ldr	r0, [r7, #12]
	bl	Cy_GPIO_SetVtrip
	.loc 2 184 82
	ldr	r3, .L20+4
	ldr	r3, [r3]
	ldrb	r3, [r3, #132]	@ zero_extendqisi2
	.loc 2 184 62
	mov	r2, r3
	.loc 2 184 43
	ldr	r3, [r7, #12]
	.loc 2 184 60
	add	r3, r3, r2
	.loc 2 184 20
	ldr	r3, [r3]
	.loc 2 184 17
	bic	r3, r3, #255
	str	r3, [r7, #20]
	.loc 2 187 39
	ldr	r3, [r7, #4]
	ldr	r3, [r3, #32]
	.loc 2 187 48
	and	r2, r3, #1
	.loc 2 188 52
	ldr	r3, [r7, #4]
	ldr	r3, [r3, #36]
	.loc 2 188 75
	lsls	r3, r3, #1
	and	r3, r3, #2
	.loc 2 188 42
	orrs	r2, r2, r3
	.loc 2 189 52
	ldr	r3, [r7, #4]
	ldr	r3, [r3, #40]
	.loc 2 189 75
	lsls	r3, r3, #2
	and	r3, r3, #4
	.loc 2 189 42
	orrs	r2, r2, r3
	.loc 2 190 52
	ldr	r3, [r7, #4]
	ldr	r3, [r3, #44]
	.loc 2 190 74
	lsls	r3, r3, #3
	and	r3, r3, #24
	.loc 2 190 42
	orrs	r2, r2, r3
	.loc 2 191 52
	ldr	r3, [r7, #4]
	ldr	r3, [r3, #48]
	.loc 2 191 73
	lsls	r3, r3, #5
	uxtb	r3, r3
	.loc 2 191 42
	orrs	r2, r2, r3
	.loc 2 192 70
	ldr	r3, [r7, #8]
	lsls	r3, r3, #2
	and	r3, r3, #1016
	.loc 2 192 44
	lsl	r3, r2, r3
	.loc 2 187 18
	ldr	r2, [r7, #20]
	orrs	r3, r3, r2
	str	r3, [r7, #16]
	.loc 2 204 72
	ldr	r3, .L20+4
	ldr	r3, [r3]
	ldrb	r3, [r3, #132]	@ zero_extendqisi2
	.loc 2 204 52
	mov	r2, r3
	.loc 2 204 33
	ldr	r3, [r7, #12]
	.loc 2 204 50
	add	r3, r3, r2
	.loc 2 204 11
	mov	r2, r3
	b	.L21
.L22:
	.align	2
.L20:
	.word	5898241
	.word	cy_device
.L21:
	.loc 2 204 97
	ldr	r3, [r7, #16]
	str	r3, [r2]
	.loc 2 211 9
	ldr	r3, [r7, #4]
	ldr	r3, [r3]
	mov	r2, r3
	ldr	r1, [r7, #8]
	ldr	r0, [r7, #12]
	bl	Cy_GPIO_Write
	.loc 2 213 16
	movs	r3, #0
	str	r3, [r7, #28]
.L3:
.LBE2:
	.loc 2 216 11
	ldr	r3, [r7, #28]
	.loc 2 217 1
	mov	r0, r3
	adds	r7, r7, #32
.LCFI7:
	.cfi_def_cfa_offset 8
	mov	sp, r7
.LCFI8:
	.cfi_def_cfa_register 13
	@ sp needed
	pop	{r7, pc}
	.cfi_endproc
.LFE142:
	.size	Cy_GPIO_Pin_Init, .-Cy_GPIO_Pin_Init
	.section	.text.Cy_GPIO_Port_Init,"ax",%progbits
	.align	1
	.global	Cy_GPIO_Port_Init
	.syntax unified
	.thumb
	.thumb_func
	.type	Cy_GPIO_Port_Init, %function
Cy_GPIO_Port_Init:
.LFB143:
	.loc 2 249 1
	.cfi_startproc
	@ args = 0, pretend = 0, frame = 24
	@ frame_needed = 1, uses_anonymous_args = 0
	push	{r7, lr}
.LCFI9:
	.cfi_def_cfa_offset 8
	.cfi_offset 7, -8
	.cfi_offset 14, -4
	sub	sp, sp, #24
.LCFI10:
	.cfi_def_cfa_offset 32
	add	r7, sp, #0
.LCFI11:
	.cfi_def_cfa_register 7
	str	r0, [r7, #4]
	str	r1, [r7]
	.loc 2 250 25
	ldr	r3, .L32
	str	r3, [r7, #20]
	.loc 2 252 8
	ldr	r3, [r7, #4]
	cmp	r3, #0
	beq	.L24
	.loc 2 252 23 discriminator 1
	ldr	r3, [r7]
	cmp	r3, #0
	beq	.L24
.LBB3:
	.loc 2 263 20
	ldr	r2, [r7, #4]
	.loc 2 263 60
	ldr	r3, .L32+4
	ldr	r3, [r3]
	ldr	r3, [r3, #24]
	.loc 2 263 37
	subs	r3, r2, r3
	.loc 2 263 17
	lsrs	r3, r3, #7
	str	r3, [r7, #16]
	.loc 2 264 63
	ldr	r3, .L32+4
	ldr	r3, [r3]
	ldr	r2, [r3, #20]
	.loc 2 264 93
	ldr	r3, [r7, #16]
	lsls	r3, r3, #4
	.loc 2 264 77
	add	r3, r3, r2
	.loc 2 264 19
	str	r3, [r7, #12]
	.loc 2 266 34
	ldr	r3, [r7]
	ldr	r3, [r3]
	.loc 2 266 41
	bic	r3, r3, #255
	.loc 2 266 16
	cmp	r3, #0
	beq	.L25
	.loc 2 266 76 discriminator 1
	bl	CY_HALT
.L25:
	.loc 2 267 34
	ldr	r3, [r7]
	ldr	r3, [r3, #16]
	.loc 2 267 43
	bic	r3, r3, #255
	.loc 2 267 16
	cmp	r3, #0
	beq	.L26
	.loc 2 267 78 discriminator 1
	bl	CY_HALT
.L26:
	.loc 2 268 34
	ldr	r3, [r7]
	ldr	r3, [r3, #8]
	.loc 2 268 45
	lsrs	r3, r3, #21
	lsls	r3, r3, #21
	.loc 2 268 16
	cmp	r3, #0
	beq	.L27
	.loc 2 268 167 discriminator 1
	bl	CY_HALT
.L27:
	.loc 2 269 34
	ldr	r3, [r7]
	ldr	r3, [r3, #4]
	.loc 2 269 46
	bic	r3, r3, #510
	bic	r3, r3, #1
	.loc 2 269 16
	cmp	r3, #0
	beq	.L28
	.loc 2 269 81 discriminator 1
	bl	CY_HALT
.L28:
	.loc 2 270 34
	ldr	r3, [r7]
	ldr	r3, [r3, #28]
	.loc 2 270 48
	and	r3, r3, #-536870912
	.loc 2 270 16
	cmp	r3, #0
	beq	.L29
	.loc 2 270 82 discriminator 1
	bl	CY_HALT
.L29:
	.loc 2 271 34
	ldr	r3, [r7]
	ldr	r3, [r3, #32]
	.loc 2 271 48
	and	r3, r3, #-536870912
	.loc 2 271 16
	cmp	r3, #0
	beq	.L30
	.loc 2 271 82 discriminator 1
	bl	CY_HALT
.L30:
	.loc 2 330 72
	ldr	r3, .L32+4
	ldr	r3, [r3]
	ldrb	r3, [r3, #129]	@ zero_extendqisi2
	.loc 2 330 52
	mov	r2, r3
	.loc 2 330 33
	ldr	r3, [r7, #4]
	.loc 2 330 50
	add	r3, r3, r2
	.loc 2 330 11
	mov	r2, r3
	.loc 2 330 102
	ldr	r3, [r7]
	ldr	r3, [r3, #12]
	.loc 2 330 94
	str	r3, [r2]
	.loc 2 331 72
	ldr	r3, .L32+4
	ldr	r3, [r3]
	ldrb	r3, [r3, #130]	@ zero_extendqisi2
	.loc 2 331 52
	mov	r2, r3
	.loc 2 331 33
	ldr	r3, [r7, #4]
	.loc 2 331 50
	add	r3, r3, r2
	.loc 2 331 11
	mov	r2, r3
	.loc 2 331 104
	ldr	r3, [r7]
	ldr	r3, [r3, #16]
	.loc 2 331 96
	str	r3, [r2]
	.loc 2 332 72
	ldr	r3, .L32+4
	ldr	r3, [r3]
	ldrb	r3, [r3, #131]	@ zero_extendqisi2
	.loc 2 332 52
	mov	r2, r3
	.loc 2 332 33
	ldr	r3, [r7, #4]
	.loc 2 332 50
	add	r3, r3, r2
	.loc 2 332 11
	mov	r2, r3
	.loc 2 332 105
	ldr	r3, [r7]
	ldr	r3, [r3, #20]
	.loc 2 332 97
	str	r3, [r2]
	.loc 2 333 72
	ldr	r3, .L32+4
	ldr	r3, [r3]
	ldrb	r3, [r3, #128]	@ zero_extendqisi2
	.loc 2 333 52
	mov	r2, r3
	.loc 2 333 33
	ldr	r3, [r7, #4]
	.loc 2 333 50
	add	r3, r3, r2
	.loc 2 333 11
	mov	r2, r3
	.loc 2 333 106
	ldr	r3, [r7]
	ldr	r3, [r3, #8]
	.loc 2 333 98
	str	r3, [r2]
	.loc 2 334 55
	ldr	r3, [r7]
	ldr	r2, [r3, #4]
	.loc 2 334 47
	ldr	r3, [r7, #4]
	str	r2, [r3, #24]
	.loc 2 335 72
	ldr	r3, .L32+4
	ldr	r3, [r3]
	ldrb	r3, [r3, #132]	@ zero_extendqisi2
	.loc 2 335 52
	mov	r2, r3
	.loc 2 335 33
	ldr	r3, [r7, #4]
	.loc 2 335 50
	add	r3, r3, r2
	.loc 2 335 11
	mov	r2, r3
	.loc 2 335 105
	ldr	r3, [r7]
	ldr	r3, [r3, #24]
	.loc 2 335 97
	str	r3, [r2]
	.loc 2 336 65
	ldr	r3, [r7]
	ldr	r2, [r3, #28]
	.loc 2 336 57
	ldr	r3, [r7, #12]
	str	r2, [r3]
	.loc 2 337 65
	ldr	r3, [r7]
	ldr	r2, [r3, #32]
	.loc 2 337 57
	ldr	r3, [r7, #12]
	str	r2, [r3, #4]
	.loc 2 338 49
	ldr	r3, [r7]
	ldr	r2, [r3]
	.loc 2 338 41
	ldr	r3, [r7, #4]
	str	r2, [r3]
	.loc 2 345 16
	movs	r3, #0
	str	r3, [r7, #20]
.L24:
.LBE3:
	.loc 2 348 12
	ldr	r3, [r7, #20]
	.loc 2 349 1
	mov	r0, r3
	adds	r7, r7, #24
.LCFI12:
	.cfi_def_cfa_offset 8
	mov	sp, r7
.LCFI13:
	.cfi_def_cfa_register 13
	@ sp needed
	pop	{r7, pc}
.L33:
	.align	2
.L32:
	.word	5898241
	.word	cy_device
	.cfi_endproc
.LFE143:
	.size	Cy_GPIO_Port_Init, .-Cy_GPIO_Port_Init
	.section	.text.Cy_GPIO_Pin_FastInit,"ax",%progbits
	.align	1
	.global	Cy_GPIO_Pin_FastInit
	.syntax unified
	.thumb
	.thumb_func
	.type	Cy_GPIO_Pin_FastInit, %function
Cy_GPIO_Pin_FastInit:
.LFB144:
	.loc 2 396 1
	.cfi_startproc
	@ args = 4, pretend = 0, frame = 24
	@ frame_needed = 1, uses_anonymous_args = 0
	push	{r7, lr}
.LCFI14:
	.cfi_def_cfa_offset 8
	.cfi_offset 7, -8
	.cfi_offset 14, -4
	sub	sp, sp, #24
.LCFI15:
	.cfi_def_cfa_offset 32
	add	r7, sp, #0
.LCFI16:
	.cfi_def_cfa_register 7
	str	r0, [r7, #12]
	str	r1, [r7, #8]
	str	r2, [r7, #4]
	str	r3, [r7]
	.loc 2 401 12
	ldr	r3, [r7, #8]
	cmp	r3, #7
	bls	.L35
	.loc 2 401 38 discriminator 1
	bl	CY_HALT
.L35:
	.loc 2 402 36
	ldr	r3, [r7, #4]
	bic	r3, r3, #15
	.loc 2 402 12
	cmp	r3, #0
	bne	.L36
	.loc 2 402 60 discriminator 2
	ldr	r3, [r7, #4]
	cmp	r3, #1
	beq	.L36
	.loc 2 402 13 discriminator 4
	ldr	r3, [r7, #4]
	cmp	r3, #9
	bne	.L37
.L36:
	.loc 2 402 123 discriminator 5
	bl	CY_HALT
.L37:
	.loc 2 403 12
	ldr	r3, [r7]
	cmp	r3, #1
	bls	.L38
	.loc 2 403 37 discriminator 1
	bl	CY_HALT
.L38:
	.loc 2 404 31
	ldrb	r3, [r7, #32]	@ zero_extendqisi2
	bic	r3, r3, #31
	.loc 2 404 12
	cmp	r3, #0
	beq	.L39
	.loc 2 404 59 discriminator 1
	bl	CY_HALT
.L39:
	.loc 2 411 5
	ldrb	r3, [r7, #32]	@ zero_extendqisi2
	mov	r2, r3
	ldr	r1, [r7, #8]
	ldr	r0, [r7, #12]
	bl	Cy_GPIO_SetHSIOM
	.loc 2 448 41
	ldr	r3, [r7, #12]
	ldr	r2, [r3]
	.loc 2 448 61
	movs	r1, #1
	ldr	r3, [r7, #8]
	lsl	r3, r1, r3
	.loc 2 448 50
	mvns	r3, r3
	.loc 2 448 13
	ands	r3, r3, r2
	str	r3, [r7, #20]
	.loc 2 449 58
	ldr	r3, [r7]
	and	r2, r3, #1
	.loc 2 449 70
	ldr	r3, [r7, #8]
	lsls	r2, r2, r3
	.loc 2 449 47
	ldr	r3, [r7, #20]
	orrs	r2, r2, r3
	.loc 2 449 37
	ldr	r3, [r7, #12]
	str	r2, [r3]
	.loc 2 451 79
	ldr	r3, .L40
	ldr	r3, [r3]
	ldrb	r3, [r3, #129]	@ zero_extendqisi2
	.loc 2 451 59
	mov	r2, r3
	.loc 2 451 40
	ldr	r3, [r7, #12]
	.loc 2 451 57
	add	r3, r3, r2
	.loc 2 451 17
	ldr	r2, [r3]
	.loc 2 451 125
	ldr	r3, [r7, #8]
	lsls	r3, r3, #2
	.loc 2 451 114
	movs	r1, #15
	lsl	r3, r1, r3
	.loc 2 451 103
	mvns	r3, r3
	.loc 2 451 13
	ands	r3, r3, r2
	str	r3, [r7, #20]
	.loc 2 469 114
	ldr	r3, [r7, #4]
	and	r2, r3, #15
	.loc 2 469 137
	ldr	r3, [r7, #8]
	lsls	r3, r3, #2
	.loc 2 469 126
	lsls	r2, r2, r3
	.loc 2 469 68
	ldr	r3, .L40
	ldr	r3, [r3]
	ldrb	r3, [r3, #129]	@ zero_extendqisi2
	.loc 2 469 48
	mov	r1, r3
	.loc 2 469 29
	ldr	r3, [r7, #12]
	.loc 2 469 46
	add	r3, r3, r1
	.loc 2 469 7
	mov	r1, r3
	.loc 2 469 100
	ldr	r3, [r7, #20]
	orrs	r3, r3, r2
	.loc 2 469 90
	str	r3, [r1]
	.loc 2 472 1
	nop
	adds	r7, r7, #24
.LCFI17:
	.cfi_def_cfa_offset 8
	mov	sp, r7
.LCFI18:
	.cfi_def_cfa_register 13
	@ sp needed
	pop	{r7, pc}
.L41:
	.align	2
.L40:
	.word	cy_device
	.cfi_endproc
.LFE144:
	.size	Cy_GPIO_Pin_FastInit, .-Cy_GPIO_Pin_FastInit
	.section	.text.Cy_GPIO_Port_Deinit,"ax",%progbits
	.align	1
	.global	Cy_GPIO_Port_Deinit
	.syntax unified
	.thumb
	.thumb_func
	.type	Cy_GPIO_Port_Deinit, %function
Cy_GPIO_Port_Deinit:
.LFB145:
	.loc 2 567 1
	.cfi_startproc
	@ args = 0, pretend = 0, frame = 16
	@ frame_needed = 1, uses_anonymous_args = 0
	@ link register save eliminated.
	push	{r7}
.LCFI19:
	.cfi_def_cfa_offset 4
	.cfi_offset 7, -4
	sub	sp, sp, #20
.LCFI20:
	.cfi_def_cfa_offset 24
	add	r7, sp, #0
.LCFI21:
	.cfi_def_cfa_register 7
	str	r0, [r7, #4]
	.loc 2 573 16
	ldr	r2, [r7, #4]
	.loc 2 573 56
	ldr	r3, .L43
	ldr	r3, [r3]
	ldr	r3, [r3, #24]
	.loc 2 573 33
	subs	r3, r2, r3
	.loc 2 573 13
	lsrs	r3, r3, #7
	str	r3, [r7, #12]
	.loc 2 574 59
	ldr	r3, .L43
	ldr	r3, [r3]
	ldr	r2, [r3, #20]
	.loc 2 574 89
	ldr	r3, [r7, #12]
	lsls	r3, r3, #4
	.loc 2 574 73
	add	r3, r3, r2
	.loc 2 574 15
	str	r3, [r7, #8]
	.loc 2 628 37
	ldr	r3, [r7, #4]
	movs	r2, #0
	str	r2, [r3]
	.loc 2 629 68
	ldr	r3, .L43
	ldr	r3, [r3]
	ldrb	r3, [r3, #129]	@ zero_extendqisi2
	.loc 2 629 48
	mov	r2, r3
	.loc 2 629 29
	ldr	r3, [r7, #4]
	.loc 2 629 46
	add	r3, r3, r2
	.loc 2 629 7
	mov	r2, r3
	.loc 2 629 90
	movs	r3, #0
	str	r3, [r2]
	.loc 2 630 68
	ldr	r3, .L43
	ldr	r3, [r3]
	ldrb	r3, [r3, #130]	@ zero_extendqisi2
	.loc 2 630 48
	mov	r2, r3
	.loc 2 630 29
	ldr	r3, [r7, #4]
	.loc 2 630 46
	add	r3, r3, r2
	.loc 2 630 7
	mov	r2, r3
	.loc 2 630 92
	movs	r3, #0
	str	r3, [r2]
	.loc 2 631 68
	ldr	r3, .L43
	ldr	r3, [r3]
	ldrb	r3, [r3, #131]	@ zero_extendqisi2
	.loc 2 631 48
	mov	r2, r3
	.loc 2 631 29
	ldr	r3, [r7, #4]
	.loc 2 631 46
	add	r3, r3, r2
	.loc 2 631 7
	mov	r2, r3
	.loc 2 631 93
	movs	r3, #0
	str	r3, [r2]
	.loc 2 632 68
	ldr	r3, .L43
	ldr	r3, [r3]
	ldrb	r3, [r3, #128]	@ zero_extendqisi2
	.loc 2 632 48
	mov	r2, r3
	.loc 2 632 29
	ldr	r3, [r7, #4]
	.loc 2 632 46
	add	r3, r3, r2
	.loc 2 632 7
	mov	r2, r3
	.loc 2 632 94
	movs	r3, #0
	str	r3, [r2]
	.loc 2 633 43
	ldr	r3, [r7, #4]
	movs	r2, #0
	str	r2, [r3, #24]
	.loc 2 634 68
	ldr	r3, .L43
	ldr	r3, [r3]
	ldrb	r3, [r3, #132]	@ zero_extendqisi2
	.loc 2 634 48
	mov	r2, r3
	.loc 2 634 29
	ldr	r3, [r7, #4]
	.loc 2 634 46
	add	r3, r3, r2
	.loc 2 634 7
	mov	r2, r3
	.loc 2 634 93
	movs	r3, #0
	str	r3, [r2]
	.loc 2 635 53
	ldr	r3, [r7, #8]
	movs	r2, #0
	str	r2, [r3]
	.loc 2 636 53
	ldr	r3, [r7, #8]
	movs	r2, #0
	str	r2, [r3, #4]
	.loc 2 642 1
	nop
	adds	r7, r7, #20
.LCFI22:
	.cfi_def_cfa_offset 4
	mov	sp, r7
.LCFI23:
	.cfi_def_cfa_register 13
	@ sp needed
	ldr	r7, [sp], #4
.LCFI24:
	.cfi_restore 7
	.cfi_def_cfa_offset 0
	bx	lr
.L44:
	.align	2
.L43:
	.word	cy_device
	.cfi_endproc
.LFE145:
	.size	Cy_GPIO_Port_Deinit, .-Cy_GPIO_Port_Deinit
	.section	.text.Cy_GPIO_SetAmuxSplit,"ax",%progbits
	.align	1
	.global	Cy_GPIO_SetAmuxSplit
	.syntax unified
	.thumb
	.thumb_func
	.type	Cy_GPIO_SetAmuxSplit, %function
Cy_GPIO_SetAmuxSplit:
.LFB146:
	.loc 2 669 1
	.cfi_startproc
	@ args = 0, pretend = 0, frame = 16
	@ frame_needed = 1, uses_anonymous_args = 0
	push	{r7, lr}
.LCFI25:
	.cfi_def_cfa_offset 8
	.cfi_offset 7, -8
	.cfi_offset 14, -4
	sub	sp, sp, #16
.LCFI26:
	.cfi_def_cfa_offset 24
	add	r7, sp, #0
.LCFI27:
	.cfi_def_cfa_register 7
	mov	r3, r0
	strb	r3, [r7, #7]
	mov	r3, r1
	strb	r3, [r7, #6]
	mov	r3, r2
	strb	r3, [r7, #5]
	.loc 2 671 12
	ldrb	r3, [r7, #7]	@ zero_extendqisi2
	cmp	r3, #8
	bls	.L46
	.loc 2 671 54 discriminator 1
	bl	CY_HALT
.L46:
	.loc 2 672 12
	ldrb	r3, [r7, #6]	@ zero_extendqisi2
	cmp	r3, #0
	beq	.L47
	.loc 2 672 56 discriminator 1
	ldrb	r3, [r7, #6]	@ zero_extendqisi2
	cmp	r3, #1
	beq	.L47
	.loc 2 672 93 discriminator 2
	ldrb	r3, [r7, #6]	@ zero_extendqisi2
	cmp	r3, #2
	beq	.L47
	.loc 2 672 130 discriminator 3
	ldrb	r3, [r7, #6]	@ zero_extendqisi2
	cmp	r3, #3
	beq	.L47
	.loc 2 672 168 discriminator 4
	ldrb	r3, [r7, #6]	@ zero_extendqisi2
	cmp	r3, #4
	beq	.L47
	.loc 2 672 205 discriminator 5
	ldrb	r3, [r7, #6]	@ zero_extendqisi2
	cmp	r3, #5
	beq	.L47
	.loc 2 672 243 discriminator 6
	ldrb	r3, [r7, #6]	@ zero_extendqisi2
	cmp	r3, #6
	beq	.L47
	.loc 2 672 13 discriminator 7
	ldrb	r3, [r7, #6]	@ zero_extendqisi2
	cmp	r3, #7
	beq	.L47
	.loc 2 672 325 discriminator 8
	bl	CY_HALT
.L47:
	.loc 2 673 12
	ldrb	r3, [r7, #5]	@ zero_extendqisi2
	cmp	r3, #0
	beq	.L48
	.loc 2 673 13 discriminator 1
	ldrb	r3, [r7, #5]	@ zero_extendqisi2
	cmp	r3, #1
	beq	.L48
	.loc 2 673 88 discriminator 2
	bl	CY_HALT
.L48:
	.loc 2 677 8
	ldrb	r3, [r7, #5]	@ zero_extendqisi2
	cmp	r3, #1
	beq	.L49
	.loc 2 679 59
	ldr	r3, .L52
	ldr	r3, [r3]
	ldr	r3, [r3, #20]
	.loc 2 679 20
	mov	r2, r3
	.loc 2 679 89
	ldrb	r3, [r7, #7]	@ zero_extendqisi2
	add	r3, r3, #2048
	ldr	r3, [r2, r3, lsl #2]
	.loc 2 679 16
	and	r3, r3, #112
	str	r3, [r7, #12]
	.loc 2 680 129
	ldrb	r3, [r7, #6]	@ zero_extendqisi2
	and	r1, r3, #7
	.loc 2 680 50
	ldr	r3, .L52
	ldr	r3, [r3]
	ldr	r3, [r3, #20]
	.loc 2 680 11
	mov	r0, r3
	.loc 2 680 80
	ldrb	r3, [r7, #7]	@ zero_extendqisi2
	.loc 2 680 103
	ldr	r2, [r7, #12]
	orrs	r2, r2, r1
	.loc 2 680 94
	add	r3, r3, #2048
	str	r2, [r0, r3, lsl #2]
	.loc 2 695 1
	b	.L51
.L49:
	.loc 2 684 59
	ldr	r3, .L52
	ldr	r3, [r3]
	ldr	r3, [r3, #20]
	.loc 2 684 20
	mov	r2, r3
	.loc 2 684 89
	ldrb	r3, [r7, #7]	@ zero_extendqisi2
	add	r3, r3, #2048
	ldr	r3, [r2, r3, lsl #2]
	.loc 2 684 16
	and	r3, r3, #7
	str	r3, [r7, #12]
	.loc 2 686 20
	ldrb	r3, [r7, #6]	@ zero_extendqisi2
	.loc 2 686 43
	lsls	r3, r3, #4
	.loc 2 686 51
	and	r1, r3, #112
	.loc 2 685 50
	ldr	r3, .L52
	ldr	r3, [r3]
	ldr	r3, [r3, #20]
	.loc 2 685 11
	mov	r0, r3
	.loc 2 685 80
	ldrb	r3, [r7, #7]	@ zero_extendqisi2
	.loc 2 686 16
	ldr	r2, [r7, #12]
	orrs	r2, r2, r1
	.loc 2 685 94
	add	r3, r3, #2048
	str	r2, [r0, r3, lsl #2]
.L51:
	.loc 2 695 1
	nop
	adds	r7, r7, #16
.LCFI28:
	.cfi_def_cfa_offset 8
	mov	sp, r7
.LCFI29:
	.cfi_def_cfa_register 13
	@ sp needed
	pop	{r7, pc}
.L53:
	.align	2
.L52:
	.word	cy_device
	.cfi_endproc
.LFE146:
	.size	Cy_GPIO_SetAmuxSplit, .-Cy_GPIO_SetAmuxSplit
	.section	.text.Cy_GPIO_GetAmuxSplit,"ax",%progbits
	.align	1
	.global	Cy_GPIO_GetAmuxSplit
	.syntax unified
	.thumb
	.thumb_func
	.type	Cy_GPIO_GetAmuxSplit, %function
Cy_GPIO_GetAmuxSplit:
.LFB147:
	.loc 2 720 1
	.cfi_startproc
	@ args = 0, pretend = 0, frame = 16
	@ frame_needed = 1, uses_anonymous_args = 0
	push	{r7, lr}
.LCFI30:
	.cfi_def_cfa_offset 8
	.cfi_offset 7, -8
	.cfi_offset 14, -4
	sub	sp, sp, #16
.LCFI31:
	.cfi_def_cfa_offset 24
	add	r7, sp, #0
.LCFI32:
	.cfi_def_cfa_register 7
	mov	r3, r0
	mov	r2, r1
	strb	r3, [r7, #7]
	mov	r3, r2
	strb	r3, [r7, #6]
	.loc 2 722 12
	ldrb	r3, [r7, #7]	@ zero_extendqisi2
	cmp	r3, #8
	bls	.L55
	.loc 2 722 54 discriminator 1
	bl	CY_HALT
.L55:
	.loc 2 723 12
	ldrb	r3, [r7, #6]	@ zero_extendqisi2
	cmp	r3, #0
	beq	.L56
	.loc 2 723 13 discriminator 1
	ldrb	r3, [r7, #6]	@ zero_extendqisi2
	cmp	r3, #1
	beq	.L56
	.loc 2 723 88 discriminator 2
	bl	CY_HALT
.L56:
	.loc 2 727 8
	ldrb	r3, [r7, #6]	@ zero_extendqisi2
	cmp	r3, #1
	beq	.L57
	.loc 2 729 59
	ldr	r3, .L60
	ldr	r3, [r3]
	ldr	r3, [r3, #20]
	.loc 2 729 20
	mov	r2, r3
	.loc 2 729 89
	ldrb	r3, [r7, #7]	@ zero_extendqisi2
	add	r3, r3, #2048
	ldr	r3, [r2, r3, lsl #2]
	.loc 2 729 16
	and	r3, r3, #7
	str	r3, [r7, #12]
	b	.L58
.L57:
	.loc 2 733 73
	ldr	r3, .L60
	ldr	r3, [r3]
	ldr	r3, [r3, #20]
	.loc 2 733 34
	mov	r2, r3
	.loc 2 733 103
	ldrb	r3, [r7, #7]	@ zero_extendqisi2
	add	r3, r3, #2048
	ldr	r3, [r2, r3, lsl #2]
	.loc 2 733 19
	lsrs	r3, r3, #4
	.loc 2 733 16
	and	r3, r3, #7
	str	r3, [r7, #12]
.L58:
	.loc 2 737 13
	ldr	r3, [r7, #12]
	uxtb	r3, r3
	.loc 2 746 1
	mov	r0, r3
	adds	r7, r7, #16
.LCFI33:
	.cfi_def_cfa_offset 8
	mov	sp, r7
.LCFI34:
	.cfi_def_cfa_register 13
	@ sp needed
	pop	{r7, pc}
.L61:
	.align	2
.L60:
	.word	cy_device
	.cfi_endproc
.LFE147:
	.size	Cy_GPIO_GetAmuxSplit, .-Cy_GPIO_GetAmuxSplit
	.section	.text.Cy_GPIO_SetHSIOM,"ax",%progbits
	.align	1
	.global	Cy_GPIO_SetHSIOM
	.syntax unified
	.thumb
	.thumb_func
	.type	Cy_GPIO_SetHSIOM, %function
Cy_GPIO_SetHSIOM:
.LFB148:
	.loc 2 776 1
	.cfi_startproc
	@ args = 0, pretend = 0, frame = 32
	@ frame_needed = 1, uses_anonymous_args = 0
	push	{r7, lr}
.LCFI35:
	.cfi_def_cfa_offset 8
	.cfi_offset 7, -8
	.cfi_offset 14, -4
	sub	sp, sp, #32
.LCFI36:
	.cfi_def_cfa_offset 40
	add	r7, sp, #0
.LCFI37:
	.cfi_def_cfa_register 7
	str	r0, [r7, #12]
	str	r1, [r7, #8]
	mov	r3, r2
	strb	r3, [r7, #7]
	.loc 2 786 12
	ldr	r3, [r7, #8]
	cmp	r3, #7
	bls	.L63
	.loc 2 786 38 discriminator 1
	bl	CY_HALT
.L63:
	.loc 2 787 31
	ldrb	r3, [r7, #7]	@ zero_extendqisi2
	bic	r3, r3, #31
	.loc 2 787 12
	cmp	r3, #0
	beq	.L64
	.loc 2 787 59 discriminator 1
	bl	CY_HALT
.L64:
	.loc 2 789 16
	ldr	r2, [r7, #12]
	.loc 2 789 56
	ldr	r3, .L68
	ldr	r3, [r3]
	ldr	r3, [r3, #24]
	.loc 2 789 33
	subs	r3, r2, r3
	.loc 2 789 13
	lsrs	r3, r3, #7
	str	r3, [r7, #28]
	.loc 2 790 63
	ldr	r3, .L68
	ldr	r3, [r3]
	ldr	r2, [r3, #20]
	.loc 2 790 93
	ldr	r3, [r7, #28]
	lsls	r3, r3, #4
	.loc 2 790 77
	add	r3, r3, r2
	.loc 2 790 19
	str	r3, [r7, #24]
	.loc 2 796 7
	ldr	r3, [r7, #8]
	cmp	r3, #3
	bhi	.L65
	.loc 2 821 54
	ldr	r3, [r7, #24]
	ldr	r2, [r3]
	.loc 2 821 91
	ldr	r3, [r7, #8]
	lsls	r3, r3, #3
	.loc 2 821 80
	movs	r1, #31
	lsl	r3, r1, r3
	.loc 2 821 69
	mvns	r3, r3
	.loc 2 821 13
	ands	r3, r3, r2
	str	r3, [r7, #20]
	.loc 2 823 44
	ldrb	r3, [r7, #7]	@ zero_extendqisi2
	and	r2, r3, #31
	.loc 2 823 67
	ldr	r3, [r7, #8]
	lsls	r3, r3, #3
	.loc 2 823 56
	lsl	r3, r2, r3
	.loc 2 823 14
	ldr	r2, [r7, #20]
	orrs	r3, r3, r2
	str	r3, [r7, #16]
	.loc 2 854 61
	ldr	r3, [r7, #24]
	ldr	r2, [r7, #16]
	str	r2, [r3]
	.loc 2 921 1
	b	.L67
.L65:
	.loc 2 859 16
	ldr	r3, [r7, #8]
	subs	r3, r3, #4
	str	r3, [r7, #8]
	.loc 2 884 58
	ldr	r3, [r7, #24]
	ldr	r2, [r3, #4]
	.loc 2 884 95
	ldr	r3, [r7, #8]
	lsls	r3, r3, #3
	.loc 2 884 84
	movs	r1, #31
	lsl	r3, r1, r3
	.loc 2 884 73
	mvns	r3, r3
	.loc 2 884 17
	ands	r3, r3, r2
	str	r3, [r7, #20]
	.loc 2 887 48
	ldrb	r3, [r7, #7]	@ zero_extendqisi2
	and	r2, r3, #31
	.loc 2 887 71
	ldr	r3, [r7, #8]
	lsls	r3, r3, #3
	.loc 2 887 60
	lsl	r3, r2, r3
	.loc 2 887 18
	ldr	r2, [r7, #20]
	orrs	r3, r3, r2
	str	r3, [r7, #16]
	.loc 2 918 61
	ldr	r3, [r7, #24]
	ldr	r2, [r7, #16]
	str	r2, [r3, #4]
.L67:
	.loc 2 921 1
	nop
	adds	r7, r7, #32
.LCFI38:
	.cfi_def_cfa_offset 8
	mov	sp, r7
.LCFI39:
	.cfi_def_cfa_register 13
	@ sp needed
	pop	{r7, pc}
.L69:
	.align	2
.L68:
	.word	cy_device
	.cfi_endproc
.LFE148:
	.size	Cy_GPIO_SetHSIOM, .-Cy_GPIO_SetHSIOM
	.section	.text.Cy_GPIO_GetHSIOM,"ax",%progbits
	.align	1
	.global	Cy_GPIO_GetHSIOM
	.syntax unified
	.thumb
	.thumb_func
	.type	Cy_GPIO_GetHSIOM, %function
Cy_GPIO_GetHSIOM:
.LFB149:
	.loc 2 944 1
	.cfi_startproc
	@ args = 0, pretend = 0, frame = 24
	@ frame_needed = 1, uses_anonymous_args = 0
	push	{r7, lr}
.LCFI40:
	.cfi_def_cfa_offset 8
	.cfi_offset 7, -8
	.cfi_offset 14, -4
	sub	sp, sp, #24
.LCFI41:
	.cfi_def_cfa_offset 32
	add	r7, sp, #0
.LCFI42:
	.cfi_def_cfa_register 7
	str	r0, [r7, #4]
	str	r1, [r7]
	.loc 2 953 12
	ldr	r3, [r7]
	cmp	r3, #7
	bls	.L71
	.loc 2 953 38 discriminator 1
	bl	CY_HALT
.L71:
	.loc 2 955 16
	ldr	r2, [r7, #4]
	.loc 2 955 56
	ldr	r3, .L75
	ldr	r3, [r3]
	ldr	r3, [r3, #24]
	.loc 2 955 33
	subs	r3, r2, r3
	.loc 2 955 13
	lsrs	r3, r3, #7
	str	r3, [r7, #16]
	.loc 2 956 63
	ldr	r3, .L75
	ldr	r3, [r3]
	ldr	r2, [r3, #20]
	.loc 2 956 93
	ldr	r3, [r7, #16]
	lsls	r3, r3, #4
	.loc 2 956 77
	add	r3, r3, r2
	.loc 2 956 19
	str	r3, [r7, #12]
	.loc 2 958 7
	ldr	r3, [r7]
	cmp	r3, #3
	bhi	.L72
	.loc 2 984 17
	ldr	r3, [r7, #12]
	ldr	r3, [r3]
	str	r3, [r7, #8]
	.loc 2 987 43
	ldr	r3, [r7]
	lsls	r3, r3, #3
	.loc 2 987 32
	ldr	r2, [r7, #8]
	lsr	r3, r2, r3
	.loc 2 987 21
	and	r3, r3, #31
	str	r3, [r7, #20]
	b	.L73
.L72:
	.loc 2 991 16
	ldr	r3, [r7]
	subs	r3, r3, #4
	str	r3, [r7]
	.loc 2 1017 17
	ldr	r3, [r7, #12]
	ldr	r3, [r3, #4]
	str	r3, [r7, #8]
	.loc 2 1020 43
	ldr	r3, [r7]
	lsls	r3, r3, #3
	.loc 2 1020 32
	ldr	r2, [r7, #8]
	lsr	r3, r2, r3
	.loc 2 1020 21
	and	r3, r3, #31
	str	r3, [r7, #20]
.L73:
	.loc 2 1023 12
	ldr	r3, [r7, #20]
	uxtb	r3, r3
	.loc 2 1024 1
	mov	r0, r3
	adds	r7, r7, #24
.LCFI43:
	.cfi_def_cfa_offset 8
	mov	sp, r7
.LCFI44:
	.cfi_def_cfa_register 13
	@ sp needed
	pop	{r7, pc}
.L76:
	.align	2
.L75:
	.word	cy_device
	.cfi_endproc
.LFE149:
	.size	Cy_GPIO_GetHSIOM, .-Cy_GPIO_GetHSIOM
	.section	.text.Cy_GPIO_Read,"ax",%progbits
	.align	1
	.global	Cy_GPIO_Read
	.syntax unified
	.thumb
	.thumb_func
	.type	Cy_GPIO_Read, %function
Cy_GPIO_Read:
.LFB150:
	.loc 2 1048 1
	.cfi_startproc
	@ args = 0, pretend = 0, frame = 16
	@ frame_needed = 1, uses_anonymous_args = 0
	push	{r7, lr}
.LCFI45:
	.cfi_def_cfa_offset 8
	.cfi_offset 7, -8
	.cfi_offset 14, -4
	sub	sp, sp, #16
.LCFI46:
	.cfi_def_cfa_offset 24
	add	r7, sp, #0
.LCFI47:
	.cfi_def_cfa_register 7
	str	r0, [r7, #4]
	str	r1, [r7]
	.loc 2 1054 12
	ldr	r3, [r7]
	cmp	r3, #8
	bls	.L78
	.loc 2 1054 39 discriminator 1
	bl	CY_HALT
.L78:
	.loc 2 1072 13
	ldr	r3, [r7, #4]
	ldr	r3, [r3, #16]
	str	r3, [r7, #12]
	.loc 2 1075 21
	ldr	r2, [r7, #12]
	ldr	r3, [r7]
	lsr	r3, r2, r3
	.loc 2 1075 34
	and	r3, r3, #1
	.loc 2 1076 1
	mov	r0, r3
	adds	r7, r7, #16
.LCFI48:
	.cfi_def_cfa_offset 8
	mov	sp, r7
.LCFI49:
	.cfi_def_cfa_register 13
	@ sp needed
	pop	{r7, pc}
	.cfi_endproc
.LFE150:
	.size	Cy_GPIO_Read, .-Cy_GPIO_Read
	.section	.text.Cy_GPIO_Write,"ax",%progbits
	.align	1
	.global	Cy_GPIO_Write
	.syntax unified
	.thumb
	.thumb_func
	.type	Cy_GPIO_Write, %function
Cy_GPIO_Write:
.LFB151:
	.loc 2 1102 1
	.cfi_startproc
	@ args = 0, pretend = 0, frame = 24
	@ frame_needed = 1, uses_anonymous_args = 0
	push	{r7, lr}
.LCFI50:
	.cfi_def_cfa_offset 8
	.cfi_offset 7, -8
	.cfi_offset 14, -4
	sub	sp, sp, #24
.LCFI51:
	.cfi_def_cfa_offset 32
	add	r7, sp, #0
.LCFI52:
	.cfi_def_cfa_register 7
	str	r0, [r7, #12]
	str	r1, [r7, #8]
	str	r2, [r7, #4]
	.loc 2 1109 12
	ldr	r3, [r7, #8]
	cmp	r3, #7
	bls	.L81
	.loc 2 1109 38 discriminator 1
	bl	CY_HALT
.L81:
	.loc 2 1110 12
	ldr	r3, [r7, #4]
	cmp	r3, #1
	bls	.L82
	.loc 2 1110 36 discriminator 1
	bl	CY_HALT
.L82:
	.loc 2 1112 13
	movs	r2, #1
	ldr	r3, [r7, #8]
	lsl	r3, r2, r3
	str	r3, [r7, #20]
	.loc 2 1149 7
	ldr	r3, [r7, #4]
	cmp	r3, #0
	bne	.L83
	.loc 2 1151 45
	ldr	r3, [r7, #12]
	ldr	r2, [r7, #20]
	str	r2, [r3, #4]
	.loc 2 1158 1
	b	.L85
.L83:
	.loc 2 1155 45
	ldr	r3, [r7, #12]
	ldr	r2, [r7, #20]
	str	r2, [r3, #8]
.L85:
	.loc 2 1158 1
	nop
	adds	r7, r7, #24
.LCFI53:
	.cfi_def_cfa_offset 8
	mov	sp, r7
.LCFI54:
	.cfi_def_cfa_register 13
	@ sp needed
	pop	{r7, pc}
	.cfi_endproc
.LFE151:
	.size	Cy_GPIO_Write, .-Cy_GPIO_Write
	.section	.text.Cy_GPIO_ReadOut,"ax",%progbits
	.align	1
	.global	Cy_GPIO_ReadOut
	.syntax unified
	.thumb
	.thumb_func
	.type	Cy_GPIO_ReadOut, %function
Cy_GPIO_ReadOut:
.LFB152:
	.loc 2 1181 1
	.cfi_startproc
	@ args = 0, pretend = 0, frame = 16
	@ frame_needed = 1, uses_anonymous_args = 0
	push	{r7, lr}
.LCFI55:
	.cfi_def_cfa_offset 8
	.cfi_offset 7, -8
	.cfi_offset 14, -4
	sub	sp, sp, #16
.LCFI56:
	.cfi_def_cfa_offset 24
	add	r7, sp, #0
.LCFI57:
	.cfi_def_cfa_register 7
	str	r0, [r7, #4]
	str	r1, [r7]
	.loc 2 1187 12
	ldr	r3, [r7]
	cmp	r3, #7
	bls	.L87
	.loc 2 1187 38 discriminator 1
	bl	CY_HALT
.L87:
	.loc 2 1205 13
	ldr	r3, [r7, #4]
	ldr	r3, [r3]
	str	r3, [r7, #12]
	.loc 2 1208 21
	ldr	r2, [r7, #12]
	ldr	r3, [r7]
	lsr	r3, r2, r3
	.loc 2 1208 32
	and	r3, r3, #1
	.loc 2 1209 1
	mov	r0, r3
	adds	r7, r7, #16
.LCFI58:
	.cfi_def_cfa_offset 8
	mov	sp, r7
.LCFI59:
	.cfi_def_cfa_register 13
	@ sp needed
	pop	{r7, pc}
	.cfi_endproc
.LFE152:
	.size	Cy_GPIO_ReadOut, .-Cy_GPIO_ReadOut
	.section	.text.Cy_GPIO_Set,"ax",%progbits
	.align	1
	.global	Cy_GPIO_Set
	.syntax unified
	.thumb
	.thumb_func
	.type	Cy_GPIO_Set, %function
Cy_GPIO_Set:
.LFB153:
	.loc 2 1232 1
	.cfi_startproc
	@ args = 0, pretend = 0, frame = 16
	@ frame_needed = 1, uses_anonymous_args = 0
	push	{r7, lr}
.LCFI60:
	.cfi_def_cfa_offset 8
	.cfi_offset 7, -8
	.cfi_offset 14, -4
	sub	sp, sp, #16
.LCFI61:
	.cfi_def_cfa_offset 24
	add	r7, sp, #0
.LCFI62:
	.cfi_def_cfa_register 7
	str	r0, [r7, #4]
	str	r1, [r7]
	.loc 2 1239 12
	ldr	r3, [r7]
	cmp	r3, #7
	bls	.L90
	.loc 2 1239 38 discriminator 1
	bl	CY_HALT
.L90:
	.loc 2 1241 13
	movs	r2, #1
	ldr	r3, [r7]
	lsl	r3, r2, r3
	str	r3, [r7, #12]
	.loc 2 1262 41
	ldr	r3, [r7, #4]
	ldr	r2, [r7, #12]
	str	r2, [r3, #8]
	.loc 2 1264 1
	nop
	adds	r7, r7, #16
.LCFI63:
	.cfi_def_cfa_offset 8
	mov	sp, r7
.LCFI64:
	.cfi_def_cfa_register 13
	@ sp needed
	pop	{r7, pc}
	.cfi_endproc
.LFE153:
	.size	Cy_GPIO_Set, .-Cy_GPIO_Set
	.section	.text.Cy_GPIO_Clr,"ax",%progbits
	.align	1
	.global	Cy_GPIO_Clr
	.syntax unified
	.thumb
	.thumb_func
	.type	Cy_GPIO_Clr, %function
Cy_GPIO_Clr:
.LFB154:
	.loc 2 1287 1
	.cfi_startproc
	@ args = 0, pretend = 0, frame = 16
	@ frame_needed = 1, uses_anonymous_args = 0
	push	{r7, lr}
.LCFI65:
	.cfi_def_cfa_offset 8
	.cfi_offset 7, -8
	.cfi_offset 14, -4
	sub	sp, sp, #16
.LCFI66:
	.cfi_def_cfa_offset 24
	add	r7, sp, #0
.LCFI67:
	.cfi_def_cfa_register 7
	str	r0, [r7, #4]
	str	r1, [r7]
	.loc 2 1294 12
	ldr	r3, [r7]
	cmp	r3, #7
	bls	.L92
	.loc 2 1294 38 discriminator 1
	bl	CY_HALT
.L92:
	.loc 2 1296 13
	movs	r2, #1
	ldr	r3, [r7]
	lsl	r3, r2, r3
	str	r3, [r7, #12]
	.loc 2 1317 41
	ldr	r3, [r7, #4]
	ldr	r2, [r7, #12]
	str	r2, [r3, #4]
	.loc 2 1319 1
	nop
	adds	r7, r7, #16
.LCFI68:
	.cfi_def_cfa_offset 8
	mov	sp, r7
.LCFI69:
	.cfi_def_cfa_register 13
	@ sp needed
	pop	{r7, pc}
	.cfi_endproc
.LFE154:
	.size	Cy_GPIO_Clr, .-Cy_GPIO_Clr
	.section	.text.Cy_GPIO_Inv,"ax",%progbits
	.align	1
	.global	Cy_GPIO_Inv
	.syntax unified
	.thumb
	.thumb_func
	.type	Cy_GPIO_Inv, %function
Cy_GPIO_Inv:
.LFB155:
	.loc 2 1343 1
	.cfi_startproc
	@ args = 0, pretend = 0, frame = 16
	@ frame_needed = 1, uses_anonymous_args = 0
	push	{r7, lr}
.LCFI70:
	.cfi_def_cfa_offset 8
	.cfi_offset 7, -8
	.cfi_offset 14, -4
	sub	sp, sp, #16
.LCFI71:
	.cfi_def_cfa_offset 24
	add	r7, sp, #0
.LCFI72:
	.cfi_def_cfa_register 7
	str	r0, [r7, #4]
	str	r1, [r7]
	.loc 2 1350 12
	ldr	r3, [r7]
	cmp	r3, #7
	bls	.L94
	.loc 2 1350 38 discriminator 1
	bl	CY_HALT
.L94:
	.loc 2 1352 13
	movs	r2, #1
	ldr	r3, [r7]
	lsl	r3, r2, r3
	str	r3, [r7, #12]
	.loc 2 1373 41
	ldr	r3, [r7, #4]
	ldr	r2, [r7, #12]
	str	r2, [r3, #12]
	.loc 2 1375 1
	nop
	adds	r7, r7, #16
.LCFI73:
	.cfi_def_cfa_offset 8
	mov	sp, r7
.LCFI74:
	.cfi_def_cfa_register 13
	@ sp needed
	pop	{r7, pc}
	.cfi_endproc
.LFE155:
	.size	Cy_GPIO_Inv, .-Cy_GPIO_Inv
	.section	.text.Cy_GPIO_SetDrivemode,"ax",%progbits
	.align	1
	.global	Cy_GPIO_SetDrivemode
	.syntax unified
	.thumb
	.thumb_func
	.type	Cy_GPIO_SetDrivemode, %function
Cy_GPIO_SetDrivemode:
.LFB156:
	.loc 2 1407 1
	.cfi_startproc
	@ args = 0, pretend = 0, frame = 32
	@ frame_needed = 1, uses_anonymous_args = 0
	push	{r7, lr}
.LCFI75:
	.cfi_def_cfa_offset 8
	.cfi_offset 7, -8
	.cfi_offset 14, -4
	sub	sp, sp, #32
.LCFI76:
	.cfi_def_cfa_offset 40
	add	r7, sp, #0
.LCFI77:
	.cfi_def_cfa_register 7
	str	r0, [r7, #12]
	str	r1, [r7, #8]
	str	r2, [r7, #4]
	.loc 2 1419 12
	ldr	r3, [r7, #8]
	cmp	r3, #7
	bls	.L96
	.loc 2 1419 38 discriminator 1
	bl	CY_HALT
.L96:
	.loc 2 1420 32
	ldr	r3, [r7, #4]
	bic	r3, r3, #15
	.loc 2 1420 12
	cmp	r3, #0
	bne	.L97
	.loc 2 1420 56 discriminator 2
	ldr	r3, [r7, #4]
	cmp	r3, #1
	beq	.L97
	.loc 2 1420 13 discriminator 4
	ldr	r3, [r7, #4]
	cmp	r3, #9
	bne	.L98
.L97:
	.loc 2 1420 111 discriminator 5
	bl	CY_HALT
.L98:
	.loc 2 1426 12
	ldr	r3, [r7, #8]
	lsls	r3, r3, #2
	str	r3, [r7, #28]
	.loc 2 1443 79
	ldr	r3, .L99
	ldr	r3, [r3]
	ldrb	r3, [r3, #129]	@ zero_extendqisi2
	.loc 2 1443 59
	mov	r2, r3
	.loc 2 1443 40
	ldr	r3, [r7, #12]
	.loc 2 1443 57
	add	r3, r3, r2
	.loc 2 1443 17
	ldr	r2, [r3]
	.loc 2 1443 114
	movs	r1, #15
	ldr	r3, [r7, #28]
	lsl	r3, r1, r3
	.loc 2 1443 103
	mvns	r3, r3
	.loc 2 1443 13
	ands	r3, r3, r2
	str	r3, [r7, #24]
	.loc 2 1459 32
	ldr	r3, [r7, #4]
	and	r2, r3, #15
	.loc 2 1459 44
	ldr	r3, [r7, #28]
	lsl	r3, r2, r3
	.loc 2 1459 12
	ldr	r2, [r7, #24]
	orrs	r3, r3, r2
	str	r3, [r7, #20]
	.loc 2 1479 68
	ldr	r3, .L99
	ldr	r3, [r3]
	ldrb	r3, [r3, #129]	@ zero_extendqisi2
	.loc 2 1479 48
	mov	r2, r3
	.loc 2 1479 29
	ldr	r3, [r7, #12]
	.loc 2 1479 46
	add	r3, r3, r2
	.loc 2 1479 7
	mov	r2, r3
	.loc 2 1479 90
	ldr	r3, [r7, #20]
	str	r3, [r2]
	.loc 2 1484 1
	nop
	adds	r7, r7, #32
.LCFI78:
	.cfi_def_cfa_offset 8
	mov	sp, r7
.LCFI79:
	.cfi_def_cfa_register 13
	@ sp needed
	pop	{r7, pc}
.L100:
	.align	2
.L99:
	.word	cy_device
	.cfi_endproc
.LFE156:
	.size	Cy_GPIO_SetDrivemode, .-Cy_GPIO_SetDrivemode
	.section	.text.Cy_GPIO_GetDrivemode,"ax",%progbits
	.align	1
	.global	Cy_GPIO_GetDrivemode
	.syntax unified
	.thumb
	.thumb_func
	.type	Cy_GPIO_GetDrivemode, %function
Cy_GPIO_GetDrivemode:
.LFB157:
	.loc 2 1507 1
	.cfi_startproc
	@ args = 0, pretend = 0, frame = 16
	@ frame_needed = 1, uses_anonymous_args = 0
	push	{r7, lr}
.LCFI80:
	.cfi_def_cfa_offset 8
	.cfi_offset 7, -8
	.cfi_offset 14, -4
	sub	sp, sp, #16
.LCFI81:
	.cfi_def_cfa_offset 24
	add	r7, sp, #0
.LCFI82:
	.cfi_def_cfa_register 7
	str	r0, [r7, #4]
	str	r1, [r7]
	.loc 2 1513 12
	ldr	r3, [r7]
	cmp	r3, #7
	bls	.L102
	.loc 2 1513 38 discriminator 1
	bl	CY_HALT
.L102:
	.loc 2 1531 78
	ldr	r3, .L104
	ldr	r3, [r3]
	ldrb	r3, [r3, #129]	@ zero_extendqisi2
	.loc 2 1531 58
	mov	r2, r3
	.loc 2 1531 39
	ldr	r3, [r7, #4]
	.loc 2 1531 56
	add	r3, r3, r2
	.loc 2 1531 13
	ldr	r3, [r3]
	str	r3, [r7, #12]
	.loc 2 1543 31
	ldr	r3, [r7]
	lsls	r3, r3, #2
	.loc 2 1543 20
	ldr	r2, [r7, #12]
	lsr	r3, r2, r3
	.loc 2 1543 9
	and	r3, r3, #15
	str	r3, [r7, #8]
	.loc 2 1544 12
	ldr	r3, [r7, #8]
	.loc 2 1545 1
	mov	r0, r3
	adds	r7, r7, #16
.LCFI83:
	.cfi_def_cfa_offset 8
	mov	sp, r7
.LCFI84:
	.cfi_def_cfa_register 13
	@ sp needed
	pop	{r7, pc}
.L105:
	.align	2
.L104:
	.word	cy_device
	.cfi_endproc
.LFE157:
	.size	Cy_GPIO_GetDrivemode, .-Cy_GPIO_GetDrivemode
	.section	.text.Cy_GPIO_SetVtrip,"ax",%progbits
	.align	1
	.global	Cy_GPIO_SetVtrip
	.syntax unified
	.thumb
	.thumb_func
	.type	Cy_GPIO_SetVtrip, %function
Cy_GPIO_SetVtrip:
.LFB158:
	.loc 2 1572 1
	.cfi_startproc
	@ args = 0, pretend = 0, frame = 24
	@ frame_needed = 1, uses_anonymous_args = 0
	push	{r7, lr}
.LCFI85:
	.cfi_def_cfa_offset 8
	.cfi_offset 7, -8
	.cfi_offset 14, -4
	sub	sp, sp, #24
.LCFI86:
	.cfi_def_cfa_offset 32
	add	r7, sp, #0
.LCFI87:
	.cfi_def_cfa_register 7
	str	r0, [r7, #12]
	str	r1, [r7, #8]
	str	r2, [r7, #4]
	.loc 2 1580 12
	ldr	r3, [r7, #8]
	cmp	r3, #7
	bls	.L107
	.loc 2 1580 38 discriminator 1
	bl	CY_HALT
.L107:
	.loc 2 1581 12
	ldr	r3, [r7, #4]
	cmp	r3, #1
	bls	.L108
	.loc 2 1581 36 discriminator 1
	bl	CY_HALT
.L108:
	.loc 2 1604 78
	ldr	r3, .L109
	ldr	r3, [r3]
	ldrb	r3, [r3, #130]	@ zero_extendqisi2
	.loc 2 1604 58
	mov	r2, r3
	.loc 2 1604 39
	ldr	r3, [r7, #12]
	.loc 2 1604 56
	add	r3, r3, r2
	.loc 2 1604 16
	ldr	r2, [r3]
	.loc 2 1604 115
	movs	r1, #1
	ldr	r3, [r7, #8]
	lsl	r3, r1, r3
	.loc 2 1604 104
	mvns	r3, r3
	.loc 2 1604 13
	ands	r3, r3, r2
	str	r3, [r7, #20]
	.loc 2 1607 31
	ldr	r3, [r7, #4]
	and	r2, r3, #1
	.loc 2 1607 43
	ldr	r3, [r7, #8]
	lsl	r3, r2, r3
	.loc 2 1607 11
	ldr	r2, [r7, #20]
	orrs	r3, r3, r2
	str	r3, [r7, #16]
	.loc 2 1626 68
	ldr	r3, .L109
	ldr	r3, [r3]
	ldrb	r3, [r3, #130]	@ zero_extendqisi2
	.loc 2 1626 48
	mov	r2, r3
	.loc 2 1626 29
	ldr	r3, [r7, #12]
	.loc 2 1626 46
	add	r3, r3, r2
	.loc 2 1626 7
	mov	r2, r3
	.loc 2 1626 92
	ldr	r3, [r7, #16]
	str	r3, [r2]
	.loc 2 1628 1
	nop
	adds	r7, r7, #24
.LCFI88:
	.cfi_def_cfa_offset 8
	mov	sp, r7
.LCFI89:
	.cfi_def_cfa_register 13
	@ sp needed
	pop	{r7, pc}
.L110:
	.align	2
.L109:
	.word	cy_device
	.cfi_endproc
.LFE158:
	.size	Cy_GPIO_SetVtrip, .-Cy_GPIO_SetVtrip
	.section	.text.Cy_GPIO_GetVtrip,"ax",%progbits
	.align	1
	.global	Cy_GPIO_GetVtrip
	.syntax unified
	.thumb
	.thumb_func
	.type	Cy_GPIO_GetVtrip, %function
Cy_GPIO_GetVtrip:
.LFB159:
	.loc 2 1651 1
	.cfi_startproc
	@ args = 0, pretend = 0, frame = 16
	@ frame_needed = 1, uses_anonymous_args = 0
	push	{r7, lr}
.LCFI90:
	.cfi_def_cfa_offset 8
	.cfi_offset 7, -8
	.cfi_offset 14, -4
	sub	sp, sp, #16
.LCFI91:
	.cfi_def_cfa_offset 24
	add	r7, sp, #0
.LCFI92:
	.cfi_def_cfa_register 7
	str	r0, [r7, #4]
	str	r1, [r7]
	.loc 2 1657 12
	ldr	r3, [r7]
	cmp	r3, #7
	bls	.L112
	.loc 2 1657 38 discriminator 1
	bl	CY_HALT
.L112:
	.loc 2 1675 78
	ldr	r3, .L114
	ldr	r3, [r3]
	ldrb	r3, [r3, #130]	@ zero_extendqisi2
	.loc 2 1675 58
	mov	r2, r3
	.loc 2 1675 39
	ldr	r3, [r7, #4]
	.loc 2 1675 56
	add	r3, r3, r2
	.loc 2 1675 13
	ldr	r3, [r3]
	str	r3, [r7, #12]
	.loc 2 1678 21
	ldr	r2, [r7, #12]
	ldr	r3, [r7]
	lsr	r3, r2, r3
	.loc 2 1678 32
	and	r3, r3, #1
	.loc 2 1679 1
	mov	r0, r3
	adds	r7, r7, #16
.LCFI93:
	.cfi_def_cfa_offset 8
	mov	sp, r7
.LCFI94:
	.cfi_def_cfa_register 13
	@ sp needed
	pop	{r7, pc}
.L115:
	.align	2
.L114:
	.word	cy_device
	.cfi_endproc
.LFE159:
	.size	Cy_GPIO_GetVtrip, .-Cy_GPIO_GetVtrip
	.section	.text.Cy_GPIO_SetSlewRate,"ax",%progbits
	.align	1
	.global	Cy_GPIO_SetSlewRate
	.syntax unified
	.thumb
	.thumb_func
	.type	Cy_GPIO_SetSlewRate, %function
Cy_GPIO_SetSlewRate:
.LFB160:
	.loc 2 1783 1
	.cfi_startproc
	@ args = 0, pretend = 0, frame = 24
	@ frame_needed = 1, uses_anonymous_args = 0
	push	{r7, lr}
.LCFI95:
	.cfi_def_cfa_offset 8
	.cfi_offset 7, -8
	.cfi_offset 14, -4
	sub	sp, sp, #24
.LCFI96:
	.cfi_def_cfa_offset 32
	add	r7, sp, #0
.LCFI97:
	.cfi_def_cfa_register 7
	str	r0, [r7, #12]
	str	r1, [r7, #8]
	str	r2, [r7, #4]
	.loc 2 1795 12
	ldr	r3, [r7, #8]
	cmp	r3, #7
	bls	.L117
	.loc 2 1795 38 discriminator 1
	bl	CY_HALT
.L117:
	.loc 2 1796 12
	ldr	r3, [r7, #4]
	cmp	r3, #1
	bls	.L118
	.loc 2 1796 36 discriminator 1
	bl	CY_HALT
.L118:
	.loc 2 1824 78
	ldr	r3, .L119
	ldr	r3, [r3]
	ldrb	r3, [r3, #131]	@ zero_extendqisi2
	.loc 2 1824 58
	mov	r2, r3
	.loc 2 1824 39
	ldr	r3, [r7, #12]
	.loc 2 1824 56
	add	r3, r3, r2
	.loc 2 1824 16
	ldr	r2, [r3]
	.loc 2 1824 116
	movs	r1, #1
	ldr	r3, [r7, #8]
	lsl	r3, r1, r3
	.loc 2 1824 105
	mvns	r3, r3
	.loc 2 1824 13
	ands	r3, r3, r2
	str	r3, [r7, #20]
	.loc 2 1826 32
	ldr	r3, [r7, #4]
	and	r2, r3, #1
	.loc 2 1826 44
	ldr	r3, [r7, #8]
	lsl	r3, r2, r3
	.loc 2 1826 12
	ldr	r2, [r7, #20]
	orrs	r3, r3, r2
	str	r3, [r7, #16]
	.loc 2 1845 68
	ldr	r3, .L119
	ldr	r3, [r3]
	ldrb	r3, [r3, #131]	@ zero_extendqisi2
	.loc 2 1845 48
	mov	r2, r3
	.loc 2 1845 29
	ldr	r3, [r7, #12]
	.loc 2 1845 46
	add	r3, r3, r2
	.loc 2 1845 7
	mov	r2, r3
	.loc 2 1845 93
	ldr	r3, [r7, #16]
	str	r3, [r2]
	.loc 2 1848 1
	nop
	adds	r7, r7, #24
.LCFI98:
	.cfi_def_cfa_offset 8
	mov	sp, r7
.LCFI99:
	.cfi_def_cfa_register 13
	@ sp needed
	pop	{r7, pc}
.L120:
	.align	2
.L119:
	.word	cy_device
	.cfi_endproc
.LFE160:
	.size	Cy_GPIO_SetSlewRate, .-Cy_GPIO_SetSlewRate
	.section	.text.Cy_GPIO_GetSlewRate,"ax",%progbits
	.align	1
	.global	Cy_GPIO_GetSlewRate
	.syntax unified
	.thumb
	.thumb_func
	.type	Cy_GPIO_GetSlewRate, %function
Cy_GPIO_GetSlewRate:
.LFB161:
	.loc 2 1871 1
	.cfi_startproc
	@ args = 0, pretend = 0, frame = 16
	@ frame_needed = 1, uses_anonymous_args = 0
	push	{r7, lr}
.LCFI100:
	.cfi_def_cfa_offset 8
	.cfi_offset 7, -8
	.cfi_offset 14, -4
	sub	sp, sp, #16
.LCFI101:
	.cfi_def_cfa_offset 24
	add	r7, sp, #0
.LCFI102:
	.cfi_def_cfa_register 7
	str	r0, [r7, #4]
	str	r1, [r7]
	.loc 2 1879 12
	ldr	r3, [r7]
	cmp	r3, #7
	bls	.L122
	.loc 2 1879 38 discriminator 1
	bl	CY_HALT
.L122:
	.loc 2 1899 78
	ldr	r3, .L124
	ldr	r3, [r3]
	ldrb	r3, [r3, #131]	@ zero_extendqisi2
	.loc 2 1899 58
	mov	r2, r3
	.loc 2 1899 39
	ldr	r3, [r7, #4]
	.loc 2 1899 56
	add	r3, r3, r2
	.loc 2 1899 13
	ldr	r3, [r3]
	str	r3, [r7, #12]
	.loc 2 1902 21
	ldr	r2, [r7, #12]
	ldr	r3, [r7]
	lsr	r3, r2, r3
	.loc 2 1902 32
	and	r3, r3, #1
	.loc 2 1906 1
	mov	r0, r3
	adds	r7, r7, #16
.LCFI103:
	.cfi_def_cfa_offset 8
	mov	sp, r7
.LCFI104:
	.cfi_def_cfa_register 13
	@ sp needed
	pop	{r7, pc}
.L125:
	.align	2
.L124:
	.word	cy_device
	.cfi_endproc
.LFE161:
	.size	Cy_GPIO_GetSlewRate, .-Cy_GPIO_GetSlewRate
	.section	.text.Cy_GPIO_SetDriveSel,"ax",%progbits
	.align	1
	.global	Cy_GPIO_SetDriveSel
	.syntax unified
	.thumb
	.thumb_func
	.type	Cy_GPIO_SetDriveSel, %function
Cy_GPIO_SetDriveSel:
.LFB162:
	.loc 2 1938 1
	.cfi_startproc
	@ args = 0, pretend = 0, frame = 32
	@ frame_needed = 1, uses_anonymous_args = 0
	push	{r7, lr}
.LCFI105:
	.cfi_def_cfa_offset 8
	.cfi_offset 7, -8
	.cfi_offset 14, -4
	sub	sp, sp, #32
.LCFI106:
	.cfi_def_cfa_offset 40
	add	r7, sp, #0
.LCFI107:
	.cfi_def_cfa_register 7
	str	r0, [r7, #12]
	str	r1, [r7, #8]
	str	r2, [r7, #4]
	.loc 2 1949 12
	ldr	r3, [r7, #8]
	cmp	r3, #7
	bls	.L127
	.loc 2 1949 38 discriminator 1
	bl	CY_HALT
.L127:
	.loc 2 1950 12
	ldr	r3, [r7, #4]
	cmp	r3, #0
	beq	.L128
	.loc 2 1950 38 discriminator 1
	ldr	r3, [r7, #4]
	cmp	r3, #1
	beq	.L128
	.loc 2 1950 63 discriminator 2
	ldr	r3, [r7, #4]
	cmp	r3, #2
	beq	.L128
	.loc 2 1950 13 discriminator 3
	ldr	r3, [r7, #4]
	cmp	r3, #3
	beq	.L128
	.loc 2 1950 118 discriminator 4
	bl	CY_HALT
.L128:
	.loc 2 1953 32
	ldr	r3, [r7, #8]
	lsls	r3, r3, #1
	.loc 2 1953 12
	adds	r3, r3, #16
	str	r3, [r7, #28]
	.loc 2 1974 78
	ldr	r3, .L129
	ldr	r3, [r3]
	ldrb	r3, [r3, #131]	@ zero_extendqisi2
	.loc 2 1974 58
	mov	r2, r3
	.loc 2 1974 39
	ldr	r3, [r7, #12]
	.loc 2 1974 56
	add	r3, r3, r2
	.loc 2 1974 16
	ldr	r2, [r3]
	.loc 2 1974 116
	movs	r1, #3
	ldr	r3, [r7, #28]
	lsl	r3, r1, r3
	.loc 2 1974 105
	mvns	r3, r3
	.loc 2 1974 13
	ands	r3, r3, r2
	str	r3, [r7, #24]
	.loc 2 1976 32
	ldr	r3, [r7, #4]
	and	r2, r3, #3
	.loc 2 1976 44
	ldr	r3, [r7, #28]
	lsl	r3, r2, r3
	.loc 2 1976 12
	ldr	r2, [r7, #24]
	orrs	r3, r3, r2
	str	r3, [r7, #20]
	.loc 2 1995 68
	ldr	r3, .L129
	ldr	r3, [r3]
	ldrb	r3, [r3, #131]	@ zero_extendqisi2
	.loc 2 1995 48
	mov	r2, r3
	.loc 2 1995 29
	ldr	r3, [r7, #12]
	.loc 2 1995 46
	add	r3, r3, r2
	.loc 2 1995 7
	mov	r2, r3
	.loc 2 1995 93
	ldr	r3, [r7, #20]
	str	r3, [r2]
	.loc 2 2010 1
	nop
	adds	r7, r7, #32
.LCFI108:
	.cfi_def_cfa_offset 8
	mov	sp, r7
.LCFI109:
	.cfi_def_cfa_register 13
	@ sp needed
	pop	{r7, pc}
.L130:
	.align	2
.L129:
	.word	cy_device
	.cfi_endproc
.LFE162:
	.size	Cy_GPIO_SetDriveSel, .-Cy_GPIO_SetDriveSel
	.section	.text.Cy_GPIO_GetDriveSel,"ax",%progbits
	.align	1
	.global	Cy_GPIO_GetDriveSel
	.syntax unified
	.thumb
	.thumb_func
	.type	Cy_GPIO_GetDriveSel, %function
Cy_GPIO_GetDriveSel:
.LFB163:
	.loc 2 2033 1
	.cfi_startproc
	@ args = 0, pretend = 0, frame = 16
	@ frame_needed = 1, uses_anonymous_args = 0
	push	{r7, lr}
.LCFI110:
	.cfi_def_cfa_offset 8
	.cfi_offset 7, -8
	.cfi_offset 14, -4
	sub	sp, sp, #16
.LCFI111:
	.cfi_def_cfa_offset 24
	add	r7, sp, #0
.LCFI112:
	.cfi_def_cfa_register 7
	str	r0, [r7, #4]
	str	r1, [r7]
	.loc 2 2041 12
	ldr	r3, [r7]
	cmp	r3, #7
	bls	.L132
	.loc 2 2041 38 discriminator 1
	bl	CY_HALT
.L132:
	.loc 2 2060 78
	ldr	r3, .L134
	ldr	r3, [r3]
	ldrb	r3, [r3, #131]	@ zero_extendqisi2
	.loc 2 2060 58
	mov	r2, r3
	.loc 2 2060 39
	ldr	r3, [r7, #4]
	.loc 2 2060 56
	add	r3, r3, r2
	.loc 2 2060 13
	ldr	r3, [r3]
	str	r3, [r7, #12]
	.loc 2 2063 44
	ldr	r3, [r7]
	lsls	r3, r3, #1
	.loc 2 2063 51
	adds	r3, r3, #16
	.loc 2 2063 22
	ldr	r2, [r7, #12]
	lsr	r3, r2, r3
	.loc 2 2064 13
	and	r3, r3, #3
	.loc 2 2078 1
	mov	r0, r3
	adds	r7, r7, #16
.LCFI113:
	.cfi_def_cfa_offset 8
	mov	sp, r7
.LCFI114:
	.cfi_def_cfa_register 13
	@ sp needed
	pop	{r7, pc}
.L135:
	.align	2
.L134:
	.word	cy_device
	.cfi_endproc
.LFE163:
	.size	Cy_GPIO_GetDriveSel, .-Cy_GPIO_GetDriveSel
	.section	.text.Cy_GPIO_SetVregEn,"ax",%progbits
	.align	1
	.global	Cy_GPIO_SetVregEn
	.syntax unified
	.thumb
	.thumb_func
	.type	Cy_GPIO_SetVregEn, %function
Cy_GPIO_SetVregEn:
.LFB164:
	.loc 2 2107 1
	.cfi_startproc
	@ args = 0, pretend = 0, frame = 32
	@ frame_needed = 1, uses_anonymous_args = 0
	push	{r7, lr}
.LCFI115:
	.cfi_def_cfa_offset 8
	.cfi_offset 7, -8
	.cfi_offset 14, -4
	sub	sp, sp, #32
.LCFI116:
	.cfi_def_cfa_offset 40
	add	r7, sp, #0
.LCFI117:
	.cfi_def_cfa_register 7
	str	r0, [r7, #12]
	str	r1, [r7, #8]
	str	r2, [r7, #4]
	.loc 2 2117 12
	ldr	r3, [r7, #8]
	cmp	r3, #7
	bls	.L137
	.loc 2 2117 38 discriminator 1
	bl	CY_HALT
.L137:
	.loc 2 2118 12
	ldr	r3, [r7, #4]
	cmp	r3, #1
	bls	.L138
	.loc 2 2118 36 discriminator 1
	bl	CY_HALT
.L138:
	.loc 2 2120 36
	ldr	r3, [r7, #8]
	lsls	r3, r3, #2
	.loc 2 2120 12
	and	r3, r3, #1016
	str	r3, [r7, #28]
	.loc 2 2141 78
	ldr	r3, .L139
	ldr	r3, [r3]
	ldrb	r3, [r3, #132]	@ zero_extendqisi2
	.loc 2 2141 58
	mov	r2, r3
	.loc 2 2141 39
	ldr	r3, [r7, #12]
	.loc 2 2141 56
	add	r3, r3, r2
	.loc 2 2141 16
	ldr	r2, [r3]
	.loc 2 2141 116
	movs	r1, #1
	ldr	r3, [r7, #28]
	lsl	r3, r1, r3
	.loc 2 2141 105
	mvns	r3, r3
	.loc 2 2141 13
	ands	r3, r3, r2
	str	r3, [r7, #24]
	.loc 2 2143 32
	ldr	r3, [r7, #4]
	and	r2, r3, #1
	.loc 2 2143 44
	ldr	r3, [r7, #28]
	lsl	r3, r2, r3
	.loc 2 2143 12
	ldr	r2, [r7, #24]
	orrs	r3, r3, r2
	str	r3, [r7, #20]
	.loc 2 2162 68
	ldr	r3, .L139
	ldr	r3, [r3]
	ldrb	r3, [r3, #132]	@ zero_extendqisi2
	.loc 2 2162 48
	mov	r2, r3
	.loc 2 2162 29
	ldr	r3, [r7, #12]
	.loc 2 2162 46
	add	r3, r3, r2
	.loc 2 2162 7
	mov	r2, r3
	.loc 2 2162 93
	ldr	r3, [r7, #20]
	str	r3, [r2]
	.loc 2 2171 1
	nop
	adds	r7, r7, #32
.LCFI118:
	.cfi_def_cfa_offset 8
	mov	sp, r7
.LCFI119:
	.cfi_def_cfa_register 13
	@ sp needed
	pop	{r7, pc}
.L140:
	.align	2
.L139:
	.word	cy_device
	.cfi_endproc
.LFE164:
	.size	Cy_GPIO_SetVregEn, .-Cy_GPIO_SetVregEn
	.section	.text.Cy_GPIO_GetVregEn,"ax",%progbits
	.align	1
	.global	Cy_GPIO_GetVregEn
	.syntax unified
	.thumb
	.thumb_func
	.type	Cy_GPIO_GetVregEn, %function
Cy_GPIO_GetVregEn:
.LFB165:
	.loc 2 2196 1
	.cfi_startproc
	@ args = 0, pretend = 0, frame = 16
	@ frame_needed = 1, uses_anonymous_args = 0
	push	{r7, lr}
.LCFI120:
	.cfi_def_cfa_offset 8
	.cfi_offset 7, -8
	.cfi_offset 14, -4
	sub	sp, sp, #16
.LCFI121:
	.cfi_def_cfa_offset 24
	add	r7, sp, #0
.LCFI122:
	.cfi_def_cfa_register 7
	str	r0, [r7, #4]
	str	r1, [r7]
	.loc 2 2199 12
	ldr	r3, [r7]
	cmp	r3, #7
	bls	.L142
	.loc 2 2199 38 discriminator 1
	bl	CY_HALT
.L142:
	.loc 2 2216 78
	ldr	r3, .L144
	ldr	r3, [r3]
	ldrb	r3, [r3, #132]	@ zero_extendqisi2
	.loc 2 2216 58
	mov	r2, r3
	.loc 2 2216 39
	ldr	r3, [r7, #4]
	.loc 2 2216 56
	add	r3, r3, r2
	.loc 2 2216 13
	ldr	r3, [r3]
	str	r3, [r7, #12]
	.loc 2 2220 47
	ldr	r3, [r7]
	lsls	r3, r3, #2
	and	r3, r3, #1016
	.loc 2 2220 21
	ldr	r2, [r7, #12]
	lsr	r3, r2, r3
	.loc 2 2220 58
	and	r3, r3, #1
	.loc 2 2229 1
	mov	r0, r3
	adds	r7, r7, #16
.LCFI123:
	.cfi_def_cfa_offset 8
	mov	sp, r7
.LCFI124:
	.cfi_def_cfa_register 13
	@ sp needed
	pop	{r7, pc}
.L145:
	.align	2
.L144:
	.word	cy_device
	.cfi_endproc
.LFE165:
	.size	Cy_GPIO_GetVregEn, .-Cy_GPIO_GetVregEn
	.section	.text.Cy_GPIO_SetIbufMode,"ax",%progbits
	.align	1
	.global	Cy_GPIO_SetIbufMode
	.syntax unified
	.thumb
	.thumb_func
	.type	Cy_GPIO_SetIbufMode, %function
Cy_GPIO_SetIbufMode:
.LFB166:
	.loc 2 2258 1
	.cfi_startproc
	@ args = 0, pretend = 0, frame = 32
	@ frame_needed = 1, uses_anonymous_args = 0
	push	{r7, lr}
.LCFI125:
	.cfi_def_cfa_offset 8
	.cfi_offset 7, -8
	.cfi_offset 14, -4
	sub	sp, sp, #32
.LCFI126:
	.cfi_def_cfa_offset 40
	add	r7, sp, #0
.LCFI127:
	.cfi_def_cfa_register 7
	str	r0, [r7, #12]
	str	r1, [r7, #8]
	str	r2, [r7, #4]
	.loc 2 2268 12
	ldr	r3, [r7, #8]
	cmp	r3, #7
	bls	.L147
	.loc 2 2268 38 discriminator 1
	bl	CY_HALT
.L147:
	.loc 2 2269 12
	ldr	r3, [r7, #4]
	cmp	r3, #1
	bls	.L148
	.loc 2 2269 36 discriminator 1
	bl	CY_HALT
.L148:
	.loc 2 2271 37
	ldr	r3, [r7, #8]
	lsls	r3, r3, #2
	and	r3, r3, #1016
	.loc 2 2271 12
	adds	r3, r3, #1
	str	r3, [r7, #28]
	.loc 2 2292 79
	ldr	r3, .L149
	ldr	r3, [r3]
	ldrb	r3, [r3, #132]	@ zero_extendqisi2
	.loc 2 2292 59
	mov	r2, r3
	.loc 2 2292 40
	ldr	r3, [r7, #12]
	.loc 2 2292 57
	add	r3, r3, r2
	.loc 2 2292 17
	ldr	r2, [r3]
	.loc 2 2292 117
	movs	r1, #1
	ldr	r3, [r7, #28]
	lsl	r3, r1, r3
	.loc 2 2292 106
	mvns	r3, r3
	.loc 2 2292 13
	ands	r3, r3, r2
	str	r3, [r7, #24]
	.loc 2 2295 32
	ldr	r3, [r7, #4]
	and	r2, r3, #1
	.loc 2 2295 44
	ldr	r3, [r7, #28]
	lsl	r3, r2, r3
	.loc 2 2295 12
	ldr	r2, [r7, #24]
	orrs	r3, r3, r2
	str	r3, [r7, #20]
	.loc 2 2314 68
	ldr	r3, .L149
	ldr	r3, [r3]
	ldrb	r3, [r3, #132]	@ zero_extendqisi2
	.loc 2 2314 48
	mov	r2, r3
	.loc 2 2314 29
	ldr	r3, [r7, #12]
	.loc 2 2314 46
	add	r3, r3, r2
	.loc 2 2314 7
	mov	r2, r3
	.loc 2 2314 93
	ldr	r3, [r7, #20]
	str	r3, [r2]
	.loc 2 2323 1
	nop
	adds	r7, r7, #32
.LCFI128:
	.cfi_def_cfa_offset 8
	mov	sp, r7
.LCFI129:
	.cfi_def_cfa_register 13
	@ sp needed
	pop	{r7, pc}
.L150:
	.align	2
.L149:
	.word	cy_device
	.cfi_endproc
.LFE166:
	.size	Cy_GPIO_SetIbufMode, .-Cy_GPIO_SetIbufMode
	.section	.text.Cy_GPIO_GetIbufMode,"ax",%progbits
	.align	1
	.global	Cy_GPIO_GetIbufMode
	.syntax unified
	.thumb
	.thumb_func
	.type	Cy_GPIO_GetIbufMode, %function
Cy_GPIO_GetIbufMode:
.LFB167:
	.loc 2 2348 1
	.cfi_startproc
	@ args = 0, pretend = 0, frame = 16
	@ frame_needed = 1, uses_anonymous_args = 0
	push	{r7, lr}
.LCFI130:
	.cfi_def_cfa_offset 8
	.cfi_offset 7, -8
	.cfi_offset 14, -4
	sub	sp, sp, #16
.LCFI131:
	.cfi_def_cfa_offset 24
	add	r7, sp, #0
.LCFI132:
	.cfi_def_cfa_register 7
	str	r0, [r7, #4]
	str	r1, [r7]
	.loc 2 2352 12
	ldr	r3, [r7]
	cmp	r3, #7
	bls	.L152
	.loc 2 2352 38 discriminator 1
	bl	CY_HALT
.L152:
	.loc 2 2370 78
	ldr	r3, .L154
	ldr	r3, [r3]
	ldrb	r3, [r3, #132]	@ zero_extendqisi2
	.loc 2 2370 58
	mov	r2, r3
	.loc 2 2370 39
	ldr	r3, [r7, #4]
	.loc 2 2370 56
	add	r3, r3, r2
	.loc 2 2370 13
	ldr	r3, [r3]
	str	r3, [r7, #12]
	.loc 2 2373 48
	ldr	r3, [r7]
	lsls	r3, r3, #2
	and	r3, r3, #1016
	.loc 2 2373 58
	adds	r3, r3, #1
	.loc 2 2373 21
	ldr	r2, [r7, #12]
	lsr	r3, r2, r3
	.loc 2 2373 71
	and	r3, r3, #1
	.loc 2 2382 1
	mov	r0, r3
	adds	r7, r7, #16
.LCFI133:
	.cfi_def_cfa_offset 8
	mov	sp, r7
.LCFI134:
	.cfi_def_cfa_register 13
	@ sp needed
	pop	{r7, pc}
.L155:
	.align	2
.L154:
	.word	cy_device
	.cfi_endproc
.LFE167:
	.size	Cy_GPIO_GetIbufMode, .-Cy_GPIO_GetIbufMode
	.section	.text.Cy_GPIO_SetVtripSel,"ax",%progbits
	.align	1
	.global	Cy_GPIO_SetVtripSel
	.syntax unified
	.thumb
	.thumb_func
	.type	Cy_GPIO_SetVtripSel, %function
Cy_GPIO_SetVtripSel:
.LFB168:
	.loc 2 2411 1
	.cfi_startproc
	@ args = 0, pretend = 0, frame = 32
	@ frame_needed = 1, uses_anonymous_args = 0
	push	{r7, lr}
.LCFI135:
	.cfi_def_cfa_offset 8
	.cfi_offset 7, -8
	.cfi_offset 14, -4
	sub	sp, sp, #32
.LCFI136:
	.cfi_def_cfa_offset 40
	add	r7, sp, #0
.LCFI137:
	.cfi_def_cfa_register 7
	str	r0, [r7, #12]
	str	r1, [r7, #8]
	str	r2, [r7, #4]
	.loc 2 2421 12
	ldr	r3, [r7, #8]
	cmp	r3, #7
	bls	.L157
	.loc 2 2421 38 discriminator 1
	bl	CY_HALT
.L157:
	.loc 2 2422 12
	ldr	r3, [r7, #4]
	cmp	r3, #1
	bls	.L158
	.loc 2 2422 36 discriminator 1
	bl	CY_HALT
.L158:
	.loc 2 2424 37
	ldr	r3, [r7, #8]
	lsls	r3, r3, #2
	and	r3, r3, #1016
	.loc 2 2424 12
	adds	r3, r3, #2
	str	r3, [r7, #28]
	.loc 2 2445 79
	ldr	r3, .L159
	ldr	r3, [r3]
	ldrb	r3, [r3, #132]	@ zero_extendqisi2
	.loc 2 2445 59
	mov	r2, r3
	.loc 2 2445 40
	ldr	r3, [r7, #12]
	.loc 2 2445 57
	add	r3, r3, r2
	.loc 2 2445 17
	ldr	r2, [r3]
	.loc 2 2445 117
	movs	r1, #1
	ldr	r3, [r7, #28]
	lsl	r3, r1, r3
	.loc 2 2445 106
	mvns	r3, r3
	.loc 2 2445 13
	ands	r3, r3, r2
	str	r3, [r7, #24]
	.loc 2 2448 32
	ldr	r3, [r7, #4]
	and	r2, r3, #1
	.loc 2 2448 44
	ldr	r3, [r7, #28]
	lsl	r3, r2, r3
	.loc 2 2448 12
	ldr	r2, [r7, #24]
	orrs	r3, r3, r2
	str	r3, [r7, #20]
	.loc 2 2467 68
	ldr	r3, .L159
	ldr	r3, [r3]
	ldrb	r3, [r3, #132]	@ zero_extendqisi2
	.loc 2 2467 48
	mov	r2, r3
	.loc 2 2467 29
	ldr	r3, [r7, #12]
	.loc 2 2467 46
	add	r3, r3, r2
	.loc 2 2467 7
	mov	r2, r3
	.loc 2 2467 93
	ldr	r3, [r7, #20]
	str	r3, [r2]
	.loc 2 2476 1
	nop
	adds	r7, r7, #32
.LCFI138:
	.cfi_def_cfa_offset 8
	mov	sp, r7
.LCFI139:
	.cfi_def_cfa_register 13
	@ sp needed
	pop	{r7, pc}
.L160:
	.align	2
.L159:
	.word	cy_device
	.cfi_endproc
.LFE168:
	.size	Cy_GPIO_SetVtripSel, .-Cy_GPIO_SetVtripSel
	.section	.text.Cy_GPIO_GetVtripSel,"ax",%progbits
	.align	1
	.global	Cy_GPIO_GetVtripSel
	.syntax unified
	.thumb
	.thumb_func
	.type	Cy_GPIO_GetVtripSel, %function
Cy_GPIO_GetVtripSel:
.LFB169:
	.loc 2 2501 1
	.cfi_startproc
	@ args = 0, pretend = 0, frame = 16
	@ frame_needed = 1, uses_anonymous_args = 0
	push	{r7, lr}
.LCFI140:
	.cfi_def_cfa_offset 8
	.cfi_offset 7, -8
	.cfi_offset 14, -4
	sub	sp, sp, #16
.LCFI141:
	.cfi_def_cfa_offset 24
	add	r7, sp, #0
.LCFI142:
	.cfi_def_cfa_register 7
	str	r0, [r7, #4]
	str	r1, [r7]
	.loc 2 2505 12
	ldr	r3, [r7]
	cmp	r3, #7
	bls	.L162
	.loc 2 2505 38 discriminator 1
	bl	CY_HALT
.L162:
	.loc 2 2523 78
	ldr	r3, .L164
	ldr	r3, [r3]
	ldrb	r3, [r3, #132]	@ zero_extendqisi2
	.loc 2 2523 58
	mov	r2, r3
	.loc 2 2523 39
	ldr	r3, [r7, #4]
	.loc 2 2523 56
	add	r3, r3, r2
	.loc 2 2523 13
	ldr	r3, [r3]
	str	r3, [r7, #12]
	.loc 2 2526 48
	ldr	r3, [r7]
	lsls	r3, r3, #2
	and	r3, r3, #1016
	.loc 2 2526 58
	adds	r3, r3, #2
	.loc 2 2526 21
	ldr	r2, [r7, #12]
	lsr	r3, r2, r3
	.loc 2 2526 71
	and	r3, r3, #1
	.loc 2 2535 1
	mov	r0, r3
	adds	r7, r7, #16
.LCFI143:
	.cfi_def_cfa_offset 8
	mov	sp, r7
.LCFI144:
	.cfi_def_cfa_register 13
	@ sp needed
	pop	{r7, pc}
.L165:
	.align	2
.L164:
	.word	cy_device
	.cfi_endproc
.LFE169:
	.size	Cy_GPIO_GetVtripSel, .-Cy_GPIO_GetVtripSel
	.section	.text.Cy_GPIO_SetVrefSel,"ax",%progbits
	.align	1
	.global	Cy_GPIO_SetVrefSel
	.syntax unified
	.thumb
	.thumb_func
	.type	Cy_GPIO_SetVrefSel, %function
Cy_GPIO_SetVrefSel:
.LFB170:
	.loc 2 2564 1
	.cfi_startproc
	@ args = 0, pretend = 0, frame = 32
	@ frame_needed = 1, uses_anonymous_args = 0
	push	{r7, lr}
.LCFI145:
	.cfi_def_cfa_offset 8
	.cfi_offset 7, -8
	.cfi_offset 14, -4
	sub	sp, sp, #32
.LCFI146:
	.cfi_def_cfa_offset 40
	add	r7, sp, #0
.LCFI147:
	.cfi_def_cfa_register 7
	str	r0, [r7, #12]
	str	r1, [r7, #8]
	str	r2, [r7, #4]
	.loc 2 2574 12
	ldr	r3, [r7, #8]
	cmp	r3, #7
	bls	.L167
	.loc 2 2574 38 discriminator 1
	bl	CY_HALT
.L167:
	.loc 2 2575 12
	ldr	r3, [r7, #4]
	cmp	r3, #0
	beq	.L168
	.loc 2 2575 38 discriminator 1
	ldr	r3, [r7, #4]
	cmp	r3, #1
	beq	.L168
	.loc 2 2575 63 discriminator 2
	ldr	r3, [r7, #4]
	cmp	r3, #2
	beq	.L168
	.loc 2 2575 13 discriminator 3
	ldr	r3, [r7, #4]
	cmp	r3, #3
	beq	.L168
	.loc 2 2575 118 discriminator 4
	bl	CY_HALT
.L168:
	.loc 2 2577 37
	ldr	r3, [r7, #8]
	lsls	r3, r3, #2
	and	r3, r3, #1016
	.loc 2 2577 12
	adds	r3, r3, #3
	str	r3, [r7, #28]
	.loc 2 2598 79
	ldr	r3, .L169
	ldr	r3, [r3]
	ldrb	r3, [r3, #132]	@ zero_extendqisi2
	.loc 2 2598 59
	mov	r2, r3
	.loc 2 2598 40
	ldr	r3, [r7, #12]
	.loc 2 2598 57
	add	r3, r3, r2
	.loc 2 2598 17
	ldr	r2, [r3]
	.loc 2 2598 117
	movs	r1, #3
	ldr	r3, [r7, #28]
	lsl	r3, r1, r3
	.loc 2 2598 106
	mvns	r3, r3
	.loc 2 2598 13
	ands	r3, r3, r2
	str	r3, [r7, #24]
	.loc 2 2601 32
	ldr	r3, [r7, #4]
	and	r2, r3, #3
	.loc 2 2601 44
	ldr	r3, [r7, #28]
	lsl	r3, r2, r3
	.loc 2 2601 12
	ldr	r2, [r7, #24]
	orrs	r3, r3, r2
	str	r3, [r7, #20]
	.loc 2 2620 68
	ldr	r3, .L169
	ldr	r3, [r3]
	ldrb	r3, [r3, #132]	@ zero_extendqisi2
	.loc 2 2620 48
	mov	r2, r3
	.loc 2 2620 29
	ldr	r3, [r7, #12]
	.loc 2 2620 46
	add	r3, r3, r2
	.loc 2 2620 7
	mov	r2, r3
	.loc 2 2620 93
	ldr	r3, [r7, #20]
	str	r3, [r2]
	.loc 2 2629 1
	nop
	adds	r7, r7, #32
.LCFI148:
	.cfi_def_cfa_offset 8
	mov	sp, r7
.LCFI149:
	.cfi_def_cfa_register 13
	@ sp needed
	pop	{r7, pc}
.L170:
	.align	2
.L169:
	.word	cy_device
	.cfi_endproc
.LFE170:
	.size	Cy_GPIO_SetVrefSel, .-Cy_GPIO_SetVrefSel
	.section	.text.Cy_GPIO_GetVrefSel,"ax",%progbits
	.align	1
	.global	Cy_GPIO_GetVrefSel
	.syntax unified
	.thumb
	.thumb_func
	.type	Cy_GPIO_GetVrefSel, %function
Cy_GPIO_GetVrefSel:
.LFB171:
	.loc 2 2654 1
	.cfi_startproc
	@ args = 0, pretend = 0, frame = 16
	@ frame_needed = 1, uses_anonymous_args = 0
	push	{r7, lr}
.LCFI150:
	.cfi_def_cfa_offset 8
	.cfi_offset 7, -8
	.cfi_offset 14, -4
	sub	sp, sp, #16
.LCFI151:
	.cfi_def_cfa_offset 24
	add	r7, sp, #0
.LCFI152:
	.cfi_def_cfa_register 7
	str	r0, [r7, #4]
	str	r1, [r7]
	.loc 2 2657 12
	ldr	r3, [r7]
	cmp	r3, #7
	bls	.L172
	.loc 2 2657 38 discriminator 1
	bl	CY_HALT
.L172:
	.loc 2 2675 78
	ldr	r3, .L174
	ldr	r3, [r3]
	ldrb	r3, [r3, #132]	@ zero_extendqisi2
	.loc 2 2675 58
	mov	r2, r3
	.loc 2 2675 39
	ldr	r3, [r7, #4]
	.loc 2 2675 56
	add	r3, r3, r2
	.loc 2 2675 13
	ldr	r3, [r3]
	str	r3, [r7, #12]
	.loc 2 2678 48
	ldr	r3, [r7]
	lsls	r3, r3, #2
	and	r3, r3, #1016
	.loc 2 2678 58
	adds	r3, r3, #3
	.loc 2 2678 21
	ldr	r2, [r7, #12]
	lsr	r3, r2, r3
	.loc 2 2678 71
	and	r3, r3, #3
	.loc 2 2687 1
	mov	r0, r3
	adds	r7, r7, #16
.LCFI153:
	.cfi_def_cfa_offset 8
	mov	sp, r7
.LCFI154:
	.cfi_def_cfa_register 13
	@ sp needed
	pop	{r7, pc}
.L175:
	.align	2
.L174:
	.word	cy_device
	.cfi_endproc
.LFE171:
	.size	Cy_GPIO_GetVrefSel, .-Cy_GPIO_GetVrefSel
	.section	.text.Cy_GPIO_SetVohSel,"ax",%progbits
	.align	1
	.global	Cy_GPIO_SetVohSel
	.syntax unified
	.thumb
	.thumb_func
	.type	Cy_GPIO_SetVohSel, %function
Cy_GPIO_SetVohSel:
.LFB172:
	.loc 2 2719 1
	.cfi_startproc
	@ args = 0, pretend = 0, frame = 32
	@ frame_needed = 1, uses_anonymous_args = 0
	push	{r7, lr}
.LCFI155:
	.cfi_def_cfa_offset 8
	.cfi_offset 7, -8
	.cfi_offset 14, -4
	sub	sp, sp, #32
.LCFI156:
	.cfi_def_cfa_offset 40
	add	r7, sp, #0
.LCFI157:
	.cfi_def_cfa_register 7
	str	r0, [r7, #12]
	str	r1, [r7, #8]
	str	r2, [r7, #4]
	.loc 2 2729 12
	ldr	r3, [r7, #8]
	cmp	r3, #7
	bls	.L177
	.loc 2 2729 38 discriminator 1
	bl	CY_HALT
.L177:
	.loc 2 2730 12
	ldr	r3, [r7, #4]
	cmp	r3, #0
	beq	.L178
	.loc 2 2730 38 discriminator 1
	ldr	r3, [r7, #4]
	cmp	r3, #1
	beq	.L178
	.loc 2 2730 63 discriminator 2
	ldr	r3, [r7, #4]
	cmp	r3, #2
	beq	.L178
	.loc 2 2730 88 discriminator 3
	ldr	r3, [r7, #4]
	cmp	r3, #3
	beq	.L178
	.loc 2 2730 113 discriminator 4
	ldr	r3, [r7, #4]
	cmp	r3, #4
	beq	.L178
	.loc 2 2730 138 discriminator 5
	ldr	r3, [r7, #4]
	cmp	r3, #5
	beq	.L178
	.loc 2 2730 163 discriminator 6
	ldr	r3, [r7, #4]
	cmp	r3, #6
	beq	.L178
	.loc 2 2730 13 discriminator 7
	ldr	r3, [r7, #4]
	cmp	r3, #7
	beq	.L178
	.loc 2 2730 218 discriminator 8
	bl	CY_HALT
.L178:
	.loc 2 2732 37
	ldr	r3, [r7, #8]
	lsls	r3, r3, #2
	and	r3, r3, #1016
	.loc 2 2732 12
	adds	r3, r3, #5
	str	r3, [r7, #28]
	.loc 2 2753 79
	ldr	r3, .L179
	ldr	r3, [r3]
	ldrb	r3, [r3, #132]	@ zero_extendqisi2
	.loc 2 2753 59
	mov	r2, r3
	.loc 2 2753 40
	ldr	r3, [r7, #12]
	.loc 2 2753 57
	add	r3, r3, r2
	.loc 2 2753 17
	ldr	r2, [r3]
	.loc 2 2753 117
	movs	r1, #7
	ldr	r3, [r7, #28]
	lsl	r3, r1, r3
	.loc 2 2753 106
	mvns	r3, r3
	.loc 2 2753 13
	ands	r3, r3, r2
	str	r3, [r7, #24]
	.loc 2 2755 32
	ldr	r3, [r7, #4]
	and	r2, r3, #7
	.loc 2 2755 44
	ldr	r3, [r7, #28]
	lsl	r3, r2, r3
	.loc 2 2755 12
	ldr	r2, [r7, #24]
	orrs	r3, r3, r2
	str	r3, [r7, #20]
	.loc 2 2774 68
	ldr	r3, .L179
	ldr	r3, [r3]
	ldrb	r3, [r3, #132]	@ zero_extendqisi2
	.loc 2 2774 48
	mov	r2, r3
	.loc 2 2774 29
	ldr	r3, [r7, #12]
	.loc 2 2774 46
	add	r3, r3, r2
	.loc 2 2774 7
	mov	r2, r3
	.loc 2 2774 93
	ldr	r3, [r7, #20]
	str	r3, [r2]
	.loc 2 2783 1
	nop
	adds	r7, r7, #32
.LCFI158:
	.cfi_def_cfa_offset 8
	mov	sp, r7
.LCFI159:
	.cfi_def_cfa_register 13
	@ sp needed
	pop	{r7, pc}
.L180:
	.align	2
.L179:
	.word	cy_device
	.cfi_endproc
.LFE172:
	.size	Cy_GPIO_SetVohSel, .-Cy_GPIO_SetVohSel
	.section	.text.Cy_GPIO_GetVohSel,"ax",%progbits
	.align	1
	.global	Cy_GPIO_GetVohSel
	.syntax unified
	.thumb
	.thumb_func
	.type	Cy_GPIO_GetVohSel, %function
Cy_GPIO_GetVohSel:
.LFB173:
	.loc 2 2808 1
	.cfi_startproc
	@ args = 0, pretend = 0, frame = 16
	@ frame_needed = 1, uses_anonymous_args = 0
	push	{r7, lr}
.LCFI160:
	.cfi_def_cfa_offset 8
	.cfi_offset 7, -8
	.cfi_offset 14, -4
	sub	sp, sp, #16
.LCFI161:
	.cfi_def_cfa_offset 24
	add	r7, sp, #0
.LCFI162:
	.cfi_def_cfa_register 7
	str	r0, [r7, #4]
	str	r1, [r7]
	.loc 2 2811 12
	ldr	r3, [r7]
	cmp	r3, #7
	bls	.L182
	.loc 2 2811 38 discriminator 1
	bl	CY_HALT
.L182:
	.loc 2 2829 78
	ldr	r3, .L184
	ldr	r3, [r3]
	ldrb	r3, [r3, #132]	@ zero_extendqisi2
	.loc 2 2829 58
	mov	r2, r3
	.loc 2 2829 39
	ldr	r3, [r7, #4]
	.loc 2 2829 56
	add	r3, r3, r2
	.loc 2 2829 13
	ldr	r3, [r3]
	str	r3, [r7, #12]
	.loc 2 2832 48
	ldr	r3, [r7]
	lsls	r3, r3, #2
	and	r3, r3, #1016
	.loc 2 2832 58
	adds	r3, r3, #5
	.loc 2 2832 21
	ldr	r2, [r7, #12]
	lsr	r3, r2, r3
	.loc 2 2832 71
	and	r3, r3, #7
	.loc 2 2840 1
	mov	r0, r3
	adds	r7, r7, #16
.LCFI163:
	.cfi_def_cfa_offset 8
	mov	sp, r7
.LCFI164:
	.cfi_def_cfa_register 13
	@ sp needed
	pop	{r7, pc}
.L185:
	.align	2
.L184:
	.word	cy_device
	.cfi_endproc
.LFE173:
	.size	Cy_GPIO_GetVohSel, .-Cy_GPIO_GetVohSel
	.section	.text.Cy_GPIO_GetInterruptStatus,"ax",%progbits
	.align	1
	.global	Cy_GPIO_GetInterruptStatus
	.syntax unified
	.thumb
	.thumb_func
	.type	Cy_GPIO_GetInterruptStatus, %function
Cy_GPIO_GetInterruptStatus:
.LFB174:
	.loc 2 2869 1
	.cfi_startproc
	@ args = 0, pretend = 0, frame = 16
	@ frame_needed = 1, uses_anonymous_args = 0
	push	{r7, lr}
.LCFI165:
	.cfi_def_cfa_offset 8
	.cfi_offset 7, -8
	.cfi_offset 14, -4
	sub	sp, sp, #16
.LCFI166:
	.cfi_def_cfa_offset 24
	add	r7, sp, #0
.LCFI167:
	.cfi_def_cfa_register 7
	str	r0, [r7, #4]
	str	r1, [r7]
	.loc 2 2875 12
	ldr	r3, [r7]
	cmp	r3, #8
	bls	.L187
	.loc 2 2875 39 discriminator 1
	bl	CY_HALT
.L187:
	.loc 2 2893 13
	ldr	r3, [r7, #4]
	ldr	r3, [r3, #20]
	str	r3, [r7, #12]
	.loc 2 2896 21
	ldr	r2, [r7, #12]
	ldr	r3, [r7]
	lsr	r3, r2, r3
	.loc 2 2896 32
	and	r3, r3, #1
	.loc 2 2897 1
	mov	r0, r3
	adds	r7, r7, #16
.LCFI168:
	.cfi_def_cfa_offset 8
	mov	sp, r7
.LCFI169:
	.cfi_def_cfa_register 13
	@ sp needed
	pop	{r7, pc}
	.cfi_endproc
.LFE174:
	.size	Cy_GPIO_GetInterruptStatus, .-Cy_GPIO_GetInterruptStatus
	.section	.text.Cy_GPIO_ClearInterrupt,"ax",%progbits
	.align	1
	.global	Cy_GPIO_ClearInterrupt
	.syntax unified
	.thumb
	.thumb_func
	.type	Cy_GPIO_ClearInterrupt, %function
Cy_GPIO_ClearInterrupt:
.LFB175:
	.loc 2 2918 1
	.cfi_startproc
	@ args = 0, pretend = 0, frame = 16
	@ frame_needed = 1, uses_anonymous_args = 0
	push	{r7, lr}
.LCFI170:
	.cfi_def_cfa_offset 8
	.cfi_offset 7, -8
	.cfi_offset 14, -4
	sub	sp, sp, #16
.LCFI171:
	.cfi_def_cfa_offset 24
	add	r7, sp, #0
.LCFI172:
	.cfi_def_cfa_register 7
	str	r0, [r7, #4]
	str	r1, [r7]
	.loc 2 2924 12
	ldr	r3, [r7]
	cmp	r3, #8
	bls	.L190
	.loc 2 2924 39 discriminator 1
	bl	CY_HALT
.L190:
	.loc 2 2948 5
	ldr	r3, [r7, #4]
	ldr	r3, [r3, #20]
	.loc 2 2951 13
	movs	r2, #1
	ldr	r3, [r7]
	lsl	r3, r2, r3
	str	r3, [r7, #12]
	.loc 2 2970 38
	ldr	r3, [r7, #4]
	ldr	r2, [r7, #12]
	str	r2, [r3, #20]
	.loc 2 2974 5
	ldr	r3, [r7, #4]
	ldr	r3, [r3, #20]
	.loc 2 2975 1
	nop
	adds	r7, r7, #16
.LCFI173:
	.cfi_def_cfa_offset 8
	mov	sp, r7
.LCFI174:
	.cfi_def_cfa_register 13
	@ sp needed
	pop	{r7, pc}
	.cfi_endproc
.LFE175:
	.size	Cy_GPIO_ClearInterrupt, .-Cy_GPIO_ClearInterrupt
	.section	.text.Cy_GPIO_SetInterruptMask,"ax",%progbits
	.align	1
	.global	Cy_GPIO_SetInterruptMask
	.syntax unified
	.thumb
	.thumb_func
	.type	Cy_GPIO_SetInterruptMask, %function
Cy_GPIO_SetInterruptMask:
.LFB176:
	.loc 2 3004 1
	.cfi_startproc
	@ args = 0, pretend = 0, frame = 24
	@ frame_needed = 1, uses_anonymous_args = 0
	push	{r7, lr}
.LCFI175:
	.cfi_def_cfa_offset 8
	.cfi_offset 7, -8
	.cfi_offset 14, -4
	sub	sp, sp, #24
.LCFI176:
	.cfi_def_cfa_offset 32
	add	r7, sp, #0
.LCFI177:
	.cfi_def_cfa_register 7
	str	r0, [r7, #12]
	str	r1, [r7, #8]
	str	r2, [r7, #4]
	.loc 2 3012 12
	ldr	r3, [r7, #8]
	cmp	r3, #8
	bls	.L192
	.loc 2 3012 39 discriminator 1
	bl	CY_HALT
.L192:
	.loc 2 3013 12
	ldr	r3, [r7, #4]
	cmp	r3, #1
	bls	.L193
	.loc 2 3013 36 discriminator 1
	bl	CY_HALT
.L193:
	.loc 2 3035 39
	ldr	r3, [r7, #12]
	ldr	r2, [r3, #24]
	.loc 2 3035 65
	movs	r1, #1
	ldr	r3, [r7, #8]
	lsl	r3, r1, r3
	.loc 2 3035 54
	mvns	r3, r3
	.loc 2 3035 12
	ands	r3, r3, r2
	str	r3, [r7, #20]
	.loc 2 3038 34
	ldr	r3, [r7, #4]
	and	r2, r3, #1
	.loc 2 3038 46
	ldr	r3, [r7, #8]
	lsl	r3, r2, r3
	.loc 2 3038 14
	ldr	r2, [r7, #20]
	orrs	r3, r3, r2
	str	r3, [r7, #16]
	.loc 2 3057 43
	ldr	r3, [r7, #12]
	ldr	r2, [r7, #16]
	str	r2, [r3, #24]
	.loc 2 3059 1
	nop
	adds	r7, r7, #24
.LCFI178:
	.cfi_def_cfa_offset 8
	mov	sp, r7
.LCFI179:
	.cfi_def_cfa_register 13
	@ sp needed
	pop	{r7, pc}
	.cfi_endproc
.LFE176:
	.size	Cy_GPIO_SetInterruptMask, .-Cy_GPIO_SetInterruptMask
	.section	.text.Cy_GPIO_GetInterruptMask,"ax",%progbits
	.align	1
	.global	Cy_GPIO_GetInterruptMask
	.syntax unified
	.thumb
	.thumb_func
	.type	Cy_GPIO_GetInterruptMask, %function
Cy_GPIO_GetInterruptMask:
.LFB177:
	.loc 2 3087 1
	.cfi_startproc
	@ args = 0, pretend = 0, frame = 16
	@ frame_needed = 1, uses_anonymous_args = 0
	push	{r7, lr}
.LCFI180:
	.cfi_def_cfa_offset 8
	.cfi_offset 7, -8
	.cfi_offset 14, -4
	sub	sp, sp, #16
.LCFI181:
	.cfi_def_cfa_offset 24
	add	r7, sp, #0
.LCFI182:
	.cfi_def_cfa_register 7
	str	r0, [r7, #4]
	str	r1, [r7]
	.loc 2 3093 12
	ldr	r3, [r7]
	cmp	r3, #8
	bls	.L195
	.loc 2 3093 39 discriminator 1
	bl	CY_HALT
.L195:
	.loc 2 3111 13
	ldr	r3, [r7, #4]
	ldr	r3, [r3, #24]
	str	r3, [r7, #12]
	.loc 2 3114 21
	ldr	r2, [r7, #12]
	ldr	r3, [r7]
	lsr	r3, r2, r3
	.loc 2 3114 32
	and	r3, r3, #1
	.loc 2 3115 1
	mov	r0, r3
	adds	r7, r7, #16
.LCFI183:
	.cfi_def_cfa_offset 8
	mov	sp, r7
.LCFI184:
	.cfi_def_cfa_register 13
	@ sp needed
	pop	{r7, pc}
	.cfi_endproc
.LFE177:
	.size	Cy_GPIO_GetInterruptMask, .-Cy_GPIO_GetInterruptMask
	.section	.text.Cy_GPIO_GetInterruptStatusMasked,"ax",%progbits
	.align	1
	.global	Cy_GPIO_GetInterruptStatusMasked
	.syntax unified
	.thumb
	.thumb_func
	.type	Cy_GPIO_GetInterruptStatusMasked, %function
Cy_GPIO_GetInterruptStatusMasked:
.LFB178:
	.loc 2 3144 1
	.cfi_startproc
	@ args = 0, pretend = 0, frame = 16
	@ frame_needed = 1, uses_anonymous_args = 0
	push	{r7, lr}
.LCFI185:
	.cfi_def_cfa_offset 8
	.cfi_offset 7, -8
	.cfi_offset 14, -4
	sub	sp, sp, #16
.LCFI186:
	.cfi_def_cfa_offset 24
	add	r7, sp, #0
.LCFI187:
	.cfi_def_cfa_register 7
	str	r0, [r7, #4]
	str	r1, [r7]
	.loc 2 3150 12
	ldr	r3, [r7]
	cmp	r3, #8
	bls	.L198
	.loc 2 3150 39 discriminator 1
	bl	CY_HALT
.L198:
	.loc 2 3168 13
	ldr	r3, [r7, #4]
	ldr	r3, [r3, #28]
	str	r3, [r7, #12]
	.loc 2 3171 21
	ldr	r2, [r7, #12]
	ldr	r3, [r7]
	lsr	r3, r2, r3
	.loc 2 3171 32
	and	r3, r3, #1
	.loc 2 3172 1
	mov	r0, r3
	adds	r7, r7, #16
.LCFI188:
	.cfi_def_cfa_offset 8
	mov	sp, r7
.LCFI189:
	.cfi_def_cfa_register 13
	@ sp needed
	pop	{r7, pc}
	.cfi_endproc
.LFE178:
	.size	Cy_GPIO_GetInterruptStatusMasked, .-Cy_GPIO_GetInterruptStatusMasked
	.section	.text.Cy_GPIO_SetSwInterrupt,"ax",%progbits
	.align	1
	.global	Cy_GPIO_SetSwInterrupt
	.syntax unified
	.thumb
	.thumb_func
	.type	Cy_GPIO_SetSwInterrupt, %function
Cy_GPIO_SetSwInterrupt:
.LFB179:
	.loc 2 3193 1
	.cfi_startproc
	@ args = 0, pretend = 0, frame = 16
	@ frame_needed = 1, uses_anonymous_args = 0
	push	{r7, lr}
.LCFI190:
	.cfi_def_cfa_offset 8
	.cfi_offset 7, -8
	.cfi_offset 14, -4
	sub	sp, sp, #16
.LCFI191:
	.cfi_def_cfa_offset 24
	add	r7, sp, #0
.LCFI192:
	.cfi_def_cfa_register 7
	str	r0, [r7, #4]
	str	r1, [r7]
	.loc 2 3199 12
	ldr	r3, [r7]
	cmp	r3, #8
	bls	.L201
	.loc 2 3199 39 discriminator 1
	bl	CY_HALT
.L201:
	.loc 2 3201 13
	movs	r2, #1
	ldr	r3, [r7]
	lsl	r3, r2, r3
	str	r3, [r7, #12]
	.loc 2 3222 42
	ldr	r3, [r7, #4]
	ldr	r2, [r7, #12]
	str	r2, [r3, #32]
	.loc 2 3224 1
	nop
	adds	r7, r7, #16
.LCFI193:
	.cfi_def_cfa_offset 8
	mov	sp, r7
.LCFI194:
	.cfi_def_cfa_register 13
	@ sp needed
	pop	{r7, pc}
	.cfi_endproc
.LFE179:
	.size	Cy_GPIO_SetSwInterrupt, .-Cy_GPIO_SetSwInterrupt
	.section	.text.Cy_GPIO_SetInterruptEdge,"ax",%progbits
	.align	1
	.global	Cy_GPIO_SetInterruptEdge
	.syntax unified
	.thumb
	.thumb_func
	.type	Cy_GPIO_SetInterruptEdge, %function
Cy_GPIO_SetInterruptEdge:
.LFB180:
	.loc 2 3252 1
	.cfi_startproc
	@ args = 0, pretend = 0, frame = 32
	@ frame_needed = 1, uses_anonymous_args = 0
	push	{r7, lr}
.LCFI195:
	.cfi_def_cfa_offset 8
	.cfi_offset 7, -8
	.cfi_offset 14, -4
	sub	sp, sp, #32
.LCFI196:
	.cfi_def_cfa_offset 40
	add	r7, sp, #0
.LCFI197:
	.cfi_def_cfa_register 7
	str	r0, [r7, #12]
	str	r1, [r7, #8]
	str	r2, [r7, #4]
	.loc 2 3261 12
	ldr	r3, [r7, #8]
	cmp	r3, #8
	bls	.L203
	.loc 2 3261 39 discriminator 1
	bl	CY_HALT
.L203:
	.loc 2 3262 12
	ldr	r3, [r7, #4]
	cmp	r3, #0
	beq	.L204
	.loc 2 3262 38 discriminator 1
	ldr	r3, [r7, #4]
	cmp	r3, #1
	beq	.L204
	.loc 2 3262 63 discriminator 2
	ldr	r3, [r7, #4]
	cmp	r3, #2
	beq	.L204
	.loc 2 3262 13 discriminator 3
	ldr	r3, [r7, #4]
	cmp	r3, #3
	beq	.L204
	.loc 2 3262 118 discriminator 4
	bl	CY_HALT
.L204:
	.loc 2 3264 12
	ldr	r3, [r7, #8]
	lsls	r3, r3, #1
	str	r3, [r7, #28]
	.loc 2 3285 78
	ldr	r3, .L205
	ldr	r3, [r3]
	ldrb	r3, [r3, #128]	@ zero_extendqisi2
	.loc 2 3285 58
	mov	r2, r3
	.loc 2 3285 39
	ldr	r3, [r7, #12]
	.loc 2 3285 56
	add	r3, r3, r2
	.loc 2 3285 16
	ldr	r2, [r3]
	.loc 2 3285 117
	movs	r1, #3
	ldr	r3, [r7, #28]
	lsl	r3, r1, r3
	.loc 2 3285 106
	mvns	r3, r3
	.loc 2 3285 13
	ands	r3, r3, r2
	str	r3, [r7, #24]
	.loc 2 3288 33
	ldr	r3, [r7, #4]
	and	r2, r3, #3
	.loc 2 3288 45
	ldr	r3, [r7, #28]
	lsl	r3, r2, r3
	.loc 2 3288 13
	ldr	r2, [r7, #24]
	orrs	r3, r3, r2
	str	r3, [r7, #20]
	.loc 2 3307 68
	ldr	r3, .L205
	ldr	r3, [r3]
	ldrb	r3, [r3, #128]	@ zero_extendqisi2
	.loc 2 3307 48
	mov	r2, r3
	.loc 2 3307 29
	ldr	r3, [r7, #12]
	.loc 2 3307 46
	add	r3, r3, r2
	.loc 2 3307 7
	mov	r2, r3
	.loc 2 3307 94
	ldr	r3, [r7, #20]
	str	r3, [r2]
	.loc 2 3309 1
	nop
	adds	r7, r7, #32
.LCFI198:
	.cfi_def_cfa_offset 8
	mov	sp, r7
.LCFI199:
	.cfi_def_cfa_register 13
	@ sp needed
	pop	{r7, pc}
.L206:
	.align	2
.L205:
	.word	cy_device
	.cfi_endproc
.LFE180:
	.size	Cy_GPIO_SetInterruptEdge, .-Cy_GPIO_SetInterruptEdge
	.section	.text.Cy_GPIO_GetInterruptEdge,"ax",%progbits
	.align	1
	.global	Cy_GPIO_GetInterruptEdge
	.syntax unified
	.thumb
	.thumb_func
	.type	Cy_GPIO_GetInterruptEdge, %function
Cy_GPIO_GetInterruptEdge:
.LFB181:
	.loc 2 3333 1
	.cfi_startproc
	@ args = 0, pretend = 0, frame = 16
	@ frame_needed = 1, uses_anonymous_args = 0
	push	{r7, lr}
.LCFI200:
	.cfi_def_cfa_offset 8
	.cfi_offset 7, -8
	.cfi_offset 14, -4
	sub	sp, sp, #16
.LCFI201:
	.cfi_def_cfa_offset 24
	add	r7, sp, #0
.LCFI202:
	.cfi_def_cfa_register 7
	str	r0, [r7, #4]
	str	r1, [r7]
	.loc 2 3339 12
	ldr	r3, [r7]
	cmp	r3, #8
	bls	.L208
	.loc 2 3339 39 discriminator 1
	bl	CY_HALT
.L208:
	.loc 2 3357 78
	ldr	r3, .L210
	ldr	r3, [r3]
	ldrb	r3, [r3, #128]	@ zero_extendqisi2
	.loc 2 3357 58
	mov	r2, r3
	.loc 2 3357 39
	ldr	r3, [r7, #4]
	.loc 2 3357 56
	add	r3, r3, r2
	.loc 2 3357 13
	ldr	r3, [r3]
	str	r3, [r7, #12]
	.loc 2 3360 32
	ldr	r3, [r7]
	lsls	r3, r3, #1
	.loc 2 3360 21
	ldr	r2, [r7, #12]
	lsr	r3, r2, r3
	.loc 2 3360 43
	and	r3, r3, #3
	.loc 2 3361 1
	mov	r0, r3
	adds	r7, r7, #16
.LCFI203:
	.cfi_def_cfa_offset 8
	mov	sp, r7
.LCFI204:
	.cfi_def_cfa_register 13
	@ sp needed
	pop	{r7, pc}
.L211:
	.align	2
.L210:
	.word	cy_device
	.cfi_endproc
.LFE181:
	.size	Cy_GPIO_GetInterruptEdge, .-Cy_GPIO_GetInterruptEdge
	.section	.text.Cy_GPIO_SetFilter,"ax",%progbits
	.align	1
	.global	Cy_GPIO_SetFilter
	.syntax unified
	.thumb
	.thumb_func
	.type	Cy_GPIO_SetFilter, %function
Cy_GPIO_SetFilter:
.LFB182:
	.loc 2 3394 1
	.cfi_startproc
	@ args = 0, pretend = 0, frame = 16
	@ frame_needed = 1, uses_anonymous_args = 0
	push	{r7, lr}
.LCFI205:
	.cfi_def_cfa_offset 8
	.cfi_offset 7, -8
	.cfi_offset 14, -4
	sub	sp, sp, #16
.LCFI206:
	.cfi_def_cfa_offset 24
	add	r7, sp, #0
.LCFI207:
	.cfi_def_cfa_register 7
	str	r0, [r7, #4]
	str	r1, [r7]
	.loc 2 3402 12
	ldr	r3, [r7]
	cmp	r3, #7
	bls	.L213
	.loc 2 3402 37 discriminator 1
	bl	CY_HALT
.L213:
	.loc 2 3424 78
	ldr	r3, .L214
	ldr	r3, [r3]
	ldrb	r3, [r3, #128]	@ zero_extendqisi2
	.loc 2 3424 58
	mov	r2, r3
	.loc 2 3424 39
	ldr	r3, [r7, #4]
	.loc 2 3424 56
	add	r3, r3, r2
	.loc 2 3424 16
	ldr	r3, [r3]
	.loc 2 3424 13
	bic	r3, r3, #1835008
	str	r3, [r7, #12]
	.loc 2 3427 45
	ldr	r3, [r7]
	lsls	r3, r3, #18
	and	r3, r3, #1835008
	.loc 2 3427 13
	ldr	r2, [r7, #12]
	orrs	r3, r3, r2
	str	r3, [r7, #8]
	.loc 2 3446 68
	ldr	r3, .L214
	ldr	r3, [r3]
	ldrb	r3, [r3, #128]	@ zero_extendqisi2
	.loc 2 3446 48
	mov	r2, r3
	.loc 2 3446 29
	ldr	r3, [r7, #4]
	.loc 2 3446 46
	add	r3, r3, r2
	.loc 2 3446 7
	mov	r2, r3
	.loc 2 3446 94
	ldr	r3, [r7, #8]
	str	r3, [r2]
	.loc 2 3448 1
	nop
	adds	r7, r7, #16
.LCFI208:
	.cfi_def_cfa_offset 8
	mov	sp, r7
.LCFI209:
	.cfi_def_cfa_register 13
	@ sp needed
	pop	{r7, pc}
.L215:
	.align	2
.L214:
	.word	cy_device
	.cfi_endproc
.LFE182:
	.size	Cy_GPIO_SetFilter, .-Cy_GPIO_SetFilter
	.section	.text.Cy_GPIO_GetFilter,"ax",%progbits
	.align	1
	.global	Cy_GPIO_GetFilter
	.syntax unified
	.thumb
	.thumb_func
	.type	Cy_GPIO_GetFilter, %function
Cy_GPIO_GetFilter:
.LFB183:
	.loc 2 3474 1
	.cfi_startproc
	@ args = 0, pretend = 0, frame = 16
	@ frame_needed = 1, uses_anonymous_args = 0
	@ link register save eliminated.
	push	{r7}
.LCFI210:
	.cfi_def_cfa_offset 4
	.cfi_offset 7, -4
	sub	sp, sp, #20
.LCFI211:
	.cfi_def_cfa_offset 24
	add	r7, sp, #0
.LCFI212:
	.cfi_def_cfa_register 7
	str	r0, [r7, #4]
	.loc 2 3486 78
	ldr	r3, .L218
	ldr	r3, [r3]
	ldrb	r3, [r3, #128]	@ zero_extendqisi2
	.loc 2 3486 58
	mov	r2, r3
	.loc 2 3486 39
	ldr	r3, [r7, #4]
	.loc 2 3486 56
	add	r3, r3, r2
	.loc 2 3486 13
	ldr	r3, [r3]
	str	r3, [r7, #12]
	.loc 2 3489 22
	ldr	r3, [r7, #12]
	lsrs	r3, r3, #18
	.loc 2 3489 33
	and	r3, r3, #7
	.loc 2 3490 1
	mov	r0, r3
	adds	r7, r7, #20
.LCFI213:
	.cfi_def_cfa_offset 4
	mov	sp, r7
.LCFI214:
	.cfi_def_cfa_register 13
	@ sp needed
	ldr	r7, [sp], #4
.LCFI215:
	.cfi_restore 7
	.cfi_def_cfa_offset 0
	bx	lr
.L219:
	.align	2
.L218:
	.word	cy_device
	.cfi_endproc
.LFE183:
	.size	Cy_GPIO_GetFilter, .-Cy_GPIO_GetFilter
	.text
.Letext0:
	.file 3 "d:\\llc\\softwares\\env-windows-v1.3.5\\tools\\gnu_gcc\\arm_gcc\\mingw\\arm-none-eabi\\include\\machine\\_default_types.h"
	.file 4 "d:\\llc\\softwares\\env-windows-v1.3.5\\tools\\gnu_gcc\\arm_gcc\\mingw\\arm-none-eabi\\include\\sys\\_stdint.h"
	.file 5 "libraries\\IFX_PSOC6_HAL\\mtb-pdl-cat1\\devices\\COMPONENT_CAT1A\\include/ip/cyip_gpio_v2.h"
	.file 6 "libraries\\IFX_PSOC6_HAL\\mtb-pdl-cat1\\devices\\COMPONENT_CAT1A\\include/ip/cyip_hsiom.h"
	.file 7 "libraries\\IFX_PSOC6_HAL\\mtb-pdl-cat1\\devices\\COMPONENT_CAT1A\\include/psoc6_02_config.h"
	.file 8 "libraries\\IFX_PSOC6_HAL\\mtb-pdl-cat1\\devices\\COMPONENT_CAT1A\\include/gpio_psoc6_02_68_qfn.h"
	.file 9 "libraries\\IFX_PSOC6_HAL\\mtb-pdl-cat1\\devices\\COMPONENT_CAT1A\\include/cy_device.h"
	.file 10 "libraries\\IFX_PSOC6_HAL\\mtb-pdl-cat1\\drivers\\include/cy_gpio.h"