	.cpu cortex-m4
	.arch armv7e-m
	.fpu fpv4-sp-d16
	.eabi_attribute 27, 1
	.eabi_attribute 28, 1
	.eabi_attribute 20, 1
	.eabi_attribute 21, 1
	.eabi_attribute 23, 3
	.eabi_attribute 24, 1
	.eabi_attribute 25, 1
	.eabi_attribute 26, 1
	.eabi_attribute 30, 6
	.eabi_attribute 34, 1
	.eabi_attribute 18, 4
	.file	"cy_ipc_pipe.c"
	.text
.Ltext0:
	.cfi_sections	.debug_frame
	.section	.text.__NVIC_EnableIRQ,"ax",%progbits
	.align	1
	.syntax unified
	.thumb
	.thumb_func
	.type	__NVIC_EnableIRQ, %function
__NVIC_EnableIRQ:
.LFB107:
	.file 1 "libraries\\IFX_PSOC6_HAL\\mtb-pdl-cat1\\cmsis\\include/core_cm4.h"
	.loc 1 1685 1
	.cfi_startproc
	@ args = 0, pretend = 0, frame = 8
	@ frame_needed = 1, uses_anonymous_args = 0
	@ link register save eliminated.
	push	{r7}
.LCFI0:
	.cfi_def_cfa_offset 4
	.cfi_offset 7, -4
	sub	sp, sp, #12
.LCFI1:
	.cfi_def_cfa_offset 16
	add	r7, sp, #0
.LCFI2:
	.cfi_def_cfa_register 7
	mov	r3, r0
	strh	r3, [r7, #6]	@ movhi
	.loc 1 1686 6
	ldrsh	r3, [r7, #6]
	cmp	r3, #0
	blt	.L3
	.loc 1 1688 5
	.loc 1 1689 121
	ldrh	r3, [r7, #6]
	and	r2, r3, #31
	.loc 1 1689 49
	ldr	r1, .L4
	.loc 1 1689 58
	ldrsh	r3, [r7, #6]
	.loc 1 1689 74
	lsrs	r3, r3, #5
	.loc 1 1689 85
	movs	r0, #1
	lsl	r2, r0, r2
	.loc 1 1689 83
	str	r2, [r1, r3, lsl #2]
	.loc 1 1690 5
.L3:
	.loc 1 1692 1
	nop
	adds	r7, r7, #12
.LCFI3:
	.cfi_def_cfa_offset 4
	mov	sp, r7
.LCFI4:
	.cfi_def_cfa_register 13
	@ sp needed
	ldr	r7, [sp], #4
.LCFI5:
	.cfi_restore 7
	.cfi_def_cfa_offset 0
	bx	lr
.L5:
	.align	2
.L4:
	.word	-536813312
	.cfi_endproc
.LFE107:
	.size	__NVIC_EnableIRQ, .-__NVIC_EnableIRQ
	.section	.text.__NVIC_DisableIRQ,"ax",%progbits
	.align	1
	.syntax unified
	.thumb
	.thumb_func
	.type	__NVIC_DisableIRQ, %function
__NVIC_DisableIRQ:
.LFB109:
	.loc 1 1723 1
	.cfi_startproc
	@ args = 0, pretend = 0, frame = 8
	@ frame_needed = 1, uses_anonymous_args = 0
	@ link register save eliminated.
	push	{r7}
.LCFI6:
	.cfi_def_cfa_offset 4
	.cfi_offset 7, -4
	sub	sp, sp, #12
.LCFI7:
	.cfi_def_cfa_offset 16
	add	r7, sp, #0
.LCFI8:
	.cfi_def_cfa_register 7
	mov	r3, r0
	strh	r3, [r7, #6]	@ movhi
	.loc 1 1724 6
	ldrsh	r3, [r7, #6]
	cmp	r3, #0
	blt	.L8
	.loc 1 1726 121
	ldrh	r3, [r7, #6]
	and	r2, r3, #31
	.loc 1 1726 49
	ldr	r1, .L9
	.loc 1 1726 58
	ldrsh	r3, [r7, #6]
	.loc 1 1726 74
	lsrs	r3, r3, #5
	.loc 1 1726 85
	movs	r0, #1
	lsl	r2, r0, r2
	.loc 1 1726 83
	adds	r3, r3, #32
	str	r2, [r1, r3, lsl #2]
.LBB6:
.LBB7:
	.file 2 "libraries\\IFX_PSOC6_HAL\\mtb-pdl-cat1\\cmsis\\include/cmsis_gcc.h"
	.loc 2 946 3
	.syntax unified
@ 946 "libraries\IFX_PSOC6_HAL\mtb-pdl-cat1\cmsis\include/cmsis_gcc.h" 1
	dsb 0xF
@ 0 "" 2
	.loc 2 947 1
	.thumb
	.syntax unified
	nop
.LBE7:
.LBE6:
.LBB8:
.LBB9:
	.loc 2 935 3
	.syntax unified
@ 935 "libraries\IFX_PSOC6_HAL\mtb-pdl-cat1\cmsis\include/cmsis_gcc.h" 1
	isb 0xF
@ 0 "" 2
	.loc 2 936 1
	.thumb
	.syntax unified
	nop
.L8:
.LBE9:
.LBE8:
	.loc 1 1730 1
	nop
	adds	r7, r7, #12
.LCFI9:
	.cfi_def_cfa_offset 4
	mov	sp, r7
.LCFI10:
	.cfi_def_cfa_register 13
	@ sp needed
	ldr	r7, [sp], #4
.LCFI11:
	.cfi_restore 7
	.cfi_def_cfa_offset 0
	bx	lr
.L10:
	.align	2
.L9:
	.word	-536813312
	.cfi_endproc
.LFE109:
	.size	__NVIC_DisableIRQ, .-__NVIC_DisableIRQ
	.section	.text.CY_HALT,"ax",%progbits
	.align	1
	.syntax unified
	.thumb
	.thumb_func
	.type	CY_HALT, %function
CY_HALT:
.LFB133:
	.file 3 "libraries\\IFX_PSOC6_HAL\\core-lib\\include/cy_utils.h"
	.loc 3 49 1
	.cfi_startproc
	@ args = 0, pretend = 0, frame = 0
	@ frame_needed = 1, uses_anonymous_args = 0
	@ link register save eliminated.
	push	{r7}
.LCFI12:
	.cfi_def_cfa_offset 4
	.cfi_offset 7, -4
	add	r7, sp, #0
.LCFI13:
	.cfi_def_cfa_register 7
	.loc 3 50 5
	.syntax unified
@ 50 "libraries\IFX_PSOC6_HAL\core-lib\include/cy_utils.h" 1
	    bkpt    1
@ 0 "" 2
	.loc 3 51 1
	.thumb
	.syntax unified
	nop
	mov	sp, r7
.LCFI14:
	.cfi_def_cfa_register 13
	@ sp needed
	ldr	r7, [sp], #4
.LCFI15:
	.cfi_restore 7
	.cfi_def_cfa_offset 0
	bx	lr
	.cfi_endproc
.LFE133:
	.size	CY_HALT, .-CY_HALT
	.section	.text.Cy_IPC_Drv_GetIpcBaseAddress,"ax",%progbits
	.align	1
	.syntax unified
	.thumb
	.thumb_func
	.type	Cy_IPC_Drv_GetIpcBaseAddress, %function
Cy_IPC_Drv_GetIpcBaseAddress:
.LFB137:
	.file 4 "libraries\\IFX_PSOC6_HAL\\mtb-pdl-cat1\\drivers\\include/cy_ipc_drv.h"
	.loc 4 588 1
	.cfi_startproc
	@ args = 0, pretend = 0, frame = 8
	@ frame_needed = 1, uses_anonymous_args = 0
	push	{r7, lr}
.LCFI16:
	.cfi_def_cfa_offset 8
	.cfi_offset 7, -8
	.cfi_offset 14, -4
	sub	sp, sp, #8
.LCFI17:
	.cfi_def_cfa_offset 16
	add	r7, sp, #0
.LCFI18:
	.cfi_def_cfa_register 7
	str	r0, [r7, #4]
	.loc 4 589 35
	ldr	r3, .L15
	ldr	r3, [r3]
	ldrb	r3, [r3, #51]	@ zero_extendqisi2
	.loc 4 589 15
	mov	r2, r3
	.loc 4 589 12
	ldr	r3, [r7, #4]
	cmp	r3, r2
	bcc	.L13
	.loc 4 589 64 discriminator 1
	bl	CY_HALT
.L13:
	.loc 4 590 62
	ldr	r3, .L15
	ldr	r3, [r3]
	ldr	r2, [r3, #32]
	.loc 4 590 84
	ldr	r3, .L15
	ldr	r3, [r3]
	ldrh	r3, [r3, #186]
	mov	r1, r3
	.loc 4 590 100
	ldr	r3, [r7, #4]
	mul	r3, r1, r3
	.loc 4 590 72
	add	r3, r3, r2
	.loc 4 591 1
	mov	r0, r3
	adds	r7, r7, #8
.LCFI19:
	.cfi_def_cfa_offset 8
	mov	sp, r7
.LCFI20:
	.cfi_def_cfa_register 13
	@ sp needed
	pop	{r7, pc}
.L16:
	.align	2
.L15:
	.word	cy_device
	.cfi_endproc
.LFE137:
	.size	Cy_IPC_Drv_GetIpcBaseAddress, .-Cy_IPC_Drv_GetIpcBaseAddress
	.section	.text.Cy_IPC_Drv_GetIntrBaseAddr,"ax",%progbits
	.align	1
	.syntax unified
	.thumb
	.thumb_func
	.type	Cy_IPC_Drv_GetIntrBaseAddr, %function
Cy_IPC_Drv_GetIntrBaseAddr:
.LFB139:
	.loc 4 648 1
	.cfi_startproc
	@ args = 0, pretend = 0, frame = 8
	@ frame_needed = 1, uses_anonymous_args = 0
	push	{r7, lr}
.LCFI21:
	.cfi_def_cfa_offset 8
	.cfi_offset 7, -8
	.cfi_offset 14, -4
	sub	sp, sp, #8
.LCFI22:
	.cfi_def_cfa_offset 16
	add	r7, sp, #0
.LCFI23:
	.cfi_def_cfa_register 7
	str	r0, [r7, #4]
	.loc 4 649 35
	ldr	r3, .L20
	ldr	r3, [r3]
	ldrb	r3, [r3, #52]	@ zero_extendqisi2
	.loc 4 649 15
	mov	r2, r3
	.loc 4 649 12
	ldr	r3, [r7, #4]
	cmp	r3, r2
	bcc	.L18
	.loc 4 649 71 discriminator 1
	bl	CY_HALT
.L18:
	.loc 4 650 62
	ldr	r3, .L20
	ldr	r3, [r3]
	ldr	r3, [r3, #32]
	.loc 4 650 41
	mov	r2, r3
	.loc 4 650 14
	ldr	r3, [r7, #4]
	adds	r3, r3, #128
	lsls	r3, r3, #5
	add	r3, r3, r2
	.loc 4 651 1
	mov	r0, r3
	adds	r7, r7, #8
.LCFI24:
	.cfi_def_cfa_offset 8
	mov	sp, r7
.LCFI25:
	.cfi_def_cfa_register 13
	@ sp needed
	pop	{r7, pc}
.L21:
	.align	2
.L20:
	.word	cy_device
	.cfi_endproc
.LFE139:
	.size	Cy_IPC_Drv_GetIntrBaseAddr, .-Cy_IPC_Drv_GetIntrBaseAddr
	.section	.text.Cy_IPC_Drv_SetInterruptMask,"ax",%progbits
	.align	1
	.syntax unified
	.thumb
	.thumb_func
	.type	Cy_IPC_Drv_SetInterruptMask, %function
Cy_IPC_Drv_SetInterruptMask:
.LFB141:
	.loc 4 711 1
	.cfi_startproc
	@ args = 0, pretend = 0, frame = 16
	@ frame_needed = 1, uses_anonymous_args = 0
	push	{r7, lr}
.LCFI26:
	.cfi_def_cfa_offset 8
	.cfi_offset 7, -8
	.cfi_offset 14, -4
	sub	sp, sp, #16
.LCFI27:
	.cfi_def_cfa_offset 24
	add	r7, sp, #0
.LCFI28:
	.cfi_def_cfa_register 7
	str	r0, [r7, #12]
	str	r1, [r7, #8]
	str	r2, [r7, #4]
	.loc 4 712 37
	ldr	r3, [r7, #4]
	lsrs	r3, r3, #16
	lsls	r3, r3, #16
	.loc 4 712 12
	cmp	r3, #0
	beq	.L23
	.loc 4 712 66 discriminator 1
	bl	CY_HALT
.L23:
	.loc 4 713 38
	ldr	r3, [r7, #8]
	lsrs	r3, r3, #16
	lsls	r3, r3, #16
	.loc 4 713 12
	cmp	r3, #0
	beq	.L24
	.loc 4 713 67 discriminator 1
	bl	CY_HALT
.L24:
	.loc 4 714 89
	ldr	r3, [r7, #4]
	lsls	r2, r3, #16
	.loc 4 715 60
	ldr	r3, [r7, #8]
	uxth	r3, r3
	.loc 4 714 105
	orrs	r2, r2, r3
	.loc 4 714 50
	ldr	r3, [r7, #12]
	str	r2, [r3, #8]
	.loc 4 716 1
	nop
	adds	r7, r7, #16
.LCFI29:
	.cfi_def_cfa_offset 8
	mov	sp, r7
.LCFI30:
	.cfi_def_cfa_register 13
	@ sp needed
	pop	{r7, pc}
	.cfi_endproc
.LFE141:
	.size	Cy_IPC_Drv_SetInterruptMask, .-Cy_IPC_Drv_SetInterruptMask
	.section	.text.Cy_IPC_Drv_GetInterruptStatusMasked,"ax",%progbits
	.align	1
	.syntax unified
	.thumb
	.thumb_func
	.type	Cy_IPC_Drv_GetInterruptStatusMasked, %function
Cy_IPC_Drv_GetInterruptStatusMasked:
.LFB143:
	.loc 4 772 1
	.cfi_startproc
	@ args = 0, pretend = 0, frame = 8
	@ frame_needed = 1, uses_anonymous_args = 0
	@ link register save eliminated.
	push	{r7}
.LCFI31:
	.cfi_def_cfa_offset 4
	.cfi_offset 7, -4
	sub	sp, sp, #12
.LCFI32:
	.cfi_def_cfa_offset 16
	add	r7, sp, #0
.LCFI33:
	.cfi_def_cfa_register 7
	str	r0, [r7, #4]
	.loc 4 773 44
	ldr	r3, [r7, #4]
	ldr	r3, [r3, #12]
	.loc 4 774 1
	mov	r0, r3
	adds	r7, r7, #12
.LCFI34:
	.cfi_def_cfa_offset 4
	mov	sp, r7
.LCFI35:
	.cfi_def_cfa_register 13
	@ sp needed
	ldr	r7, [sp], #4
.LCFI36:
	.cfi_restore 7
	.cfi_def_cfa_offset 0
	bx	lr
	.cfi_endproc
.LFE143:
	.size	Cy_IPC_Drv_GetInterruptStatusMasked, .-Cy_IPC_Drv_GetInterruptStatusMasked
	.section	.text.Cy_IPC_Drv_GetInterruptStatus,"ax",%progbits
	.align	1
	.syntax unified
	.thumb
	.thumb_func
	.type	Cy_IPC_Drv_GetInterruptStatus, %function
Cy_IPC_Drv_GetInterruptStatus:
.LFB144:
	.loc 4 802 1
	.cfi_startproc
	@ args = 0, pretend = 0, frame = 8
	@ frame_needed = 1, uses_anonymous_args = 0
	@ link register save eliminated.
	push	{r7}
.LCFI37:
	.cfi_def_cfa_offset 4
	.cfi_offset 7, -4
	sub	sp, sp, #12
.LCFI38:
	.cfi_def_cfa_offset 16
	add	r7, sp, #0
.LCFI39:
	.cfi_def_cfa_register 7
	str	r0, [r7, #4]
	.loc 4 803 44
	ldr	r3, [r7, #4]
	ldr	r3, [r3]
	.loc 4 804 1
	mov	r0, r3
	adds	r7, r7, #12
.LCFI40:
	.cfi_def_cfa_offset 4
	mov	sp, r7
.LCFI41:
	.cfi_def_cfa_register 13
	@ sp needed
	ldr	r7, [sp], #4
.LCFI42:
	.cfi_restore 7
	.cfi_def_cfa_offset 0
	bx	lr
	.cfi_endproc
.LFE144:
	.size	Cy_IPC_Drv_GetInterruptStatus, .-Cy_IPC_Drv_GetInterruptStatus
	.section	.text.Cy_IPC_Drv_ClearInterrupt,"ax",%progbits
	.align	1
	.syntax unified
	.thumb
	.thumb_func
	.type	Cy_IPC_Drv_ClearInterrupt, %function
Cy_IPC_Drv_ClearInterrupt:
.LFB146:
	.loc 4 865 1
	.cfi_startproc
	@ args = 0, pretend = 0, frame = 16
	@ frame_needed = 1, uses_anonymous_args = 0
	push	{r7, lr}
.LCFI43:
	.cfi_def_cfa_offset 8
	.cfi_offset 7, -8
	.cfi_offset 14, -4
	sub	sp, sp, #16
.LCFI44:
	.cfi_def_cfa_offset 24
	add	r7, sp, #0
.LCFI45:
	.cfi_def_cfa_register 7
	str	r0, [r7, #12]
	str	r1, [r7, #8]
	str	r2, [r7, #4]
	.loc 4 866 37
	ldr	r3, [r7, #4]
	lsrs	r3, r3, #16
	lsls	r3, r3, #16
	.loc 4 866 12
	cmp	r3, #0
	beq	.L30
	.loc 4 866 66 discriminator 1
	bl	CY_HALT
.L30:
	.loc 4 867 38
	ldr	r3, [r7, #8]
	lsrs	r3, r3, #16
	lsls	r3, r3, #16
	.loc 4 867 12
	cmp	r3, #0
	beq	.L31
	.loc 4 867 67 discriminator 1
	bl	CY_HALT
.L31:
	.loc 4 868 84
	ldr	r3, [r7, #4]
	lsls	r2, r3, #16
	.loc 4 869 56
	ldr	r3, [r7, #8]
	uxth	r3, r3
	.loc 4 868 100
	orrs	r2, r2, r3
	.loc 4 868 45
	ldr	r3, [r7, #12]
	str	r2, [r3]
	.loc 4 870 5
	ldr	r3, [r7, #12]
	ldr	r3, [r3]
	.loc 4 871 1
	nop
	adds	r7, r7, #16
.LCFI46:
	.cfi_def_cfa_offset 8
	mov	sp, r7
.LCFI47:
	.cfi_def_cfa_register 13
	@ sp needed
	pop	{r7, pc}
	.cfi_endproc
.LFE146:
	.size	Cy_IPC_Drv_ClearInterrupt, .-Cy_IPC_Drv_ClearInterrupt
	.section	.text.Cy_IPC_Drv_AcquireNotify,"ax",%progbits
	.align	1
	.syntax unified
	.thumb
	.thumb_func
	.type	Cy_IPC_Drv_AcquireNotify, %function
Cy_IPC_Drv_AcquireNotify:
.LFB147:
	.loc 4 900 1
	.cfi_startproc
	@ args = 0, pretend = 0, frame = 8
	@ frame_needed = 1, uses_anonymous_args = 0
	push	{r7, lr}
.LCFI48:
	.cfi_def_cfa_offset 8
	.cfi_offset 7, -8
	.cfi_offset 14, -4
	sub	sp, sp, #8
.LCFI49:
	.cfi_def_cfa_offset 16
	add	r7, sp, #0
.LCFI50:
	.cfi_def_cfa_register 7
	str	r0, [r7, #4]
	str	r1, [r7]
	.loc 4 901 39
	ldr	r3, [r7]
	lsrs	r3, r3, #16
	lsls	r3, r3, #16
	.loc 4 901 12
	cmp	r3, #0
	beq	.L33
	.loc 4 901 68 discriminator 1
	bl	CY_HALT
.L33:
	.loc 4 902 82
	ldr	r3, [r7]
	uxth	r2, r3
	.loc 4 902 42
	ldr	r3, [r7, #4]
	str	r2, [r3, #8]
	.loc 4 903 1
	nop
	adds	r7, r7, #8
.LCFI51:
	.cfi_def_cfa_offset 8
	mov	sp, r7
.LCFI52:
	.cfi_def_cfa_register 13
	@ sp needed
	pop	{r7, pc}
	.cfi_endproc
.LFE147:
	.size	Cy_IPC_Drv_AcquireNotify, .-Cy_IPC_Drv_AcquireNotify
	.section	.text.Cy_IPC_Drv_WriteDataValue,"ax",%progbits
	.align	1
	.syntax unified
	.thumb
	.thumb_func
	.type	Cy_IPC_Drv_WriteDataValue, %function
Cy_IPC_Drv_WriteDataValue:
.LFB149:
	.loc 4 952 1
	.cfi_startproc
	@ args = 0, pretend = 0, frame = 8
	@ frame_needed = 1, uses_anonymous_args = 0
	@ link register save eliminated.
	push	{r7}
.LCFI53:
	.cfi_def_cfa_offset 4
	.cfi_offset 7, -4
	sub	sp, sp, #12
.LCFI54:
	.cfi_def_cfa_offset 16
	add	r7, sp, #0
.LCFI55:
	.cfi_def_cfa_register 7
	str	r0, [r7, #4]
	str	r1, [r7]
	.loc 4 953 44
	ldr	r3, [r7, #4]
	ldr	r2, [r7]
	str	r2, [r3, #12]
	.loc 4 954 1
	nop
	adds	r7, r7, #12
.LCFI56:
	.cfi_def_cfa_offset 4
	mov	sp, r7
.LCFI57:
	.cfi_def_cfa_register 13
	@ sp needed
	ldr	r7, [sp], #4
.LCFI58:
	.cfi_restore 7
	.cfi_def_cfa_offset 0
	bx	lr
	.cfi_endproc
.LFE149:
	.size	Cy_IPC_Drv_WriteDataValue, .-Cy_IPC_Drv_WriteDataValue
	.section	.text.Cy_IPC_Drv_IsLockAcquired,"ax",%progbits
	.align	1
	.syntax unified
	.thumb
	.thumb_func
	.type	Cy_IPC_Drv_IsLockAcquired, %function
Cy_IPC_Drv_IsLockAcquired:
.LFB153:
	.loc 4 1061 1
	.cfi_startproc
	@ args = 0, pretend = 0, frame = 8
	@ frame_needed = 1, uses_anonymous_args = 0
	@ link register save eliminated.
	push	{r7}
.LCFI59:
	.cfi_def_cfa_offset 4
	.cfi_offset 7, -4
	sub	sp, sp, #12
.LCFI60:
	.cfi_def_cfa_offset 16
	add	r7, sp, #0
.LCFI61:
	.cfi_def_cfa_register 7
	str	r0, [r7, #4]
	.loc 4 1062 84
	ldr	r3, .L37
	ldr	r3, [r3]
	ldr	r2, [r3, #188]
	.loc 4 1062 56
	ldr	r3, [r7, #4]
	.loc 4 1062 73
	add	r3, r3, r2
	.loc 4 1062 34
	ldr	r3, [r3]
	.loc 4 1062 17
	lsrs	r3, r3, #31
	uxtb	r3, r3
	.loc 4 1063 1
	mov	r0, r3
	adds	r7, r7, #12
.LCFI62:
	.cfi_def_cfa_offset 4
	mov	sp, r7
.LCFI63:
	.cfi_def_cfa_register 13
	@ sp needed
	ldr	r7, [sp], #4
.LCFI64:
	.cfi_restore 7
	.cfi_def_cfa_offset 0
	bx	lr
.L38:
	.align	2
.L37:
	.word	cy_device
	.cfi_endproc
.LFE153:
	.size	Cy_IPC_Drv_IsLockAcquired, .-Cy_IPC_Drv_IsLockAcquired
	.section	.text.Cy_IPC_Drv_ExtractAcquireMask,"ax",%progbits
	.align	1
	.syntax unified
	.thumb
	.thumb_func
	.type	Cy_IPC_Drv_ExtractAcquireMask, %function
Cy_IPC_Drv_ExtractAcquireMask:
.LFB155:
	.loc 4 1108 1
	.cfi_startproc
	@ args = 0, pretend = 0, frame = 8
	@ frame_needed = 1, uses_anonymous_args = 0
	@ link register save eliminated.
	push	{r7}
.LCFI65:
	.cfi_def_cfa_offset 4
	.cfi_offset 7, -4
	sub	sp, sp, #12
.LCFI66:
	.cfi_def_cfa_offset 16
	add	r7, sp, #0
.LCFI67:
	.cfi_def_cfa_register 7
	str	r0, [r7, #4]
	.loc 4 1109 50
	ldr	r3, [r7, #4]
	lsrs	r3, r3, #16
	.loc 4 1110 1
	mov	r0, r3
	adds	r7, r7, #12
.LCFI68:
	.cfi_def_cfa_offset 4
	mov	sp, r7
.LCFI69:
	.cfi_def_cfa_register 13
	@ sp needed
	ldr	r7, [sp], #4
.LCFI70:
	.cfi_restore 7
	.cfi_def_cfa_offset 0
	bx	lr
	.cfi_endproc
.LFE155:
	.size	Cy_IPC_Drv_ExtractAcquireMask, .-Cy_IPC_Drv_ExtractAcquireMask
	.section	.text.Cy_IPC_Drv_ExtractReleaseMask,"ax",%progbits
	.align	1
	.syntax unified
	.thumb
	.thumb_func
	.type	Cy_IPC_Drv_ExtractReleaseMask, %function
Cy_IPC_Drv_ExtractReleaseMask:
.LFB156:
	.loc 4 1130 1
	.cfi_startproc
	@ args = 0, pretend = 0, frame = 8
	@ frame_needed = 1, uses_anonymous_args = 0
	@ link register save eliminated.
	push	{r7}
.LCFI71:
	.cfi_def_cfa_offset 4
	.cfi_offset 7, -4
	sub	sp, sp, #12
.LCFI72:
	.cfi_def_cfa_offset 16
	add	r7, sp, #0
.LCFI73:
	.cfi_def_cfa_register 7
	str	r0, [r7, #4]
	.loc 4 1131 46
	ldr	r3, [r7, #4]
	uxth	r3, r3
	.loc 4 1132 1
	mov	r0, r3
	adds	r7, r7, #12
.LCFI74:
	.cfi_def_cfa_offset 4
	mov	sp, r7
.LCFI75:
	.cfi_def_cfa_register 13
	@ sp needed
	ldr	r7, [sp], #4
.LCFI76:
	.cfi_restore 7
	.cfi_def_cfa_offset 0
	bx	lr
	.cfi_endproc
.LFE156:
	.size	Cy_IPC_Drv_ExtractReleaseMask, .-Cy_IPC_Drv_ExtractReleaseMask
	.section	.text.Cy_IPC_Drv_ReadMsgPtr,"ax",%progbits
	.align	1
	.syntax unified
	.thumb
	.thumb_func
	.type	Cy_IPC_Drv_ReadMsgPtr, %function
Cy_IPC_Drv_ReadMsgPtr:
.LFB158:
	.loc 4 1207 1
	.cfi_startproc
	@ args = 0, pretend = 0, frame = 8
	@ frame_needed = 1, uses_anonymous_args = 0
	push	{r7, lr}
.LCFI77:
	.cfi_def_cfa_offset 8
	.cfi_offset 7, -8
	.cfi_offset 14, -4
	sub	sp, sp, #8
.LCFI78:
	.cfi_def_cfa_offset 16
	add	r7, sp, #0
.LCFI79:
	.cfi_def_cfa_register 7
	str	r0, [r7, #4]
	str	r1, [r7]
	.loc 4 1208 12
	ldr	r3, [r7]
	cmp	r3, #0
	bne	.L44
	.loc 4 1208 18 discriminator 1
	bl	CY_HALT
.L44:
	.loc 4 1209 12
	ldr	r1, [r7]
	ldr	r0, [r7, #4]
	bl	Cy_IPC_Drv_ReadMsgWord
	mov	r3, r0
	.loc 4 1210 1
	mov	r0, r3
	adds	r7, r7, #8
.LCFI80:
	.cfi_def_cfa_offset 8
	mov	sp, r7
.LCFI81:
	.cfi_def_cfa_register 13
	@ sp needed
	pop	{r7, pc}
	.cfi_endproc
.LFE158:
	.size	Cy_IPC_Drv_ReadMsgPtr, .-Cy_IPC_Drv_ReadMsgPtr
	.section	.text.Cy_IPC_Drv_LockAcquire,"ax",%progbits
	.align	1
	.syntax unified
	.thumb
	.thumb_func
	.type	Cy_IPC_Drv_LockAcquire, %function
Cy_IPC_Drv_LockAcquire:
.LFB159:
	.loc 4 1235 1
	.cfi_startproc
	@ args = 0, pretend = 0, frame = 8
	@ frame_needed = 1, uses_anonymous_args = 0
	@ link register save eliminated.
	push	{r7}
.LCFI82:
	.cfi_def_cfa_offset 4
	.cfi_offset 7, -4
	sub	sp, sp, #12
.LCFI83:
	.cfi_def_cfa_offset 16
	add	r7, sp, #0
.LCFI84:
	.cfi_def_cfa_register 7
	str	r0, [r7, #4]
	.loc 4 1236 61
	ldr	r3, [r7, #4]
	ldr	r3, [r3]
	.loc 4 1236 120
	cmp	r3, #0
	bge	.L47
	.loc 4 1236 120 is_stmt 0 discriminator 1
	movs	r3, #0
	b	.L49
.L47:
	.loc 4 1236 120 discriminator 2
	ldr	r3, .L50
.L49:
	.loc 4 1237 1 is_stmt 1 discriminator 5
	mov	r0, r3
	adds	r7, r7, #12
.LCFI85:
	.cfi_def_cfa_offset 4
	mov	sp, r7
.LCFI86:
	.cfi_def_cfa_register 13
	@ sp needed
	ldr	r7, [sp], #4
.LCFI87:
	.cfi_restore 7
	.cfi_def_cfa_offset 0
	bx	lr
.L51:
	.align	2
.L50:
	.word	9043969
	.cfi_endproc
.LFE159:
	.size	Cy_IPC_Drv_LockAcquire, .-Cy_IPC_Drv_LockAcquire
	.section	.bss.cy_ipc_pipe_epArray,"aw",%nobits
	.align	2
	.type	cy_ipc_pipe_epArray, %object
	.size	cy_ipc_pipe_epArray, 4
cy_ipc_pipe_epArray:
	.space	4
	.section	.text.Cy_IPC_Pipe_Config,"ax",%progbits
	.align	1
	.global	Cy_IPC_Pipe_Config
	.syntax unified
	.thumb
	.thumb_func
	.type	Cy_IPC_Pipe_Config, %function
Cy_IPC_Pipe_Config:
.LFB160:
	.file 5 "libraries\\IFX_PSOC6_HAL\\mtb-pdl-cat1\\drivers\\source\\cy_ipc_pipe.c"
	.loc 5 57 1
	.cfi_startproc
	@ args = 0, pretend = 0, frame = 8
	@ frame_needed = 1, uses_anonymous_args = 0
	@ link register save eliminated.
	push	{r7}
.LCFI88:
	.cfi_def_cfa_offset 4
	.cfi_offset 7, -4
	sub	sp, sp, #12
.LCFI89:
	.cfi_def_cfa_offset 16
	add	r7, sp, #0
.LCFI90:
	.cfi_def_cfa_register 7
	str	r0, [r7, #4]
	.loc 5 59 29
	ldr	r3, .L55
	ldr	r3, [r3]
	.loc 5 59 8
	cmp	r3, #0
	bne	.L54
	.loc 5 61 29
	ldr	r2, .L55
	ldr	r3, [r7, #4]
	str	r3, [r2]
.L54:
	.loc 5 63 1
	nop
	adds	r7, r7, #12
.LCFI91:
	.cfi_def_cfa_offset 4
	mov	sp, r7
.LCFI92:
	.cfi_def_cfa_register 13
	@ sp needed
	ldr	r7, [sp], #4
.LCFI93:
	.cfi_restore 7
	.cfi_def_cfa_offset 0
	bx	lr
.L56:
	.align	2
.L55:
	.word	cy_ipc_pipe_epArray
	.cfi_endproc
.LFE160:
	.size	Cy_IPC_Pipe_Config, .-Cy_IPC_Pipe_Config
	.section	.text.Cy_IPC_Pipe_Init,"ax",%progbits
	.align	1
	.global	Cy_IPC_Pipe_Init
	.syntax unified
	.thumb
	.thumb_func
	.type	Cy_IPC_Pipe_Init, %function
Cy_IPC_Pipe_Init:
.LFB161:
	.loc 5 87 1
	.cfi_startproc
	@ args = 0, pretend = 0, frame = 56
	@ frame_needed = 1, uses_anonymous_args = 0
	push	{r4, r5, r7, lr}
.LCFI94:
	.cfi_def_cfa_offset 16
	.cfi_offset 4, -16
	.cfi_offset 5, -12
	.cfi_offset 7, -8
	.cfi_offset 14, -4
	sub	sp, sp, #64
.LCFI95:
	.cfi_def_cfa_offset 80
	add	r7, sp, #8
.LCFI96:
	.cfi_def_cfa 7, 72
	str	r0, [r7, #4]
	.loc 5 96 12
	ldr	r3, [r7, #4]
	cmp	r3, #0
	bne	.L58
	.loc 5 96 18 discriminator 1
	bl	CY_HALT
.L58:
	.loc 5 100 59
	ldr	r3, [r7, #4]
	ldr	r3, [r3, #24]
	.loc 5 100 12
	cmp	r3, #7
	bls	.L59
	.loc 5 100 84 discriminator 1
	bl	CY_HALT
.L59:
	.loc 5 102 13
	ldr	r3, [r7, #4]
	ldr	r3, [r3, #44]
	.loc 5 102 12
	cmp	r3, #0
	bne	.L60
	.loc 5 102 43 discriminator 1
	bl	CY_HALT
.L60:
	.loc 5 103 13
	ldr	r3, [r7, #4]
	ldr	r3, [r3, #48]
	.loc 5 103 12
	cmp	r3, #0
	bne	.L61
	.loc 5 103 38 discriminator 1
	bl	CY_HALT
.L61:
	.loc 5 123 19
	ldr	r3, [r7, #4]
	add	r4, r7, #28
	add	r5, r3, #20
	ldmia	r5!, {r0, r1, r2, r3}
	stmia	r4!, {r0, r1, r2, r3}
	ldr	r3, [r5]
	str	r3, [r4]
	.loc 5 124 19
	ldr	r3, [r7, #4]
	add	r4, r7, #8
	mov	r5, r3
	ldmia	r5!, {r0, r1, r2, r3}
	stmia	r4!, {r0, r1, r2, r3}
	ldr	r3, [r5]
	str	r3, [r4]
	.loc 5 128 110
	ldr	r3, [r7, #28]
	.loc 5 128 86
	uxth	r3, r3
	adds	r3, r3, #23
	uxth	r3, r3
	.loc 5 128 37
	sxth	r3, r3
	.loc 5 128 35
	strh	r3, [r7, #48]	@ movhi
	.loc 5 129 55
	ldr	r3, [r7, #32]
	.loc 5 129 40
	str	r3, [r7, #52]
	.loc 5 134 5
	ldr	r0, [r7, #40]
	ldr	r3, [r7, #4]
	ldr	r1, [r3, #44]
	ldr	r3, [r7, #4]
	ldr	r2, [r3, #40]
	ldr	r4, [r7, #44]
	add	r3, r7, #48
	str	r3, [sp]
	mov	r3, r4
	bl	Cy_IPC_Pipe_EndpointInit
	.loc 5 141 5
	ldr	r0, [r7, #20]
	ldr	r3, [r7, #24]
	movs	r2, #0
	str	r2, [sp]
	movs	r2, #0
	movs	r1, #0
	bl	Cy_IPC_Pipe_EndpointInit
	.loc 5 143 11
	ldr	r3, [r7, #4]
	ldr	r2, [r3, #48]
	add	r3, r7, #48
	mov	r1, r2
	mov	r0, r3
	bl	Cy_SysInt_Init
	.loc 5 146 5
	ldrsh	r3, [r7, #48]
	mov	r0, r3
	bl	__NVIC_EnableIRQ
	.loc 5 194 1
	nop
	adds	r7, r7, #56
.LCFI97:
	.cfi_def_cfa_offset 16
	mov	sp, r7
.LCFI98:
	.cfi_def_cfa_register 13
	@ sp needed
	pop	{r4, r5, r7, pc}
	.cfi_endproc
.LFE161:
	.size	Cy_IPC_Pipe_Init, .-Cy_IPC_Pipe_Init
	.section	.text.Cy_IPC_Pipe_EndpointInit,"ax",%progbits
	.align	1
	.global	Cy_IPC_Pipe_EndpointInit
	.syntax unified
	.thumb
	.thumb_func
	.type	Cy_IPC_Pipe_EndpointInit, %function
Cy_IPC_Pipe_EndpointInit:
.LFB162:
	.loc 5 243 1
	.cfi_startproc
	@ args = 4, pretend = 0, frame = 24
	@ frame_needed = 1, uses_anonymous_args = 0
	push	{r7, lr}
.LCFI99:
	.cfi_def_cfa_offset 8
	.cfi_offset 7, -8
	.cfi_offset 14, -4
	sub	sp, sp, #24
.LCFI100:
	.cfi_def_cfa_offset 32
	add	r7, sp, #0
.LCFI101:
	.cfi_def_cfa_register 7
	str	r0, [r7, #12]
	str	r1, [r7, #8]
	str	r2, [r7, #4]
	str	r3, [r7]
	.loc 5 246 13
	ldr	r3, .L66
	ldr	r3, [r3]
	.loc 5 246 12
	cmp	r3, #0
	bne	.L63
	.loc 5 246 31 discriminator 1
	bl	CY_HALT
.L63:
	.loc 5 248 16
	ldr	r3, .L66
	ldr	r2, [r3]
	.loc 5 248 36
	ldr	r3, [r7, #12]
	movs	r1, #44
	mul	r3, r1, r3
	.loc 5 248 14
	add	r3, r3, r2
	str	r3, [r7, #20]
	.loc 5 251 66
	ldr	r3, [r7]
	uxtb	r2, r3
	.loc 5 251 23
	ldr	r3, [r7, #20]
	str	r2, [r3]
	.loc 5 252 67
	ldr	r3, [r7]
	lsrs	r3, r3, #8
	uxtb	r2, r3
	.loc 5 252 24
	ldr	r3, [r7, #20]
	str	r2, [r3, #4]
	.loc 5 253 70
	ldr	r3, [r7]
	lsrs	r2, r3, #16
	.loc 5 253 27
	ldr	r3, [r7, #20]
	str	r2, [r3, #8]
	.loc 5 256 24
	ldr	r3, [r7, #20]
	ldr	r3, [r3]
	mov	r0, r3
	bl	Cy_IPC_Drv_GetIpcBaseAddress
	mov	r2, r0
	.loc 5 256 22
	ldr	r3, [r7, #20]
	str	r2, [r3, #16]
	.loc 5 259 28
	ldr	r3, [r7, #20]
	ldr	r3, [r3, #4]
	mov	r0, r3
	bl	Cy_IPC_Drv_GetIntrBaseAddr
	mov	r2, r0
	.loc 5 259 26
	ldr	r3, [r7, #20]
	str	r2, [r3, #20]
	.loc 5 262 5
	ldr	r3, [r7, #20]
	ldr	r0, [r3, #20]
	ldr	r3, [r7, #20]
	ldr	r1, [r3, #8]
	ldr	r3, [r7, #20]
	ldr	r3, [r3, #8]
	mov	r2, r3
	bl	Cy_IPC_Drv_SetInterruptMask
	.loc 5 265 27
	ldr	r3, [r7, #20]
	ldr	r2, [r7, #4]
	str	r2, [r3, #28]
	.loc 5 266 29
	ldr	r3, [r7, #20]
	ldr	r2, [r7, #8]
	str	r2, [r3, #32]
	.loc 5 267 20
	ldr	r3, [r7, #20]
	movs	r2, #0
	str	r2, [r3, #24]
	.loc 5 269 8
	ldr	r3, [r7, #32]
	cmp	r3, #0
	beq	.L65
	.loc 5 275 48
	ldr	r3, [r7, #32]
	ldrsh	r2, [r3]
	.loc 5 275 35
	ldr	r3, [r7, #20]
	strh	r2, [r3, #12]	@ movhi
.L65:
	.loc 5 278 1
	nop
	adds	r7, r7, #24
.LCFI102:
	.cfi_def_cfa_offset 8
	mov	sp, r7
.LCFI103:
	.cfi_def_cfa_register 13
	@ sp needed
	pop	{r7, pc}
.L67:
	.align	2
.L66:
	.word	cy_ipc_pipe_epArray
	.cfi_endproc
.LFE162:
	.size	Cy_IPC_Pipe_EndpointInit, .-Cy_IPC_Pipe_EndpointInit
	.section	.text.Cy_IPC_Pipe_SendMessage,"ax",%progbits
	.align	1
	.global	Cy_IPC_Pipe_SendMessage
	.syntax unified
	.thumb
	.thumb_func
	.type	Cy_IPC_Pipe_SendMessage, %function
Cy_IPC_Pipe_SendMessage:
.LFB163:
	.loc 5 315 1
	.cfi_startproc
	@ args = 0, pretend = 0, frame = 40
	@ frame_needed = 1, uses_anonymous_args = 0
	push	{r7, lr}
.LCFI104:
	.cfi_def_cfa_offset 8
	.cfi_offset 7, -8
	.cfi_offset 14, -4
	sub	sp, sp, #40
.LCFI105:
	.cfi_def_cfa_offset 48
	add	r7, sp, #0
.LCFI106:
	.cfi_def_cfa_register 7
	str	r0, [r7, #12]
	str	r1, [r7, #8]
	str	r2, [r7, #4]
	str	r3, [r7]
	.loc 5 323 12
	ldr	r3, [r7, #4]
	cmp	r3, #0
	bne	.L69
	.loc 5 323 18 discriminator 1
	bl	CY_HALT
.L69:
	.loc 5 324 13
	ldr	r3, .L76
	ldr	r3, [r3]
	.loc 5 324 12
	cmp	r3, #0
	bne	.L70
	.loc 5 324 31 discriminator 1
	bl	CY_HALT
.L70:
	.loc 5 326 12
	ldr	r3, .L76
	ldr	r2, [r3]
	.loc 5 326 33
	ldr	r3, [r7, #12]
	movs	r1, #44
	mul	r3, r1, r3
	.loc 5 326 10
	add	r3, r3, r2
	str	r3, [r7, #32]
	.loc 5 327 14
	ldr	r3, .L76
	ldr	r2, [r3]
	.loc 5 327 34
	ldr	r3, [r7, #8]
	movs	r1, #44
	mul	r3, r1, r3
	.loc 5 327 12
	add	r3, r3, r2
	str	r3, [r7, #28]
	.loc 5 330 44
	ldr	r3, [r7, #28]
	ldr	r3, [r3, #4]
	.loc 5 330 17
	movs	r2, #1
	lsl	r3, r2, r3
	str	r3, [r7, #24]
	.loc 5 333 17
	ldr	r3, [r7, #24]
	lsls	r3, r3, #16
	str	r3, [r7, #24]
	.loc 5 336 41
	ldr	r3, [r7, #32]
	ldr	r3, [r3, #4]
	.loc 5 336 16
	movs	r2, #1
	lsl	r3, r2, r3
	str	r3, [r7, #20]
	.loc 5 339 13
	ldr	r3, [r7, #32]
	ldr	r3, [r3, #16]
	.loc 5 339 7
	cmp	r3, #0
	beq	.L71
	.loc 5 341 18
	ldr	r3, [r7, #28]
	ldr	r3, [r3, #24]
	.loc 5 341 11
	cmp	r3, #0
	bne	.L72
	.loc 5 344 66
	ldr	r3, [r7, #32]
	ldr	r3, [r3, #16]
	.loc 5 344 39
	mov	r0, r3
	bl	Cy_IPC_Drv_LockAcquire
	mov	r3, r0
	.loc 5 344 15
	cmp	r3, #0
	bne	.L73
	.loc 5 347 39
	ldr	r3, [r7, #4]
	ldr	r3, [r3]
	uxth	r2, r3
	ldr	r3, [r7, #4]
	str	r2, [r3]
	.loc 5 349 39
	ldr	r3, [r7, #4]
	ldr	r2, [r3]
	ldr	r3, [r7, #24]
	orrs	r2, r2, r3
	ldr	r3, [r7, #4]
	str	r2, [r3]
	.loc 5 358 17
	ldr	r3, [r7, #32]
	ldr	r3, [r3, #16]
	ldr	r2, [r7, #4]
	mov	r1, r2
	mov	r0, r3
	bl	Cy_IPC_Drv_WriteDataValue
	.loc 5 361 30
	ldr	r3, [r7, #28]
	movs	r2, #1
	str	r2, [r3, #24]
	.loc 5 364 44
	ldr	r3, [r7, #28]
	ldr	r2, [r7]
	str	r2, [r3, #36]
	.loc 5 367 17
	ldr	r3, [r7, #32]
	ldr	r3, [r3, #16]
	ldr	r1, [r7, #20]
	mov	r0, r3
	bl	Cy_IPC_Drv_AcquireNotify
	.loc 5 369 30
	movs	r3, #0
	str	r3, [r7, #36]
	b	.L74
.L73:
	.loc 5 374 30
	ldr	r3, .L76+4
	str	r3, [r7, #36]
	b	.L74
.L72:
	.loc 5 380 26
	ldr	r3, .L76+4
	str	r3, [r7, #36]
	b	.L74
.L71:
	.loc 5 386 22
	ldr	r3, .L76+8
	str	r3, [r7, #36]
.L74:
	.loc 5 388 12
	ldr	r3, [r7, #36]
	.loc 5 389 1
	mov	r0, r3
	adds	r7, r7, #40
.LCFI107:
	.cfi_def_cfa_offset 8
	mov	sp, r7
.LCFI108:
	.cfi_def_cfa_register 13
	@ sp needed
	pop	{r7, pc}
.L77:
	.align	2
.L76:
	.word	cy_ipc_pipe_epArray
	.word	9044487
	.word	9044484
	.cfi_endproc
.LFE163:
	.size	Cy_IPC_Pipe_SendMessage, .-Cy_IPC_Pipe_SendMessage
	.section	.text.Cy_IPC_Pipe_RegisterCallback,"ax",%progbits
	.align	1
	.global	Cy_IPC_Pipe_RegisterCallback
	.syntax unified
	.thumb
	.thumb_func
	.type	Cy_IPC_Pipe_RegisterCallback, %function
Cy_IPC_Pipe_RegisterCallback:
.LFB164:
	.loc 5 422 1
	.cfi_startproc
	@ args = 0, pretend = 0, frame = 24
	@ frame_needed = 1, uses_anonymous_args = 0
	push	{r7, lr}
.LCFI109:
	.cfi_def_cfa_offset 8
	.cfi_offset 7, -8
	.cfi_offset 14, -4
	sub	sp, sp, #24
.LCFI110:
	.cfi_def_cfa_offset 32
	add	r7, sp, #0
.LCFI111:
	.cfi_def_cfa_register 7
	str	r0, [r7, #12]
	str	r1, [r7, #8]
	str	r2, [r7, #4]
	.loc 5 426 13
	ldr	r3, .L84
	ldr	r3, [r3]
	.loc 5 426 12
	cmp	r3, #0
	bne	.L79
	.loc 5 426 31 discriminator 1
	bl	CY_HALT
.L79:
	.loc 5 428 14
	ldr	r3, .L84
	ldr	r2, [r3]
	.loc 5 428 34
	ldr	r3, [r7, #12]
	movs	r1, #44
	mul	r3, r1, r3
	.loc 5 428 12
	add	r3, r3, r2
	str	r3, [r7, #16]
	.loc 5 430 13
	ldr	r3, [r7, #16]
	ldr	r3, [r3, #32]
	.loc 5 430 12
	cmp	r3, #0
	bne	.L80
	.loc 5 430 33 discriminator 1
	bl	CY_HALT
.L80:
	.loc 5 433 26
	ldr	r3, [r7, #16]
	ldr	r3, [r3, #28]
	.loc 5 433 8
	ldr	r2, [r7, #4]
	cmp	r2, r3
	bcs	.L81
	.loc 5 436 15
	ldr	r3, [r7, #16]
	ldr	r2, [r3, #32]
	.loc 5 436 30
	ldr	r3, [r7, #4]
	lsls	r3, r3, #2
	add	r3, r3, r2
	.loc 5 436 41
	ldr	r2, [r7, #8]
	str	r2, [r3]
	.loc 5 438 22
	movs	r3, #0
	str	r3, [r7, #20]
	b	.L82
.L81:
	.loc 5 442 22
	ldr	r3, .L84+4
	str	r3, [r7, #20]
.L82:
	.loc 5 444 12
	ldr	r3, [r7, #20]
	.loc 5 445 1
	mov	r0, r3
	adds	r7, r7, #24
.LCFI112:
	.cfi_def_cfa_offset 8
	mov	sp, r7
.LCFI113:
	.cfi_def_cfa_register 13
	@ sp needed
	pop	{r7, pc}
.L85:
	.align	2
.L84:
	.word	cy_ipc_pipe_epArray
	.word	9044490
	.cfi_endproc
.LFE164:
	.size	Cy_IPC_Pipe_RegisterCallback, .-Cy_IPC_Pipe_RegisterCallback
	.section	.text.Cy_IPC_Pipe_RegisterCallbackRel,"ax",%progbits
	.align	1
	.global	Cy_IPC_Pipe_RegisterCallbackRel
	.syntax unified
	.thumb
	.thumb_func
	.type	Cy_IPC_Pipe_RegisterCallbackRel, %function
Cy_IPC_Pipe_RegisterCallbackRel:
.LFB165:
	.loc 5 473 1
	.cfi_startproc
	@ args = 0, pretend = 0, frame = 16
	@ frame_needed = 1, uses_anonymous_args = 0
	push	{r7, lr}
.LCFI114:
	.cfi_def_cfa_offset 8
	.cfi_offset 7, -8
	.cfi_offset 14, -4
	sub	sp, sp, #16
.LCFI115:
	.cfi_def_cfa_offset 24
	add	r7, sp, #0
.LCFI116:
	.cfi_def_cfa_register 7
	str	r0, [r7, #4]
	str	r1, [r7]
	.loc 5 476 13
	ldr	r3, .L88
	ldr	r3, [r3]
	.loc 5 476 12
	cmp	r3, #0
	bne	.L87
	.loc 5 476 31 discriminator 1
	bl	CY_HALT
.L87:
	.loc 5 478 16
	ldr	r3, .L88
	ldr	r2, [r3]
	.loc 5 478 36
	ldr	r3, [r7, #4]
	movs	r1, #44
	mul	r3, r1, r3
	.loc 5 478 14
	add	r3, r3, r2
	str	r3, [r7, #12]
	.loc 5 481 41
	ldr	r3, [r7, #12]
	ldr	r2, [r7]
	str	r2, [r3, #40]
	.loc 5 482 1
	nop
	adds	r7, r7, #16
.LCFI117:
	.cfi_def_cfa_offset 8
	mov	sp, r7
.LCFI118:
	.cfi_def_cfa_register 13
	@ sp needed
	pop	{r7, pc}
.L89:
	.align	2
.L88:
	.word	cy_ipc_pipe_epArray
	.cfi_endproc
.LFE165:
	.size	Cy_IPC_Pipe_RegisterCallbackRel, .-Cy_IPC_Pipe_RegisterCallbackRel
	.section	.text.Cy_IPC_Pipe_ExecuteCallback,"ax",%progbits
	.align	1
	.global	Cy_IPC_Pipe_ExecuteCallback
	.syntax unified
	.thumb
	.thumb_func
	.type	Cy_IPC_Pipe_ExecuteCallback, %function
Cy_IPC_Pipe_ExecuteCallback:
.LFB166:
	.loc 5 506 1
	.cfi_startproc
	@ args = 0, pretend = 0, frame = 16
	@ frame_needed = 1, uses_anonymous_args = 0
	push	{r7, lr}
.LCFI119:
	.cfi_def_cfa_offset 8
	.cfi_offset 7, -8
	.cfi_offset 14, -4
	sub	sp, sp, #16
.LCFI120:
	.cfi_def_cfa_offset 24
	add	r7, sp, #0
.LCFI121:
	.cfi_def_cfa_register 7
	str	r0, [r7, #4]
	.loc 5 509 13
	ldr	r3, .L92
	ldr	r3, [r3]
	.loc 5 509 12
	cmp	r3, #0
	bne	.L91
	.loc 5 509 31 discriminator 1
	bl	CY_HALT
.L91:
	.loc 5 511 16
	ldr	r3, .L92
	ldr	r2, [r3]
	.loc 5 511 36
	ldr	r3, [r7, #4]
	movs	r1, #44
	mul	r3, r1, r3
	.loc 5 511 14
	add	r3, r3, r2
	str	r3, [r7, #12]
	.loc 5 513 5
	ldr	r0, [r7, #12]
	bl	Cy_IPC_Pipe_ExecCallback
	.loc 5 514 1
	nop
	adds	r7, r7, #16
.LCFI122:
	.cfi_def_cfa_offset 8
	mov	sp, r7
.LCFI123:
	.cfi_def_cfa_register 13
	@ sp needed
	pop	{r7, pc}
.L93:
	.align	2
.L92:
	.word	cy_ipc_pipe_epArray
	.cfi_endproc
.LFE166:
	.size	Cy_IPC_Pipe_ExecuteCallback, .-Cy_IPC_Pipe_ExecuteCallback
	.section	.text.Cy_IPC_Pipe_ExecCallback,"ax",%progbits
	.align	1
	.global	Cy_IPC_Pipe_ExecCallback
	.syntax unified
	.thumb
	.thumb_func
	.type	Cy_IPC_Pipe_ExecCallback, %function
Cy_IPC_Pipe_ExecCallback:
.LFB167:
	.loc 5 532 1
	.cfi_startproc
	@ args = 0, pretend = 0, frame = 32
	@ frame_needed = 1, uses_anonymous_args = 0
	push	{r4, r7, lr}
.LCFI124:
	.cfi_def_cfa_offset 12
	.cfi_offset 4, -12
	.cfi_offset 7, -8
	.cfi_offset 14, -4
	sub	sp, sp, #36
.LCFI125:
	.cfi_def_cfa_offset 48
	add	r7, sp, #0
.LCFI126:
	.cfi_def_cfa_register 7
	str	r0, [r7, #4]
	.loc 5 533 15
	movs	r3, #0
	str	r3, [r7, #12]
	.loc 5 536 14
	movs	r3, #0
	str	r3, [r7, #28]
	.loc 5 541 12
	ldr	r3, [r7, #4]
	cmp	r3, #0
	bne	.L95
	.loc 5 541 20 discriminator 1
	bl	CY_HALT
.L95:
	.loc 5 542 15
	ldr	r3, [r7, #4]
	ldr	r3, [r3, #16]
	.loc 5 542 12
	cmp	r3, #0
	bne	.L96
	.loc 5 542 28 discriminator 1
	bl	CY_HALT
.L96:
	.loc 5 543 15
	ldr	r3, [r7, #4]
	ldr	r3, [r3, #20]
	.loc 5 543 12
	cmp	r3, #0
	bne	.L97
	.loc 5 543 32 discriminator 1
	bl	CY_HALT
.L97:
	.loc 5 544 15
	ldr	r3, [r7, #4]
	ldr	r3, [r3, #32]
	.loc 5 544 12
	cmp	r3, #0
	bne	.L98
	.loc 5 544 35 discriminator 1
	bl	CY_HALT
.L98:
	.loc 5 547 62
	ldr	r3, [r7, #4]
	ldr	r3, [r3, #20]
	.loc 5 547 18
	mov	r0, r3
	bl	Cy_IPC_Drv_GetInterruptStatusMasked
	str	r0, [r7, #24]
	.loc 5 550 16
	ldr	r0, [r7, #24]
	bl	Cy_IPC_Drv_ExtractAcquireMask
	mov	r3, r0
	.loc 5 550 8
	cmp	r3, #0
	beq	.L99
	.loc 5 553 9
	ldr	r3, [r7, #4]
	ldr	r4, [r3, #20]
	ldr	r0, [r7, #24]
	bl	Cy_IPC_Drv_ExtractAcquireMask
	mov	r3, r0
	mov	r2, r3
	movs	r1, #0
	mov	r0, r4
	bl	Cy_IPC_Drv_ClearInterrupt
	.loc 5 555 49
	ldr	r3, [r7, #4]
	ldr	r3, [r3, #16]
	.loc 5 555 14
	mov	r0, r3
	bl	Cy_IPC_Drv_IsLockAcquired
	mov	r3, r0
	.loc 5 555 12
	cmp	r3, #0
	beq	.L99
	.loc 5 558 70
	ldr	r3, [r7, #4]
	ldr	r3, [r3, #16]
	.loc 5 558 39
	add	r2, r7, #12
	mov	r1, r2
	mov	r0, r3
	bl	Cy_IPC_Drv_ReadMsgPtr
	mov	r3, r0
	.loc 5 558 15
	cmp	r3, #0
	bne	.L100
	.loc 5 565 33
	ldr	r3, [r7, #12]
	ldr	r3, [r3]
	.loc 5 565 29
	lsrs	r3, r3, #16
	str	r3, [r7, #28]
	.loc 5 566 30
	ldr	r3, [r7, #12]
	ldr	r3, [r3]
	.loc 5 566 26
	uxtb	r3, r3
	str	r3, [r7, #20]
	.loc 5 569 29
	ldr	r3, [r7, #4]
	ldr	r3, [r3, #28]
	.loc 5 569 20
	ldr	r2, [r7, #20]
	cmp	r2, r3
	bcs	.L100
	.loc 5 571 43
	ldr	r3, [r7, #4]
	ldr	r2, [r3, #32]
	.loc 5 571 58
	ldr	r3, [r7, #20]
	lsls	r3, r3, #2
	add	r3, r3, r2
	.loc 5 571 33
	ldr	r3, [r3]
	str	r3, [r7, #16]
	.loc 5 573 24
	ldr	r3, [r7, #16]
	cmp	r3, #0
	beq	.L100
	.loc 5 575 25
	ldr	r2, [r7, #12]
	ldr	r3, [r7, #16]
	mov	r0, r2
	blx	r3
.LVL0:
.L100:
	.loc 5 581 19
	ldr	r3, [r7, #4]
	ldr	r3, [r3, #16]
	ldr	r1, [r7, #28]
	mov	r0, r3
	bl	Cy_IPC_Drv_LockRelease
.L99:
	.loc 5 586 16
	ldr	r0, [r7, #24]
	bl	Cy_IPC_Drv_ExtractReleaseMask
	mov	r3, r0
	.loc 5 586 8
	cmp	r3, #0
	beq	.L101
	.loc 5 589 9
	ldr	r3, [r7, #4]
	ldr	r4, [r3, #20]
	ldr	r0, [r7, #24]
	bl	Cy_IPC_Drv_ExtractReleaseMask
	mov	r3, r0
	movs	r2, #0
	mov	r1, r3
	mov	r0, r4
	bl	Cy_IPC_Drv_ClearInterrupt
	.loc 5 591 21
	ldr	r3, [r7, #4]
	ldr	r3, [r3, #36]
	.loc 5 591 12
	cmp	r3, #0
	beq	.L102
	.loc 5 593 21
	ldr	r3, [r7, #4]
	ldr	r3, [r3, #36]
	.loc 5 593 13
	blx	r3
.LVL1:
	.loc 5 596 42
	ldr	r3, [r7, #4]
	movs	r2, #0
	str	r2, [r3, #36]
	b	.L103
.L102:
	.loc 5 600 25
	ldr	r3, [r7, #4]
	ldr	r3, [r3, #40]
	.loc 5 600 16
	cmp	r3, #0
	beq	.L103
	.loc 5 602 25
	ldr	r3, [r7, #4]
	ldr	r3, [r3, #40]
	.loc 5 602 17
	blx	r3
.LVL2:
.L103:
	.loc 5 607 24
	ldr	r3, [r7, #4]
	movs	r2, #0
	str	r2, [r3, #24]
.L101:
	.loc 5 610 49
	ldr	r3, [r7, #4]
	ldr	r3, [r3, #20]
	.loc 5 610 11
	mov	r0, r3
	bl	Cy_IPC_Drv_GetInterruptStatus
	.loc 5 611 1
	nop
	adds	r7, r7, #36
.LCFI127:
	.cfi_def_cfa_offset 12
	mov	sp, r7
.LCFI128:
	.cfi_def_cfa_register 13
	@ sp needed
	pop	{r4, r7, pc}
	.cfi_endproc
.LFE167:
	.size	Cy_IPC_Pipe_ExecCallback, .-Cy_IPC_Pipe_ExecCallback
	.section	.text.Cy_IPC_Pipe_EndpointPause,"ax",%progbits
	.align	1
	.global	Cy_IPC_Pipe_EndpointPause
	.syntax unified
	.thumb
	.thumb_func
	.type	Cy_IPC_Pipe_EndpointPause, %function
Cy_IPC_Pipe_EndpointPause:
.LFB168:
	.loc 5 632 1
	.cfi_startproc
	@ args = 0, pretend = 0, frame = 16
	@ frame_needed = 1, uses_anonymous_args = 0
	push	{r7, lr}
.LCFI129:
	.cfi_def_cfa_offset 8
	.cfi_offset 7, -8
	.cfi_offset 14, -4
	sub	sp, sp, #16
.LCFI130:
	.cfi_def_cfa_offset 24
	add	r7, sp, #0
.LCFI131:
	.cfi_def_cfa_register 7
	str	r0, [r7, #4]
	.loc 5 635 13
	ldr	r3, .L107
	ldr	r3, [r3]
	.loc 5 635 12
	cmp	r3, #0
	bne	.L105
	.loc 5 635 31 discriminator 1
	bl	CY_HALT
.L105:
	.loc 5 637 16
	ldr	r3, .L107
	ldr	r2, [r3]
	.loc 5 637 36
	ldr	r3, [r7, #4]
	movs	r1, #44
	mul	r3, r1, r3
	.loc 5 637 14
	add	r3, r3, r2
	str	r3, [r7, #12]
	.loc 5 640 5
	ldr	r3, [r7, #12]
	ldrsh	r3, [r3, #12]
	mov	r0, r3
	bl	__NVIC_DisableIRQ
	.loc 5 642 12
	movs	r3, #0
	.loc 5 643 1
	mov	r0, r3
	adds	r7, r7, #16
.LCFI132:
	.cfi_def_cfa_offset 8
	mov	sp, r7
.LCFI133:
	.cfi_def_cfa_register 13
	@ sp needed
	pop	{r7, pc}
.L108:
	.align	2
.L107:
	.word	cy_ipc_pipe_epArray
	.cfi_endproc
.LFE168:
	.size	Cy_IPC_Pipe_EndpointPause, .-Cy_IPC_Pipe_EndpointPause
	.section	.text.Cy_IPC_Pipe_EndpointResume,"ax",%progbits
	.align	1
	.global	Cy_IPC_Pipe_EndpointResume
	.syntax unified
	.thumb
	.thumb_func
	.type	Cy_IPC_Pipe_EndpointResume, %function
Cy_IPC_Pipe_EndpointResume:
.LFB169:
	.loc 5 664 1
	.cfi_startproc
	@ args = 0, pretend = 0, frame = 16
	@ frame_needed = 1, uses_anonymous_args = 0
	push	{r7, lr}
.LCFI134:
	.cfi_def_cfa_offset 8
	.cfi_offset 7, -8
	.cfi_offset 14, -4
	sub	sp, sp, #16
.LCFI135:
	.cfi_def_cfa_offset 24
	add	r7, sp, #0
.LCFI136:
	.cfi_def_cfa_register 7
	str	r0, [r7, #4]
	.loc 5 667 13
	ldr	r3, .L112
	ldr	r3, [r3]
	.loc 5 667 12
	cmp	r3, #0
	bne	.L110
	.loc 5 667 31 discriminator 1
	bl	CY_HALT
.L110:
	.loc 5 669 16
	ldr	r3, .L112
	ldr	r2, [r3]
	.loc 5 669 36
	ldr	r3, [r7, #4]
	movs	r1, #44
	mul	r3, r1, r3
	.loc 5 669 14
	add	r3, r3, r2
	str	r3, [r7, #12]
	.loc 5 672 5
	ldr	r3, [r7, #12]
	ldrsh	r3, [r3, #12]
	mov	r0, r3
	bl	__NVIC_EnableIRQ
	.loc 5 674 12
	movs	r3, #0
	.loc 5 675 1
	mov	r0, r3
	adds	r7, r7, #16
.LCFI137:
	.cfi_def_cfa_offset 8
	mov	sp, r7
.LCFI138:
	.cfi_def_cfa_register 13
	@ sp needed
	pop	{r7, pc}
.L113:
	.align	2
.L112:
	.word	cy_ipc_pipe_epArray
	.cfi_endproc
.LFE169:
	.size	Cy_IPC_Pipe_EndpointResume, .-Cy_IPC_Pipe_EndpointResume
	.text
.Letext0:
	.file 6 "d:\\llc\\softwares\\env-windows-v1.3.5\\tools\\gnu_gcc\\arm_gcc\\mingw\\arm-none-eabi\\include\\machine\\_default_types.h"
	.file 7 "d:\\llc\\softwares\\env-windows-v1.3.5\\tools\\gnu_gcc\\arm_gcc\\mingw\\arm-none-eabi\\include\\sys\\_stdint.h"
	.file 8 "libraries\\IFX_PSOC6_HAL\\mtb-pdl-cat1\\devices\\COMPONENT_CAT1A\\include/ip/cyip_ipc_v2.h"
	.file 9 "libraries\\IFX_PSOC6_HAL\\mtb-pdl-cat1\\devices\\COMPONENT_CAT1A\\include/cy8c624alqi_s2d42.h"
	.file 10 "libraries\\IFX_PSOC6_HAL\\mtb-pdl-cat1\\devices\\COMPONENT_CAT1A\\include/psoc6_02_config.h"
	.file 11 "libraries\\IFX_PSOC6_HAL\\mtb-pdl-cat1\\devices\\COMPONENT_CAT1A\\include/cy_device.h"
	.file 12 "libraries\\IFX_PSOC6_HAL\\core-lib\\include/cy_result.h"
	.file 13 "libraries\\IFX_PSOC6_HAL\\mtb-pdl-cat1\\drivers\\include/cy_syslib.h"
	.file 14 "libraries\\IFX_PSOC6_HAL\\mtb-pdl-cat1\\drivers\\include/cy_sysint.h"
	.file 15 "libraries\\IFX_PSOC6_HAL\\mtb-pdl-cat1\\drivers\\include/cy_ipc_pipe.h"