	.cpu cortex-m4
	.arch armv7e-m
	.fpu fpv4-sp-d16
	.eabi_attribute 27, 1
	.eabi_attribute 28, 1
	.eabi_attribute 20, 1
	.eabi_attribute 21, 1
	.eabi_attribute 23, 3
	.eabi_attribute 24, 1
	.eabi_attribute 25, 1
	.eabi_attribute 26, 1
	.eabi_attribute 30, 6
	.eabi_attribute 34, 1
	.eabi_attribute 18, 4
	.file	"cy_mcwdt.c"
	.text
.Ltext0:
	.cfi_sections	.debug_frame
	.section	.text.CY_HALT,"ax",%progbits
	.align	1
	.syntax unified
	.thumb
	.thumb_func
	.type	CY_HALT, %function
CY_HALT:
.LFB133:
	.file 1 "libraries\\IFX_PSOC6_HAL\\core-lib\\include/cy_utils.h"
	.loc 1 49 1
	.cfi_startproc
	@ args = 0, pretend = 0, frame = 0
	@ frame_needed = 1, uses_anonymous_args = 0
	@ link register save eliminated.
	push	{r7}
.LCFI0:
	.cfi_def_cfa_offset 4
	.cfi_offset 7, -4
	add	r7, sp, #0
.LCFI1:
	.cfi_def_cfa_register 7
	.loc 1 50 5
	.syntax unified
@ 50 "libraries\IFX_PSOC6_HAL\core-lib\include/cy_utils.h" 1
	    bkpt    1
@ 0 "" 2
	.loc 1 51 1
	.thumb
	.syntax unified
	nop
	mov	sp, r7
.LCFI2:
	.cfi_def_cfa_register 13
	@ sp needed
	ldr	r7, [sp], #4
.LCFI3:
	.cfi_restore 7
	.cfi_def_cfa_offset 0
	bx	lr
	.cfi_endproc
.LFE133:
	.size	CY_HALT, .-CY_HALT
	.section	.text.Cy_MCWDT_Unlock,"ax",%progbits
	.align	1
	.syntax unified
	.thumb
	.thumb_func
	.type	Cy_MCWDT_Unlock, %function
Cy_MCWDT_Unlock:
.LFB141:
	.file 2 "libraries\\IFX_PSOC6_HAL\\mtb-pdl-cat1\\drivers\\include/cy_mcwdt.h"
	.loc 2 891 1
	.cfi_startproc
	@ args = 0, pretend = 0, frame = 16
	@ frame_needed = 1, uses_anonymous_args = 0
	push	{r7, lr}
.LCFI4:
	.cfi_def_cfa_offset 8
	.cfi_offset 7, -8
	.cfi_offset 14, -4
	sub	sp, sp, #16
.LCFI5:
	.cfi_def_cfa_offset 24
	add	r7, sp, #0
.LCFI6:
	.cfi_def_cfa_register 7
	str	r0, [r7, #4]
	.loc 2 894 22
	bl	Cy_SysLib_EnterCriticalSection
	str	r0, [r7, #12]
	.loc 2 899 90
	ldr	r3, [r7, #4]
	ldr	r3, [r3, #40]
	.loc 2 899 105
	bic	r3, r3, #-1073741824
	.loc 2 899 138
	orr	r2, r3, #1073741824
	.loc 2 899 52
	ldr	r3, [r7, #4]
	str	r2, [r3, #40]
	.loc 2 900 90
	ldr	r3, [r7, #4]
	ldr	r3, [r3, #40]
	.loc 2 900 105
	bic	r3, r3, #-1073741824
	.loc 2 900 138
	orr	r2, r3, #-2147483648
	.loc 2 900 52
	ldr	r3, [r7, #4]
	str	r2, [r3, #40]
	.loc 2 902 5
	ldr	r0, [r7, #12]
	bl	Cy_SysLib_ExitCriticalSection
	.loc 2 903 1
	nop
	adds	r7, r7, #16
.LCFI7:
	.cfi_def_cfa_offset 8
	mov	sp, r7
.LCFI8:
	.cfi_def_cfa_register 13
	@ sp needed
	pop	{r7, pc}
	.cfi_endproc
.LFE141:
	.size	Cy_MCWDT_Unlock, .-Cy_MCWDT_Unlock
	.section	.text.Cy_MCWDT_Init,"ax",%progbits
	.align	1
	.global	Cy_MCWDT_Init
	.syntax unified
	.thumb
	.thumb_func
	.type	Cy_MCWDT_Init, %function
Cy_MCWDT_Init:
.LFB161:
	.file 3 "libraries\\IFX_PSOC6_HAL\\mtb-pdl-cat1\\drivers\\source\\cy_mcwdt.c"
	.loc 3 57 1
	.cfi_startproc
	@ args = 0, pretend = 0, frame = 16
	@ frame_needed = 1, uses_anonymous_args = 0
	push	{r7, lr}
.LCFI9:
	.cfi_def_cfa_offset 8
	.cfi_offset 7, -8
	.cfi_offset 14, -4
	sub	sp, sp, #16
.LCFI10:
	.cfi_def_cfa_offset 24
	add	r7, sp, #0
.LCFI11:
	.cfi_def_cfa_register 7
	str	r0, [r7, #4]
	str	r1, [r7]
	.loc 3 58 26
	ldr	r3, .L16
	str	r3, [r7, #12]
	.loc 3 60 8
	ldr	r3, [r7, #4]
	cmp	r3, #0
	beq	.L4
	.loc 3 60 23 discriminator 1
	ldr	r3, [r7]
	cmp	r3, #0
	beq	.L4
	.loc 3 62 27
	ldr	r3, [r7]
	ldrb	r3, [r3, #8]	@ zero_extendqisi2
	.loc 3 62 16
	cmp	r3, #0
	beq	.L5
	.loc 3 62 62 discriminator 1
	ldr	r3, [r7]
	ldrh	r3, [r3]
	.loc 3 62 17 discriminator 1
	cmp	r3, #0
	bne	.L5
	.loc 3 62 14 discriminator 2
	bl	CY_HALT
.L5:
	.loc 3 63 27
	ldr	r3, [r7]
	ldrb	r3, [r3, #9]	@ zero_extendqisi2
	.loc 3 63 16
	cmp	r3, #0
	beq	.L6
	.loc 3 63 62 discriminator 1
	ldr	r3, [r7]
	ldrh	r3, [r3, #2]
	.loc 3 63 17 discriminator 1
	cmp	r3, #0
	bne	.L6
	.loc 3 63 14 discriminator 2
	bl	CY_HALT
.L6:
	.loc 3 64 35
	ldr	r3, [r7]
	ldrb	r3, [r3, #6]	@ zero_extendqisi2
	.loc 3 64 16
	cmp	r3, #31
	bls	.L7
	.loc 3 64 55 discriminator 1
	bl	CY_HALT
.L7:
	.loc 3 65 69
	ldr	r3, [r7]
	ldrb	r3, [r3, #4]	@ zero_extendqisi2
	.loc 3 65 16
	cmp	r3, #0
	beq	.L8
	.loc 3 65 131 discriminator 1
	ldr	r3, [r7]
	ldrb	r3, [r3, #4]	@ zero_extendqisi2
	.loc 3 65 80 discriminator 1
	cmp	r3, #1
	beq	.L8
	.loc 3 65 195 discriminator 2
	ldr	r3, [r7]
	ldrb	r3, [r3, #4]	@ zero_extendqisi2
	.loc 3 65 142 discriminator 2
	cmp	r3, #2
	beq	.L8
	.loc 3 65 263 discriminator 3
	ldr	r3, [r7]
	ldrb	r3, [r3, #4]	@ zero_extendqisi2
	.loc 3 65 17 discriminator 3
	cmp	r3, #3
	beq	.L8
	.loc 3 65 279 discriminator 4
	bl	CY_HALT
.L8:
	.loc 3 66 69
	ldr	r3, [r7]
	ldrb	r3, [r3, #5]	@ zero_extendqisi2
	.loc 3 66 16
	cmp	r3, #0
	beq	.L9
	.loc 3 66 131 discriminator 1
	ldr	r3, [r7]
	ldrb	r3, [r3, #5]	@ zero_extendqisi2
	.loc 3 66 80 discriminator 1
	cmp	r3, #1
	beq	.L9
	.loc 3 66 195 discriminator 2
	ldr	r3, [r7]
	ldrb	r3, [r3, #5]	@ zero_extendqisi2
	.loc 3 66 142 discriminator 2
	cmp	r3, #2
	beq	.L9
	.loc 3 66 263 discriminator 3
	ldr	r3, [r7]
	ldrb	r3, [r3, #5]	@ zero_extendqisi2
	.loc 3 66 17 discriminator 3
	cmp	r3, #3
	beq	.L9
	.loc 3 66 279 discriminator 4
	bl	CY_HALT
.L9:
	.loc 3 67 69
	ldr	r3, [r7]
	ldrb	r3, [r3, #7]	@ zero_extendqisi2
	.loc 3 67 16
	cmp	r3, #0
	beq	.L10
	.loc 3 67 131 discriminator 1
	ldr	r3, [r7]
	ldrb	r3, [r3, #7]	@ zero_extendqisi2
	.loc 3 67 80 discriminator 1
	cmp	r3, #1
	beq	.L10
	.loc 3 67 195 discriminator 2
	ldr	r3, [r7]
	ldrb	r3, [r3, #7]	@ zero_extendqisi2
	.loc 3 67 142 discriminator 2
	cmp	r3, #2
	beq	.L10
	.loc 3 67 263 discriminator 3
	ldr	r3, [r7]
	ldrb	r3, [r3, #7]	@ zero_extendqisi2
	.loc 3 67 17 discriminator 3
	cmp	r3, #3
	beq	.L10
	.loc 3 67 279 discriminator 4
	bl	CY_HALT
.L10:
	.loc 3 69 78
	ldr	r3, [r7]
	ldrh	r3, [r3, #2]
	.loc 3 69 98
	lsls	r3, r3, #16
	.loc 3 70 61
	ldr	r2, [r7]
	ldrh	r2, [r2]
	.loc 3 69 114
	orrs	r2, r2, r3
	.loc 3 69 57
	ldr	r3, [r7, #4]
	str	r2, [r3, #12]
	.loc 3 72 79
	ldr	r3, [r7]
	ldrb	r3, [r3, #6]	@ zero_extendqisi2
	.loc 3 72 94
	lsls	r3, r3, #24
	.loc 3 72 103
	and	r2, r3, #520093696
	.loc 3 73 59
	ldr	r3, [r7]
	ldrb	r3, [r3, #7]	@ zero_extendqisi2
	.loc 3 73 69
	lsls	r3, r3, #16
	.loc 3 73 78
	and	r3, r3, #65536
	.loc 3 72 119
	orrs	r2, r2, r3
	.loc 3 74 59
	ldr	r3, [r7]
	ldrb	r3, [r3, #8]	@ zero_extendqisi2
	.loc 3 74 77
	lsls	r3, r3, #2
	.loc 3 74 85
	and	r3, r3, #4
	.loc 3 73 91
	orrs	r2, r2, r3
	.loc 3 75 59
	ldr	r3, [r7]
	ldrb	r3, [r3, #9]	@ zero_extendqisi2
	.loc 3 75 77
	lsls	r3, r3, #10
	.loc 3 75 86
	and	r3, r3, #1024
	.loc 3 74 94
	orrs	r3, r3, r2
	.loc 3 76 47
	ldr	r2, [r7]
	ldrb	r2, [r2, #11]	@ zero_extendqisi2
	.loc 3 76 71
	cmp	r2, #0
	beq	.L11
	.loc 3 76 71 is_stmt 0 discriminator 1
	mov	r2, #2048
	b	.L12
.L11:
	.loc 3 76 71 discriminator 2
	movs	r2, #0
.L12:
	.loc 3 75 97 is_stmt 1
	orrs	r2, r2, r3
	.loc 3 77 59
	ldr	r3, [r7]
	ldrb	r3, [r3, #5]	@ zero_extendqisi2
	.loc 3 77 69
	lsls	r3, r3, #8
	.loc 3 77 77
	and	r3, r3, #768
	.loc 3 76 78
	orrs	r3, r3, r2
	.loc 3 78 47
	ldr	r2, [r7]
	ldrb	r2, [r2, #10]	@ zero_extendqisi2
	.loc 3 78 69
	cmp	r2, #0
	beq	.L13
	.loc 3 78 69 is_stmt 0 discriminator 1
	movs	r2, #8
	b	.L14
.L13:
	.loc 3 78 69 discriminator 2
	movs	r2, #0
.L14:
	.loc 3 77 88 is_stmt 1
	orrs	r2, r2, r3
	.loc 3 79 59
	ldr	r3, [r7]
	ldrb	r3, [r3, #4]	@ zero_extendqisi2
	.loc 3 79 77
	and	r3, r3, #3
	.loc 3 78 76
	orrs	r2, r2, r3
	.loc 3 72 58
	ldr	r3, [r7, #4]
	str	r2, [r3, #16]
	.loc 3 96 13
	movs	r3, #0
	str	r3, [r7, #12]
.L4:
	.loc 3 99 12
	ldr	r3, [r7, #12]
	.loc 3 100 1
	mov	r0, r3
	adds	r7, r7, #16
.LCFI12:
	.cfi_def_cfa_offset 8
	mov	sp, r7
.LCFI13:
	.cfi_def_cfa_register 13
	@ sp needed
	pop	{r7, pc}
.L17:
	.align	2
.L16:
	.word	14024705
	.cfi_endproc
.LFE161:
	.size	Cy_MCWDT_Init, .-Cy_MCWDT_Init
	.section	.text.Cy_MCWDT_DeInit,"ax",%progbits
	.align	1
	.global	Cy_MCWDT_DeInit
	.syntax unified
	.thumb
	.thumb_func
	.type	Cy_MCWDT_DeInit, %function
Cy_MCWDT_DeInit:
.LFB162:
	.loc 3 118 1
	.cfi_startproc
	@ args = 0, pretend = 0, frame = 8
	@ frame_needed = 1, uses_anonymous_args = 0
	push	{r7, lr}
.LCFI14:
	.cfi_def_cfa_offset 8
	.cfi_offset 7, -8
	.cfi_offset 14, -4
	sub	sp, sp, #8
.LCFI15:
	.cfi_def_cfa_offset 16
	add	r7, sp, #0
.LCFI16:
	.cfi_def_cfa_register 7
	str	r0, [r7, #4]
	.loc 3 119 5
	ldr	r0, [r7, #4]
	bl	Cy_MCWDT_Unlock
	.loc 3 121 54
	ldr	r3, [r7, #4]
	movs	r2, #0
	str	r2, [r3, #4]
	.loc 3 122 55
	ldr	r3, [r7, #4]
	movs	r2, #0
	str	r2, [r3, #8]
	.loc 3 123 53
	ldr	r3, [r7, #4]
	movs	r2, #0
	str	r2, [r3, #12]
	.loc 3 124 54
	ldr	r3, [r7, #4]
	movs	r2, #0
	str	r2, [r3, #16]
	.loc 3 125 51
	ldr	r3, [r7, #4]
	movs	r2, #0
	str	r2, [r3, #20]
	.loc 3 126 52
	ldr	r3, [r7, #4]
	movs	r2, #0
	str	r2, [r3, #24]
	.loc 3 127 56
	ldr	r3, [r7, #4]
	movs	r2, #0
	str	r2, [r3, #28]
	.loc 3 128 57
	ldr	r3, [r7, #4]
	movs	r2, #0
	str	r2, [r3, #32]
	.loc 3 132 1
	nop
	adds	r7, r7, #8
.LCFI17:
	.cfi_def_cfa_offset 8
	mov	sp, r7
.LCFI18:
	.cfi_def_cfa_register 13
	@ sp needed
	pop	{r7, pc}
	.cfi_endproc
.LFE162:
	.size	Cy_MCWDT_DeInit, .-Cy_MCWDT_DeInit
	.section	.text.Cy_MCWDT_GetCountCascaded,"ax",%progbits
	.align	1
	.global	Cy_MCWDT_GetCountCascaded
	.syntax unified
	.thumb
	.thumb_func
	.type	Cy_MCWDT_GetCountCascaded, %function
Cy_MCWDT_GetCountCascaded:
.LFB163:
	.loc 3 159 1
	.cfi_startproc
	@ args = 0, pretend = 0, frame = 32
	@ frame_needed = 1, uses_anonymous_args = 0
	@ link register save eliminated.
	push	{r7}
.LCFI19:
	.cfi_def_cfa_offset 4
	.cfi_offset 7, -4
	sub	sp, sp, #36
.LCFI20:
	.cfi_def_cfa_offset 40
	add	r7, sp, #0
.LCFI21:
	.cfi_def_cfa_register 7
	str	r0, [r7, #4]
	.loc 3 160 14
	ldr	r3, [r7, #4]
	ldr	r3, [r3, #4]
	str	r3, [r7, #12]
	.loc 3 161 14
	ldr	r3, [r7, #12]
	lsrs	r3, r3, #16
	str	r3, [r7, #28]
	.loc 3 162 14
	ldr	r3, [r7, #12]
	uxth	r3, r3
	str	r3, [r7, #24]
	.loc 3 163 69
	ldr	r3, [r7, #4]
	ldr	r3, [r3, #12]
	.loc 3 163 14
	uxth	r3, r3
	str	r3, [r7, #20]
	.loc 3 164 69
	ldr	r3, [r7, #4]
	ldr	r3, [r3, #12]
	.loc 3 164 101
	lsrs	r3, r3, #16
	.loc 3 164 14
	uxth	r3, r3
	str	r3, [r7, #16]
	.loc 3 175 8
	ldr	r3, [r7, #24]
	cmp	r3, #0
	bne	.L20
	.loc 3 177 17
	ldr	r3, [r7, #28]
	adds	r3, r3, #1
	str	r3, [r7, #28]
.L20:
	.loc 3 181 62
	ldr	r3, [r7, #4]
	ldr	r3, [r3, #16]
	.loc 3 181 13
	and	r3, r3, #4
	.loc 3 181 8
	cmp	r3, #0
	bne	.L21
	.loc 3 186 18
	ldr	r3, [r7, #20]
	adds	r3, r3, #1
	str	r3, [r7, #12]
	.loc 3 188 12
	ldr	r3, [r7, #28]
	cmp	r3, #0
	beq	.L22
	.loc 3 191 20
	movw	r3, #65535
	str	r3, [r7, #20]
.L22:
	.loc 3 194 12
	ldr	r2, [r7, #12]
	ldr	r3, [r7, #24]
	cmp	r2, r3
	bcs	.L21
	.loc 3 197 21
	ldr	r3, [r7, #28]
	subs	r3, r3, #1
	str	r3, [r7, #28]
.L21:
	.loc 3 202 14
	ldr	r2, [r7, #24]
	ldr	r3, [r7, #28]
	add	r3, r3, r2
	str	r3, [r7, #24]
	.loc 3 205 62
	ldr	r3, [r7, #4]
	ldr	r3, [r3, #16]
	.loc 3 205 13
	and	r3, r3, #1024
	.loc 3 205 8
	cmp	r3, #0
	bne	.L23
	.loc 3 207 16
	movw	r3, #65535
	str	r3, [r7, #16]
.L23:
	.loc 3 211 8
	ldr	r2, [r7, #16]
	ldr	r3, [r7, #28]
	cmp	r2, r3
	bcs	.L24
	.loc 3 214 18
	movs	r3, #0
	str	r3, [r7, #24]
	.loc 3 219 18
	movs	r3, #0
	str	r3, [r7, #28]
.L24:
	.loc 3 223 37
	ldr	r3, [r7, #28]
	ldr	r2, [r7, #20]
	mul	r3, r2, r3
	.loc 3 223 14
	ldr	r2, [r7, #24]
	add	r3, r3, r2
	str	r3, [r7, #12]
	.loc 3 225 12
	ldr	r3, [r7, #12]
	.loc 3 226 1
	mov	r0, r3
	adds	r7, r7, #36
.LCFI22:
	.cfi_def_cfa_offset 4
	mov	sp, r7
.LCFI23:
	.cfi_def_cfa_register 13
	@ sp needed
	ldr	r7, [sp], #4
.LCFI24:
	.cfi_restore 7
	.cfi_def_cfa_offset 0
	bx	lr
	.cfi_endproc
.LFE163:
	.size	Cy_MCWDT_GetCountCascaded, .-Cy_MCWDT_GetCountCascaded
	.text
.Letext0:
	.file 4 "d:\\llc\\softwares\\env-windows-v1.3.5\\tools\\gnu_gcc\\arm_gcc\\mingw\\arm-none-eabi\\include\\machine\\_default_types.h"
	.file 5 "d:\\llc\\softwares\\env-windows-v1.3.5\\tools\\gnu_gcc\\arm_gcc\\mingw\\arm-none-eabi\\include\\sys\\_stdint.h"
	.file 6 "libraries\\IFX_PSOC6_HAL\\mtb-pdl-cat1\\devices\\COMPONENT_CAT1A\\include/ip/cyip_srss.h"
	.file 7 "libraries\\IFX_PSOC6_HAL\\mtb-pdl-cat1\\devices\\COMPONENT_CAT1A\\include/psoc6_02_config.h"