	.cpu cortex-m4
	.arch armv7e-m
	.fpu fpv4-sp-d16
	.eabi_attribute 27, 1
	.eabi_attribute 28, 1
	.eabi_attribute 20, 1
	.eabi_attribute 21, 1
	.eabi_attribute 23, 3
	.eabi_attribute 24, 1
	.eabi_attribute 25, 1
	.eabi_attribute 26, 1
	.eabi_attribute 30, 6
	.eabi_attribute 34, 1
	.eabi_attribute 18, 4
	.file	"cy_prot.c"
	.text
.Ltext0:
	.cfi_sections	.debug_frame
	.section	.text.CY_HALT,"ax",%progbits
	.align	1
	.syntax unified
	.thumb
	.thumb_func
	.type	CY_HALT, %function
CY_HALT:
.LFB133:
	.file 1 "libraries\\IFX_PSOC6_HAL\\core-lib\\include/cy_utils.h"
	.loc 1 49 1
	.cfi_startproc
	@ args = 0, pretend = 0, frame = 0
	@ frame_needed = 1, uses_anonymous_args = 0
	@ link register save eliminated.
	push	{r7}
.LCFI0:
	.cfi_def_cfa_offset 4
	.cfi_offset 7, -4
	add	r7, sp, #0
.LCFI1:
	.cfi_def_cfa_register 7
	.loc 1 50 5
	.syntax unified
@ 50 "libraries\IFX_PSOC6_HAL\core-lib\include/cy_utils.h" 1
	    bkpt    1
@ 0 "" 2
	.loc 1 51 1
	.thumb
	.syntax unified
	nop
	mov	sp, r7
.LCFI2:
	.cfi_def_cfa_register 13
	@ sp needed
	ldr	r7, [sp], #4
.LCFI3:
	.cfi_restore 7
	.cfi_def_cfa_offset 0
	bx	lr
	.cfi_endproc
.LFE133:
	.size	CY_HALT, .-CY_HALT
	.section	.text.Cy_Prot_ConfigBusMaster,"ax",%progbits
	.align	1
	.global	Cy_Prot_ConfigBusMaster
	.syntax unified
	.thumb
	.thumb_func
	.type	Cy_Prot_ConfigBusMaster, %function
Cy_Prot_ConfigBusMaster:
.LFB139:
	.file 2 "libraries\\IFX_PSOC6_HAL\\mtb-pdl-cat1\\drivers\\source\\cy_prot.c"
	.loc 2 110 1
	.cfi_startproc
	@ args = 0, pretend = 0, frame = 24
	@ frame_needed = 1, uses_anonymous_args = 0
	push	{r7, lr}
.LCFI4:
	.cfi_def_cfa_offset 8
	.cfi_offset 7, -8
	.cfi_offset 14, -4
	sub	sp, sp, #24
.LCFI5:
	.cfi_def_cfa_offset 32
	add	r7, sp, #0
.LCFI6:
	.cfi_def_cfa_register 7
	str	r3, [r7]
	mov	r3, r0
	strb	r3, [r7, #7]
	mov	r3, r1
	strb	r3, [r7, #6]
	mov	r3, r2
	strb	r3, [r7, #5]
	.loc 2 111 25
	movs	r3, #0
	str	r3, [r7, #20]
	.loc 2 117 27
	ldr	r3, .L8
	ldr	r3, [r3]
	ldr	r2, [r3, #72]
	.loc 2 117 58
	ldrb	r3, [r7, #7]	@ zero_extendqisi2
	.loc 2 117 13
	lsr	r3, r2, r3
	and	r3, r3, #1
	.loc 2 117 12
	cmp	r3, #0
	bne	.L3
	.loc 2 117 94 discriminator 1
	bl	CY_HALT
.L3:
	.loc 2 118 26
	ldr	r3, [r7]
	bic	r3, r3, #32640
	bic	r3, r3, #127
	.loc 2 118 12
	cmp	r3, #0
	beq	.L4
	.loc 2 118 65 discriminator 1
	bl	CY_HALT
.L4:
	.loc 2 121 40
	ldr	r3, .L8
	ldr	r3, [r3]
	ldr	r2, [r3, #16]
	.loc 2 121 65
	ldrb	r3, [r7, #7]	@ zero_extendqisi2
	.loc 2 121 54
	lsls	r3, r3, #2
	.loc 2 121 52
	add	r3, r3, r2
	.loc 2 121 15
	str	r3, [r7, #16]
	.loc 2 124 16
	ldrb	r3, [r7, #5]
	eor	r3, r3, #1
	uxtb	r3, r3
	.loc 2 124 36
	lsls	r3, r3, #1
	.loc 2 124 44
	and	r2, r3, #2
	.loc 2 125 48
	ldrb	r3, [r7, #6]	@ zero_extendqisi2
	.loc 2 125 13
	orrs	r2, r2, r3
	.loc 2 126 45
	ldr	r3, [r7]
	lsls	r3, r3, #17
	.loc 2 124 12
	orrs	r3, r3, r2
	str	r3, [r7, #12]
	.loc 2 129 16
	ldr	r3, [r7, #16]
	ldr	r2, [r7, #12]
	str	r2, [r3]
	.loc 2 134 15
	ldr	r3, [r7, #16]
	ldr	r3, [r3]
	.loc 2 134 55
	ldr	r2, [r7, #12]
	cmp	r2, r3
	beq	.L5
	.loc 2 134 55 is_stmt 0 discriminator 1
	ldr	r3, .L8+4
	b	.L6
.L5:
	.loc 2 134 55 discriminator 2
	movs	r3, #0
.L6:
	.loc 2 134 12 is_stmt 1 discriminator 4
	str	r3, [r7, #20]
	.loc 2 136 12 discriminator 4
	ldr	r3, [r7, #20]
	.loc 2 137 1 discriminator 4
	mov	r0, r3
	adds	r7, r7, #24
.LCFI7:
	.cfi_def_cfa_offset 8
	mov	sp, r7
.LCFI8:
	.cfi_def_cfa_register 13
	@ sp needed
	pop	{r7, pc}
.L9:
	.align	2
.L8:
	.word	cy_device
	.word	12713987
	.cfi_endproc
.LFE139:
	.size	Cy_Prot_ConfigBusMaster, .-Cy_Prot_ConfigBusMaster
	.section	.text.Cy_Prot_SetActivePC,"ax",%progbits
	.align	1
	.global	Cy_Prot_SetActivePC
	.syntax unified
	.thumb
	.thumb_func
	.type	Cy_Prot_SetActivePC, %function
Cy_Prot_SetActivePC:
.LFB140:
	.loc 2 179 1
	.cfi_startproc
	@ args = 0, pretend = 0, frame = 16
	@ frame_needed = 1, uses_anonymous_args = 0
	push	{r7, lr}
.LCFI9:
	.cfi_def_cfa_offset 8
	.cfi_offset 7, -8
	.cfi_offset 14, -4
	sub	sp, sp, #16
.LCFI10:
	.cfi_def_cfa_offset 24
	add	r7, sp, #0
.LCFI11:
	.cfi_def_cfa_register 7
	mov	r3, r0
	str	r1, [r7]
	strb	r3, [r7, #7]
	.loc 2 182 27
	ldr	r3, .L16
	ldr	r3, [r3]
	ldr	r2, [r3, #72]
	.loc 2 182 58
	ldrb	r3, [r7, #7]	@ zero_extendqisi2
	.loc 2 182 13
	lsr	r3, r2, r3
	and	r3, r3, #1
	.loc 2 182 12
	cmp	r3, #0
	bne	.L11
	.loc 2 182 94 discriminator 1
	bl	CY_HALT
.L11:
	.loc 2 183 12
	ldr	r3, [r7]
	cmp	r3, #15
	bls	.L12
	.loc 2 183 34 discriminator 1
	bl	CY_HALT
.L12:
	.loc 2 190 101
	ldr	r3, [r7]
	and	r1, r3, #15
	.loc 2 190 129
	ldr	r3, [r7]
	lsls	r3, r3, #16
	.loc 2 190 138
	and	r2, r3, #983040
	.loc 2 190 33
	ldr	r3, .L16
	ldr	r3, [r3]
	ldr	r3, [r3, #16]
	.loc 2 190 11
	mov	r0, r3
	.loc 2 190 65
	ldrb	r3, [r7, #7]	@ zero_extendqisi2
	.loc 2 190 110
	orrs	r2, r2, r1
	.loc 2 190 74
	adds	r3, r3, #16
	lsls	r3, r3, #10
	add	r3, r3, r0
	str	r2, [r3]
	.loc 2 191 56
	ldr	r3, .L16
	ldr	r3, [r3]
	ldr	r3, [r3, #16]
	.loc 2 191 34
	mov	r2, r3
	.loc 2 191 21
	ldrb	r3, [r7, #7]	@ zero_extendqisi2
	.loc 2 191 88
	adds	r3, r3, #16
	lsls	r3, r3, #10
	add	r3, r3, r2
	ldr	r3, [r3]
	.loc 2 191 107
	and	r3, r3, #15
	.loc 2 191 140
	ldr	r2, [r7]
	cmp	r2, r3
	beq	.L13
	.loc 2 191 140 is_stmt 0 discriminator 1
	ldr	r3, .L16+4
	b	.L14
.L13:
	.loc 2 191 140 discriminator 2
	movs	r3, #0
.L14:
	.loc 2 191 16 is_stmt 1 discriminator 4
	str	r3, [r7, #12]
	.loc 2 194 12 discriminator 4
	ldr	r3, [r7, #12]
	.loc 2 195 1 discriminator 4
	mov	r0, r3
	adds	r7, r7, #16
.LCFI12:
	.cfi_def_cfa_offset 8
	mov	sp, r7
.LCFI13:
	.cfi_def_cfa_register 13
	@ sp needed
	pop	{r7, pc}
.L17:
	.align	2
.L16:
	.word	cy_device
	.word	12713987
	.cfi_endproc
.LFE140:
	.size	Cy_Prot_SetActivePC, .-Cy_Prot_SetActivePC
	.section	.text.Cy_Prot_GetActivePC,"ax",%progbits
	.align	1
	.global	Cy_Prot_GetActivePC
	.syntax unified
	.thumb
	.thumb_func
	.type	Cy_Prot_GetActivePC, %function
Cy_Prot_GetActivePC:
.LFB141:
	.loc 2 218 1
	.cfi_startproc
	@ args = 0, pretend = 0, frame = 8
	@ frame_needed = 1, uses_anonymous_args = 0
	push	{r7, lr}
.LCFI14:
	.cfi_def_cfa_offset 8
	.cfi_offset 7, -8
	.cfi_offset 14, -4
	sub	sp, sp, #8
.LCFI15:
	.cfi_def_cfa_offset 16
	add	r7, sp, #0
.LCFI16:
	.cfi_def_cfa_register 7
	mov	r3, r0
	strb	r3, [r7, #7]
	.loc 2 219 27
	ldr	r3, .L21
	ldr	r3, [r3]
	ldr	r2, [r3, #72]
	.loc 2 219 58
	ldrb	r3, [r7, #7]	@ zero_extendqisi2
	.loc 2 219 13
	lsr	r3, r2, r3
	and	r3, r3, #1
	.loc 2 219 12
	cmp	r3, #0
	bne	.L19
	.loc 2 219 94 discriminator 1
	bl	CY_HALT
.L19:
	.loc 2 224 64
	ldr	r3, .L21
	ldr	r3, [r3]
	ldr	r3, [r3, #16]
	.loc 2 224 42
	mov	r2, r3
	.loc 2 224 17
	ldrb	r3, [r7, #7]	@ zero_extendqisi2
	.loc 2 224 96
	adds	r3, r3, #16
	lsls	r3, r3, #10
	add	r3, r3, r2
	ldr	r3, [r3]
	.loc 2 224 17
	and	r3, r3, #15
	.loc 2 226 1
	mov	r0, r3
	adds	r7, r7, #8
.LCFI17:
	.cfi_def_cfa_offset 8
	mov	sp, r7
.LCFI18:
	.cfi_def_cfa_register 13
	@ sp needed
	pop	{r7, pc}
.L22:
	.align	2
.L21:
	.word	cy_device
	.cfi_endproc
.LFE141:
	.size	Cy_Prot_GetActivePC, .-Cy_Prot_GetActivePC
	.section	.text.Cy_Prot_ConfigMpuStruct,"ax",%progbits
	.align	1
	.global	Cy_Prot_ConfigMpuStruct
	.syntax unified
	.thumb
	.thumb_func
	.type	Cy_Prot_ConfigMpuStruct, %function
Cy_Prot_ConfigMpuStruct:
.LFB142:
	.loc 2 260 1
	.cfi_startproc
	@ args = 0, pretend = 0, frame = 24
	@ frame_needed = 1, uses_anonymous_args = 0
	push	{r7, lr}
.LCFI19:
	.cfi_def_cfa_offset 8
	.cfi_offset 7, -8
	.cfi_offset 14, -4
	sub	sp, sp, #24
.LCFI20:
	.cfi_def_cfa_offset 32
	add	r7, sp, #0
.LCFI21:
	.cfi_def_cfa_register 7
	str	r0, [r7, #4]
	str	r1, [r7]
	.loc 2 265 12
	ldr	r3, [r7, #4]
	cmp	r3, #0
	bne	.L24
	.loc 2 265 16 discriminator 1
	bl	CY_HALT
.L24:
	.loc 2 266 24
	ldr	r3, [r7]
	ldrb	r3, [r3, #6]	@ zero_extendqisi2
	.loc 2 266 12
	cmp	r3, #0
	beq	.L25
	.loc 2 266 79 discriminator 1
	ldr	r3, [r7]
	ldrb	r3, [r3, #6]	@ zero_extendqisi2
	.loc 2 266 68 discriminator 1
	cmp	r3, #1
	beq	.L25
	.loc 2 266 127 discriminator 2
	ldr	r3, [r7]
	ldrb	r3, [r3, #6]	@ zero_extendqisi2
	.loc 2 266 116 discriminator 2
	cmp	r3, #2
	beq	.L25
	.loc 2 266 175 discriminator 3
	ldr	r3, [r7]
	ldrb	r3, [r3, #6]	@ zero_extendqisi2
	.loc 2 266 164 discriminator 3
	cmp	r3, #3
	beq	.L25
	.loc 2 266 224 discriminator 4
	ldr	r3, [r7]
	ldrb	r3, [r3, #6]	@ zero_extendqisi2
	.loc 2 266 213 discriminator 4
	cmp	r3, #4
	beq	.L25
	.loc 2 266 272 discriminator 5
	ldr	r3, [r7]
	ldrb	r3, [r3, #6]	@ zero_extendqisi2
	.loc 2 266 261 discriminator 5
	cmp	r3, #5
	beq	.L25
	.loc 2 266 321 discriminator 6
	ldr	r3, [r7]
	ldrb	r3, [r3, #6]	@ zero_extendqisi2
	.loc 2 266 310 discriminator 6
	cmp	r3, #6
	beq	.L25
	.loc 2 266 370 discriminator 7
	ldr	r3, [r7]
	ldrb	r3, [r3, #6]	@ zero_extendqisi2
	.loc 2 266 13 discriminator 7
	cmp	r3, #7
	beq	.L25
	.loc 2 266 414 discriminator 8
	bl	CY_HALT
.L25:
	.loc 2 267 24
	ldr	r3, [r7]
	ldrb	r3, [r3, #7]	@ zero_extendqisi2
	.loc 2 267 12
	cmp	r3, #0
	beq	.L26
	.loc 2 267 79 discriminator 1
	ldr	r3, [r7]
	ldrb	r3, [r3, #7]	@ zero_extendqisi2
	.loc 2 267 68 discriminator 1
	cmp	r3, #1
	beq	.L26
	.loc 2 267 127 discriminator 2
	ldr	r3, [r7]
	ldrb	r3, [r3, #7]	@ zero_extendqisi2
	.loc 2 267 116 discriminator 2
	cmp	r3, #2
	beq	.L26
	.loc 2 267 175 discriminator 3
	ldr	r3, [r7]
	ldrb	r3, [r3, #7]	@ zero_extendqisi2
	.loc 2 267 164 discriminator 3
	cmp	r3, #3
	beq	.L26
	.loc 2 267 224 discriminator 4
	ldr	r3, [r7]
	ldrb	r3, [r3, #7]	@ zero_extendqisi2
	.loc 2 267 213 discriminator 4
	cmp	r3, #4
	beq	.L26
	.loc 2 267 272 discriminator 5
	ldr	r3, [r7]
	ldrb	r3, [r3, #7]	@ zero_extendqisi2
	.loc 2 267 261 discriminator 5
	cmp	r3, #5
	beq	.L26
	.loc 2 267 321 discriminator 6
	ldr	r3, [r7]
	ldrb	r3, [r3, #7]	@ zero_extendqisi2
	.loc 2 267 310 discriminator 6
	cmp	r3, #6
	beq	.L26
	.loc 2 267 370 discriminator 7
	ldr	r3, [r7]
	ldrb	r3, [r3, #7]	@ zero_extendqisi2
	.loc 2 267 13 discriminator 7
	cmp	r3, #7
	beq	.L26
	.loc 2 267 414 discriminator 8
	bl	CY_HALT
.L26:
	.loc 2 268 24
	ldr	r3, [r7]
	ldrb	r3, [r3, #4]	@ zero_extendqisi2
	.loc 2 268 12
	cmp	r3, #7
	beq	.L27
	.loc 2 268 71 discriminator 1
	ldr	r3, [r7]
	ldrb	r3, [r3, #4]	@ zero_extendqisi2
	.loc 2 268 60 discriminator 1
	cmp	r3, #8
	beq	.L27
	.loc 2 268 118 discriminator 2
	ldr	r3, [r7]
	ldrb	r3, [r3, #4]	@ zero_extendqisi2
	.loc 2 268 107 discriminator 2
	cmp	r3, #9
	beq	.L27
	.loc 2 268 164 discriminator 3
	ldr	r3, [r7]
	ldrb	r3, [r3, #4]	@ zero_extendqisi2
	.loc 2 268 153 discriminator 3
	cmp	r3, #10
	beq	.L27
	.loc 2 268 210 discriminator 4
	ldr	r3, [r7]
	ldrb	r3, [r3, #4]	@ zero_extendqisi2
	.loc 2 268 199 discriminator 4
	cmp	r3, #11
	beq	.L27
	.loc 2 268 256 discriminator 5
	ldr	r3, [r7]
	ldrb	r3, [r3, #4]	@ zero_extendqisi2
	.loc 2 268 245 discriminator 5
	cmp	r3, #12
	beq	.L27
	.loc 2 268 302 discriminator 6
	ldr	r3, [r7]
	ldrb	r3, [r3, #4]	@ zero_extendqisi2
	.loc 2 268 291 discriminator 6
	cmp	r3, #13
	beq	.L27
	.loc 2 268 349 discriminator 7
	ldr	r3, [r7]
	ldrb	r3, [r3, #4]	@ zero_extendqisi2
	.loc 2 268 338 discriminator 7
	cmp	r3, #14
	beq	.L27
	.loc 2 268 396 discriminator 8
	ldr	r3, [r7]
	ldrb	r3, [r3, #4]	@ zero_extendqisi2
	.loc 2 268 385 discriminator 8
	cmp	r3, #15
	beq	.L27
	.loc 2 268 443 discriminator 9
	ldr	r3, [r7]
	ldrb	r3, [r3, #4]	@ zero_extendqisi2
	.loc 2 268 432 discriminator 9
	cmp	r3, #16
	beq	.L27
	.loc 2 268 491 discriminator 10
	ldr	r3, [r7]
	ldrb	r3, [r3, #4]	@ zero_extendqisi2
	.loc 2 268 480 discriminator 10
	cmp	r3, #17
	beq	.L27
	.loc 2 268 539 discriminator 11
	ldr	r3, [r7]
	ldrb	r3, [r3, #4]	@ zero_extendqisi2
	.loc 2 268 528 discriminator 11
	cmp	r3, #18
	beq	.L27
	.loc 2 268 587 discriminator 12
	ldr	r3, [r7]
	ldrb	r3, [r3, #4]	@ zero_extendqisi2
	.loc 2 268 576 discriminator 12
	cmp	r3, #19
	beq	.L27
	.loc 2 268 633 discriminator 13
	ldr	r3, [r7]
	ldrb	r3, [r3, #4]	@ zero_extendqisi2
	.loc 2 268 622 discriminator 13
	cmp	r3, #20
	beq	.L27
	.loc 2 268 679 discriminator 14
	ldr	r3, [r7]
	ldrb	r3, [r3, #4]	@ zero_extendqisi2
	.loc 2 268 668 discriminator 14
	cmp	r3, #21
	beq	.L27
	.loc 2 268 725 discriminator 15
	ldr	r3, [r7]
	ldrb	r3, [r3, #4]	@ zero_extendqisi2
	.loc 2 268 714 discriminator 15
	cmp	r3, #22
	beq	.L27
	.loc 2 268 771 discriminator 16
	ldr	r3, [r7]
	ldrb	r3, [r3, #4]	@ zero_extendqisi2
	.loc 2 268 760 discriminator 16
	cmp	r3, #23
	beq	.L27
	.loc 2 268 818 discriminator 17
	ldr	r3, [r7]
	ldrb	r3, [r3, #4]	@ zero_extendqisi2
	.loc 2 268 807 discriminator 17
	cmp	r3, #24
	beq	.L27
	.loc 2 268 865 discriminator 18
	ldr	r3, [r7]
	ldrb	r3, [r3, #4]	@ zero_extendqisi2
	.loc 2 268 854 discriminator 18
	cmp	r3, #25
	beq	.L27
	.loc 2 268 912 discriminator 19
	ldr	r3, [r7]
	ldrb	r3, [r3, #4]	@ zero_extendqisi2
	.loc 2 268 901 discriminator 19
	cmp	r3, #26
	beq	.L27
	.loc 2 268 960 discriminator 20
	ldr	r3, [r7]
	ldrb	r3, [r3, #4]	@ zero_extendqisi2
	.loc 2 268 949 discriminator 20
	cmp	r3, #27
	beq	.L27
	.loc 2 268 1008 discriminator 21
	ldr	r3, [r7]
	ldrb	r3, [r3, #4]	@ zero_extendqisi2
	.loc 2 268 997 discriminator 21
	cmp	r3, #28
	beq	.L27
	.loc 2 268 1056 discriminator 22
	ldr	r3, [r7]
	ldrb	r3, [r3, #4]	@ zero_extendqisi2
	.loc 2 268 1045 discriminator 22
	cmp	r3, #29
	beq	.L27
	.loc 2 268 1102 discriminator 23
	ldr	r3, [r7]
	ldrb	r3, [r3, #4]	@ zero_extendqisi2
	.loc 2 268 1091 discriminator 23
	cmp	r3, #30
	beq	.L27
	.loc 2 268 1148 discriminator 24
	ldr	r3, [r7]
	ldrb	r3, [r3, #4]	@ zero_extendqisi2
	.loc 2 268 13 discriminator 24
	cmp	r3, #31
	beq	.L27
	.loc 2 268 1188 discriminator 25
	bl	CY_HALT
.L27:
	.loc 2 270 34
	ldr	r3, [r7]
	ldrb	r3, [r3, #5]	@ zero_extendqisi2
	.loc 2 270 56
	mov	r2, r3
	.loc 2 271 57
	ldr	r3, [r7]
	ldr	r3, [r3]
	.loc 2 271 86
	bic	r3, r3, #255
	.loc 2 270 13
	orrs	r3, r3, r2
	str	r3, [r7, #20]
	.loc 2 272 31
	ldr	r3, [r7]
	ldrb	r3, [r3, #6]	@ zero_extendqisi2
	.loc 2 272 48
	and	r2, r3, #7
	.loc 2 273 35
	ldr	r3, [r7]
	ldrb	r3, [r3, #7]	@ zero_extendqisi2
	.loc 2 273 64
	lsls	r3, r3, #3
	and	r3, r3, #56
	.loc 2 273 15
	orrs	r2, r2, r3
	.loc 2 274 38
	ldr	r3, [r7]
	ldrb	r3, [r3, #8]	@ zero_extendqisi2
	.loc 2 274 19
	eor	r3, r3, #1
	uxtb	r3, r3
	.loc 2 274 49
	lsls	r3, r3, #6
	.loc 2 274 57
	and	r3, r3, #64
	.loc 2 274 15
	orrs	r2, r2, r3
	.loc 2 275 36
	ldr	r3, [r7]
	ldrb	r3, [r3, #4]	@ zero_extendqisi2
	.loc 2 275 50
	lsls	r3, r3, #24
	.loc 2 275 59
	and	r3, r3, #520093696
	.loc 2 272 12
	orrs	r3, r3, r2
	str	r3, [r7, #16]
	.loc 2 276 50
	ldr	r3, [r7, #4]
	ldr	r2, [r7, #16]
	str	r2, [r3, #4]
	.loc 2 277 51
	ldr	r3, [r7, #4]
	ldr	r2, [r7, #20]
	str	r2, [r3]
	.loc 2 278 54
	ldr	r3, [r7, #4]
	ldr	r3, [r3]
	.loc 2 278 153
	ldr	r2, [r7, #20]
	cmp	r2, r3
	bne	.L28
	.loc 2 278 116 discriminator 2
	ldr	r3, [r7, #4]
	ldr	r3, [r3, #4]
	.loc 2 278 74 discriminator 2
	ldr	r2, [r7, #16]
	cmp	r2, r3
	beq	.L29
.L28:
	.loc 2 278 153 discriminator 3
	ldr	r3, .L32
	b	.L30
.L29:
	.loc 2 278 153 is_stmt 0 discriminator 4
	movs	r3, #0
.L30:
	.loc 2 278 12 is_stmt 1 discriminator 6
	str	r3, [r7, #12]
	.loc 2 280 12 discriminator 6
	ldr	r3, [r7, #12]
	.loc 2 281 1 discriminator 6
	mov	r0, r3
	adds	r7, r7, #24
.LCFI22:
	.cfi_def_cfa_offset 8
	mov	sp, r7
.LCFI23:
	.cfi_def_cfa_register 13
	@ sp needed
	pop	{r7, pc}
.L33:
	.align	2
.L32:
	.word	12713987
	.cfi_endproc
.LFE142:
	.size	Cy_Prot_ConfigMpuStruct, .-Cy_Prot_ConfigMpuStruct
	.section	.text.Cy_Prot_EnableMpuStruct,"ax",%progbits
	.align	1
	.global	Cy_Prot_EnableMpuStruct
	.syntax unified
	.thumb
	.thumb_func
	.type	Cy_Prot_EnableMpuStruct, %function
Cy_Prot_EnableMpuStruct:
.LFB143:
	.loc 2 309 1
	.cfi_startproc
	@ args = 0, pretend = 0, frame = 16
	@ frame_needed = 1, uses_anonymous_args = 0
	push	{r7, lr}
.LCFI24:
	.cfi_def_cfa_offset 8
	.cfi_offset 7, -8
	.cfi_offset 14, -4
	sub	sp, sp, #16
.LCFI25:
	.cfi_def_cfa_offset 24
	add	r7, sp, #0
.LCFI26:
	.cfi_def_cfa_register 7
	str	r0, [r7, #4]
	.loc 2 312 12
	ldr	r3, [r7, #4]
	cmp	r3, #0
	bne	.L35
	.loc 2 312 16 discriminator 1
	bl	CY_HALT
.L35:
	.loc 2 314 50
	ldr	r3, [r7, #4]
	ldr	r3, [r3, #4]
	orr	r2, r3, #-2147483648
	ldr	r3, [r7, #4]
	str	r2, [r3, #4]
	.loc 2 315 66
	ldr	r3, [r7, #4]
	ldr	r3, [r3, #4]
	.loc 2 315 90
	lsrs	r3, r3, #31
	and	r3, r3, #1
	.loc 2 316 33
	cmp	r3, #1
	beq	.L36
	.loc 2 316 33 is_stmt 0 discriminator 1
	ldr	r3, .L39
	b	.L37
.L36:
	.loc 2 316 33 discriminator 2
	movs	r3, #0
.L37:
	.loc 2 315 12 is_stmt 1
	str	r3, [r7, #12]
	.loc 2 318 12
	ldr	r3, [r7, #12]
	.loc 2 319 1
	mov	r0, r3
	adds	r7, r7, #16
.LCFI27:
	.cfi_def_cfa_offset 8
	mov	sp, r7
.LCFI28:
	.cfi_def_cfa_register 13
	@ sp needed
	pop	{r7, pc}
.L40:
	.align	2
.L39:
	.word	12713987
	.cfi_endproc
.LFE143:
	.size	Cy_Prot_EnableMpuStruct, .-Cy_Prot_EnableMpuStruct
	.section	.text.Cy_Prot_DisableMpuStruct,"ax",%progbits
	.align	1
	.global	Cy_Prot_DisableMpuStruct
	.syntax unified
	.thumb
	.thumb_func
	.type	Cy_Prot_DisableMpuStruct, %function
Cy_Prot_DisableMpuStruct:
.LFB144:
	.loc 2 347 1
	.cfi_startproc
	@ args = 0, pretend = 0, frame = 16
	@ frame_needed = 1, uses_anonymous_args = 0
	push	{r7, lr}
.LCFI29:
	.cfi_def_cfa_offset 8
	.cfi_offset 7, -8
	.cfi_offset 14, -4
	sub	sp, sp, #16
.LCFI30:
	.cfi_def_cfa_offset 24
	add	r7, sp, #0
.LCFI31:
	.cfi_def_cfa_register 7
	str	r0, [r7, #4]
	.loc 2 350 12
	ldr	r3, [r7, #4]
	cmp	r3, #0
	bne	.L42
	.loc 2 350 16 discriminator 1
	bl	CY_HALT
.L42:
	.loc 2 352 50
	ldr	r3, [r7, #4]
	ldr	r3, [r3, #4]
	bic	r2, r3, #-2147483648
	ldr	r3, [r7, #4]
	str	r2, [r3, #4]
	.loc 2 353 66
	ldr	r3, [r7, #4]
	ldr	r3, [r3, #4]
	.loc 2 353 90
	lsrs	r3, r3, #31
	and	r3, r3, #1
	.loc 2 354 32
	cmp	r3, #1
	bne	.L43
	.loc 2 354 32 is_stmt 0 discriminator 1
	ldr	r3, .L46
	b	.L44
.L43:
	.loc 2 354 32 discriminator 2
	movs	r3, #0
.L44:
	.loc 2 353 12 is_stmt 1
	str	r3, [r7, #12]
	.loc 2 356 12
	ldr	r3, [r7, #12]
	.loc 2 357 1
	mov	r0, r3
	adds	r7, r7, #16
.LCFI32:
	.cfi_def_cfa_offset 8
	mov	sp, r7
.LCFI33:
	.cfi_def_cfa_register 13
	@ sp needed
	pop	{r7, pc}
.L47:
	.align	2
.L46:
	.word	12713987
	.cfi_endproc
.LFE144:
	.size	Cy_Prot_DisableMpuStruct, .-Cy_Prot_DisableMpuStruct
	.section	.text.Cy_Prot_ConfigSmpuMasterStruct,"ax",%progbits
	.align	1
	.global	Cy_Prot_ConfigSmpuMasterStruct
	.syntax unified
	.thumb
	.thumb_func
	.type	Cy_Prot_ConfigSmpuMasterStruct, %function
Cy_Prot_ConfigSmpuMasterStruct:
.LFB145:
	.loc 2 397 1
	.cfi_startproc
	@ args = 0, pretend = 0, frame = 16
	@ frame_needed = 1, uses_anonymous_args = 0
	push	{r7, lr}
.LCFI34:
	.cfi_def_cfa_offset 8
	.cfi_offset 7, -8
	.cfi_offset 14, -4
	sub	sp, sp, #16
.LCFI35:
	.cfi_def_cfa_offset 24
	add	r7, sp, #0
.LCFI36:
	.cfi_def_cfa_register 7
	str	r0, [r7, #4]
	str	r1, [r7]
	.loc 2 401 12
	ldr	r3, [r7, #4]
	cmp	r3, #0
	bne	.L49
	.loc 2 401 16 discriminator 1
	bl	CY_HALT
.L49:
	.loc 2 402 24
	ldr	r3, [r7]
	ldrh	r3, [r3, #10]
	.loc 2 402 34
	bic	r3, r3, #32640
	bic	r3, r3, #127
	.loc 2 402 12
	cmp	r3, #0
	beq	.L50
	.loc 2 402 73 discriminator 1
	bl	CY_HALT
.L50:
	.loc 2 403 24
	ldr	r3, [r7]
	ldrb	r3, [r3, #6]	@ zero_extendqisi2
	.loc 2 403 12
	cmp	r3, #1
	beq	.L51
	.loc 2 403 72 discriminator 1
	ldr	r3, [r7]
	ldrb	r3, [r3, #6]	@ zero_extendqisi2
	.loc 2 403 13 discriminator 1
	cmp	r3, #3
	beq	.L51
	.loc 2 403 115 discriminator 2
	bl	CY_HALT
.L51:
	.loc 2 404 24
	ldr	r3, [r7]
	ldrb	r3, [r3, #7]	@ zero_extendqisi2
	.loc 2 404 12
	cmp	r3, #1
	beq	.L52
	.loc 2 404 72 discriminator 1
	ldr	r3, [r7]
	ldrb	r3, [r3, #7]	@ zero_extendqisi2
	.loc 2 404 13 discriminator 1
	cmp	r3, #3
	beq	.L52
	.loc 2 404 115 discriminator 2
	bl	CY_HALT
.L52:
	.loc 2 406 25
	ldr	r3, [r7]
	ldrh	r3, [r3, #10]
	.loc 2 406 34
	bic	r3, r3, #127
	.loc 2 406 7
	cmp	r3, #0
	beq	.L53
	.loc 2 409 16
	ldr	r3, .L59
	str	r3, [r7, #12]
	b	.L54
.L53:
	.loc 2 414 35
	ldr	r3, [r7]
	ldrb	r3, [r3, #6]	@ zero_extendqisi2
	.loc 2 414 52
	and	r2, r3, #7
	.loc 2 415 51
	ldr	r3, [r7]
	ldrb	r3, [r3, #7]	@ zero_extendqisi2
	.loc 2 415 23
	lsls	r3, r3, #3
	and	r3, r3, #56
	.loc 2 415 21
	orrs	r2, r2, r3
	.loc 2 416 44
	ldr	r3, [r7]
	ldrb	r3, [r3, #8]	@ zero_extendqisi2
	.loc 2 416 25
	eor	r3, r3, #1
	uxtb	r3, r3
	.loc 2 416 55
	lsls	r3, r3, #6
	.loc 2 416 63
	and	r3, r3, #64
	.loc 2 416 21
	orrs	r2, r2, r3
	.loc 2 417 42
	ldr	r3, [r7]
	ldrh	r3, [r3, #10]
	.loc 2 417 52
	lsls	r1, r3, #9
	.loc 2 417 60
	ldr	r3, .L59+4
	ands	r3, r3, r1
	.loc 2 417 21
	orrs	r2, r2, r3
	.loc 2 419 42
	ldr	r3, [r7]
	ldrb	r3, [r3, #9]	@ zero_extendqisi2
	.loc 2 419 53
	lsls	r3, r3, #30
	.loc 2 419 62
	and	r3, r3, #1073741824
	.loc 2 414 16
	orrs	r3, r3, r2
	str	r3, [r7, #8]
	.loc 2 420 21
	ldr	r3, [r7, #8]
	bic	r3, r3, #520093696
	bic	r3, r3, #292
	.loc 2 420 12
	ldr	r2, [r7, #8]
	cmp	r2, r3
	beq	.L55
	.loc 2 423 20
	ldr	r3, .L59
	str	r3, [r7, #12]
	b	.L54
.L55:
	.loc 2 427 61
	ldr	r3, [r7, #4]
	ldr	r2, [r7, #8]
	str	r2, [r3, #36]
	.loc 2 428 64
	ldr	r3, [r7, #4]
	ldr	r3, [r3, #36]
	.loc 2 428 72
	bic	r3, r3, #520093696
	bic	r3, r3, #292
	.loc 2 428 160
	ldr	r2, [r7, #8]
	cmp	r2, r3
	beq	.L56
	.loc 2 428 160 is_stmt 0 discriminator 1
	ldr	r3, .L59+8
	b	.L57
.L56:
	.loc 2 428 160 discriminator 2
	movs	r3, #0
.L57:
	.loc 2 428 20 is_stmt 1 discriminator 4
	str	r3, [r7, #12]
.L54:
	.loc 2 432 12
	ldr	r3, [r7, #12]
	.loc 2 433 1
	mov	r0, r3
	adds	r7, r7, #16
.LCFI37:
	.cfi_def_cfa_offset 8
	mov	sp, r7
.LCFI38:
	.cfi_def_cfa_register 13
	@ sp needed
	pop	{r7, pc}
.L60:
	.align	2
.L59:
	.word	12713985
	.word	16776704
	.word	12713987
	.cfi_endproc
.LFE145:
	.size	Cy_Prot_ConfigSmpuMasterStruct, .-Cy_Prot_ConfigSmpuMasterStruct
	.section	.text.Cy_Prot_ConfigSmpuSlaveStruct,"ax",%progbits
	.align	1
	.global	Cy_Prot_ConfigSmpuSlaveStruct
	.syntax unified
	.thumb
	.thumb_func
	.type	Cy_Prot_ConfigSmpuSlaveStruct, %function
Cy_Prot_ConfigSmpuSlaveStruct:
.LFB146:
	.loc 2 468 1
	.cfi_startproc
	@ args = 0, pretend = 0, frame = 24
	@ frame_needed = 1, uses_anonymous_args = 0
	push	{r7, lr}
.LCFI39:
	.cfi_def_cfa_offset 8
	.cfi_offset 7, -8
	.cfi_offset 14, -4
	sub	sp, sp, #24
.LCFI40:
	.cfi_def_cfa_offset 32
	add	r7, sp, #0
.LCFI41:
	.cfi_def_cfa_register 7
	str	r0, [r7, #4]
	str	r1, [r7]
	.loc 2 469 25
	movs	r3, #0
	str	r3, [r7, #20]
	.loc 2 473 12
	ldr	r3, [r7, #4]
	cmp	r3, #0
	bne	.L62
	.loc 2 473 16 discriminator 1
	bl	CY_HALT
.L62:
	.loc 2 474 24
	ldr	r3, [r7]
	ldrh	r3, [r3, #10]
	.loc 2 474 34
	bic	r3, r3, #32640
	bic	r3, r3, #127
	.loc 2 474 12
	cmp	r3, #0
	beq	.L63
	.loc 2 474 73 discriminator 1
	bl	CY_HALT
.L63:
	.loc 2 475 24
	ldr	r3, [r7]
	ldrb	r3, [r3, #6]	@ zero_extendqisi2
	.loc 2 475 12
	cmp	r3, #0
	beq	.L64
	.loc 2 475 79 discriminator 1
	ldr	r3, [r7]
	ldrb	r3, [r3, #6]	@ zero_extendqisi2
	.loc 2 475 68 discriminator 1
	cmp	r3, #1
	beq	.L64
	.loc 2 475 127 discriminator 2
	ldr	r3, [r7]
	ldrb	r3, [r3, #6]	@ zero_extendqisi2
	.loc 2 475 116 discriminator 2
	cmp	r3, #2
	beq	.L64
	.loc 2 475 175 discriminator 3
	ldr	r3, [r7]
	ldrb	r3, [r3, #6]	@ zero_extendqisi2
	.loc 2 475 164 discriminator 3
	cmp	r3, #3
	beq	.L64
	.loc 2 475 224 discriminator 4
	ldr	r3, [r7]
	ldrb	r3, [r3, #6]	@ zero_extendqisi2
	.loc 2 475 213 discriminator 4
	cmp	r3, #4
	beq	.L64
	.loc 2 475 272 discriminator 5
	ldr	r3, [r7]
	ldrb	r3, [r3, #6]	@ zero_extendqisi2
	.loc 2 475 261 discriminator 5
	cmp	r3, #5
	beq	.L64
	.loc 2 475 321 discriminator 6
	ldr	r3, [r7]
	ldrb	r3, [r3, #6]	@ zero_extendqisi2
	.loc 2 475 310 discriminator 6
	cmp	r3, #6
	beq	.L64
	.loc 2 475 370 discriminator 7
	ldr	r3, [r7]
	ldrb	r3, [r3, #6]	@ zero_extendqisi2
	.loc 2 475 13 discriminator 7
	cmp	r3, #7
	beq	.L64
	.loc 2 475 414 discriminator 8
	bl	CY_HALT
.L64:
	.loc 2 476 24
	ldr	r3, [r7]
	ldrb	r3, [r3, #7]	@ zero_extendqisi2
	.loc 2 476 12
	cmp	r3, #0
	beq	.L65
	.loc 2 476 79 discriminator 1
	ldr	r3, [r7]
	ldrb	r3, [r3, #7]	@ zero_extendqisi2
	.loc 2 476 68 discriminator 1
	cmp	r3, #1
	beq	.L65
	.loc 2 476 127 discriminator 2
	ldr	r3, [r7]
	ldrb	r3, [r3, #7]	@ zero_extendqisi2
	.loc 2 476 116 discriminator 2
	cmp	r3, #2
	beq	.L65
	.loc 2 476 175 discriminator 3
	ldr	r3, [r7]
	ldrb	r3, [r3, #7]	@ zero_extendqisi2
	.loc 2 476 164 discriminator 3
	cmp	r3, #3
	beq	.L65
	.loc 2 476 224 discriminator 4
	ldr	r3, [r7]
	ldrb	r3, [r3, #7]	@ zero_extendqisi2
	.loc 2 476 213 discriminator 4
	cmp	r3, #4
	beq	.L65
	.loc 2 476 272 discriminator 5
	ldr	r3, [r7]
	ldrb	r3, [r3, #7]	@ zero_extendqisi2
	.loc 2 476 261 discriminator 5
	cmp	r3, #5
	beq	.L65
	.loc 2 476 321 discriminator 6
	ldr	r3, [r7]
	ldrb	r3, [r3, #7]	@ zero_extendqisi2
	.loc 2 476 310 discriminator 6
	cmp	r3, #6
	beq	.L65
	.loc 2 476 370 discriminator 7
	ldr	r3, [r7]
	ldrb	r3, [r3, #7]	@ zero_extendqisi2
	.loc 2 476 13 discriminator 7
	cmp	r3, #7
	beq	.L65
	.loc 2 476 414 discriminator 8
	bl	CY_HALT
.L65:
	.loc 2 477 24
	ldr	r3, [r7]
	ldrb	r3, [r3, #4]	@ zero_extendqisi2
	.loc 2 477 12
	cmp	r3, #7
	beq	.L66
	.loc 2 477 71 discriminator 1
	ldr	r3, [r7]
	ldrb	r3, [r3, #4]	@ zero_extendqisi2
	.loc 2 477 60 discriminator 1
	cmp	r3, #8
	beq	.L66
	.loc 2 477 118 discriminator 2
	ldr	r3, [r7]
	ldrb	r3, [r3, #4]	@ zero_extendqisi2
	.loc 2 477 107 discriminator 2
	cmp	r3, #9
	beq	.L66
	.loc 2 477 164 discriminator 3
	ldr	r3, [r7]
	ldrb	r3, [r3, #4]	@ zero_extendqisi2
	.loc 2 477 153 discriminator 3
	cmp	r3, #10
	beq	.L66
	.loc 2 477 210 discriminator 4
	ldr	r3, [r7]
	ldrb	r3, [r3, #4]	@ zero_extendqisi2
	.loc 2 477 199 discriminator 4
	cmp	r3, #11
	beq	.L66
	.loc 2 477 256 discriminator 5
	ldr	r3, [r7]
	ldrb	r3, [r3, #4]	@ zero_extendqisi2
	.loc 2 477 245 discriminator 5
	cmp	r3, #12
	beq	.L66
	.loc 2 477 302 discriminator 6
	ldr	r3, [r7]
	ldrb	r3, [r3, #4]	@ zero_extendqisi2
	.loc 2 477 291 discriminator 6
	cmp	r3, #13
	beq	.L66
	.loc 2 477 349 discriminator 7
	ldr	r3, [r7]
	ldrb	r3, [r3, #4]	@ zero_extendqisi2
	.loc 2 477 338 discriminator 7
	cmp	r3, #14
	beq	.L66
	.loc 2 477 396 discriminator 8
	ldr	r3, [r7]
	ldrb	r3, [r3, #4]	@ zero_extendqisi2
	.loc 2 477 385 discriminator 8
	cmp	r3, #15
	beq	.L66
	.loc 2 477 443 discriminator 9
	ldr	r3, [r7]
	ldrb	r3, [r3, #4]	@ zero_extendqisi2
	.loc 2 477 432 discriminator 9
	cmp	r3, #16
	beq	.L66
	.loc 2 477 491 discriminator 10
	ldr	r3, [r7]
	ldrb	r3, [r3, #4]	@ zero_extendqisi2
	.loc 2 477 480 discriminator 10
	cmp	r3, #17
	beq	.L66
	.loc 2 477 539 discriminator 11
	ldr	r3, [r7]
	ldrb	r3, [r3, #4]	@ zero_extendqisi2
	.loc 2 477 528 discriminator 11
	cmp	r3, #18
	beq	.L66
	.loc 2 477 587 discriminator 12
	ldr	r3, [r7]
	ldrb	r3, [r3, #4]	@ zero_extendqisi2
	.loc 2 477 576 discriminator 12
	cmp	r3, #19
	beq	.L66
	.loc 2 477 633 discriminator 13
	ldr	r3, [r7]
	ldrb	r3, [r3, #4]	@ zero_extendqisi2
	.loc 2 477 622 discriminator 13
	cmp	r3, #20
	beq	.L66
	.loc 2 477 679 discriminator 14
	ldr	r3, [r7]
	ldrb	r3, [r3, #4]	@ zero_extendqisi2
	.loc 2 477 668 discriminator 14
	cmp	r3, #21
	beq	.L66
	.loc 2 477 725 discriminator 15
	ldr	r3, [r7]
	ldrb	r3, [r3, #4]	@ zero_extendqisi2
	.loc 2 477 714 discriminator 15
	cmp	r3, #22
	beq	.L66
	.loc 2 477 771 discriminator 16
	ldr	r3, [r7]
	ldrb	r3, [r3, #4]	@ zero_extendqisi2
	.loc 2 477 760 discriminator 16
	cmp	r3, #23
	beq	.L66
	.loc 2 477 818 discriminator 17
	ldr	r3, [r7]
	ldrb	r3, [r3, #4]	@ zero_extendqisi2
	.loc 2 477 807 discriminator 17
	cmp	r3, #24
	beq	.L66
	.loc 2 477 865 discriminator 18
	ldr	r3, [r7]
	ldrb	r3, [r3, #4]	@ zero_extendqisi2
	.loc 2 477 854 discriminator 18
	cmp	r3, #25
	beq	.L66
	.loc 2 477 912 discriminator 19
	ldr	r3, [r7]
	ldrb	r3, [r3, #4]	@ zero_extendqisi2
	.loc 2 477 901 discriminator 19
	cmp	r3, #26
	beq	.L66
	.loc 2 477 960 discriminator 20
	ldr	r3, [r7]
	ldrb	r3, [r3, #4]	@ zero_extendqisi2
	.loc 2 477 949 discriminator 20
	cmp	r3, #27
	beq	.L66
	.loc 2 477 1008 discriminator 21
	ldr	r3, [r7]
	ldrb	r3, [r3, #4]	@ zero_extendqisi2
	.loc 2 477 997 discriminator 21
	cmp	r3, #28
	beq	.L66
	.loc 2 477 1056 discriminator 22
	ldr	r3, [r7]
	ldrb	r3, [r3, #4]	@ zero_extendqisi2
	.loc 2 477 1045 discriminator 22
	cmp	r3, #29
	beq	.L66
	.loc 2 477 1102 discriminator 23
	ldr	r3, [r7]
	ldrb	r3, [r3, #4]	@ zero_extendqisi2
	.loc 2 477 1091 discriminator 23
	cmp	r3, #30
	beq	.L66
	.loc 2 477 1148 discriminator 24
	ldr	r3, [r7]
	ldrb	r3, [r3, #4]	@ zero_extendqisi2
	.loc 2 477 13 discriminator 24
	cmp	r3, #31
	beq	.L66
	.loc 2 477 1188 discriminator 25
	bl	CY_HALT
.L66:
	.loc 2 479 25
	ldr	r3, [r7]
	ldrh	r3, [r3, #10]
	.loc 2 479 34
	bic	r3, r3, #127
	.loc 2 479 7
	cmp	r3, #0
	beq	.L67
	.loc 2 482 16
	ldr	r3, .L73
	str	r3, [r7, #20]
	b	.L68
.L67:
	.loc 2 486 37
	ldr	r3, [r7]
	ldrb	r3, [r3, #5]	@ zero_extendqisi2
	.loc 2 486 59
	mov	r2, r3
	.loc 2 487 63
	ldr	r3, [r7]
	ldr	r3, [r3]
	.loc 2 487 92
	bic	r3, r3, #255
	.loc 2 486 16
	orrs	r3, r3, r2
	str	r3, [r7, #16]
	.loc 2 488 34
	ldr	r3, [r7]
	ldrb	r3, [r3, #6]	@ zero_extendqisi2
	.loc 2 488 51
	and	r2, r3, #7
	.loc 2 489 51
	ldr	r3, [r7]
	ldrb	r3, [r3, #7]	@ zero_extendqisi2
	.loc 2 489 23
	lsls	r3, r3, #3
	and	r3, r3, #56
	.loc 2 489 21
	orrs	r2, r2, r3
	.loc 2 490 44
	ldr	r3, [r7]
	ldrb	r3, [r3, #8]	@ zero_extendqisi2
	.loc 2 490 25
	eor	r3, r3, #1
	uxtb	r3, r3
	.loc 2 490 55
	lsls	r3, r3, #6
	.loc 2 490 63
	and	r3, r3, #64
	.loc 2 490 21
	orrs	r2, r2, r3
	.loc 2 491 42
	ldr	r3, [r7]
	ldrh	r3, [r3, #10]
	.loc 2 491 52
	lsls	r1, r3, #9
	.loc 2 491 60
	ldr	r3, .L73+4
	ands	r3, r3, r1
	.loc 2 491 21
	orrs	r2, r2, r3
	.loc 2 492 42
	ldr	r3, [r7]
	ldrb	r3, [r3, #4]	@ zero_extendqisi2
	.loc 2 492 56
	lsls	r3, r3, #24
	.loc 2 492 65
	and	r3, r3, #520093696
	.loc 2 492 21
	orrs	r2, r2, r3
	.loc 2 493 42
	ldr	r3, [r7]
	ldrb	r3, [r3, #9]	@ zero_extendqisi2
	.loc 2 493 53
	lsls	r3, r3, #30
	.loc 2 493 62
	and	r3, r3, #1073741824
	.loc 2 488 15
	orrs	r3, r3, r2
	str	r3, [r7, #12]
	.loc 2 494 57
	ldr	r3, [r7, #4]
	ldr	r2, [r7, #12]
	str	r2, [r3, #4]
	.loc 2 495 58
	ldr	r3, [r7, #4]
	ldr	r2, [r7, #16]
	str	r2, [r3]
	.loc 2 496 60
	ldr	r3, [r7, #4]
	ldr	r3, [r3]
	.loc 2 497 31
	ldr	r2, [r7, #16]
	cmp	r2, r3
	bne	.L69
	.loc 2 496 126
	ldr	r3, [r7, #4]
	ldr	r3, [r3, #4]
	.loc 2 496 134
	bic	r3, r3, #256
	.loc 2 496 81
	ldr	r2, [r7, #12]
	cmp	r2, r3
	beq	.L70
.L69:
	.loc 2 497 31 discriminator 1
	ldr	r3, .L73+8
	b	.L71
.L70:
	.loc 2 497 31 is_stmt 0
	movs	r3, #0
.L71:
	.loc 2 496 16 is_stmt 1
	str	r3, [r7, #20]
.L68:
	.loc 2 500 12
	ldr	r3, [r7, #20]
	.loc 2 501 1
	mov	r0, r3
	adds	r7, r7, #24
.LCFI42:
	.cfi_def_cfa_offset 8
	mov	sp, r7
.LCFI43:
	.cfi_def_cfa_register 13
	@ sp needed
	pop	{r7, pc}
.L74:
	.align	2
.L73:
	.word	12713985
	.word	16776704
	.word	12713987
	.cfi_endproc
.LFE146:
	.size	Cy_Prot_ConfigSmpuSlaveStruct, .-Cy_Prot_ConfigSmpuSlaveStruct
	.section	.text.Cy_Prot_EnableSmpuMasterStruct,"ax",%progbits
	.align	1
	.global	Cy_Prot_EnableSmpuMasterStruct
	.syntax unified
	.thumb
	.thumb_func
	.type	Cy_Prot_EnableSmpuMasterStruct, %function
Cy_Prot_EnableSmpuMasterStruct:
.LFB147:
	.loc 2 531 1
	.cfi_startproc
	@ args = 0, pretend = 0, frame = 16
	@ frame_needed = 1, uses_anonymous_args = 0
	push	{r7, lr}
.LCFI44:
	.cfi_def_cfa_offset 8
	.cfi_offset 7, -8
	.cfi_offset 14, -4
	sub	sp, sp, #16
.LCFI45:
	.cfi_def_cfa_offset 24
	add	r7, sp, #0
.LCFI46:
	.cfi_def_cfa_register 7
	str	r0, [r7, #4]
	.loc 2 534 12
	ldr	r3, [r7, #4]
	cmp	r3, #0
	bne	.L76
	.loc 2 534 16 discriminator 1
	bl	CY_HALT
.L76:
	.loc 2 536 53
	ldr	r3, [r7, #4]
	ldr	r3, [r3, #36]
	orr	r2, r3, #-2147483648
	ldr	r3, [r7, #4]
	str	r2, [r3, #36]
	.loc 2 537 68
	ldr	r3, [r7, #4]
	ldr	r3, [r3, #36]
	.loc 2 537 93
	lsrs	r3, r3, #31
	and	r3, r3, #1
	.loc 2 538 33
	cmp	r3, #1
	beq	.L77
	.loc 2 538 33 is_stmt 0 discriminator 1
	ldr	r3, .L80
	b	.L78
.L77:
	.loc 2 538 33 discriminator 2
	movs	r3, #0
.L78:
	.loc 2 537 12 is_stmt 1
	str	r3, [r7, #12]
	.loc 2 540 12
	ldr	r3, [r7, #12]
	.loc 2 541 1
	mov	r0, r3
	adds	r7, r7, #16
.LCFI47:
	.cfi_def_cfa_offset 8
	mov	sp, r7
.LCFI48:
	.cfi_def_cfa_register 13
	@ sp needed
	pop	{r7, pc}
.L81:
	.align	2
.L80:
	.word	12713987
	.cfi_endproc
.LFE147:
	.size	Cy_Prot_EnableSmpuMasterStruct, .-Cy_Prot_EnableSmpuMasterStruct
	.section	.text.Cy_Prot_DisableSmpuMasterStruct,"ax",%progbits
	.align	1
	.global	Cy_Prot_DisableSmpuMasterStruct
	.syntax unified
	.thumb
	.thumb_func
	.type	Cy_Prot_DisableSmpuMasterStruct, %function
Cy_Prot_DisableSmpuMasterStruct:
.LFB148:
	.loc 2 571 1
	.cfi_startproc
	@ args = 0, pretend = 0, frame = 16
	@ frame_needed = 1, uses_anonymous_args = 0
	push	{r7, lr}
.LCFI49:
	.cfi_def_cfa_offset 8
	.cfi_offset 7, -8
	.cfi_offset 14, -4
	sub	sp, sp, #16
.LCFI50:
	.cfi_def_cfa_offset 24
	add	r7, sp, #0
.LCFI51:
	.cfi_def_cfa_register 7
	str	r0, [r7, #4]
	.loc 2 574 12
	ldr	r3, [r7, #4]
	cmp	r3, #0
	bne	.L83
	.loc 2 574 16 discriminator 1
	bl	CY_HALT
.L83:
	.loc 2 576 53
	ldr	r3, [r7, #4]
	ldr	r3, [r3, #36]
	bic	r2, r3, #-2147483648
	ldr	r3, [r7, #4]
	str	r2, [r3, #36]
	.loc 2 577 68
	ldr	r3, [r7, #4]
	ldr	r3, [r3, #36]
	.loc 2 577 93
	lsrs	r3, r3, #31
	and	r3, r3, #1
	.loc 2 578 33
	cmp	r3, #1
	bne	.L84
	.loc 2 578 33 is_stmt 0 discriminator 1
	ldr	r3, .L87
	b	.L85
.L84:
	.loc 2 578 33 discriminator 2
	movs	r3, #0
.L85:
	.loc 2 577 12 is_stmt 1
	str	r3, [r7, #12]
	.loc 2 580 12
	ldr	r3, [r7, #12]
	.loc 2 581 1
	mov	r0, r3
	adds	r7, r7, #16
.LCFI52:
	.cfi_def_cfa_offset 8
	mov	sp, r7
.LCFI53:
	.cfi_def_cfa_register 13
	@ sp needed
	pop	{r7, pc}
.L88:
	.align	2
.L87:
	.word	12713987
	.cfi_endproc
.LFE148:
	.size	Cy_Prot_DisableSmpuMasterStruct, .-Cy_Prot_DisableSmpuMasterStruct
	.section	.text.Cy_Prot_EnableSmpuSlaveStruct,"ax",%progbits
	.align	1
	.global	Cy_Prot_EnableSmpuSlaveStruct
	.syntax unified
	.thumb
	.thumb_func
	.type	Cy_Prot_EnableSmpuSlaveStruct, %function
Cy_Prot_EnableSmpuSlaveStruct:
.LFB149:
	.loc 2 611 1
	.cfi_startproc
	@ args = 0, pretend = 0, frame = 16
	@ frame_needed = 1, uses_anonymous_args = 0
	push	{r7, lr}
.LCFI54:
	.cfi_def_cfa_offset 8
	.cfi_offset 7, -8
	.cfi_offset 14, -4
	sub	sp, sp, #16
.LCFI55:
	.cfi_def_cfa_offset 24
	add	r7, sp, #0
.LCFI56:
	.cfi_def_cfa_register 7
	str	r0, [r7, #4]
	.loc 2 614 12
	ldr	r3, [r7, #4]
	cmp	r3, #0
	bne	.L90
	.loc 2 614 16 discriminator 1
	bl	CY_HALT
.L90:
	.loc 2 616 53
	ldr	r3, [r7, #4]
	ldr	r3, [r3, #4]
	orr	r2, r3, #-2147483648
	ldr	r3, [r7, #4]
	str	r2, [r3, #4]
	.loc 2 617 68
	ldr	r3, [r7, #4]
	ldr	r3, [r3, #4]
	.loc 2 617 93
	lsrs	r3, r3, #31
	and	r3, r3, #1
	.loc 2 618 33
	cmp	r3, #1
	beq	.L91
	.loc 2 618 33 is_stmt 0 discriminator 1
	ldr	r3, .L94
	b	.L92
.L91:
	.loc 2 618 33 discriminator 2
	movs	r3, #0
.L92:
	.loc 2 617 12 is_stmt 1
	str	r3, [r7, #12]
	.loc 2 620 12
	ldr	r3, [r7, #12]
	.loc 2 621 1
	mov	r0, r3
	adds	r7, r7, #16
.LCFI57:
	.cfi_def_cfa_offset 8
	mov	sp, r7
.LCFI58:
	.cfi_def_cfa_register 13
	@ sp needed
	pop	{r7, pc}
.L95:
	.align	2
.L94:
	.word	12713987
	.cfi_endproc
.LFE149:
	.size	Cy_Prot_EnableSmpuSlaveStruct, .-Cy_Prot_EnableSmpuSlaveStruct
	.section	.text.Cy_Prot_DisableSmpuSlaveStruct,"ax",%progbits
	.align	1
	.global	Cy_Prot_DisableSmpuSlaveStruct
	.syntax unified
	.thumb
	.thumb_func
	.type	Cy_Prot_DisableSmpuSlaveStruct, %function
Cy_Prot_DisableSmpuSlaveStruct:
.LFB150:
	.loc 2 651 1
	.cfi_startproc
	@ args = 0, pretend = 0, frame = 16
	@ frame_needed = 1, uses_anonymous_args = 0
	push	{r7, lr}
.LCFI59:
	.cfi_def_cfa_offset 8
	.cfi_offset 7, -8
	.cfi_offset 14, -4
	sub	sp, sp, #16
.LCFI60:
	.cfi_def_cfa_offset 24
	add	r7, sp, #0
.LCFI61:
	.cfi_def_cfa_register 7
	str	r0, [r7, #4]
	.loc 2 654 12
	ldr	r3, [r7, #4]
	cmp	r3, #0
	bne	.L97
	.loc 2 654 16 discriminator 1
	bl	CY_HALT
.L97:
	.loc 2 656 53
	ldr	r3, [r7, #4]
	ldr	r3, [r3, #4]
	bic	r2, r3, #-2147483648
	ldr	r3, [r7, #4]
	str	r2, [r3, #4]
	.loc 2 657 68
	ldr	r3, [r7, #4]
	ldr	r3, [r3, #4]
	.loc 2 657 93
	lsrs	r3, r3, #31
	and	r3, r3, #1
	.loc 2 658 33
	cmp	r3, #1
	bne	.L98
	.loc 2 658 33 is_stmt 0 discriminator 1
	ldr	r3, .L101
	b	.L99
.L98:
	.loc 2 658 33 discriminator 2
	movs	r3, #0
.L99:
	.loc 2 657 12 is_stmt 1
	str	r3, [r7, #12]
	.loc 2 660 12
	ldr	r3, [r7, #12]
	.loc 2 661 1
	mov	r0, r3
	adds	r7, r7, #16
.LCFI62:
	.cfi_def_cfa_offset 8
	mov	sp, r7
.LCFI63:
	.cfi_def_cfa_register 13
	@ sp needed
	pop	{r7, pc}
.L102:
	.align	2
.L101:
	.word	12713987
	.cfi_endproc
.LFE150:
	.size	Cy_Prot_DisableSmpuSlaveStruct, .-Cy_Prot_DisableSmpuSlaveStruct
	.section	.text.Cy_Prot_GetSmpuStruct,"ax",%progbits
	.align	1
	.global	Cy_Prot_GetSmpuStruct
	.syntax unified
	.thumb
	.thumb_func
	.type	Cy_Prot_GetSmpuStruct, %function
Cy_Prot_GetSmpuStruct:
.LFB151:
	.loc 2 712 1
	.cfi_startproc
	@ args = 0, pretend = 0, frame = 24
	@ frame_needed = 1, uses_anonymous_args = 0
	push	{r7, lr}
.LCFI64:
	.cfi_def_cfa_offset 8
	.cfi_offset 7, -8
	.cfi_offset 14, -4
	sub	sp, sp, #24
.LCFI65:
	.cfi_def_cfa_offset 32
	add	r7, sp, #0
.LCFI66:
	.cfi_def_cfa_register 7
	str	r0, [r7, #12]
	mov	r3, r1
	str	r2, [r7, #4]
	strb	r3, [r7, #11]
	.loc 2 713 12
	ldrb	r3, [r7, #11]	@ zero_extendqisi2
	cmp	r3, #0
	beq	.L104
	.loc 2 713 57 discriminator 1
	ldrb	r3, [r7, #11]	@ zero_extendqisi2
	cmp	r3, #1
	beq	.L104
	.loc 2 713 13 discriminator 2
	ldrb	r3, [r7, #11]	@ zero_extendqisi2
	cmp	r3, #2
	beq	.L104
	.loc 2 713 145 discriminator 3
	bl	CY_HALT
.L104:
	.loc 2 714 12
	ldr	r3, [r7, #4]
	cmp	r3, #15
	bls	.L105
	.loc 2 714 51 discriminator 1
	bl	CY_HALT
.L105:
	.loc 2 716 25
	ldr	r3, .L128
	str	r3, [r7, #20]
	.loc 2 717 13
	ldr	r3, [r7, #4]
	str	r3, [r7, #16]
	.loc 2 719 11
	ldr	r3, [r7, #12]
	movs	r2, #0
	str	r2, [r3]
	.loc 2 721 5
	ldrb	r3, [r7, #11]	@ zero_extendqisi2
	cmp	r3, #2
	beq	.L106
	cmp	r3, #2
	bgt	.L124
	cmp	r3, #0
	beq	.L108
	cmp	r3, #1
	beq	.L109
	.loc 2 766 13
	b	.L124
.L108:
	.loc 2 728 20
	movs	r3, #15
	str	r3, [r7, #16]
.L113:
	.loc 2 731 21
	ldr	r3, [r7, #16]
	mov	r0, r3
	bl	Prot_IsSmpuStructDisabled
	mov	r3, r0
	.loc 2 731 20
	cmp	r3, #0
	beq	.L110
	.loc 2 733 28
	movs	r3, #0
	str	r3, [r7, #20]
	b	.L111
.L110:
	.loc 2 737 21
	ldr	r3, [r7, #16]
	subs	r3, r3, #1
	str	r3, [r7, #16]
.L111:
	.loc 2 739 13
	ldr	r3, [r7, #16]
	cmp	r3, #0
	blt	.L125
	.loc 2 739 36 discriminator 1
	ldr	r3, [r7, #20]
	cmp	r3, #0
	bne	.L113
	.loc 2 740 13
	b	.L125
.L109:
	.loc 2 743 20
	movs	r3, #0
	str	r3, [r7, #16]
.L118:
	.loc 2 746 21
	ldr	r3, [r7, #16]
	mov	r0, r3
	bl	Prot_IsSmpuStructDisabled
	mov	r3, r0
	.loc 2 746 20
	cmp	r3, #0
	beq	.L115
	.loc 2 748 28
	movs	r3, #0
	str	r3, [r7, #20]
	b	.L116
.L115:
	.loc 2 752 21
	ldr	r3, [r7, #16]
	adds	r3, r3, #1
	str	r3, [r7, #16]
.L116:
	.loc 2 754 13
	ldr	r3, [r7, #16]
	cmp	r3, #15
	bgt	.L126
	.loc 2 754 39 discriminator 1
	ldr	r3, [r7, #20]
	cmp	r3, #0
	bne	.L118
	.loc 2 755 13
	b	.L126
.L106:
	.loc 2 758 17
	ldr	r3, [r7, #16]
	mov	r0, r3
	bl	Prot_IsSmpuStructDisabled
	mov	r3, r0
	.loc 2 758 16
	cmp	r3, #0
	beq	.L127
	.loc 2 760 24
	movs	r3, #0
	str	r3, [r7, #20]
	.loc 2 762 13
	b	.L127
.L124:
	.loc 2 766 13
	nop
	b	.L114
.L125:
	.loc 2 740 13
	nop
	b	.L114
.L126:
	.loc 2 755 13
	nop
	b	.L114
.L127:
	.loc 2 762 13
	nop
.L114:
	.loc 2 770 8
	ldr	r3, [r7, #20]
	cmp	r3, #0
	bne	.L120
	.loc 2 773 40
	ldr	r3, .L128+4
	ldr	r3, [r3]
	ldr	r3, [r3, #16]
	.loc 2 773 11
	mov	r2, r3
	.loc 2 773 82
	ldr	r3, [r7, #16]
	adds	r3, r3, #128
	lsls	r3, r3, #6
	add	r3, r3, r2
	adds	r3, r3, #4
	ldr	r3, [r3]
	.loc 2 773 40
	ldr	r2, .L128+4
	ldr	r2, [r2]
	ldr	r2, [r2, #16]
	.loc 2 773 11
	mov	r1, r2
	.loc 2 773 82
	orr	r2, r3, #-2147483648
	ldr	r3, [r7, #16]
	adds	r3, r3, #128
	lsls	r3, r3, #6
	add	r3, r3, r1
	adds	r3, r3, #4
	str	r2, [r3]
	.loc 2 776 54
	ldr	r3, .L128+4
	ldr	r3, [r3]
	ldr	r3, [r3, #16]
	.loc 2 776 25
	mov	r2, r3
	.loc 2 776 89
	ldr	r3, [r7, #16]
	adds	r3, r3, #128
	lsls	r3, r3, #6
	add	r3, r3, r2
	adds	r3, r3, #4
	ldr	r3, [r3]
	.loc 2 776 113
	lsrs	r3, r3, #31
	and	r3, r3, #1
	.loc 2 777 25
	cmp	r3, #1
	beq	.L121
	.loc 2 777 25 is_stmt 0 discriminator 1
	ldr	r3, .L128+8
	b	.L122
.L121:
	.loc 2 777 25 discriminator 2
	movs	r3, #0
.L122:
	.loc 2 775 16 is_stmt 1
	str	r3, [r7, #20]
	.loc 2 780 12
	ldr	r3, [r7, #20]
	cmp	r3, #0
	bne	.L120
	.loc 2 782 116
	ldr	r3, .L128+4
	ldr	r3, [r3]
	ldr	r3, [r3, #16]
	.loc 2 782 87
	mov	r2, r3
	.loc 2 782 85
	ldr	r3, [r7, #16]
	adds	r3, r3, #128
	lsls	r3, r3, #6
	add	r2, r2, r3
	.loc 2 782 19
	ldr	r3, [r7, #12]
	str	r2, [r3]
	.loc 2 783 44
	ldr	r3, .L128+4
	ldr	r3, [r3]
	ldr	r3, [r3, #16]
	.loc 2 783 15
	mov	r2, r3
	.loc 2 783 86
	ldr	r3, [r7, #16]
	adds	r3, r3, #128
	lsls	r3, r3, #6
	add	r3, r3, r2
	adds	r3, r3, #4
	ldr	r3, [r3]
	.loc 2 783 44
	ldr	r2, .L128+4
	ldr	r2, [r2]
	ldr	r2, [r2, #16]
	.loc 2 783 15
	mov	r1, r2
	.loc 2 783 86
	orr	r2, r3, #127
	ldr	r3, [r7, #16]
	adds	r3, r3, #128
	lsls	r3, r3, #6
	add	r3, r3, r1
	adds	r3, r3, #4
	str	r2, [r3]
.L120:
	.loc 2 786 12
	ldr	r3, [r7, #20]
	.loc 2 787 1
	mov	r0, r3
	adds	r7, r7, #24
.LCFI67:
	.cfi_def_cfa_offset 8
	mov	sp, r7
.LCFI68:
	.cfi_def_cfa_register 13
	@ sp needed
	pop	{r7, pc}
.L129:
	.align	2
.L128:
	.word	12713988
	.word	cy_device
	.word	12713987
	.cfi_endproc
.LFE151:
	.size	Cy_Prot_GetSmpuStruct, .-Cy_Prot_GetSmpuStruct
	.section	.text.Prot_ConfigPpuAtt,"ax",%progbits
	.align	1
	.syntax unified
	.thumb
	.thumb_func
	.type	Prot_ConfigPpuAtt, %function
Prot_ConfigPpuAtt:
.LFB152:
	.loc 2 831 1
	.cfi_startproc
	@ args = 4, pretend = 0, frame = 32
	@ frame_needed = 1, uses_anonymous_args = 0
	@ link register save eliminated.
	push	{r7}
.LCFI69:
	.cfi_def_cfa_offset 4
	.cfi_offset 7, -4
	sub	sp, sp, #36
.LCFI70:
	.cfi_def_cfa_offset 40
	add	r7, sp, #0
.LCFI71:
	.cfi_def_cfa_register 7
	str	r0, [r7, #4]
	mov	r0, r1
	mov	r1, r2
	mov	r2, r3
	mov	r3, r0	@ movhi
	strh	r3, [r7, #2]	@ movhi
	mov	r3, r1
	strb	r3, [r7, #1]
	mov	r3, r2
	strb	r3, [r7]
	.loc 2 832 25
	ldr	r3, .L142
	str	r3, [r7, #28]
	.loc 2 834 37
	ldr	r3, .L142+4
	ldr	r3, [r3]
	ldrb	r3, [r3, #48]	@ zero_extendqisi2
	.loc 2 834 7
	cmp	r3, #31
	bls	.L131
.LBB2:
	.loc 2 836 28
	ldrh	r3, [r7, #2]
	.loc 2 836 18
	lsls	r3, r3, #1
	str	r3, [r7, #8]
	.loc 2 842 16
	movs	r3, #0
	str	r3, [r7, #28]
	.loc 2 846 20
	movs	r3, #3
	str	r3, [r7, #16]
	.loc 2 846 9
	b	.L132
.L140:
	.loc 2 848 44
	ldr	r3, [r7, #16]
	.loc 2 848 42
	lsls	r3, r3, #2
	.loc 2 848 33
	ldr	r2, [r7, #8]
	lsr	r3, r2, r3
	.loc 2 848 22
	and	r3, r3, #15
	str	r3, [r7, #24]
	.loc 2 851 25
	ldr	r3, [r7, #16]
	lsls	r3, r3, #2
	ldr	r2, [r7, #4]
	add	r3, r3, r2
	.loc 2 851 20
	ldr	r3, [r3]
	str	r3, [r7, #20]
	.loc 2 853 24
	movs	r3, #0
	str	r3, [r7, #12]
	.loc 2 853 13
	b	.L133
.L137:
	.loc 2 855 30
	ldr	r3, [r7, #24]
	and	r3, r3, #1
	.loc 2 855 19
	cmp	r3, #0
	beq	.L134
	.loc 2 861 38
	ldr	r3, [r7, #12]
	lsls	r3, r3, #3
	.loc 2 860 42
	movs	r2, #31
	lsl	r3, r2, r3
	.loc 2 858 31
	mvns	r3, r3
	.loc 2 858 28
	ldr	r2, [r7, #20]
	ands	r3, r3, r2
	str	r3, [r7, #20]
	.loc 2 864 61
	ldrb	r3, [r7, #1]	@ zero_extendqisi2
	.loc 2 864 71
	and	r2, r3, #3
	.loc 2 865 34
	ldrb	r3, [r7]	@ zero_extendqisi2
	.loc 2 865 61
	lsls	r3, r3, #2
	.loc 2 865 71
	and	r3, r3, #12
	.loc 2 864 83
	orrs	r3, r3, r2
	.loc 2 866 34
	ldrb	r2, [r7, #40]
	eor	r2, r2, #1
	uxtb	r2, r2
	.loc 2 866 43
	cmp	r2, #0
	beq	.L135
	.loc 2 866 43 is_stmt 0 discriminator 1
	movs	r2, #16
	b	.L136
.L135:
	.loc 2 866 43 discriminator 2
	movs	r2, #0
.L136:
	.loc 2 865 104 is_stmt 1
	orrs	r2, r2, r3
	.loc 2 867 37
	ldr	r3, [r7, #12]
	lsls	r3, r3, #3
	.loc 2 866 51
	lsl	r3, r2, r3
	.loc 2 864 28
	ldr	r2, [r7, #20]
	orrs	r3, r3, r2
	str	r3, [r7, #20]
.L134:
	.loc 2 869 26 discriminator 2
	ldr	r3, [r7, #24]
	lsrs	r3, r3, #1
	str	r3, [r7, #24]
	.loc 2 853 52 discriminator 2
	ldr	r3, [r7, #12]
	adds	r3, r3, #1
	str	r3, [r7, #12]
.L133:
	.loc 2 853 13 discriminator 1
	ldr	r3, [r7, #12]
	cmp	r3, #3
	bls	.L137
	.loc 2 873 16
	ldr	r3, [r7, #16]
	lsls	r3, r3, #2
	ldr	r2, [r7, #4]
	add	r3, r3, r2
	.loc 2 873 25
	ldr	r2, [r7, #20]
	str	r2, [r3]
	.loc 2 876 16
	ldr	r3, [r7, #16]
	cmp	r3, #0
	bne	.L138
	.loc 2 878 25
	ldr	r3, [r7, #16]
	lsls	r3, r3, #2
	ldr	r2, [r7, #4]
	add	r3, r3, r2
	ldr	r2, [r3]
	.loc 2 878 52
	ldr	r3, [r7, #20]
	eors	r3, r3, r2
	bic	r3, r3, #31
	.loc 2 878 20
	cmp	r3, #0
	beq	.L139
	.loc 2 880 28
	ldr	r3, .L142+8
	str	r3, [r7, #28]
	b	.L139
.L138:
	.loc 2 883 25
	ldr	r3, [r7, #16]
	lsls	r3, r3, #2
	ldr	r2, [r7, #4]
	add	r3, r3, r2
	ldr	r3, [r3]
	.loc 2 883 21
	ldr	r2, [r7, #20]
	cmp	r2, r3
	beq	.L139
	.loc 2 885 24
	ldr	r3, .L142+8
	str	r3, [r7, #28]
.L139:
	.loc 2 846 72 discriminator 2
	ldr	r3, [r7, #16]
	subs	r3, r3, #1
	str	r3, [r7, #16]
.L132:
	.loc 2 846 9 discriminator 1
	ldr	r3, [r7, #16]
	cmp	r3, #0
	bge	.L140
.L131:
.LBE2:
	.loc 2 893 8
	ldr	r3, [r7, #28]
	.loc 2 894 1
	mov	r0, r3
	adds	r7, r7, #36
.LCFI72:
	.cfi_def_cfa_offset 4
	mov	sp, r7
.LCFI73:
	.cfi_def_cfa_register 13
	@ sp needed
	ldr	r7, [sp], #4
.LCFI74:
	.cfi_restore 7
	.cfi_def_cfa_offset 0
	bx	lr
.L143:
	.align	2
.L142:
	.word	12713986
	.word	cy_device
	.word	12713987
	.cfi_endproc
.LFE152:
	.size	Prot_ConfigPpuAtt, .-Prot_ConfigPpuAtt
	.section	.text.Cy_Prot_ConfigPpuProgMasterAtt,"ax",%progbits
	.align	1
	.global	Cy_Prot_ConfigPpuProgMasterAtt
	.syntax unified
	.thumb
	.thumb_func
	.type	Cy_Prot_ConfigPpuProgMasterAtt, %function
Cy_Prot_ConfigPpuProgMasterAtt:
.LFB153:
	.loc 2 954 1
	.cfi_startproc
	@ args = 4, pretend = 0, frame = 8
	@ frame_needed = 1, uses_anonymous_args = 0
	push	{r4, r7, lr}
.LCFI75:
	.cfi_def_cfa_offset 12
	.cfi_offset 4, -12
	.cfi_offset 7, -8
	.cfi_offset 14, -4
	sub	sp, sp, #20
.LCFI76:
	.cfi_def_cfa_offset 32
	add	r7, sp, #8
.LCFI77:
	.cfi_def_cfa 7, 24
	str	r0, [r7, #4]
	mov	r0, r1
	mov	r1, r2
	mov	r2, r3
	mov	r3, r0	@ movhi
	strh	r3, [r7, #2]	@ movhi
	mov	r3, r1
	strb	r3, [r7, #1]
	mov	r3, r2
	strb	r3, [r7]
	.loc 2 956 12
	ldr	r3, [r7, #4]
	cmp	r3, #0
	bne	.L145
	.loc 2 956 16 discriminator 1
	bl	CY_HALT
.L145:
	.loc 2 957 12
	ldrb	r3, [r7, #1]	@ zero_extendqisi2
	cmp	r3, #1
	beq	.L146
	.loc 2 957 13 discriminator 1
	ldrb	r3, [r7, #1]	@ zero_extendqisi2
	cmp	r3, #3
	beq	.L146
	.loc 2 957 99 discriminator 2
	bl	CY_HALT
.L146:
	.loc 2 958 12
	ldrb	r3, [r7]	@ zero_extendqisi2
	cmp	r3, #1
	beq	.L147
	.loc 2 958 13 discriminator 1
	ldrb	r3, [r7]	@ zero_extendqisi2
	cmp	r3, #3
	beq	.L147
	.loc 2 958 99 discriminator 2
	bl	CY_HALT
.L147:
	.loc 2 960 12
	ldrh	r3, [r7, #2]	@ movhi
	uxtb	r3, r3
	strh	r3, [r7, #2]	@ movhi
	.loc 2 963 13
	ldr	r3, [r7, #4]
	add	r0, r3, #48
	ldrb	r4, [r7]	@ zero_extendqisi2
	ldrb	r2, [r7, #1]	@ zero_extendqisi2
	ldrh	r1, [r7, #2]
	ldrb	r3, [r7, #24]	@ zero_extendqisi2
	str	r3, [sp]
	mov	r3, r4
	bl	Prot_ConfigPpuAtt
	mov	r3, r0
	.loc 2 964 1
	mov	r0, r3
	adds	r7, r7, #12
.LCFI78:
	.cfi_def_cfa_offset 12
	mov	sp, r7
.LCFI79:
	.cfi_def_cfa_register 13
	@ sp needed
	pop	{r4, r7, pc}
	.cfi_endproc
.LFE153:
	.size	Cy_Prot_ConfigPpuProgMasterAtt, .-Cy_Prot_ConfigPpuProgMasterAtt
	.section	.text.Cy_Prot_ConfigPpuProgSlaveAddr,"ax",%progbits
	.align	1
	.global	Cy_Prot_ConfigPpuProgSlaveAddr
	.syntax unified
	.thumb
	.thumb_func
	.type	Cy_Prot_ConfigPpuProgSlaveAddr, %function
Cy_Prot_ConfigPpuProgSlaveAddr:
.LFB154:
	.loc 2 1006 1
	.cfi_startproc
	@ args = 0, pretend = 0, frame = 24
	@ frame_needed = 1, uses_anonymous_args = 0
	push	{r7, lr}
.LCFI80:
	.cfi_def_cfa_offset 8
	.cfi_offset 7, -8
	.cfi_offset 14, -4
	sub	sp, sp, #24
.LCFI81:
	.cfi_def_cfa_offset 32
	add	r7, sp, #0
.LCFI82:
	.cfi_def_cfa_register 7
	str	r0, [r7, #12]
	str	r1, [r7, #8]
	mov	r3, r2
	strb	r3, [r7, #7]
	.loc 2 1007 25
	ldr	r3, .L157
	str	r3, [r7, #20]
	.loc 2 1010 12
	ldr	r3, [r7, #12]
	cmp	r3, #0
	bne	.L150
	.loc 2 1010 16 discriminator 1
	bl	CY_HALT
.L150:
	.loc 2 1011 12
	ldrb	r3, [r7, #7]	@ zero_extendqisi2
	cmp	r3, #1
	beq	.L151
	.loc 2 1011 50 discriminator 1
	ldrb	r3, [r7, #7]	@ zero_extendqisi2
	cmp	r3, #2
	beq	.L151
	.loc 2 1011 87 discriminator 2
	ldrb	r3, [r7, #7]	@ zero_extendqisi2
	cmp	r3, #3
	beq	.L151
	.loc 2 1011 125 discriminator 3
	ldrb	r3, [r7, #7]	@ zero_extendqisi2
	cmp	r3, #4
	beq	.L151
	.loc 2 1011 163 discriminator 4
	ldrb	r3, [r7, #7]	@ zero_extendqisi2
	cmp	r3, #5
	beq	.L151
	.loc 2 1011 201 discriminator 5
	ldrb	r3, [r7, #7]	@ zero_extendqisi2
	cmp	r3, #6
	beq	.L151
	.loc 2 1011 240 discriminator 6
	ldrb	r3, [r7, #7]	@ zero_extendqisi2
	cmp	r3, #7
	beq	.L151
	.loc 2 1011 279 discriminator 7
	ldrb	r3, [r7, #7]	@ zero_extendqisi2
	cmp	r3, #8
	beq	.L151
	.loc 2 1011 318 discriminator 8
	ldrb	r3, [r7, #7]	@ zero_extendqisi2
	cmp	r3, #9
	beq	.L151
	.loc 2 1011 356 discriminator 9
	ldrb	r3, [r7, #7]	@ zero_extendqisi2
	cmp	r3, #10
	beq	.L151
	.loc 2 1011 394 discriminator 10
	ldrb	r3, [r7, #7]	@ zero_extendqisi2
	cmp	r3, #11
	beq	.L151
	.loc 2 1011 432 discriminator 11
	ldrb	r3, [r7, #7]	@ zero_extendqisi2
	cmp	r3, #12
	beq	.L151
	.loc 2 1011 470 discriminator 12
	ldrb	r3, [r7, #7]	@ zero_extendqisi2
	cmp	r3, #13
	beq	.L151
	.loc 2 1011 509 discriminator 13
	ldrb	r3, [r7, #7]	@ zero_extendqisi2
	cmp	r3, #14
	beq	.L151
	.loc 2 1011 548 discriminator 14
	ldrb	r3, [r7, #7]	@ zero_extendqisi2
	cmp	r3, #15
	beq	.L151
	.loc 2 1011 587 discriminator 15
	ldrb	r3, [r7, #7]	@ zero_extendqisi2
	cmp	r3, #16
	beq	.L151
	.loc 2 1011 627 discriminator 16
	ldrb	r3, [r7, #7]	@ zero_extendqisi2
	cmp	r3, #17
	beq	.L151
	.loc 2 1011 667 discriminator 17
	ldrb	r3, [r7, #7]	@ zero_extendqisi2
	cmp	r3, #18
	beq	.L151
	.loc 2 1011 707 discriminator 18
	ldrb	r3, [r7, #7]	@ zero_extendqisi2
	cmp	r3, #19
	beq	.L151
	.loc 2 1011 745 discriminator 19
	ldrb	r3, [r7, #7]	@ zero_extendqisi2
	cmp	r3, #20
	beq	.L151
	.loc 2 1011 783 discriminator 20
	ldrb	r3, [r7, #7]	@ zero_extendqisi2
	cmp	r3, #21
	beq	.L151
	.loc 2 1011 821 discriminator 21
	ldrb	r3, [r7, #7]	@ zero_extendqisi2
	cmp	r3, #22
	beq	.L151
	.loc 2 1011 859 discriminator 22
	ldrb	r3, [r7, #7]	@ zero_extendqisi2
	cmp	r3, #23
	beq	.L151
	.loc 2 1011 898 discriminator 23
	ldrb	r3, [r7, #7]	@ zero_extendqisi2
	cmp	r3, #24
	beq	.L151
	.loc 2 1011 937 discriminator 24
	ldrb	r3, [r7, #7]	@ zero_extendqisi2
	cmp	r3, #25
	beq	.L151
	.loc 2 1011 976 discriminator 25
	ldrb	r3, [r7, #7]	@ zero_extendqisi2
	cmp	r3, #26
	beq	.L151
	.loc 2 1011 1016 discriminator 26
	ldrb	r3, [r7, #7]	@ zero_extendqisi2
	cmp	r3, #27
	beq	.L151
	.loc 2 1011 1056 discriminator 27
	ldrb	r3, [r7, #7]	@ zero_extendqisi2
	cmp	r3, #28
	beq	.L151
	.loc 2 1011 1096 discriminator 28
	ldrb	r3, [r7, #7]	@ zero_extendqisi2
	cmp	r3, #29
	beq	.L151
	.loc 2 1011 1134 discriminator 29
	ldrb	r3, [r7, #7]	@ zero_extendqisi2
	cmp	r3, #30
	beq	.L151
	.loc 2 1011 13 discriminator 30
	ldrb	r3, [r7, #7]	@ zero_extendqisi2
	cmp	r3, #31
	beq	.L151
	.loc 2 1011 1215 discriminator 31
	bl	CY_HALT
.L151:
	.loc 2 1013 38
	ldr	r3, .L157+4
	ldr	r3, [r3]
	ldrb	r3, [r3, #48]	@ zero_extendqisi2
	.loc 2 1013 8
	cmp	r3, #31
	bls	.L152
	.loc 2 1015 66
	ldr	r3, [r7, #8]
	bic	r2, r3, #3
	.loc 2 1015 56
	ldr	r3, [r7, #12]
	str	r2, [r3]
	.loc 2 1016 98
	ldr	r3, [r7, #12]
	ldr	r3, [r3, #4]
	.loc 2 1016 111
	bic	r2, r3, #520093696
	.loc 2 1016 149
	ldrb	r3, [r7, #7]	@ zero_extendqisi2
	.loc 2 1016 172
	lsls	r3, r3, #24
	.loc 2 1016 181
	and	r3, r3, #520093696
	.loc 2 1016 144
	orrs	r2, r2, r3
	.loc 2 1016 56
	ldr	r3, [r7, #12]
	str	r2, [r3, #4]
	.loc 2 1018 56
	ldr	r3, [r7, #12]
	ldr	r2, [r3]
	.loc 2 1018 79
	ldr	r3, [r7, #8]
	bic	r3, r3, #3
	.loc 2 1020 36
	cmp	r2, r3
	bne	.L153
	.loc 2 1019 69
	ldr	r3, [r7, #12]
	ldr	r3, [r3, #4]
	.loc 2 1019 97
	lsrs	r3, r3, #24
	and	r2, r3, #31
	.loc 2 1019 109
	ldrb	r3, [r7, #7]	@ zero_extendqisi2
	.loc 2 1018 96
	cmp	r2, r3
	beq	.L154
.L153:
	.loc 2 1020 36 discriminator 1
	ldr	r3, .L157+8
	b	.L155
.L154:
	.loc 2 1020 36 is_stmt 0
	movs	r3, #0
.L155:
	.loc 2 1018 16 is_stmt 1
	str	r3, [r7, #20]
.L152:
	.loc 2 1023 12
	ldr	r3, [r7, #20]
	.loc 2 1024 1
	mov	r0, r3
	adds	r7, r7, #24
.LCFI83:
	.cfi_def_cfa_offset 8
	mov	sp, r7
.LCFI84:
	.cfi_def_cfa_register 13
	@ sp needed
	pop	{r7, pc}
.L158:
	.align	2
.L157:
	.word	12713986
	.word	cy_device
	.word	12713987
	.cfi_endproc
.LFE154:
	.size	Cy_Prot_ConfigPpuProgSlaveAddr, .-Cy_Prot_ConfigPpuProgSlaveAddr
	.section	.text.Cy_Prot_ConfigPpuProgSlaveAtt,"ax",%progbits
	.align	1
	.global	Cy_Prot_ConfigPpuProgSlaveAtt
	.syntax unified
	.thumb
	.thumb_func
	.type	Cy_Prot_ConfigPpuProgSlaveAtt, %function
Cy_Prot_ConfigPpuProgSlaveAtt:
.LFB155:
	.loc 2 1078 1
	.cfi_startproc
	@ args = 4, pretend = 0, frame = 8
	@ frame_needed = 1, uses_anonymous_args = 0
	push	{r4, r7, lr}
.LCFI85:
	.cfi_def_cfa_offset 12
	.cfi_offset 4, -12
	.cfi_offset 7, -8
	.cfi_offset 14, -4
	sub	sp, sp, #20
.LCFI86:
	.cfi_def_cfa_offset 32
	add	r7, sp, #8
.LCFI87:
	.cfi_def_cfa 7, 24
	str	r0, [r7, #4]
	mov	r0, r1
	mov	r1, r2
	mov	r2, r3
	mov	r3, r0	@ movhi
	strh	r3, [r7, #2]	@ movhi
	mov	r3, r1
	strb	r3, [r7, #1]
	mov	r3, r2
	strb	r3, [r7]
	.loc 2 1080 12
	ldr	r3, [r7, #4]
	cmp	r3, #0
	bne	.L160
	.loc 2 1080 16 discriminator 1
	bl	CY_HALT
.L160:
	.loc 2 1081 12
	ldrb	r3, [r7, #1]	@ zero_extendqisi2
	cmp	r3, #0
	beq	.L161
	.loc 2 1081 60 discriminator 1
	ldrb	r3, [r7, #1]	@ zero_extendqisi2
	cmp	r3, #1
	beq	.L161
	.loc 2 1081 100 discriminator 2
	ldrb	r3, [r7, #1]	@ zero_extendqisi2
	cmp	r3, #2
	beq	.L161
	.loc 2 1081 13 discriminator 3
	ldrb	r3, [r7, #1]	@ zero_extendqisi2
	cmp	r3, #3
	beq	.L161
	.loc 2 1081 186 discriminator 4
	bl	CY_HALT
.L161:
	.loc 2 1082 12
	ldrb	r3, [r7]	@ zero_extendqisi2
	cmp	r3, #0
	beq	.L162
	.loc 2 1082 60 discriminator 1
	ldrb	r3, [r7]	@ zero_extendqisi2
	cmp	r3, #1
	beq	.L162
	.loc 2 1082 100 discriminator 2
	ldrb	r3, [r7]	@ zero_extendqisi2
	cmp	r3, #2
	beq	.L162
	.loc 2 1082 13 discriminator 3
	ldrb	r3, [r7]	@ zero_extendqisi2
	cmp	r3, #3
	beq	.L162
	.loc 2 1082 186 discriminator 4
	bl	CY_HALT
.L162:
	.loc 2 1085 13
	ldr	r3, [r7, #4]
	add	r0, r3, #16
	ldrb	r4, [r7]	@ zero_extendqisi2
	ldrb	r2, [r7, #1]	@ zero_extendqisi2
	ldrh	r1, [r7, #2]
	ldrb	r3, [r7, #24]	@ zero_extendqisi2
	str	r3, [sp]
	mov	r3, r4
	bl	Prot_ConfigPpuAtt
	mov	r3, r0
	.loc 2 1086 1
	mov	r0, r3
	adds	r7, r7, #12
.LCFI88:
	.cfi_def_cfa_offset 12
	mov	sp, r7
.LCFI89:
	.cfi_def_cfa_register 13
	@ sp needed
	pop	{r4, r7, pc}
	.cfi_endproc
.LFE155:
	.size	Cy_Prot_ConfigPpuProgSlaveAtt, .-Cy_Prot_ConfigPpuProgSlaveAtt
	.section	.text.Cy_Prot_EnablePpuProgSlaveRegion,"ax",%progbits
	.align	1
	.global	Cy_Prot_EnablePpuProgSlaveRegion
	.syntax unified
	.thumb
	.thumb_func
	.type	Cy_Prot_EnablePpuProgSlaveRegion, %function
Cy_Prot_EnablePpuProgSlaveRegion:
.LFB156:
	.loc 2 1117 1
	.cfi_startproc
	@ args = 0, pretend = 0, frame = 16
	@ frame_needed = 1, uses_anonymous_args = 0
	push	{r7, lr}
.LCFI90:
	.cfi_def_cfa_offset 8
	.cfi_offset 7, -8
	.cfi_offset 14, -4
	sub	sp, sp, #16
.LCFI91:
	.cfi_def_cfa_offset 24
	add	r7, sp, #0
.LCFI92:
	.cfi_def_cfa_register 7
	str	r0, [r7, #4]
	.loc 2 1118 25
	ldr	r3, .L170
	str	r3, [r7, #12]
	.loc 2 1120 12
	ldr	r3, [r7, #4]
	cmp	r3, #0
	bne	.L165
	.loc 2 1120 16 discriminator 1
	bl	CY_HALT
.L165:
	.loc 2 1122 38
	ldr	r3, .L170+4
	ldr	r3, [r3]
	ldrb	r3, [r3, #48]	@ zero_extendqisi2
	.loc 2 1122 8
	cmp	r3, #31
	bls	.L166
	.loc 2 1125 49
	ldr	r3, [r7, #4]
	ldr	r3, [r3, #4]
	.loc 2 1125 95
	orr	r2, r3, #-2147483648
	.loc 2 1124 56
	ldr	r3, [r7, #4]
	str	r2, [r3, #4]
	.loc 2 1127 68
	ldr	r3, [r7, #4]
	ldr	r3, [r3, #4]
	.loc 2 1127 96
	lsrs	r3, r3, #31
	and	r3, r3, #1
	.loc 2 1128 25
	cmp	r3, #1
	beq	.L167
	.loc 2 1128 25 is_stmt 0 discriminator 1
	ldr	r3, .L170+8
	b	.L168
.L167:
	.loc 2 1128 25 discriminator 2
	movs	r3, #0
.L168:
	.loc 2 1127 16 is_stmt 1
	str	r3, [r7, #12]
.L166:
	.loc 2 1131 12
	ldr	r3, [r7, #12]
	.loc 2 1132 1
	mov	r0, r3
	adds	r7, r7, #16
.LCFI93:
	.cfi_def_cfa_offset 8
	mov	sp, r7
.LCFI94:
	.cfi_def_cfa_register 13
	@ sp needed
	pop	{r7, pc}
.L171:
	.align	2
.L170:
	.word	12713986
	.word	cy_device
	.word	12713987
	.cfi_endproc
.LFE156:
	.size	Cy_Prot_EnablePpuProgSlaveRegion, .-Cy_Prot_EnablePpuProgSlaveRegion
	.section	.text.Cy_Prot_DisablePpuProgSlaveRegion,"ax",%progbits
	.align	1
	.global	Cy_Prot_DisablePpuProgSlaveRegion
	.syntax unified
	.thumb
	.thumb_func
	.type	Cy_Prot_DisablePpuProgSlaveRegion, %function
Cy_Prot_DisablePpuProgSlaveRegion:
.LFB157:
	.loc 2 1164 1
	.cfi_startproc
	@ args = 0, pretend = 0, frame = 16
	@ frame_needed = 1, uses_anonymous_args = 0
	push	{r7, lr}
.LCFI95:
	.cfi_def_cfa_offset 8
	.cfi_offset 7, -8
	.cfi_offset 14, -4
	sub	sp, sp, #16
.LCFI96:
	.cfi_def_cfa_offset 24
	add	r7, sp, #0
.LCFI97:
	.cfi_def_cfa_register 7
	str	r0, [r7, #4]
	.loc 2 1165 25
	ldr	r3, .L178
	str	r3, [r7, #12]
	.loc 2 1167 12
	ldr	r3, [r7, #4]
	cmp	r3, #0
	bne	.L173
	.loc 2 1167 16 discriminator 1
	bl	CY_HALT
.L173:
	.loc 2 1169 38
	ldr	r3, .L178+4
	ldr	r3, [r3]
	ldrb	r3, [r3, #48]	@ zero_extendqisi2
	.loc 2 1169 8
	cmp	r3, #31
	bls	.L174
	.loc 2 1172 49
	ldr	r3, [r7, #4]
	ldr	r3, [r3, #4]
	.loc 2 1172 95
	bic	r2, r3, #-2147483648
	.loc 2 1171 56
	ldr	r3, [r7, #4]
	str	r2, [r3, #4]
	.loc 2 1174 68
	ldr	r3, [r7, #4]
	ldr	r3, [r3, #4]
	.loc 2 1175 25
	cmp	r3, #0
	bge	.L175
	.loc 2 1175 25 is_stmt 0 discriminator 1
	ldr	r3, .L178+8
	b	.L176
.L175:
	.loc 2 1175 25 discriminator 2
	movs	r3, #0
.L176:
	.loc 2 1174 16 is_stmt 1
	str	r3, [r7, #12]
.L174:
	.loc 2 1178 12
	ldr	r3, [r7, #12]
	.loc 2 1179 1
	mov	r0, r3
	adds	r7, r7, #16
.LCFI98:
	.cfi_def_cfa_offset 8
	mov	sp, r7
.LCFI99:
	.cfi_def_cfa_register 13
	@ sp needed
	pop	{r7, pc}
.L179:
	.align	2
.L178:
	.word	12713986
	.word	cy_device
	.word	12713987
	.cfi_endproc
.LFE157:
	.size	Cy_Prot_DisablePpuProgSlaveRegion, .-Cy_Prot_DisablePpuProgSlaveRegion
	.section	.text.Cy_Prot_ConfigPpuFixedMasterAtt,"ax",%progbits
	.align	1
	.global	Cy_Prot_ConfigPpuFixedMasterAtt
	.syntax unified
	.thumb
	.thumb_func
	.type	Cy_Prot_ConfigPpuFixedMasterAtt, %function
Cy_Prot_ConfigPpuFixedMasterAtt:
.LFB158:
	.loc 2 1240 1
	.cfi_startproc
	@ args = 4, pretend = 0, frame = 8
	@ frame_needed = 1, uses_anonymous_args = 0
	push	{r4, r7, lr}
.LCFI100:
	.cfi_def_cfa_offset 12
	.cfi_offset 4, -12
	.cfi_offset 7, -8
	.cfi_offset 14, -4
	sub	sp, sp, #20
.LCFI101:
	.cfi_def_cfa_offset 32
	add	r7, sp, #8
.LCFI102:
	.cfi_def_cfa 7, 24
	str	r0, [r7, #4]
	mov	r0, r1
	mov	r1, r2
	mov	r2, r3
	mov	r3, r0	@ movhi
	strh	r3, [r7, #2]	@ movhi
	mov	r3, r1
	strb	r3, [r7, #1]
	mov	r3, r2
	strb	r3, [r7]
	.loc 2 1242 12
	ldr	r3, [r7, #4]
	cmp	r3, #0
	bne	.L181
	.loc 2 1242 16 discriminator 1
	bl	CY_HALT
.L181:
	.loc 2 1243 12
	ldrb	r3, [r7, #1]	@ zero_extendqisi2
	cmp	r3, #1
	beq	.L182
	.loc 2 1243 13 discriminator 1
	ldrb	r3, [r7, #1]	@ zero_extendqisi2
	cmp	r3, #3
	beq	.L182
	.loc 2 1243 99 discriminator 2
	bl	CY_HALT
.L182:
	.loc 2 1244 12
	ldrb	r3, [r7]	@ zero_extendqisi2
	cmp	r3, #1
	beq	.L183
	.loc 2 1244 13 discriminator 1
	ldrb	r3, [r7]	@ zero_extendqisi2
	cmp	r3, #3
	beq	.L183
	.loc 2 1244 99 discriminator 2
	bl	CY_HALT
.L183:
	.loc 2 1246 12
	ldrh	r3, [r7, #2]	@ movhi
	uxtb	r3, r3
	strh	r3, [r7, #2]	@ movhi
	.loc 2 1249 13
	ldr	r3, [r7, #4]
	add	r0, r3, #48
	ldrb	r4, [r7]	@ zero_extendqisi2
	ldrb	r2, [r7, #1]	@ zero_extendqisi2
	ldrh	r1, [r7, #2]
	ldrb	r3, [r7, #24]	@ zero_extendqisi2
	str	r3, [sp]
	mov	r3, r4
	bl	Prot_ConfigPpuAtt
	mov	r3, r0
	.loc 2 1250 1
	mov	r0, r3
	adds	r7, r7, #12
.LCFI103:
	.cfi_def_cfa_offset 12
	mov	sp, r7
.LCFI104:
	.cfi_def_cfa_register 13
	@ sp needed
	pop	{r4, r7, pc}
	.cfi_endproc
.LFE158:
	.size	Cy_Prot_ConfigPpuFixedMasterAtt, .-Cy_Prot_ConfigPpuFixedMasterAtt
	.section	.text.Cy_Prot_ConfigPpuFixedSlaveAtt,"ax",%progbits
	.align	1
	.global	Cy_Prot_ConfigPpuFixedSlaveAtt
	.syntax unified
	.thumb
	.thumb_func
	.type	Cy_Prot_ConfigPpuFixedSlaveAtt, %function
Cy_Prot_ConfigPpuFixedSlaveAtt:
.LFB159:
	.loc 2 1304 1
	.cfi_startproc
	@ args = 4, pretend = 0, frame = 8
	@ frame_needed = 1, uses_anonymous_args = 0
	push	{r4, r7, lr}
.LCFI105:
	.cfi_def_cfa_offset 12
	.cfi_offset 4, -12
	.cfi_offset 7, -8
	.cfi_offset 14, -4
	sub	sp, sp, #20
.LCFI106:
	.cfi_def_cfa_offset 32
	add	r7, sp, #8
.LCFI107:
	.cfi_def_cfa 7, 24
	str	r0, [r7, #4]
	mov	r0, r1
	mov	r1, r2
	mov	r2, r3
	mov	r3, r0	@ movhi
	strh	r3, [r7, #2]	@ movhi
	mov	r3, r1
	strb	r3, [r7, #1]
	mov	r3, r2
	strb	r3, [r7]
	.loc 2 1306 12
	ldr	r3, [r7, #4]
	cmp	r3, #0
	bne	.L186
	.loc 2 1306 16 discriminator 1
	bl	CY_HALT
.L186:
	.loc 2 1307 12
	ldrb	r3, [r7, #1]	@ zero_extendqisi2
	cmp	r3, #0
	beq	.L187
	.loc 2 1307 60 discriminator 1
	ldrb	r3, [r7, #1]	@ zero_extendqisi2
	cmp	r3, #1
	beq	.L187
	.loc 2 1307 100 discriminator 2
	ldrb	r3, [r7, #1]	@ zero_extendqisi2
	cmp	r3, #2
	beq	.L187
	.loc 2 1307 13 discriminator 3
	ldrb	r3, [r7, #1]	@ zero_extendqisi2
	cmp	r3, #3
	beq	.L187
	.loc 2 1307 186 discriminator 4
	bl	CY_HALT
.L187:
	.loc 2 1308 12
	ldrb	r3, [r7]	@ zero_extendqisi2
	cmp	r3, #0
	beq	.L188
	.loc 2 1308 60 discriminator 1
	ldrb	r3, [r7]	@ zero_extendqisi2
	cmp	r3, #1
	beq	.L188
	.loc 2 1308 100 discriminator 2
	ldrb	r3, [r7]	@ zero_extendqisi2
	cmp	r3, #2
	beq	.L188
	.loc 2 1308 13 discriminator 3
	ldrb	r3, [r7]	@ zero_extendqisi2
	cmp	r3, #3
	beq	.L188
	.loc 2 1308 186 discriminator 4
	bl	CY_HALT
.L188:
	.loc 2 1311 13
	ldr	r3, [r7, #4]
	add	r0, r3, #16
	ldrb	r4, [r7]	@ zero_extendqisi2
	ldrb	r2, [r7, #1]	@ zero_extendqisi2
	ldrh	r1, [r7, #2]
	ldrb	r3, [r7, #24]	@ zero_extendqisi2
	str	r3, [sp]
	mov	r3, r4
	bl	Prot_ConfigPpuAtt
	mov	r3, r0
	.loc 2 1312 1
	mov	r0, r3
	adds	r7, r7, #12
.LCFI108:
	.cfi_def_cfa_offset 12
	mov	sp, r7
.LCFI109:
	.cfi_def_cfa_register 13
	@ sp needed
	pop	{r4, r7, pc}
	.cfi_endproc
.LFE159:
	.size	Cy_Prot_ConfigPpuFixedSlaveAtt, .-Cy_Prot_ConfigPpuFixedSlaveAtt
	.section	.text.Cy_Prot_ConfigPpuProgMasterStruct,"ax",%progbits
	.align	1
	.global	Cy_Prot_ConfigPpuProgMasterStruct
	.syntax unified
	.thumb
	.thumb_func
	.type	Cy_Prot_ConfigPpuProgMasterStruct, %function
Cy_Prot_ConfigPpuProgMasterStruct:
.LFB160:
	.loc 2 1353 1
	.cfi_startproc
	@ args = 0, pretend = 0, frame = 16
	@ frame_needed = 1, uses_anonymous_args = 0
	push	{r7, lr}
.LCFI110:
	.cfi_def_cfa_offset 8
	.cfi_offset 7, -8
	.cfi_offset 14, -4
	sub	sp, sp, #16
.LCFI111:
	.cfi_def_cfa_offset 24
	add	r7, sp, #0
.LCFI112:
	.cfi_def_cfa_register 7
	str	r0, [r7, #4]
	str	r1, [r7]
	.loc 2 1354 25
	ldr	r3, .L202
	str	r3, [r7, #12]
	.loc 2 1357 12
	ldr	r3, [r7, #4]
	cmp	r3, #0
	bne	.L191
	.loc 2 1357 16 discriminator 1
	bl	CY_HALT
.L191:
	.loc 2 1358 24
	ldr	r3, [r7]
	ldrb	r3, [r3, #6]	@ zero_extendqisi2
	.loc 2 1358 12
	cmp	r3, #1
	beq	.L192
	.loc 2 1358 72 discriminator 1
	ldr	r3, [r7]
	ldrb	r3, [r3, #6]	@ zero_extendqisi2
	.loc 2 1358 13 discriminator 1
	cmp	r3, #3
	beq	.L192
	.loc 2 1358 115 discriminator 2
	bl	CY_HALT
.L192:
	.loc 2 1359 24
	ldr	r3, [r7]
	ldrb	r3, [r3, #7]	@ zero_extendqisi2
	.loc 2 1359 12
	cmp	r3, #1
	beq	.L193
	.loc 2 1359 72 discriminator 1
	ldr	r3, [r7]
	ldrb	r3, [r3, #7]	@ zero_extendqisi2
	.loc 2 1359 13 discriminator 1
	cmp	r3, #3
	beq	.L193
	.loc 2 1359 115 discriminator 2
	bl	CY_HALT
.L193:
	.loc 2 1361 38
	ldr	r3, .L202+4
	ldr	r3, [r3]
	ldrb	r3, [r3, #48]	@ zero_extendqisi2
	.loc 2 1361 54
	cmp	r3, #31
	bhi	.L194
	.loc 2 1361 54 is_stmt 0 discriminator 1
	movs	r3, #1
	b	.L195
.L194:
	.loc 2 1361 54 discriminator 2
	movs	r3, #0
.L195:
	.loc 2 1361 8 is_stmt 1 discriminator 4
	cmp	r3, #0
	beq	.L196
	.loc 2 1363 29
	ldr	r3, [r7]
	ldrh	r3, [r3, #10]
	.loc 2 1363 38
	bic	r3, r3, #127
	.loc 2 1363 11
	cmp	r3, #0
	beq	.L197
	.loc 2 1366 20
	ldr	r3, .L202+8
	str	r3, [r7, #12]
	b	.L196
.L197:
	.loc 2 1371 39
	ldr	r3, [r7]
	ldrb	r3, [r3, #6]	@ zero_extendqisi2
	.loc 2 1371 56
	and	r2, r3, #7
	.loc 2 1372 55
	ldr	r3, [r7]
	ldrb	r3, [r3, #7]	@ zero_extendqisi2
	.loc 2 1372 27
	lsls	r3, r3, #3
	and	r3, r3, #56
	.loc 2 1372 25
	orrs	r2, r2, r3
	.loc 2 1373 48
	ldr	r3, [r7]
	ldrb	r3, [r3, #8]	@ zero_extendqisi2
	.loc 2 1373 29
	eor	r3, r3, #1
	uxtb	r3, r3
	.loc 2 1373 59
	lsls	r3, r3, #6
	.loc 2 1373 67
	and	r3, r3, #64
	.loc 2 1373 25
	orrs	r2, r2, r3
	.loc 2 1374 46
	ldr	r3, [r7]
	ldrh	r3, [r3, #10]
	.loc 2 1374 56
	lsls	r1, r3, #9
	.loc 2 1374 64
	ldr	r3, .L202+12
	ands	r3, r3, r1
	.loc 2 1374 25
	orrs	r2, r2, r3
	.loc 2 1376 46
	ldr	r3, [r7]
	ldrb	r3, [r3, #9]	@ zero_extendqisi2
	.loc 2 1376 57
	lsls	r3, r3, #30
	.loc 2 1376 66
	and	r3, r3, #1073741824
	.loc 2 1371 20
	orrs	r3, r3, r2
	str	r3, [r7, #8]
	.loc 2 1377 25
	ldr	r3, [r7, #8]
	bic	r3, r3, #520093696
	bic	r3, r3, #292
	.loc 2 1377 16
	ldr	r2, [r7, #8]
	cmp	r2, r3
	beq	.L198
	.loc 2 1380 24
	ldr	r3, .L202+8
	str	r3, [r7, #12]
	b	.L196
.L198:
	.loc 2 1384 58
	ldr	r3, [r7, #4]
	ldr	r2, [r7, #8]
	str	r2, [r3, #36]
	.loc 2 1385 61
	ldr	r3, [r7, #4]
	ldr	r3, [r3, #36]
	.loc 2 1385 69
	bic	r3, r3, #520093696
	bic	r3, r3, #292
	.loc 2 1385 157
	ldr	r2, [r7, #8]
	cmp	r2, r3
	beq	.L199
	.loc 2 1385 157 is_stmt 0 discriminator 1
	ldr	r3, .L202+16
	b	.L200
.L199:
	.loc 2 1385 157 discriminator 2
	movs	r3, #0
.L200:
	.loc 2 1385 24 is_stmt 1 discriminator 4
	str	r3, [r7, #12]
.L196:
	.loc 2 1390 12
	ldr	r3, [r7, #12]
	.loc 2 1391 1
	mov	r0, r3
	adds	r7, r7, #16
.LCFI113:
	.cfi_def_cfa_offset 8
	mov	sp, r7
.LCFI114:
	.cfi_def_cfa_register 13
	@ sp needed
	pop	{r7, pc}
.L203:
	.align	2
.L202:
	.word	12713986
	.word	cy_device
	.word	12713985
	.word	16776704
	.word	12713987
	.cfi_endproc
.LFE160:
	.size	Cy_Prot_ConfigPpuProgMasterStruct, .-Cy_Prot_ConfigPpuProgMasterStruct
	.section	.text.Cy_Prot_ConfigPpuProgSlaveStruct,"ax",%progbits
	.align	1
	.global	Cy_Prot_ConfigPpuProgSlaveStruct
	.syntax unified
	.thumb
	.thumb_func
	.type	Cy_Prot_ConfigPpuProgSlaveStruct, %function
Cy_Prot_ConfigPpuProgSlaveStruct:
.LFB161:
	.loc 2 1430 1
	.cfi_startproc
	@ args = 0, pretend = 0, frame = 24
	@ frame_needed = 1, uses_anonymous_args = 0
	push	{r7, lr}
.LCFI115:
	.cfi_def_cfa_offset 8
	.cfi_offset 7, -8
	.cfi_offset 14, -4
	sub	sp, sp, #24
.LCFI116:
	.cfi_def_cfa_offset 32
	add	r7, sp, #0
.LCFI117:
	.cfi_def_cfa_register 7
	str	r0, [r7, #4]
	str	r1, [r7]
	.loc 2 1431 25
	ldr	r3, .L218
	str	r3, [r7, #20]
	.loc 2 1435 12
	ldr	r3, [r7, #4]
	cmp	r3, #0
	bne	.L205
	.loc 2 1435 16 discriminator 1
	bl	CY_HALT
.L205:
	.loc 2 1436 24
	ldr	r3, [r7]
	ldrb	r3, [r3, #6]	@ zero_extendqisi2
	.loc 2 1436 12
	cmp	r3, #0
	beq	.L206
	.loc 2 1436 79 discriminator 1
	ldr	r3, [r7]
	ldrb	r3, [r3, #6]	@ zero_extendqisi2
	.loc 2 1436 68 discriminator 1
	cmp	r3, #1
	beq	.L206
	.loc 2 1436 127 discriminator 2
	ldr	r3, [r7]
	ldrb	r3, [r3, #6]	@ zero_extendqisi2
	.loc 2 1436 116 discriminator 2
	cmp	r3, #2
	beq	.L206
	.loc 2 1436 175 discriminator 3
	ldr	r3, [r7]
	ldrb	r3, [r3, #6]	@ zero_extendqisi2
	.loc 2 1436 13 discriminator 3
	cmp	r3, #3
	beq	.L206
	.loc 2 1436 218 discriminator 4
	bl	CY_HALT
.L206:
	.loc 2 1437 24
	ldr	r3, [r7]
	ldrb	r3, [r3, #7]	@ zero_extendqisi2
	.loc 2 1437 12
	cmp	r3, #0
	beq	.L207
	.loc 2 1437 79 discriminator 1
	ldr	r3, [r7]
	ldrb	r3, [r3, #7]	@ zero_extendqisi2
	.loc 2 1437 68 discriminator 1
	cmp	r3, #1
	beq	.L207
	.loc 2 1437 127 discriminator 2
	ldr	r3, [r7]
	ldrb	r3, [r3, #7]	@ zero_extendqisi2
	.loc 2 1437 116 discriminator 2
	cmp	r3, #2
	beq	.L207
	.loc 2 1437 175 discriminator 3
	ldr	r3, [r7]
	ldrb	r3, [r3, #7]	@ zero_extendqisi2
	.loc 2 1437 13 discriminator 3
	cmp	r3, #3
	beq	.L207
	.loc 2 1437 218 discriminator 4
	bl	CY_HALT
.L207:
	.loc 2 1438 24
	ldr	r3, [r7]
	ldrb	r3, [r3, #4]	@ zero_extendqisi2
	.loc 2 1438 12
	cmp	r3, #7
	beq	.L208
	.loc 2 1438 71 discriminator 1
	ldr	r3, [r7]
	ldrb	r3, [r3, #4]	@ zero_extendqisi2
	.loc 2 1438 60 discriminator 1
	cmp	r3, #8
	beq	.L208
	.loc 2 1438 118 discriminator 2
	ldr	r3, [r7]
	ldrb	r3, [r3, #4]	@ zero_extendqisi2
	.loc 2 1438 107 discriminator 2
	cmp	r3, #9
	beq	.L208
	.loc 2 1438 164 discriminator 3
	ldr	r3, [r7]
	ldrb	r3, [r3, #4]	@ zero_extendqisi2
	.loc 2 1438 153 discriminator 3
	cmp	r3, #10
	beq	.L208
	.loc 2 1438 210 discriminator 4
	ldr	r3, [r7]
	ldrb	r3, [r3, #4]	@ zero_extendqisi2
	.loc 2 1438 199 discriminator 4
	cmp	r3, #11
	beq	.L208
	.loc 2 1438 256 discriminator 5
	ldr	r3, [r7]
	ldrb	r3, [r3, #4]	@ zero_extendqisi2
	.loc 2 1438 245 discriminator 5
	cmp	r3, #12
	beq	.L208
	.loc 2 1438 302 discriminator 6
	ldr	r3, [r7]
	ldrb	r3, [r3, #4]	@ zero_extendqisi2
	.loc 2 1438 291 discriminator 6
	cmp	r3, #13
	beq	.L208
	.loc 2 1438 349 discriminator 7
	ldr	r3, [r7]
	ldrb	r3, [r3, #4]	@ zero_extendqisi2
	.loc 2 1438 338 discriminator 7
	cmp	r3, #14
	beq	.L208
	.loc 2 1438 396 discriminator 8
	ldr	r3, [r7]
	ldrb	r3, [r3, #4]	@ zero_extendqisi2
	.loc 2 1438 385 discriminator 8
	cmp	r3, #15
	beq	.L208
	.loc 2 1438 443 discriminator 9
	ldr	r3, [r7]
	ldrb	r3, [r3, #4]	@ zero_extendqisi2
	.loc 2 1438 432 discriminator 9
	cmp	r3, #16
	beq	.L208
	.loc 2 1438 491 discriminator 10
	ldr	r3, [r7]
	ldrb	r3, [r3, #4]	@ zero_extendqisi2
	.loc 2 1438 480 discriminator 10
	cmp	r3, #17
	beq	.L208
	.loc 2 1438 539 discriminator 11
	ldr	r3, [r7]
	ldrb	r3, [r3, #4]	@ zero_extendqisi2
	.loc 2 1438 528 discriminator 11
	cmp	r3, #18
	beq	.L208
	.loc 2 1438 587 discriminator 12
	ldr	r3, [r7]
	ldrb	r3, [r3, #4]	@ zero_extendqisi2
	.loc 2 1438 576 discriminator 12
	cmp	r3, #19
	beq	.L208
	.loc 2 1438 633 discriminator 13
	ldr	r3, [r7]
	ldrb	r3, [r3, #4]	@ zero_extendqisi2
	.loc 2 1438 622 discriminator 13
	cmp	r3, #20
	beq	.L208
	.loc 2 1438 679 discriminator 14
	ldr	r3, [r7]
	ldrb	r3, [r3, #4]	@ zero_extendqisi2
	.loc 2 1438 668 discriminator 14
	cmp	r3, #21
	beq	.L208
	.loc 2 1438 725 discriminator 15
	ldr	r3, [r7]
	ldrb	r3, [r3, #4]	@ zero_extendqisi2
	.loc 2 1438 714 discriminator 15
	cmp	r3, #22
	beq	.L208
	.loc 2 1438 771 discriminator 16
	ldr	r3, [r7]
	ldrb	r3, [r3, #4]	@ zero_extendqisi2
	.loc 2 1438 760 discriminator 16
	cmp	r3, #23
	beq	.L208
	.loc 2 1438 818 discriminator 17
	ldr	r3, [r7]
	ldrb	r3, [r3, #4]	@ zero_extendqisi2
	.loc 2 1438 807 discriminator 17
	cmp	r3, #24
	beq	.L208
	.loc 2 1438 865 discriminator 18
	ldr	r3, [r7]
	ldrb	r3, [r3, #4]	@ zero_extendqisi2
	.loc 2 1438 854 discriminator 18
	cmp	r3, #25
	beq	.L208
	.loc 2 1438 912 discriminator 19
	ldr	r3, [r7]
	ldrb	r3, [r3, #4]	@ zero_extendqisi2
	.loc 2 1438 901 discriminator 19
	cmp	r3, #26
	beq	.L208
	.loc 2 1438 960 discriminator 20
	ldr	r3, [r7]
	ldrb	r3, [r3, #4]	@ zero_extendqisi2
	.loc 2 1438 949 discriminator 20
	cmp	r3, #27
	beq	.L208
	.loc 2 1438 1008 discriminator 21
	ldr	r3, [r7]
	ldrb	r3, [r3, #4]	@ zero_extendqisi2
	.loc 2 1438 997 discriminator 21
	cmp	r3, #28
	beq	.L208
	.loc 2 1438 1056 discriminator 22
	ldr	r3, [r7]
	ldrb	r3, [r3, #4]	@ zero_extendqisi2
	.loc 2 1438 1045 discriminator 22
	cmp	r3, #29
	beq	.L208
	.loc 2 1438 1102 discriminator 23
	ldr	r3, [r7]
	ldrb	r3, [r3, #4]	@ zero_extendqisi2
	.loc 2 1438 1091 discriminator 23
	cmp	r3, #30
	beq	.L208
	.loc 2 1438 1148 discriminator 24
	ldr	r3, [r7]
	ldrb	r3, [r3, #4]	@ zero_extendqisi2
	.loc 2 1438 13 discriminator 24
	cmp	r3, #31
	beq	.L208
	.loc 2 1438 1188 discriminator 25
	bl	CY_HALT
.L208:
	.loc 2 1440 38
	ldr	r3, .L218+4
	ldr	r3, [r3]
	ldrb	r3, [r3, #48]	@ zero_extendqisi2
	.loc 2 1440 54
	cmp	r3, #31
	bhi	.L209
	.loc 2 1440 54 is_stmt 0 discriminator 1
	movs	r3, #1
	b	.L210
.L209:
	.loc 2 1440 54 discriminator 2
	movs	r3, #0
.L210:
	.loc 2 1440 8 is_stmt 1 discriminator 4
	cmp	r3, #0
	beq	.L211
	.loc 2 1442 29
	ldr	r3, [r7]
	ldrh	r3, [r3, #10]
	.loc 2 1442 38
	bic	r3, r3, #127
	.loc 2 1442 11
	cmp	r3, #0
	beq	.L212
	.loc 2 1445 20
	ldr	r3, .L218+8
	str	r3, [r7, #20]
	b	.L211
.L212:
	.loc 2 1449 41
	ldr	r3, [r7]
	ldrb	r3, [r3, #5]	@ zero_extendqisi2
	.loc 2 1449 63
	mov	r2, r3
	.loc 2 1450 67
	ldr	r3, [r7]
	ldr	r3, [r3]
	.loc 2 1450 96
	bic	r3, r3, #255
	.loc 2 1449 20
	orrs	r3, r3, r2
	str	r3, [r7, #16]
	.loc 2 1451 38
	ldr	r3, [r7]
	ldrb	r3, [r3, #6]	@ zero_extendqisi2
	.loc 2 1451 55
	and	r2, r3, #7
	.loc 2 1452 55
	ldr	r3, [r7]
	ldrb	r3, [r3, #7]	@ zero_extendqisi2
	.loc 2 1452 27
	lsls	r3, r3, #3
	and	r3, r3, #56
	.loc 2 1452 25
	orrs	r2, r2, r3
	.loc 2 1453 48
	ldr	r3, [r7]
	ldrb	r3, [r3, #8]	@ zero_extendqisi2
	.loc 2 1453 29
	eor	r3, r3, #1
	uxtb	r3, r3
	.loc 2 1453 59
	lsls	r3, r3, #6
	.loc 2 1453 67
	and	r3, r3, #64
	.loc 2 1453 25
	orrs	r2, r2, r3
	.loc 2 1454 46
	ldr	r3, [r7]
	ldrh	r3, [r3, #10]
	.loc 2 1454 56
	lsls	r1, r3, #9
	.loc 2 1454 64
	ldr	r3, .L218+12
	ands	r3, r3, r1
	.loc 2 1454 25
	orrs	r2, r2, r3
	.loc 2 1455 46
	ldr	r3, [r7]
	ldrb	r3, [r3, #4]	@ zero_extendqisi2
	.loc 2 1455 60
	lsls	r3, r3, #24
	.loc 2 1455 69
	and	r3, r3, #520093696
	.loc 2 1455 25
	orrs	r2, r2, r3
	.loc 2 1456 46
	ldr	r3, [r7]
	ldrb	r3, [r3, #9]	@ zero_extendqisi2
	.loc 2 1456 57
	lsls	r3, r3, #30
	.loc 2 1456 66
	and	r3, r3, #1073741824
	.loc 2 1451 19
	orrs	r3, r3, r2
	str	r3, [r7, #12]
	.loc 2 1457 25
	ldr	r3, [r7, #12]
	bic	r3, r3, #292
	.loc 2 1457 16
	ldr	r2, [r7, #12]
	cmp	r2, r3
	beq	.L213
	.loc 2 1460 24
	ldr	r3, .L218+8
	str	r3, [r7, #20]
	b	.L211
.L213:
	.loc 2 1464 58
	ldr	r3, [r7, #4]
	ldr	r2, [r7, #12]
	str	r2, [r3, #4]
	.loc 2 1465 59
	ldr	r3, [r7, #4]
	ldr	r2, [r7, #16]
	str	r2, [r3]
	.loc 2 1466 61
	ldr	r3, [r7, #4]
	ldr	r3, [r3]
	.loc 2 1467 47
	ldr	r2, [r7, #16]
	cmp	r2, r3
	bne	.L214
	.loc 2 1466 120
	ldr	r3, [r7, #4]
	ldr	r3, [r3, #4]
	.loc 2 1466 128
	bic	r3, r3, #292
	.loc 2 1466 82
	ldr	r2, [r7, #12]
	cmp	r2, r3
	beq	.L215
.L214:
	.loc 2 1467 47 discriminator 1
	ldr	r3, .L218+16
	b	.L216
.L215:
	.loc 2 1467 47 is_stmt 0
	movs	r3, #0
.L216:
	.loc 2 1466 24 is_stmt 1
	str	r3, [r7, #20]
.L211:
	.loc 2 1472 12
	ldr	r3, [r7, #20]
	.loc 2 1473 1
	mov	r0, r3
	adds	r7, r7, #24
.LCFI118:
	.cfi_def_cfa_offset 8
	mov	sp, r7
.LCFI119:
	.cfi_def_cfa_register 13
	@ sp needed
	pop	{r7, pc}
.L219:
	.align	2
.L218:
	.word	12713986
	.word	cy_device
	.word	12713985
	.word	16776704
	.word	12713987
	.cfi_endproc
.LFE161:
	.size	Cy_Prot_ConfigPpuProgSlaveStruct, .-Cy_Prot_ConfigPpuProgSlaveStruct
	.section	.text.Cy_Prot_EnablePpuProgMasterStruct,"ax",%progbits
	.align	1
	.global	Cy_Prot_EnablePpuProgMasterStruct
	.syntax unified
	.thumb
	.thumb_func
	.type	Cy_Prot_EnablePpuProgMasterStruct, %function
Cy_Prot_EnablePpuProgMasterStruct:
.LFB162:
	.loc 2 1504 1
	.cfi_startproc
	@ args = 0, pretend = 0, frame = 16
	@ frame_needed = 1, uses_anonymous_args = 0
	push	{r7, lr}
.LCFI120:
	.cfi_def_cfa_offset 8
	.cfi_offset 7, -8
	.cfi_offset 14, -4
	sub	sp, sp, #16
.LCFI121:
	.cfi_def_cfa_offset 24
	add	r7, sp, #0
.LCFI122:
	.cfi_def_cfa_register 7
	str	r0, [r7, #4]
	.loc 2 1505 25
	ldr	r3, .L228
	str	r3, [r7, #12]
	.loc 2 1507 12
	ldr	r3, [r7, #4]
	cmp	r3, #0
	bne	.L221
	.loc 2 1507 16 discriminator 1
	bl	CY_HALT
.L221:
	.loc 2 1509 38
	ldr	r3, .L228+4
	ldr	r3, [r3]
	ldrb	r3, [r3, #48]	@ zero_extendqisi2
	.loc 2 1509 54
	cmp	r3, #31
	bhi	.L222
	.loc 2 1509 54 is_stmt 0 discriminator 1
	movs	r3, #1
	b	.L223
.L222:
	.loc 2 1509 54 discriminator 2
	movs	r3, #0
.L223:
	.loc 2 1509 8 is_stmt 1 discriminator 4
	cmp	r3, #0
	beq	.L224
	.loc 2 1511 50
	ldr	r3, [r7, #4]
	ldr	r3, [r3, #36]
	orr	r2, r3, #-2147483648
	ldr	r3, [r7, #4]
	str	r2, [r3, #36]
	.loc 2 1512 65
	ldr	r3, [r7, #4]
	ldr	r3, [r3, #36]
	.loc 2 1512 90
	lsrs	r3, r3, #31
	and	r3, r3, #1
	.loc 2 1513 37
	cmp	r3, #1
	beq	.L225
	.loc 2 1513 37 is_stmt 0 discriminator 1
	ldr	r3, .L228+8
	b	.L226
.L225:
	.loc 2 1513 37 discriminator 2
	movs	r3, #0
.L226:
	.loc 2 1512 16 is_stmt 1
	str	r3, [r7, #12]
.L224:
	.loc 2 1516 12
	ldr	r3, [r7, #12]
	.loc 2 1517 1
	mov	r0, r3
	adds	r7, r7, #16
.LCFI123:
	.cfi_def_cfa_offset 8
	mov	sp, r7
.LCFI124:
	.cfi_def_cfa_register 13
	@ sp needed
	pop	{r7, pc}
.L229:
	.align	2
.L228:
	.word	12713986
	.word	cy_device
	.word	12713987
	.cfi_endproc
.LFE162:
	.size	Cy_Prot_EnablePpuProgMasterStruct, .-Cy_Prot_EnablePpuProgMasterStruct
	.section	.text.Cy_Prot_DisablePpuProgMasterStruct,"ax",%progbits
	.align	1
	.global	Cy_Prot_DisablePpuProgMasterStruct
	.syntax unified
	.thumb
	.thumb_func
	.type	Cy_Prot_DisablePpuProgMasterStruct, %function
Cy_Prot_DisablePpuProgMasterStruct:
.LFB163:
	.loc 2 1549 1
	.cfi_startproc
	@ args = 0, pretend = 0, frame = 16
	@ frame_needed = 1, uses_anonymous_args = 0
	push	{r7, lr}
.LCFI125:
	.cfi_def_cfa_offset 8
	.cfi_offset 7, -8
	.cfi_offset 14, -4
	sub	sp, sp, #16
.LCFI126:
	.cfi_def_cfa_offset 24
	add	r7, sp, #0
.LCFI127:
	.cfi_def_cfa_register 7
	str	r0, [r7, #4]
	.loc 2 1550 25
	ldr	r3, .L238
	str	r3, [r7, #12]
	.loc 2 1552 12
	ldr	r3, [r7, #4]
	cmp	r3, #0
	bne	.L231
	.loc 2 1552 16 discriminator 1
	bl	CY_HALT
.L231:
	.loc 2 1554 38
	ldr	r3, .L238+4
	ldr	r3, [r3]
	ldrb	r3, [r3, #48]	@ zero_extendqisi2
	.loc 2 1554 54
	cmp	r3, #31
	bhi	.L232
	.loc 2 1554 54 is_stmt 0 discriminator 1
	movs	r3, #1
	b	.L233
.L232:
	.loc 2 1554 54 discriminator 2
	movs	r3, #0
.L233:
	.loc 2 1554 8 is_stmt 1 discriminator 4
	cmp	r3, #0
	beq	.L234
	.loc 2 1556 50
	ldr	r3, [r7, #4]
	ldr	r3, [r3, #36]
	bic	r2, r3, #-2147483648
	ldr	r3, [r7, #4]
	str	r2, [r3, #36]
	.loc 2 1557 65
	ldr	r3, [r7, #4]
	ldr	r3, [r3, #36]
	.loc 2 1557 90
	lsrs	r3, r3, #31
	and	r3, r3, #1
	.loc 2 1558 37
	cmp	r3, #1
	bne	.L235
	.loc 2 1558 37 is_stmt 0 discriminator 1
	ldr	r3, .L238+8
	b	.L236
.L235:
	.loc 2 1558 37 discriminator 2
	movs	r3, #0
.L236:
	.loc 2 1557 16 is_stmt 1
	str	r3, [r7, #12]
.L234:
	.loc 2 1561 12
	ldr	r3, [r7, #12]
	.loc 2 1562 1
	mov	r0, r3
	adds	r7, r7, #16
.LCFI128:
	.cfi_def_cfa_offset 8
	mov	sp, r7
.LCFI129:
	.cfi_def_cfa_register 13
	@ sp needed
	pop	{r7, pc}
.L239:
	.align	2
.L238:
	.word	12713986
	.word	cy_device
	.word	12713987
	.cfi_endproc
.LFE163:
	.size	Cy_Prot_DisablePpuProgMasterStruct, .-Cy_Prot_DisablePpuProgMasterStruct
	.section	.text.Cy_Prot_EnablePpuProgSlaveStruct,"ax",%progbits
	.align	1
	.global	Cy_Prot_EnablePpuProgSlaveStruct
	.syntax unified
	.thumb
	.thumb_func
	.type	Cy_Prot_EnablePpuProgSlaveStruct, %function
Cy_Prot_EnablePpuProgSlaveStruct:
.LFB164:
	.loc 2 1593 1
	.cfi_startproc
	@ args = 0, pretend = 0, frame = 16
	@ frame_needed = 1, uses_anonymous_args = 0
	push	{r7, lr}
.LCFI130:
	.cfi_def_cfa_offset 8
	.cfi_offset 7, -8
	.cfi_offset 14, -4
	sub	sp, sp, #16
.LCFI131:
	.cfi_def_cfa_offset 24
	add	r7, sp, #0
.LCFI132:
	.cfi_def_cfa_register 7
	str	r0, [r7, #4]
	.loc 2 1594 25
	ldr	r3, .L248
	str	r3, [r7, #12]
	.loc 2 1596 12
	ldr	r3, [r7, #4]
	cmp	r3, #0
	bne	.L241
	.loc 2 1596 16 discriminator 1
	bl	CY_HALT
.L241:
	.loc 2 1598 38
	ldr	r3, .L248+4
	ldr	r3, [r3]
	ldrb	r3, [r3, #48]	@ zero_extendqisi2
	.loc 2 1598 54
	cmp	r3, #31
	bhi	.L242
	.loc 2 1598 54 is_stmt 0 discriminator 1
	movs	r3, #1
	b	.L243
.L242:
	.loc 2 1598 54 discriminator 2
	movs	r3, #0
.L243:
	.loc 2 1598 8 is_stmt 1 discriminator 4
	cmp	r3, #0
	beq	.L244
	.loc 2 1600 50
	ldr	r3, [r7, #4]
	ldr	r3, [r3, #4]
	orr	r2, r3, #-2147483648
	ldr	r3, [r7, #4]
	str	r2, [r3, #4]
	.loc 2 1601 65
	ldr	r3, [r7, #4]
	ldr	r3, [r3, #4]
	.loc 2 1601 90
	lsrs	r3, r3, #31
	and	r3, r3, #1
	.loc 2 1602 37
	cmp	r3, #1
	beq	.L245
	.loc 2 1602 37 is_stmt 0 discriminator 1
	ldr	r3, .L248+8
	b	.L246
.L245:
	.loc 2 1602 37 discriminator 2
	movs	r3, #0
.L246:
	.loc 2 1601 16 is_stmt 1
	str	r3, [r7, #12]
.L244:
	.loc 2 1605 12
	ldr	r3, [r7, #12]
	.loc 2 1606 1
	mov	r0, r3
	adds	r7, r7, #16
.LCFI133:
	.cfi_def_cfa_offset 8
	mov	sp, r7
.LCFI134:
	.cfi_def_cfa_register 13
	@ sp needed
	pop	{r7, pc}
.L249:
	.align	2
.L248:
	.word	12713986
	.word	cy_device
	.word	12713987
	.cfi_endproc
.LFE164:
	.size	Cy_Prot_EnablePpuProgSlaveStruct, .-Cy_Prot_EnablePpuProgSlaveStruct
	.section	.text.Cy_Prot_DisablePpuProgSlaveStruct,"ax",%progbits
	.align	1
	.global	Cy_Prot_DisablePpuProgSlaveStruct
	.syntax unified
	.thumb
	.thumb_func
	.type	Cy_Prot_DisablePpuProgSlaveStruct, %function
Cy_Prot_DisablePpuProgSlaveStruct:
.LFB165:
	.loc 2 1638 1
	.cfi_startproc
	@ args = 0, pretend = 0, frame = 16
	@ frame_needed = 1, uses_anonymous_args = 0
	push	{r7, lr}
.LCFI135:
	.cfi_def_cfa_offset 8
	.cfi_offset 7, -8
	.cfi_offset 14, -4
	sub	sp, sp, #16
.LCFI136:
	.cfi_def_cfa_offset 24
	add	r7, sp, #0
.LCFI137:
	.cfi_def_cfa_register 7
	str	r0, [r7, #4]
	.loc 2 1639 25
	ldr	r3, .L258
	str	r3, [r7, #12]
	.loc 2 1641 12
	ldr	r3, [r7, #4]
	cmp	r3, #0
	bne	.L251
	.loc 2 1641 16 discriminator 1
	bl	CY_HALT
.L251:
	.loc 2 1643 38
	ldr	r3, .L258+4
	ldr	r3, [r3]
	ldrb	r3, [r3, #48]	@ zero_extendqisi2
	.loc 2 1643 54
	cmp	r3, #31
	bhi	.L252
	.loc 2 1643 54 is_stmt 0 discriminator 1
	movs	r3, #1
	b	.L253
.L252:
	.loc 2 1643 54 discriminator 2
	movs	r3, #0
.L253:
	.loc 2 1643 8 is_stmt 1 discriminator 4
	cmp	r3, #0
	beq	.L254
	.loc 2 1645 50
	ldr	r3, [r7, #4]
	ldr	r3, [r3, #4]
	bic	r2, r3, #-2147483648
	ldr	r3, [r7, #4]
	str	r2, [r3, #4]
	.loc 2 1646 65
	ldr	r3, [r7, #4]
	ldr	r3, [r3, #4]
	.loc 2 1646 90
	lsrs	r3, r3, #31
	and	r3, r3, #1
	.loc 2 1647 37
	cmp	r3, #1
	bne	.L255
	.loc 2 1647 37 is_stmt 0 discriminator 1
	ldr	r3, .L258+8
	b	.L256
.L255:
	.loc 2 1647 37 discriminator 2
	movs	r3, #0
.L256:
	.loc 2 1646 16 is_stmt 1
	str	r3, [r7, #12]
.L254:
	.loc 2 1650 12
	ldr	r3, [r7, #12]
	.loc 2 1651 1
	mov	r0, r3
	adds	r7, r7, #16
.LCFI138:
	.cfi_def_cfa_offset 8
	mov	sp, r7
.LCFI139:
	.cfi_def_cfa_register 13
	@ sp needed
	pop	{r7, pc}
.L259:
	.align	2
.L258:
	.word	12713986
	.word	cy_device
	.word	12713987
	.cfi_endproc
.LFE165:
	.size	Cy_Prot_DisablePpuProgSlaveStruct, .-Cy_Prot_DisablePpuProgSlaveStruct
	.section	.text.Cy_Prot_GetPpuProgStruct,"ax",%progbits
	.align	1
	.global	Cy_Prot_GetPpuProgStruct
	.syntax unified
	.thumb
	.thumb_func
	.type	Cy_Prot_GetPpuProgStruct, %function
Cy_Prot_GetPpuProgStruct:
.LFB166:
	.loc 2 1704 1
	.cfi_startproc
	@ args = 0, pretend = 0, frame = 24
	@ frame_needed = 1, uses_anonymous_args = 0
	push	{r7, lr}
.LCFI140:
	.cfi_def_cfa_offset 8
	.cfi_offset 7, -8
	.cfi_offset 14, -4
	sub	sp, sp, #24
.LCFI141:
	.cfi_def_cfa_offset 32
	add	r7, sp, #0
.LCFI142:
	.cfi_def_cfa_register 7
	str	r0, [r7, #12]
	mov	r3, r1
	str	r2, [r7, #4]
	strb	r3, [r7, #11]
	.loc 2 1705 25
	ldr	r3, .L286
	str	r3, [r7, #20]
	.loc 2 1707 38
	ldr	r3, .L286+4
	ldr	r3, [r3]
	ldrb	r3, [r3, #48]	@ zero_extendqisi2
	.loc 2 1707 54
	cmp	r3, #31
	bhi	.L261
	.loc 2 1707 54 is_stmt 0 discriminator 1
	movs	r3, #1
	b	.L262
.L261:
	.loc 2 1707 54 discriminator 2
	movs	r3, #0
.L262:
	.loc 2 1707 8 is_stmt 1 discriminator 4
	cmp	r3, #0
	beq	.L263
.LBB3:
	.loc 2 1709 16
	ldrb	r3, [r7, #11]	@ zero_extendqisi2
	cmp	r3, #0
	beq	.L264
	.loc 2 1709 61 discriminator 1
	ldrb	r3, [r7, #11]	@ zero_extendqisi2
	cmp	r3, #1
	beq	.L264
	.loc 2 1709 17 discriminator 2
	ldrb	r3, [r7, #11]	@ zero_extendqisi2
	cmp	r3, #2
	beq	.L264
	.loc 2 1709 149 discriminator 3
	bl	CY_HALT
.L264:
	.loc 2 1710 16
	ldr	r3, [r7, #4]
	cmp	r3, #15
	bls	.L265
	.loc 2 1710 58 discriminator 1
	bl	CY_HALT
.L265:
	.loc 2 1712 16
	ldr	r3, .L286+8
	str	r3, [r7, #20]
	.loc 2 1713 17
	ldr	r3, [r7, #4]
	str	r3, [r7, #16]
	.loc 2 1715 15
	ldr	r3, [r7, #12]
	movs	r2, #0
	str	r2, [r3]
	.loc 2 1717 9
	ldrb	r3, [r7, #11]	@ zero_extendqisi2
	cmp	r3, #2
	beq	.L266
	cmp	r3, #2
	bgt	.L282
	cmp	r3, #0
	beq	.L268
	cmp	r3, #1
	bne	.L282
	.loc 2 1724 24
	movs	r3, #15
	str	r3, [r7, #16]
.L272:
	.loc 2 1727 25
	ldr	r3, [r7, #16]
	mov	r0, r3
	bl	Prot_IsPpuProgStructDisabled
	mov	r3, r0
	.loc 2 1727 24
	cmp	r3, #0
	beq	.L269
	.loc 2 1729 32
	movs	r3, #0
	str	r3, [r7, #20]
	b	.L270
.L269:
	.loc 2 1733 25
	ldr	r3, [r7, #16]
	subs	r3, r3, #1
	str	r3, [r7, #16]
.L270:
	.loc 2 1735 17
	ldr	r3, [r7, #16]
	cmp	r3, #0
	blt	.L283
	.loc 2 1735 40 discriminator 1
	ldr	r3, [r7, #20]
	cmp	r3, #0
	bne	.L272
	.loc 2 1736 17
	b	.L283
.L268:
	.loc 2 1742 24
	movs	r3, #0
	str	r3, [r7, #16]
.L277:
	.loc 2 1745 25
	ldr	r3, [r7, #16]
	mov	r0, r3
	bl	Prot_IsPpuProgStructDisabled
	mov	r3, r0
	.loc 2 1745 24
	cmp	r3, #0
	beq	.L274
	.loc 2 1747 32
	movs	r3, #0
	str	r3, [r7, #20]
	b	.L275
.L274:
	.loc 2 1751 25
	ldr	r3, [r7, #16]
	adds	r3, r3, #1
	str	r3, [r7, #16]
.L275:
	.loc 2 1753 17
	ldr	r3, [r7, #16]
	cmp	r3, #15
	bgt	.L284
	.loc 2 1753 43 discriminator 1
	ldr	r3, [r7, #20]
	cmp	r3, #0
	bne	.L277
	.loc 2 1754 17
	b	.L284
.L266:
	.loc 2 1758 21
	ldr	r3, [r7, #16]
	mov	r0, r3
	bl	Prot_IsPpuProgStructDisabled
	mov	r3, r0
	.loc 2 1758 20
	cmp	r3, #0
	beq	.L285
	.loc 2 1760 28
	movs	r3, #0
	str	r3, [r7, #20]
	.loc 2 1762 17
	b	.L285
.L282:
	.loc 2 1766 17
	nop
	b	.L273
.L283:
	.loc 2 1736 17
	nop
	b	.L273
.L284:
	.loc 2 1754 17
	nop
	b	.L273
.L285:
	.loc 2 1762 17
	nop
.L273:
	.loc 2 1770 12
	ldr	r3, [r7, #20]
	cmp	r3, #0
	bne	.L263
	.loc 2 1772 42
	ldr	r3, .L286+4
	ldr	r3, [r3]
	ldr	r3, [r3, #8]
	.loc 2 1772 16
	mov	r2, r3
	.loc 2 1772 79
	ldr	r3, [r7, #16]
	add	r3, r3, #256
	lsls	r3, r3, #6
	add	r3, r3, r2
	adds	r3, r3, #4
	ldr	r3, [r3]
	.loc 2 1772 42
	ldr	r2, .L286+4
	ldr	r2, [r2]
	ldr	r2, [r2, #8]
	.loc 2 1772 16
	mov	r1, r2
	.loc 2 1772 79
	orr	r2, r3, #-2147483648
	ldr	r3, [r7, #16]
	add	r3, r3, #256
	lsls	r3, r3, #6
	add	r3, r3, r1
	adds	r3, r3, #4
	str	r2, [r3]
	.loc 2 1775 56
	ldr	r3, .L286+4
	ldr	r3, [r3]
	ldr	r3, [r3, #8]
	.loc 2 1775 30
	mov	r2, r3
	.loc 2 1775 86
	ldr	r3, [r7, #16]
	add	r3, r3, #256
	lsls	r3, r3, #6
	add	r3, r3, r2
	adds	r3, r3, #4
	ldr	r3, [r3]
	.loc 2 1775 110
	lsrs	r3, r3, #31
	and	r3, r3, #1
	.loc 2 1776 30
	cmp	r3, #1
	beq	.L279
	.loc 2 1776 30 is_stmt 0 discriminator 1
	ldr	r3, .L286+12
	b	.L280
.L279:
	.loc 2 1776 30 discriminator 2
	movs	r3, #0
.L280:
	.loc 2 1774 20 is_stmt 1
	str	r3, [r7, #20]
	.loc 2 1779 16
	ldr	r3, [r7, #20]
	cmp	r3, #0
	bne	.L263
	.loc 2 1781 95
	ldr	r3, .L286+4
	ldr	r3, [r3]
	ldr	r3, [r3, #8]
	.loc 2 1781 69
	mov	r2, r3
	.loc 2 1781 66
	ldr	r3, [r7, #16]
	add	r3, r3, #256
	lsls	r3, r3, #6
	add	r2, r2, r3
	.loc 2 1781 23
	ldr	r3, [r7, #12]
	str	r2, [r3]
	.loc 2 1782 46
	ldr	r3, .L286+4
	ldr	r3, [r3]
	ldr	r3, [r3, #8]
	.loc 2 1782 20
	mov	r2, r3
	.loc 2 1782 83
	ldr	r3, [r7, #16]
	add	r3, r3, #256
	lsls	r3, r3, #6
	add	r3, r3, r2
	adds	r3, r3, #4
	ldr	r3, [r3]
	.loc 2 1782 46
	ldr	r2, .L286+4
	ldr	r2, [r2]
	ldr	r2, [r2, #8]
	.loc 2 1782 20
	mov	r1, r2
	.loc 2 1782 83
	orr	r2, r3, #127
	ldr	r3, [r7, #16]
	add	r3, r3, #256
	lsls	r3, r3, #6
	add	r3, r3, r1
	adds	r3, r3, #4
	str	r2, [r3]
.L263:
.LBE3:
	.loc 2 1787 12
	ldr	r3, [r7, #20]
	.loc 2 1788 1
	mov	r0, r3
	adds	r7, r7, #24
.LCFI143:
	.cfi_def_cfa_offset 8
	mov	sp, r7
.LCFI144:
	.cfi_def_cfa_register 13
	@ sp needed
	pop	{r7, pc}
.L287:
	.align	2
.L286:
	.word	12713986
	.word	cy_device
	.word	12713988
	.word	12713987
	.cfi_endproc
.LFE166:
	.size	Cy_Prot_GetPpuProgStruct, .-Cy_Prot_GetPpuProgStruct
	.section	.text.Cy_Prot_ConfigPpuFixedGrMasterStruct,"ax",%progbits
	.align	1
	.global	Cy_Prot_ConfigPpuFixedGrMasterStruct
	.syntax unified
	.thumb
	.thumb_func
	.type	Cy_Prot_ConfigPpuFixedGrMasterStruct, %function
Cy_Prot_ConfigPpuFixedGrMasterStruct:
.LFB167:
	.loc 2 1830 1
	.cfi_startproc
	@ args = 0, pretend = 0, frame = 16
	@ frame_needed = 1, uses_anonymous_args = 0
	push	{r7, lr}
.LCFI145:
	.cfi_def_cfa_offset 8
	.cfi_offset 7, -8
	.cfi_offset 14, -4
	sub	sp, sp, #16
.LCFI146:
	.cfi_def_cfa_offset 24
	add	r7, sp, #0
.LCFI147:
	.cfi_def_cfa_register 7
	str	r0, [r7, #4]
	str	r1, [r7]
	.loc 2 1831 25
	ldr	r3, .L300
	str	r3, [r7, #12]
	.loc 2 1834 12
	ldr	r3, [r7, #4]
	cmp	r3, #0
	bne	.L289
	.loc 2 1834 16 discriminator 1
	bl	CY_HALT
.L289:
	.loc 2 1835 24
	ldr	r3, [r7]
	ldrb	r3, [r3]	@ zero_extendqisi2
	.loc 2 1835 12
	cmp	r3, #0
	beq	.L290
	.loc 2 1835 79 discriminator 1
	ldr	r3, [r7]
	ldrb	r3, [r3]	@ zero_extendqisi2
	.loc 2 1835 68 discriminator 1
	cmp	r3, #1
	beq	.L290
	.loc 2 1835 127 discriminator 2
	ldr	r3, [r7]
	ldrb	r3, [r3]	@ zero_extendqisi2
	.loc 2 1835 116 discriminator 2
	cmp	r3, #2
	beq	.L290
	.loc 2 1835 175 discriminator 3
	ldr	r3, [r7]
	ldrb	r3, [r3]	@ zero_extendqisi2
	.loc 2 1835 13 discriminator 3
	cmp	r3, #3
	beq	.L290
	.loc 2 1835 218 discriminator 4
	bl	CY_HALT
.L290:
	.loc 2 1836 24
	ldr	r3, [r7]
	ldrb	r3, [r3, #1]	@ zero_extendqisi2
	.loc 2 1836 12
	cmp	r3, #0
	beq	.L291
	.loc 2 1836 79 discriminator 1
	ldr	r3, [r7]
	ldrb	r3, [r3, #1]	@ zero_extendqisi2
	.loc 2 1836 68 discriminator 1
	cmp	r3, #1
	beq	.L291
	.loc 2 1836 127 discriminator 2
	ldr	r3, [r7]
	ldrb	r3, [r3, #1]	@ zero_extendqisi2
	.loc 2 1836 116 discriminator 2
	cmp	r3, #2
	beq	.L291
	.loc 2 1836 175 discriminator 3
	ldr	r3, [r7]
	ldrb	r3, [r3, #1]	@ zero_extendqisi2
	.loc 2 1836 13 discriminator 3
	cmp	r3, #3
	beq	.L291
	.loc 2 1836 218 discriminator 4
	bl	CY_HALT
.L291:
	.loc 2 1838 38
	ldr	r3, .L300+4
	ldr	r3, [r3]
	ldrb	r3, [r3, #48]	@ zero_extendqisi2
	.loc 2 1838 54
	cmp	r3, #31
	bhi	.L292
	.loc 2 1838 54 is_stmt 0 discriminator 1
	movs	r3, #1
	b	.L293
.L292:
	.loc 2 1838 54 discriminator 2
	movs	r3, #0
.L293:
	.loc 2 1838 8 is_stmt 1 discriminator 4
	cmp	r3, #0
	beq	.L294
	.loc 2 1840 29
	ldr	r3, [r7]
	ldrh	r3, [r3, #4]
	.loc 2 1840 38
	bic	r3, r3, #127
	.loc 2 1840 11
	cmp	r3, #0
	beq	.L295
	.loc 2 1843 20
	ldr	r3, .L300+8
	str	r3, [r7, #12]
	b	.L294
.L295:
	.loc 2 1848 40
	ldr	r3, [r7]
	ldrb	r3, [r3]	@ zero_extendqisi2
	.loc 2 1848 57
	and	r2, r3, #7
	.loc 2 1849 55
	ldr	r3, [r7]
	ldrb	r3, [r3, #1]	@ zero_extendqisi2
	.loc 2 1849 27
	lsls	r3, r3, #3
	and	r3, r3, #56
	.loc 2 1849 25
	orrs	r2, r2, r3
	.loc 2 1850 48
	ldr	r3, [r7]
	ldrb	r3, [r3, #2]	@ zero_extendqisi2
	.loc 2 1850 29
	eor	r3, r3, #1
	uxtb	r3, r3
	.loc 2 1850 59
	lsls	r3, r3, #6
	.loc 2 1850 67
	and	r3, r3, #64
	.loc 2 1850 25
	orrs	r2, r2, r3
	.loc 2 1851 46
	ldr	r3, [r7]
	ldrh	r3, [r3, #4]
	.loc 2 1851 56
	lsls	r1, r3, #9
	.loc 2 1851 64
	ldr	r3, .L300+12
	ands	r3, r3, r1
	.loc 2 1851 25
	orrs	r2, r2, r3
	.loc 2 1853 46
	ldr	r3, [r7]
	ldrb	r3, [r3, #3]	@ zero_extendqisi2
	.loc 2 1853 57
	lsls	r3, r3, #30
	.loc 2 1853 66
	and	r3, r3, #1073741824
	.loc 2 1848 20
	orrs	r3, r3, r2
	str	r3, [r7, #8]
	.loc 2 1854 25
	ldr	r3, [r7, #8]
	bic	r3, r3, #520093696
	bic	r3, r3, #292
	.loc 2 1854 16
	ldr	r2, [r7, #8]
	cmp	r2, r3
	beq	.L296
	.loc 2 1857 24
	ldr	r3, .L300+8
	str	r3, [r7, #12]
	b	.L294
.L296:
	.loc 2 1861 58
	ldr	r3, [r7, #4]
	ldr	r2, [r7, #8]
	str	r2, [r3, #36]
	.loc 2 1862 61
	ldr	r3, [r7, #4]
	ldr	r3, [r3, #36]
	.loc 2 1862 69
	bic	r3, r3, #520093696
	bic	r3, r3, #292
	.loc 2 1862 157
	ldr	r2, [r7, #8]
	cmp	r2, r3
	beq	.L297
	.loc 2 1862 157 is_stmt 0 discriminator 1
	ldr	r3, .L300+16
	b	.L298
.L297:
	.loc 2 1862 157 discriminator 2
	movs	r3, #0
.L298:
	.loc 2 1862 24 is_stmt 1 discriminator 4
	str	r3, [r7, #12]
.L294:
	.loc 2 1867 12
	ldr	r3, [r7, #12]
	.loc 2 1868 1
	mov	r0, r3
	adds	r7, r7, #16
.LCFI148:
	.cfi_def_cfa_offset 8
	mov	sp, r7
.LCFI149:
	.cfi_def_cfa_register 13
	@ sp needed
	pop	{r7, pc}
.L301:
	.align	2
.L300:
	.word	12713986
	.word	cy_device
	.word	12713985
	.word	16776704
	.word	12713987
	.cfi_endproc
.LFE167:
	.size	Cy_Prot_ConfigPpuFixedGrMasterStruct, .-Cy_Prot_ConfigPpuFixedGrMasterStruct
	.section	.text.Cy_Prot_ConfigPpuFixedGrSlaveStruct,"ax",%progbits
	.align	1
	.global	Cy_Prot_ConfigPpuFixedGrSlaveStruct
	.syntax unified
	.thumb
	.thumb_func
	.type	Cy_Prot_ConfigPpuFixedGrSlaveStruct, %function
Cy_Prot_ConfigPpuFixedGrSlaveStruct:
.LFB168:
	.loc 2 1912 1
	.cfi_startproc
	@ args = 0, pretend = 0, frame = 16
	@ frame_needed = 1, uses_anonymous_args = 0
	push	{r7, lr}
.LCFI150:
	.cfi_def_cfa_offset 8
	.cfi_offset 7, -8
	.cfi_offset 14, -4
	sub	sp, sp, #16
.LCFI151:
	.cfi_def_cfa_offset 24
	add	r7, sp, #0
.LCFI152:
	.cfi_def_cfa_register 7
	str	r0, [r7, #4]
	str	r1, [r7]
	.loc 2 1913 25
	ldr	r3, .L314
	str	r3, [r7, #12]
	.loc 2 1916 12
	ldr	r3, [r7, #4]
	cmp	r3, #0
	bne	.L303
	.loc 2 1916 16 discriminator 1
	bl	CY_HALT
.L303:
	.loc 2 1917 24
	ldr	r3, [r7]
	ldrb	r3, [r3]	@ zero_extendqisi2
	.loc 2 1917 12
	cmp	r3, #0
	beq	.L304
	.loc 2 1917 79 discriminator 1
	ldr	r3, [r7]
	ldrb	r3, [r3]	@ zero_extendqisi2
	.loc 2 1917 68 discriminator 1
	cmp	r3, #1
	beq	.L304
	.loc 2 1917 127 discriminator 2
	ldr	r3, [r7]
	ldrb	r3, [r3]	@ zero_extendqisi2
	.loc 2 1917 116 discriminator 2
	cmp	r3, #2
	beq	.L304
	.loc 2 1917 175 discriminator 3
	ldr	r3, [r7]
	ldrb	r3, [r3]	@ zero_extendqisi2
	.loc 2 1917 13 discriminator 3
	cmp	r3, #3
	beq	.L304
	.loc 2 1917 218 discriminator 4
	bl	CY_HALT
.L304:
	.loc 2 1918 24
	ldr	r3, [r7]
	ldrb	r3, [r3, #1]	@ zero_extendqisi2
	.loc 2 1918 12
	cmp	r3, #0
	beq	.L305
	.loc 2 1918 79 discriminator 1
	ldr	r3, [r7]
	ldrb	r3, [r3, #1]	@ zero_extendqisi2
	.loc 2 1918 68 discriminator 1
	cmp	r3, #1
	beq	.L305
	.loc 2 1918 127 discriminator 2
	ldr	r3, [r7]
	ldrb	r3, [r3, #1]	@ zero_extendqisi2
	.loc 2 1918 116 discriminator 2
	cmp	r3, #2
	beq	.L305
	.loc 2 1918 175 discriminator 3
	ldr	r3, [r7]
	ldrb	r3, [r3, #1]	@ zero_extendqisi2
	.loc 2 1918 13 discriminator 3
	cmp	r3, #3
	beq	.L305
	.loc 2 1918 218 discriminator 4
	bl	CY_HALT
.L305:
	.loc 2 1920 38
	ldr	r3, .L314+4
	ldr	r3, [r3]
	ldrb	r3, [r3, #48]	@ zero_extendqisi2
	.loc 2 1920 54
	cmp	r3, #31
	bhi	.L306
	.loc 2 1920 54 is_stmt 0 discriminator 1
	movs	r3, #1
	b	.L307
.L306:
	.loc 2 1920 54 discriminator 2
	movs	r3, #0
.L307:
	.loc 2 1920 8 is_stmt 1 discriminator 4
	cmp	r3, #0
	beq	.L308
	.loc 2 1922 29
	ldr	r3, [r7]
	ldrh	r3, [r3, #4]
	.loc 2 1922 38
	bic	r3, r3, #127
	.loc 2 1922 11
	cmp	r3, #0
	beq	.L309
	.loc 2 1925 20
	ldr	r3, .L314+8
	str	r3, [r7, #12]
	b	.L308
.L309:
	.loc 2 1930 50
	ldr	r3, [r7]
	ldrb	r3, [r3]	@ zero_extendqisi2
	.loc 2 1930 22
	and	r2, r3, #7
	.loc 2 1931 55
	ldr	r3, [r7]
	ldrb	r3, [r3, #1]	@ zero_extendqisi2
	.loc 2 1931 27
	lsls	r3, r3, #3
	and	r3, r3, #56
	.loc 2 1931 25
	orrs	r2, r2, r3
	.loc 2 1932 48
	ldr	r3, [r7]
	ldrb	r3, [r3, #2]	@ zero_extendqisi2
	.loc 2 1932 29
	eor	r3, r3, #1
	uxtb	r3, r3
	.loc 2 1932 59
	lsls	r3, r3, #6
	.loc 2 1932 67
	and	r3, r3, #64
	.loc 2 1932 25
	orrs	r2, r2, r3
	.loc 2 1933 46
	ldr	r3, [r7]
	ldrh	r3, [r3, #4]
	.loc 2 1933 56
	lsls	r1, r3, #9
	.loc 2 1933 64
	ldr	r3, .L314+12
	ands	r3, r3, r1
	.loc 2 1933 25
	orrs	r2, r2, r3
	.loc 2 1935 46
	ldr	r3, [r7]
	ldrb	r3, [r3, #3]	@ zero_extendqisi2
	.loc 2 1935 57
	lsls	r3, r3, #30
	.loc 2 1935 66
	and	r3, r3, #1073741824
	.loc 2 1930 20
	orrs	r3, r3, r2
	str	r3, [r7, #8]
	.loc 2 1936 25
	ldr	r3, [r7, #8]
	bic	r3, r3, #520093696
	bic	r3, r3, #292
	.loc 2 1936 16
	ldr	r2, [r7, #8]
	cmp	r2, r3
	beq	.L310
	.loc 2 1939 24
	ldr	r3, .L314+8
	str	r3, [r7, #12]
	b	.L308
.L310:
	.loc 2 1943 58
	ldr	r3, [r7, #4]
	ldr	r2, [r7, #8]
	str	r2, [r3, #4]
	.loc 2 1944 61
	ldr	r3, [r7, #4]
	ldr	r3, [r3, #4]
	.loc 2 1944 69
	bic	r3, r3, #520093696
	bic	r3, r3, #292
	.loc 2 1944 157
	ldr	r2, [r7, #8]
	cmp	r2, r3
	beq	.L311
	.loc 2 1944 157 is_stmt 0 discriminator 1
	ldr	r3, .L314+16
	b	.L312
.L311:
	.loc 2 1944 157 discriminator 2
	movs	r3, #0
.L312:
	.loc 2 1944 24 is_stmt 1 discriminator 4
	str	r3, [r7, #12]
.L308:
	.loc 2 1949 12
	ldr	r3, [r7, #12]
	.loc 2 1950 1
	mov	r0, r3
	adds	r7, r7, #16
.LCFI153:
	.cfi_def_cfa_offset 8
	mov	sp, r7
.LCFI154:
	.cfi_def_cfa_register 13
	@ sp needed
	pop	{r7, pc}
.L315:
	.align	2
.L314:
	.word	12713986
	.word	cy_device
	.word	12713985
	.word	16776704
	.word	12713987
	.cfi_endproc
.LFE168:
	.size	Cy_Prot_ConfigPpuFixedGrSlaveStruct, .-Cy_Prot_ConfigPpuFixedGrSlaveStruct
	.section	.text.Cy_Prot_EnablePpuFixedGrMasterStruct,"ax",%progbits
	.align	1
	.global	Cy_Prot_EnablePpuFixedGrMasterStruct
	.syntax unified
	.thumb
	.thumb_func
	.type	Cy_Prot_EnablePpuFixedGrMasterStruct, %function
Cy_Prot_EnablePpuFixedGrMasterStruct:
.LFB169:
	.loc 2 1981 1
	.cfi_startproc
	@ args = 0, pretend = 0, frame = 16
	@ frame_needed = 1, uses_anonymous_args = 0
	push	{r7, lr}
.LCFI155:
	.cfi_def_cfa_offset 8
	.cfi_offset 7, -8
	.cfi_offset 14, -4
	sub	sp, sp, #16
.LCFI156:
	.cfi_def_cfa_offset 24
	add	r7, sp, #0
.LCFI157:
	.cfi_def_cfa_register 7
	str	r0, [r7, #4]
	.loc 2 1982 25
	ldr	r3, .L324
	str	r3, [r7, #12]
	.loc 2 1984 12
	ldr	r3, [r7, #4]
	cmp	r3, #0
	bne	.L317
	.loc 2 1984 16 discriminator 1
	bl	CY_HALT
.L317:
	.loc 2 1986 38
	ldr	r3, .L324+4
	ldr	r3, [r3]
	ldrb	r3, [r3, #48]	@ zero_extendqisi2
	.loc 2 1986 54
	cmp	r3, #31
	bhi	.L318
	.loc 2 1986 54 is_stmt 0 discriminator 1
	movs	r3, #1
	b	.L319
.L318:
	.loc 2 1986 54 discriminator 2
	movs	r3, #0
.L319:
	.loc 2 1986 8 is_stmt 1 discriminator 4
	cmp	r3, #0
	beq	.L320
	.loc 2 1988 50
	ldr	r3, [r7, #4]
	ldr	r3, [r3, #36]
	orr	r2, r3, #-2147483648
	ldr	r3, [r7, #4]
	str	r2, [r3, #36]
	.loc 2 1989 65
	ldr	r3, [r7, #4]
	ldr	r3, [r3, #36]
	.loc 2 1989 90
	lsrs	r3, r3, #31
	and	r3, r3, #1
	.loc 2 1990 37
	cmp	r3, #1
	beq	.L321
	.loc 2 1990 37 is_stmt 0 discriminator 1
	ldr	r3, .L324+8
	b	.L322
.L321:
	.loc 2 1990 37 discriminator 2
	movs	r3, #0
.L322:
	.loc 2 1989 16 is_stmt 1
	str	r3, [r7, #12]
.L320:
	.loc 2 1993 12
	ldr	r3, [r7, #12]
	.loc 2 1994 1
	mov	r0, r3
	adds	r7, r7, #16
.LCFI158:
	.cfi_def_cfa_offset 8
	mov	sp, r7
.LCFI159:
	.cfi_def_cfa_register 13
	@ sp needed
	pop	{r7, pc}
.L325:
	.align	2
.L324:
	.word	12713986
	.word	cy_device
	.word	12713987
	.cfi_endproc
.LFE169:
	.size	Cy_Prot_EnablePpuFixedGrMasterStruct, .-Cy_Prot_EnablePpuFixedGrMasterStruct
	.section	.text.Cy_Prot_DisablePpuFixedGrMasterStruct,"ax",%progbits
	.align	1
	.global	Cy_Prot_DisablePpuFixedGrMasterStruct
	.syntax unified
	.thumb
	.thumb_func
	.type	Cy_Prot_DisablePpuFixedGrMasterStruct, %function
Cy_Prot_DisablePpuFixedGrMasterStruct:
.LFB170:
	.loc 2 2026 1
	.cfi_startproc
	@ args = 0, pretend = 0, frame = 16
	@ frame_needed = 1, uses_anonymous_args = 0
	push	{r7, lr}
.LCFI160:
	.cfi_def_cfa_offset 8
	.cfi_offset 7, -8
	.cfi_offset 14, -4
	sub	sp, sp, #16
.LCFI161:
	.cfi_def_cfa_offset 24
	add	r7, sp, #0
.LCFI162:
	.cfi_def_cfa_register 7
	str	r0, [r7, #4]
	.loc 2 2027 25
	ldr	r3, .L334
	str	r3, [r7, #12]
	.loc 2 2029 12
	ldr	r3, [r7, #4]
	cmp	r3, #0
	bne	.L327
	.loc 2 2029 16 discriminator 1
	bl	CY_HALT
.L327:
	.loc 2 2031 38
	ldr	r3, .L334+4
	ldr	r3, [r3]
	ldrb	r3, [r3, #48]	@ zero_extendqisi2
	.loc 2 2031 54
	cmp	r3, #31
	bhi	.L328
	.loc 2 2031 54 is_stmt 0 discriminator 1
	movs	r3, #1
	b	.L329
.L328:
	.loc 2 2031 54 discriminator 2
	movs	r3, #0
.L329:
	.loc 2 2031 8 is_stmt 1 discriminator 4
	cmp	r3, #0
	beq	.L330
	.loc 2 2033 50
	ldr	r3, [r7, #4]
	ldr	r3, [r3, #36]
	bic	r2, r3, #-2147483648
	ldr	r3, [r7, #4]
	str	r2, [r3, #36]
	.loc 2 2034 65
	ldr	r3, [r7, #4]
	ldr	r3, [r3, #36]
	.loc 2 2034 90
	lsrs	r3, r3, #31
	and	r3, r3, #1
	.loc 2 2035 37
	cmp	r3, #1
	bne	.L331
	.loc 2 2035 37 is_stmt 0 discriminator 1
	ldr	r3, .L334+8
	b	.L332
.L331:
	.loc 2 2035 37 discriminator 2
	movs	r3, #0
.L332:
	.loc 2 2034 16 is_stmt 1
	str	r3, [r7, #12]
.L330:
	.loc 2 2038 12
	ldr	r3, [r7, #12]
	.loc 2 2039 1
	mov	r0, r3
	adds	r7, r7, #16
.LCFI163:
	.cfi_def_cfa_offset 8
	mov	sp, r7
.LCFI164:
	.cfi_def_cfa_register 13
	@ sp needed
	pop	{r7, pc}
.L335:
	.align	2
.L334:
	.word	12713986
	.word	cy_device
	.word	12713987
	.cfi_endproc
.LFE170:
	.size	Cy_Prot_DisablePpuFixedGrMasterStruct, .-Cy_Prot_DisablePpuFixedGrMasterStruct
	.section	.text.Cy_Prot_EnablePpuFixedGrSlaveStruct,"ax",%progbits
	.align	1
	.global	Cy_Prot_EnablePpuFixedGrSlaveStruct
	.syntax unified
	.thumb
	.thumb_func
	.type	Cy_Prot_EnablePpuFixedGrSlaveStruct, %function
Cy_Prot_EnablePpuFixedGrSlaveStruct:
.LFB171:
	.loc 2 2070 1
	.cfi_startproc
	@ args = 0, pretend = 0, frame = 16
	@ frame_needed = 1, uses_anonymous_args = 0
	push	{r7, lr}
.LCFI165:
	.cfi_def_cfa_offset 8
	.cfi_offset 7, -8
	.cfi_offset 14, -4
	sub	sp, sp, #16
.LCFI166:
	.cfi_def_cfa_offset 24
	add	r7, sp, #0
.LCFI167:
	.cfi_def_cfa_register 7
	str	r0, [r7, #4]
	.loc 2 2071 25
	ldr	r3, .L344
	str	r3, [r7, #12]
	.loc 2 2073 12
	ldr	r3, [r7, #4]
	cmp	r3, #0
	bne	.L337
	.loc 2 2073 16 discriminator 1
	bl	CY_HALT
.L337:
	.loc 2 2075 38
	ldr	r3, .L344+4
	ldr	r3, [r3]
	ldrb	r3, [r3, #48]	@ zero_extendqisi2
	.loc 2 2075 54
	cmp	r3, #31
	bhi	.L338
	.loc 2 2075 54 is_stmt 0 discriminator 1
	movs	r3, #1
	b	.L339
.L338:
	.loc 2 2075 54 discriminator 2
	movs	r3, #0
.L339:
	.loc 2 2075 8 is_stmt 1 discriminator 4
	cmp	r3, #0
	beq	.L340
	.loc 2 2077 50
	ldr	r3, [r7, #4]
	ldr	r3, [r3, #4]
	orr	r2, r3, #-2147483648
	ldr	r3, [r7, #4]
	str	r2, [r3, #4]
	.loc 2 2078 65
	ldr	r3, [r7, #4]
	ldr	r3, [r3, #4]
	.loc 2 2078 90
	lsrs	r3, r3, #31
	and	r3, r3, #1
	.loc 2 2079 37
	cmp	r3, #1
	beq	.L341
	.loc 2 2079 37 is_stmt 0 discriminator 1
	ldr	r3, .L344+8
	b	.L342
.L341:
	.loc 2 2079 37 discriminator 2
	movs	r3, #0
.L342:
	.loc 2 2078 16 is_stmt 1
	str	r3, [r7, #12]
.L340:
	.loc 2 2082 12
	ldr	r3, [r7, #12]
	.loc 2 2083 1
	mov	r0, r3
	adds	r7, r7, #16
.LCFI168:
	.cfi_def_cfa_offset 8
	mov	sp, r7
.LCFI169:
	.cfi_def_cfa_register 13
	@ sp needed
	pop	{r7, pc}
.L345:
	.align	2
.L344:
	.word	12713986
	.word	cy_device
	.word	12713987
	.cfi_endproc
.LFE171:
	.size	Cy_Prot_EnablePpuFixedGrSlaveStruct, .-Cy_Prot_EnablePpuFixedGrSlaveStruct
	.section	.text.Cy_Prot_DisablePpuFixedGrSlaveStruct,"ax",%progbits
	.align	1
	.global	Cy_Prot_DisablePpuFixedGrSlaveStruct
	.syntax unified
	.thumb
	.thumb_func
	.type	Cy_Prot_DisablePpuFixedGrSlaveStruct, %function
Cy_Prot_DisablePpuFixedGrSlaveStruct:
.LFB172:
	.loc 2 2115 1
	.cfi_startproc
	@ args = 0, pretend = 0, frame = 16
	@ frame_needed = 1, uses_anonymous_args = 0
	push	{r7, lr}
.LCFI170:
	.cfi_def_cfa_offset 8
	.cfi_offset 7, -8
	.cfi_offset 14, -4
	sub	sp, sp, #16
.LCFI171:
	.cfi_def_cfa_offset 24
	add	r7, sp, #0
.LCFI172:
	.cfi_def_cfa_register 7
	str	r0, [r7, #4]
	.loc 2 2116 25
	ldr	r3, .L354
	str	r3, [r7, #12]
	.loc 2 2118 12
	ldr	r3, [r7, #4]
	cmp	r3, #0
	bne	.L347
	.loc 2 2118 16 discriminator 1
	bl	CY_HALT
.L347:
	.loc 2 2120 38
	ldr	r3, .L354+4
	ldr	r3, [r3]
	ldrb	r3, [r3, #48]	@ zero_extendqisi2
	.loc 2 2120 54
	cmp	r3, #31
	bhi	.L348
	.loc 2 2120 54 is_stmt 0 discriminator 1
	movs	r3, #1
	b	.L349
.L348:
	.loc 2 2120 54 discriminator 2
	movs	r3, #0
.L349:
	.loc 2 2120 8 is_stmt 1 discriminator 4
	cmp	r3, #0
	beq	.L350
	.loc 2 2122 50
	ldr	r3, [r7, #4]
	ldr	r3, [r3, #4]
	bic	r2, r3, #-2147483648
	ldr	r3, [r7, #4]
	str	r2, [r3, #4]
	.loc 2 2123 65
	ldr	r3, [r7, #4]
	ldr	r3, [r3, #4]
	.loc 2 2123 90
	lsrs	r3, r3, #31
	and	r3, r3, #1
	.loc 2 2124 37
	cmp	r3, #1
	bne	.L351
	.loc 2 2124 37 is_stmt 0 discriminator 1
	ldr	r3, .L354+8
	b	.L352
.L351:
	.loc 2 2124 37 discriminator 2
	movs	r3, #0
.L352:
	.loc 2 2123 16 is_stmt 1
	str	r3, [r7, #12]
.L350:
	.loc 2 2127 12
	ldr	r3, [r7, #12]
	.loc 2 2128 1
	mov	r0, r3
	adds	r7, r7, #16
.LCFI173:
	.cfi_def_cfa_offset 8
	mov	sp, r7
.LCFI174:
	.cfi_def_cfa_register 13
	@ sp needed
	pop	{r7, pc}
.L355:
	.align	2
.L354:
	.word	12713986
	.word	cy_device
	.word	12713987
	.cfi_endproc
.LFE172:
	.size	Cy_Prot_DisablePpuFixedGrSlaveStruct, .-Cy_Prot_DisablePpuFixedGrSlaveStruct
	.section	.text.Cy_Prot_ConfigPpuFixedSlMasterStruct,"ax",%progbits
	.align	1
	.global	Cy_Prot_ConfigPpuFixedSlMasterStruct
	.syntax unified
	.thumb
	.thumb_func
	.type	Cy_Prot_ConfigPpuFixedSlMasterStruct, %function
Cy_Prot_ConfigPpuFixedSlMasterStruct:
.LFB173:
	.loc 2 2169 1
	.cfi_startproc
	@ args = 0, pretend = 0, frame = 16
	@ frame_needed = 1, uses_anonymous_args = 0
	push	{r7, lr}
.LCFI175:
	.cfi_def_cfa_offset 8
	.cfi_offset 7, -8
	.cfi_offset 14, -4
	sub	sp, sp, #16
.LCFI176:
	.cfi_def_cfa_offset 24
	add	r7, sp, #0
.LCFI177:
	.cfi_def_cfa_register 7
	str	r0, [r7, #4]
	str	r1, [r7]
	.loc 2 2170 25
	ldr	r3, .L368
	str	r3, [r7, #12]
	.loc 2 2173 12
	ldr	r3, [r7, #4]
	cmp	r3, #0
	bne	.L357
	.loc 2 2173 16 discriminator 1
	bl	CY_HALT
.L357:
	.loc 2 2174 24
	ldr	r3, [r7]
	ldrb	r3, [r3]	@ zero_extendqisi2
	.loc 2 2174 12
	cmp	r3, #0
	beq	.L358
	.loc 2 2174 79 discriminator 1
	ldr	r3, [r7]
	ldrb	r3, [r3]	@ zero_extendqisi2
	.loc 2 2174 68 discriminator 1
	cmp	r3, #1
	beq	.L358
	.loc 2 2174 127 discriminator 2
	ldr	r3, [r7]
	ldrb	r3, [r3]	@ zero_extendqisi2
	.loc 2 2174 116 discriminator 2
	cmp	r3, #2
	beq	.L358
	.loc 2 2174 175 discriminator 3
	ldr	r3, [r7]
	ldrb	r3, [r3]	@ zero_extendqisi2
	.loc 2 2174 13 discriminator 3
	cmp	r3, #3
	beq	.L358
	.loc 2 2174 218 discriminator 4
	bl	CY_HALT
.L358:
	.loc 2 2175 24
	ldr	r3, [r7]
	ldrb	r3, [r3, #1]	@ zero_extendqisi2
	.loc 2 2175 12
	cmp	r3, #0
	beq	.L359
	.loc 2 2175 79 discriminator 1
	ldr	r3, [r7]
	ldrb	r3, [r3, #1]	@ zero_extendqisi2
	.loc 2 2175 68 discriminator 1
	cmp	r3, #1
	beq	.L359
	.loc 2 2175 127 discriminator 2
	ldr	r3, [r7]
	ldrb	r3, [r3, #1]	@ zero_extendqisi2
	.loc 2 2175 116 discriminator 2
	cmp	r3, #2
	beq	.L359
	.loc 2 2175 175 discriminator 3
	ldr	r3, [r7]
	ldrb	r3, [r3, #1]	@ zero_extendqisi2
	.loc 2 2175 13 discriminator 3
	cmp	r3, #3
	beq	.L359
	.loc 2 2175 218 discriminator 4
	bl	CY_HALT
.L359:
	.loc 2 2177 38
	ldr	r3, .L368+4
	ldr	r3, [r3]
	ldrb	r3, [r3, #48]	@ zero_extendqisi2
	.loc 2 2177 54
	cmp	r3, #31
	bhi	.L360
	.loc 2 2177 54 is_stmt 0 discriminator 1
	movs	r3, #1
	b	.L361
.L360:
	.loc 2 2177 54 discriminator 2
	movs	r3, #0
.L361:
	.loc 2 2177 8 is_stmt 1 discriminator 4
	cmp	r3, #0
	beq	.L362
	.loc 2 2179 29
	ldr	r3, [r7]
	ldrh	r3, [r3, #4]
	.loc 2 2179 38
	bic	r3, r3, #127
	.loc 2 2179 11
	cmp	r3, #0
	beq	.L363
	.loc 2 2182 20
	ldr	r3, .L368+8
	str	r3, [r7, #12]
	b	.L362
.L363:
	.loc 2 2187 39
	ldr	r3, [r7]
	ldrb	r3, [r3]	@ zero_extendqisi2
	.loc 2 2187 56
	and	r2, r3, #7
	.loc 2 2188 55
	ldr	r3, [r7]
	ldrb	r3, [r3, #1]	@ zero_extendqisi2
	.loc 2 2188 27
	lsls	r3, r3, #3
	and	r3, r3, #56
	.loc 2 2188 25
	orrs	r2, r2, r3
	.loc 2 2189 48
	ldr	r3, [r7]
	ldrb	r3, [r3, #2]	@ zero_extendqisi2
	.loc 2 2189 29
	eor	r3, r3, #1
	uxtb	r3, r3
	.loc 2 2189 59
	lsls	r3, r3, #6
	.loc 2 2189 67
	and	r3, r3, #64
	.loc 2 2189 25
	orrs	r2, r2, r3
	.loc 2 2190 46
	ldr	r3, [r7]
	ldrh	r3, [r3, #4]
	.loc 2 2190 56
	lsls	r1, r3, #9
	.loc 2 2190 64
	ldr	r3, .L368+12
	ands	r3, r3, r1
	.loc 2 2190 25
	orrs	r2, r2, r3
	.loc 2 2192 46
	ldr	r3, [r7]
	ldrb	r3, [r3, #3]	@ zero_extendqisi2
	.loc 2 2192 57
	lsls	r3, r3, #30
	.loc 2 2192 66
	and	r3, r3, #1073741824
	.loc 2 2187 20
	orrs	r3, r3, r2
	str	r3, [r7, #8]
	.loc 2 2193 25
	ldr	r3, [r7, #8]
	bic	r3, r3, #520093696
	bic	r3, r3, #292
	.loc 2 2193 16
	ldr	r2, [r7, #8]
	cmp	r2, r3
	beq	.L364
	.loc 2 2196 24
	ldr	r3, .L368+8
	str	r3, [r7, #12]
	b	.L362
.L364:
	.loc 2 2200 61
	ldr	r3, [r7, #4]
	ldr	r2, [r7, #8]
	str	r2, [r3, #36]
	.loc 2 2201 64
	ldr	r3, [r7, #4]
	ldr	r3, [r3, #36]
	.loc 2 2201 72
	bic	r3, r3, #520093696
	bic	r3, r3, #292
	.loc 2 2201 160
	ldr	r2, [r7, #8]
	cmp	r2, r3
	beq	.L365
	.loc 2 2201 160 is_stmt 0 discriminator 1
	ldr	r3, .L368+16
	b	.L366
.L365:
	.loc 2 2201 160 discriminator 2
	movs	r3, #0
.L366:
	.loc 2 2201 24 is_stmt 1 discriminator 4
	str	r3, [r7, #12]
.L362:
	.loc 2 2206 12
	ldr	r3, [r7, #12]
	.loc 2 2207 1
	mov	r0, r3
	adds	r7, r7, #16
.LCFI178:
	.cfi_def_cfa_offset 8
	mov	sp, r7
.LCFI179:
	.cfi_def_cfa_register 13
	@ sp needed
	pop	{r7, pc}
.L369:
	.align	2
.L368:
	.word	12713986
	.word	cy_device
	.word	12713985
	.word	16776704
	.word	12713987
	.cfi_endproc
.LFE173:
	.size	Cy_Prot_ConfigPpuFixedSlMasterStruct, .-Cy_Prot_ConfigPpuFixedSlMasterStruct
	.section	.text.Cy_Prot_ConfigPpuFixedSlSlaveStruct,"ax",%progbits
	.align	1
	.global	Cy_Prot_ConfigPpuFixedSlSlaveStruct
	.syntax unified
	.thumb
	.thumb_func
	.type	Cy_Prot_ConfigPpuFixedSlSlaveStruct, %function
Cy_Prot_ConfigPpuFixedSlSlaveStruct:
.LFB174:
	.loc 2 2250 1
	.cfi_startproc
	@ args = 0, pretend = 0, frame = 16
	@ frame_needed = 1, uses_anonymous_args = 0
	push	{r7, lr}
.LCFI180:
	.cfi_def_cfa_offset 8
	.cfi_offset 7, -8
	.cfi_offset 14, -4
	sub	sp, sp, #16
.LCFI181:
	.cfi_def_cfa_offset 24
	add	r7, sp, #0
.LCFI182:
	.cfi_def_cfa_register 7
	str	r0, [r7, #4]
	str	r1, [r7]
	.loc 2 2251 25
	ldr	r3, .L382
	str	r3, [r7, #12]
	.loc 2 2254 12
	ldr	r3, [r7, #4]
	cmp	r3, #0
	bne	.L371
	.loc 2 2254 16 discriminator 1
	bl	CY_HALT
.L371:
	.loc 2 2255 24
	ldr	r3, [r7]
	ldrb	r3, [r3]	@ zero_extendqisi2
	.loc 2 2255 12
	cmp	r3, #0
	beq	.L372
	.loc 2 2255 79 discriminator 1
	ldr	r3, [r7]
	ldrb	r3, [r3]	@ zero_extendqisi2
	.loc 2 2255 68 discriminator 1
	cmp	r3, #1
	beq	.L372
	.loc 2 2255 127 discriminator 2
	ldr	r3, [r7]
	ldrb	r3, [r3]	@ zero_extendqisi2
	.loc 2 2255 116 discriminator 2
	cmp	r3, #2
	beq	.L372
	.loc 2 2255 175 discriminator 3
	ldr	r3, [r7]
	ldrb	r3, [r3]	@ zero_extendqisi2
	.loc 2 2255 13 discriminator 3
	cmp	r3, #3
	beq	.L372
	.loc 2 2255 218 discriminator 4
	bl	CY_HALT
.L372:
	.loc 2 2256 24
	ldr	r3, [r7]
	ldrb	r3, [r3, #1]	@ zero_extendqisi2
	.loc 2 2256 12
	cmp	r3, #0
	beq	.L373
	.loc 2 2256 79 discriminator 1
	ldr	r3, [r7]
	ldrb	r3, [r3, #1]	@ zero_extendqisi2
	.loc 2 2256 68 discriminator 1
	cmp	r3, #1
	beq	.L373
	.loc 2 2256 127 discriminator 2
	ldr	r3, [r7]
	ldrb	r3, [r3, #1]	@ zero_extendqisi2
	.loc 2 2256 116 discriminator 2
	cmp	r3, #2
	beq	.L373
	.loc 2 2256 175 discriminator 3
	ldr	r3, [r7]
	ldrb	r3, [r3, #1]	@ zero_extendqisi2
	.loc 2 2256 13 discriminator 3
	cmp	r3, #3
	beq	.L373
	.loc 2 2256 218 discriminator 4
	bl	CY_HALT
.L373:
	.loc 2 2258 38
	ldr	r3, .L382+4
	ldr	r3, [r3]
	ldrb	r3, [r3, #48]	@ zero_extendqisi2
	.loc 2 2258 54
	cmp	r3, #31
	bhi	.L374
	.loc 2 2258 54 is_stmt 0 discriminator 1
	movs	r3, #1
	b	.L375
.L374:
	.loc 2 2258 54 discriminator 2
	movs	r3, #0
.L375:
	.loc 2 2258 8 is_stmt 1 discriminator 4
	cmp	r3, #0
	beq	.L376
	.loc 2 2260 29
	ldr	r3, [r7]
	ldrh	r3, [r3, #4]
	.loc 2 2260 38
	bic	r3, r3, #127
	.loc 2 2260 11
	cmp	r3, #0
	beq	.L377
	.loc 2 2263 20
	ldr	r3, .L382+8
	str	r3, [r7, #12]
	b	.L376
.L377:
	.loc 2 2268 39
	ldr	r3, [r7]
	ldrb	r3, [r3]	@ zero_extendqisi2
	.loc 2 2268 56
	and	r2, r3, #7
	.loc 2 2269 55
	ldr	r3, [r7]
	ldrb	r3, [r3, #1]	@ zero_extendqisi2
	.loc 2 2269 27
	lsls	r3, r3, #3
	and	r3, r3, #56
	.loc 2 2269 25
	orrs	r2, r2, r3
	.loc 2 2270 48
	ldr	r3, [r7]
	ldrb	r3, [r3, #2]	@ zero_extendqisi2
	.loc 2 2270 29
	eor	r3, r3, #1
	uxtb	r3, r3
	.loc 2 2270 59
	lsls	r3, r3, #6
	.loc 2 2270 67
	and	r3, r3, #64
	.loc 2 2270 25
	orrs	r2, r2, r3
	.loc 2 2271 46
	ldr	r3, [r7]
	ldrh	r3, [r3, #4]
	.loc 2 2271 56
	lsls	r1, r3, #9
	.loc 2 2271 64
	ldr	r3, .L382+12
	ands	r3, r3, r1
	.loc 2 2271 25
	orrs	r2, r2, r3
	.loc 2 2273 46
	ldr	r3, [r7]
	ldrb	r3, [r3, #3]	@ zero_extendqisi2
	.loc 2 2273 57
	lsls	r3, r3, #30
	.loc 2 2273 66
	and	r3, r3, #1073741824
	.loc 2 2268 20
	orrs	r3, r3, r2
	str	r3, [r7, #8]
	.loc 2 2274 25
	ldr	r3, [r7, #8]
	bic	r3, r3, #520093696
	bic	r3, r3, #292
	.loc 2 2274 16
	ldr	r2, [r7, #8]
	cmp	r2, r3
	beq	.L378
	.loc 2 2277 24
	ldr	r3, .L382+8
	str	r3, [r7, #12]
	b	.L376
.L378:
	.loc 2 2281 61
	ldr	r3, [r7, #4]
	ldr	r2, [r7, #8]
	str	r2, [r3, #4]
	.loc 2 2282 64
	ldr	r3, [r7, #4]
	ldr	r3, [r3, #4]
	.loc 2 2282 72
	bic	r3, r3, #520093696
	bic	r3, r3, #292
	.loc 2 2282 160
	ldr	r2, [r7, #8]
	cmp	r2, r3
	beq	.L379
	.loc 2 2282 160 is_stmt 0 discriminator 1
	ldr	r3, .L382+16
	b	.L380
.L379:
	.loc 2 2282 160 discriminator 2
	movs	r3, #0
.L380:
	.loc 2 2282 24 is_stmt 1 discriminator 4
	str	r3, [r7, #12]
.L376:
	.loc 2 2287 12
	ldr	r3, [r7, #12]
	.loc 2 2288 1
	mov	r0, r3
	adds	r7, r7, #16
.LCFI183:
	.cfi_def_cfa_offset 8
	mov	sp, r7
.LCFI184:
	.cfi_def_cfa_register 13
	@ sp needed
	pop	{r7, pc}
.L383:
	.align	2
.L382:
	.word	12713986
	.word	cy_device
	.word	12713985
	.word	16776704
	.word	12713987
	.cfi_endproc
.LFE174:
	.size	Cy_Prot_ConfigPpuFixedSlSlaveStruct, .-Cy_Prot_ConfigPpuFixedSlSlaveStruct
	.section	.text.Cy_Prot_EnablePpuFixedSlMasterStruct,"ax",%progbits
	.align	1
	.global	Cy_Prot_EnablePpuFixedSlMasterStruct
	.syntax unified
	.thumb
	.thumb_func
	.type	Cy_Prot_EnablePpuFixedSlMasterStruct, %function
Cy_Prot_EnablePpuFixedSlMasterStruct:
.LFB175:
	.loc 2 2319 1
	.cfi_startproc
	@ args = 0, pretend = 0, frame = 16
	@ frame_needed = 1, uses_anonymous_args = 0
	push	{r7, lr}
.LCFI185:
	.cfi_def_cfa_offset 8
	.cfi_offset 7, -8
	.cfi_offset 14, -4
	sub	sp, sp, #16
.LCFI186:
	.cfi_def_cfa_offset 24
	add	r7, sp, #0
.LCFI187:
	.cfi_def_cfa_register 7
	str	r0, [r7, #4]
	.loc 2 2320 25
	ldr	r3, .L392
	str	r3, [r7, #12]
	.loc 2 2322 12
	ldr	r3, [r7, #4]
	cmp	r3, #0
	bne	.L385
	.loc 2 2322 16 discriminator 1
	bl	CY_HALT
.L385:
	.loc 2 2324 38
	ldr	r3, .L392+4
	ldr	r3, [r3]
	ldrb	r3, [r3, #48]	@ zero_extendqisi2
	.loc 2 2324 54
	cmp	r3, #31
	bhi	.L386
	.loc 2 2324 54 is_stmt 0 discriminator 1
	movs	r3, #1
	b	.L387
.L386:
	.loc 2 2324 54 discriminator 2
	movs	r3, #0
.L387:
	.loc 2 2324 8 is_stmt 1 discriminator 4
	cmp	r3, #0
	beq	.L388
	.loc 2 2326 53
	ldr	r3, [r7, #4]
	ldr	r3, [r3, #36]
	orr	r2, r3, #-2147483648
	ldr	r3, [r7, #4]
	str	r2, [r3, #36]
	.loc 2 2327 68
	ldr	r3, [r7, #4]
	ldr	r3, [r3, #36]
	.loc 2 2327 93
	lsrs	r3, r3, #31
	and	r3, r3, #1
	.loc 2 2328 37
	cmp	r3, #1
	beq	.L389
	.loc 2 2328 37 is_stmt 0 discriminator 1
	ldr	r3, .L392+8
	b	.L390
.L389:
	.loc 2 2328 37 discriminator 2
	movs	r3, #0
.L390:
	.loc 2 2327 16 is_stmt 1
	str	r3, [r7, #12]
.L388:
	.loc 2 2331 12
	ldr	r3, [r7, #12]
	.loc 2 2332 1
	mov	r0, r3
	adds	r7, r7, #16
.LCFI188:
	.cfi_def_cfa_offset 8
	mov	sp, r7
.LCFI189:
	.cfi_def_cfa_register 13
	@ sp needed
	pop	{r7, pc}
.L393:
	.align	2
.L392:
	.word	12713986
	.word	cy_device
	.word	12713987
	.cfi_endproc
.LFE175:
	.size	Cy_Prot_EnablePpuFixedSlMasterStruct, .-Cy_Prot_EnablePpuFixedSlMasterStruct
	.section	.text.Cy_Prot_DisablePpuFixedSlMasterStruct,"ax",%progbits
	.align	1
	.global	Cy_Prot_DisablePpuFixedSlMasterStruct
	.syntax unified
	.thumb
	.thumb_func
	.type	Cy_Prot_DisablePpuFixedSlMasterStruct, %function
Cy_Prot_DisablePpuFixedSlMasterStruct:
.LFB176:
	.loc 2 2364 1
	.cfi_startproc
	@ args = 0, pretend = 0, frame = 16
	@ frame_needed = 1, uses_anonymous_args = 0
	push	{r7, lr}
.LCFI190:
	.cfi_def_cfa_offset 8
	.cfi_offset 7, -8
	.cfi_offset 14, -4
	sub	sp, sp, #16
.LCFI191:
	.cfi_def_cfa_offset 24
	add	r7, sp, #0
.LCFI192:
	.cfi_def_cfa_register 7
	str	r0, [r7, #4]
	.loc 2 2365 25
	ldr	r3, .L402
	str	r3, [r7, #12]
	.loc 2 2367 12
	ldr	r3, [r7, #4]
	cmp	r3, #0
	bne	.L395
	.loc 2 2367 16 discriminator 1
	bl	CY_HALT
.L395:
	.loc 2 2369 38
	ldr	r3, .L402+4
	ldr	r3, [r3]
	ldrb	r3, [r3, #48]	@ zero_extendqisi2
	.loc 2 2369 54
	cmp	r3, #31
	bhi	.L396
	.loc 2 2369 54 is_stmt 0 discriminator 1
	movs	r3, #1
	b	.L397
.L396:
	.loc 2 2369 54 discriminator 2
	movs	r3, #0
.L397:
	.loc 2 2369 8 is_stmt 1 discriminator 4
	cmp	r3, #0
	beq	.L398
	.loc 2 2371 53
	ldr	r3, [r7, #4]
	ldr	r3, [r3, #36]
	bic	r2, r3, #-2147483648
	ldr	r3, [r7, #4]
	str	r2, [r3, #36]
	.loc 2 2372 68
	ldr	r3, [r7, #4]
	ldr	r3, [r3, #36]
	.loc 2 2372 93
	lsrs	r3, r3, #31
	and	r3, r3, #1
	.loc 2 2373 37
	cmp	r3, #1
	bne	.L399
	.loc 2 2373 37 is_stmt 0 discriminator 1
	ldr	r3, .L402+8
	b	.L400
.L399:
	.loc 2 2373 37 discriminator 2
	movs	r3, #0
.L400:
	.loc 2 2372 16 is_stmt 1
	str	r3, [r7, #12]
.L398:
	.loc 2 2376 12
	ldr	r3, [r7, #12]
	.loc 2 2377 1
	mov	r0, r3
	adds	r7, r7, #16
.LCFI193:
	.cfi_def_cfa_offset 8
	mov	sp, r7
.LCFI194:
	.cfi_def_cfa_register 13
	@ sp needed
	pop	{r7, pc}
.L403:
	.align	2
.L402:
	.word	12713986
	.word	cy_device
	.word	12713987
	.cfi_endproc
.LFE176:
	.size	Cy_Prot_DisablePpuFixedSlMasterStruct, .-Cy_Prot_DisablePpuFixedSlMasterStruct
	.section	.text.Cy_Prot_EnablePpuFixedSlSlaveStruct,"ax",%progbits
	.align	1
	.global	Cy_Prot_EnablePpuFixedSlSlaveStruct
	.syntax unified
	.thumb
	.thumb_func
	.type	Cy_Prot_EnablePpuFixedSlSlaveStruct, %function
Cy_Prot_EnablePpuFixedSlSlaveStruct:
.LFB177:
	.loc 2 2408 1
	.cfi_startproc
	@ args = 0, pretend = 0, frame = 16
	@ frame_needed = 1, uses_anonymous_args = 0
	push	{r7, lr}
.LCFI195:
	.cfi_def_cfa_offset 8
	.cfi_offset 7, -8
	.cfi_offset 14, -4
	sub	sp, sp, #16
.LCFI196:
	.cfi_def_cfa_offset 24
	add	r7, sp, #0
.LCFI197:
	.cfi_def_cfa_register 7
	str	r0, [r7, #4]
	.loc 2 2409 25
	ldr	r3, .L412
	str	r3, [r7, #12]
	.loc 2 2411 12
	ldr	r3, [r7, #4]
	cmp	r3, #0
	bne	.L405
	.loc 2 2411 16 discriminator 1
	bl	CY_HALT
.L405:
	.loc 2 2413 38
	ldr	r3, .L412+4
	ldr	r3, [r3]
	ldrb	r3, [r3, #48]	@ zero_extendqisi2
	.loc 2 2413 54
	cmp	r3, #31
	bhi	.L406
	.loc 2 2413 54 is_stmt 0 discriminator 1
	movs	r3, #1
	b	.L407
.L406:
	.loc 2 2413 54 discriminator 2
	movs	r3, #0
.L407:
	.loc 2 2413 8 is_stmt 1 discriminator 4
	cmp	r3, #0
	beq	.L408
	.loc 2 2415 53
	ldr	r3, [r7, #4]
	ldr	r3, [r3, #4]
	orr	r2, r3, #-2147483648
	ldr	r3, [r7, #4]
	str	r2, [r3, #4]
	.loc 2 2416 68
	ldr	r3, [r7, #4]
	ldr	r3, [r3, #4]
	.loc 2 2416 93
	lsrs	r3, r3, #31
	and	r3, r3, #1
	.loc 2 2417 37
	cmp	r3, #1
	beq	.L409
	.loc 2 2417 37 is_stmt 0 discriminator 1
	ldr	r3, .L412+8
	b	.L410
.L409:
	.loc 2 2417 37 discriminator 2
	movs	r3, #0
.L410:
	.loc 2 2416 16 is_stmt 1
	str	r3, [r7, #12]
.L408:
	.loc 2 2420 12
	ldr	r3, [r7, #12]
	.loc 2 2421 1
	mov	r0, r3
	adds	r7, r7, #16
.LCFI198:
	.cfi_def_cfa_offset 8
	mov	sp, r7
.LCFI199:
	.cfi_def_cfa_register 13
	@ sp needed
	pop	{r7, pc}
.L413:
	.align	2
.L412:
	.word	12713986
	.word	cy_device
	.word	12713987
	.cfi_endproc
.LFE177:
	.size	Cy_Prot_EnablePpuFixedSlSlaveStruct, .-Cy_Prot_EnablePpuFixedSlSlaveStruct
	.section	.text.Cy_Prot_DisablePpuFixedSlSlaveStruct,"ax",%progbits
	.align	1
	.global	Cy_Prot_DisablePpuFixedSlSlaveStruct
	.syntax unified
	.thumb
	.thumb_func
	.type	Cy_Prot_DisablePpuFixedSlSlaveStruct, %function
Cy_Prot_DisablePpuFixedSlSlaveStruct:
.LFB178:
	.loc 2 2453 1
	.cfi_startproc
	@ args = 0, pretend = 0, frame = 16
	@ frame_needed = 1, uses_anonymous_args = 0
	push	{r7, lr}
.LCFI200:
	.cfi_def_cfa_offset 8
	.cfi_offset 7, -8
	.cfi_offset 14, -4
	sub	sp, sp, #16
.LCFI201:
	.cfi_def_cfa_offset 24
	add	r7, sp, #0
.LCFI202:
	.cfi_def_cfa_register 7
	str	r0, [r7, #4]
	.loc 2 2454 25
	ldr	r3, .L422
	str	r3, [r7, #12]
	.loc 2 2456 12
	ldr	r3, [r7, #4]
	cmp	r3, #0
	bne	.L415
	.loc 2 2456 16 discriminator 1
	bl	CY_HALT
.L415:
	.loc 2 2458 38
	ldr	r3, .L422+4
	ldr	r3, [r3]
	ldrb	r3, [r3, #48]	@ zero_extendqisi2
	.loc 2 2458 54
	cmp	r3, #31
	bhi	.L416
	.loc 2 2458 54 is_stmt 0 discriminator 1
	movs	r3, #1
	b	.L417
.L416:
	.loc 2 2458 54 discriminator 2
	movs	r3, #0
.L417:
	.loc 2 2458 8 is_stmt 1 discriminator 4
	cmp	r3, #0
	beq	.L418
	.loc 2 2460 53
	ldr	r3, [r7, #4]
	ldr	r3, [r3, #4]
	bic	r2, r3, #-2147483648
	ldr	r3, [r7, #4]
	str	r2, [r3, #4]
	.loc 2 2461 68
	ldr	r3, [r7, #4]
	ldr	r3, [r3, #4]
	.loc 2 2461 93
	lsrs	r3, r3, #31
	and	r3, r3, #1
	.loc 2 2462 37
	cmp	r3, #1
	bne	.L419
	.loc 2 2462 37 is_stmt 0 discriminator 1
	ldr	r3, .L422+8
	b	.L420
.L419:
	.loc 2 2462 37 discriminator 2
	movs	r3, #0
.L420:
	.loc 2 2461 16 is_stmt 1
	str	r3, [r7, #12]
.L418:
	.loc 2 2465 12
	ldr	r3, [r7, #12]
	.loc 2 2466 1
	mov	r0, r3
	adds	r7, r7, #16
.LCFI203:
	.cfi_def_cfa_offset 8
	mov	sp, r7
.LCFI204:
	.cfi_def_cfa_register 13
	@ sp needed
	pop	{r7, pc}
.L423:
	.align	2
.L422:
	.word	12713986
	.word	cy_device
	.word	12713987
	.cfi_endproc
.LFE178:
	.size	Cy_Prot_DisablePpuFixedSlSlaveStruct, .-Cy_Prot_DisablePpuFixedSlSlaveStruct
	.section	.text.Cy_Prot_ConfigPpuFixedRgMasterStruct,"ax",%progbits
	.align	1
	.global	Cy_Prot_ConfigPpuFixedRgMasterStruct
	.syntax unified
	.thumb
	.thumb_func
	.type	Cy_Prot_ConfigPpuFixedRgMasterStruct, %function
Cy_Prot_ConfigPpuFixedRgMasterStruct:
.LFB179:
	.loc 2 2507 1
	.cfi_startproc
	@ args = 0, pretend = 0, frame = 16
	@ frame_needed = 1, uses_anonymous_args = 0
	push	{r7, lr}
.LCFI205:
	.cfi_def_cfa_offset 8
	.cfi_offset 7, -8
	.cfi_offset 14, -4
	sub	sp, sp, #16
.LCFI206:
	.cfi_def_cfa_offset 24
	add	r7, sp, #0
.LCFI207:
	.cfi_def_cfa_register 7
	str	r0, [r7, #4]
	str	r1, [r7]
	.loc 2 2508 25
	ldr	r3, .L436
	str	r3, [r7, #12]
	.loc 2 2511 12
	ldr	r3, [r7, #4]
	cmp	r3, #0
	bne	.L425
	.loc 2 2511 16 discriminator 1
	bl	CY_HALT
.L425:
	.loc 2 2512 24
	ldr	r3, [r7]
	ldrb	r3, [r3]	@ zero_extendqisi2
	.loc 2 2512 12
	cmp	r3, #0
	beq	.L426
	.loc 2 2512 79 discriminator 1
	ldr	r3, [r7]
	ldrb	r3, [r3]	@ zero_extendqisi2
	.loc 2 2512 68 discriminator 1
	cmp	r3, #1
	beq	.L426
	.loc 2 2512 127 discriminator 2
	ldr	r3, [r7]
	ldrb	r3, [r3]	@ zero_extendqisi2
	.loc 2 2512 116 discriminator 2
	cmp	r3, #2
	beq	.L426
	.loc 2 2512 175 discriminator 3
	ldr	r3, [r7]
	ldrb	r3, [r3]	@ zero_extendqisi2
	.loc 2 2512 13 discriminator 3
	cmp	r3, #3
	beq	.L426
	.loc 2 2512 218 discriminator 4
	bl	CY_HALT
.L426:
	.loc 2 2513 24
	ldr	r3, [r7]
	ldrb	r3, [r3, #1]	@ zero_extendqisi2
	.loc 2 2513 12
	cmp	r3, #0
	beq	.L427
	.loc 2 2513 79 discriminator 1
	ldr	r3, [r7]
	ldrb	r3, [r3, #1]	@ zero_extendqisi2
	.loc 2 2513 68 discriminator 1
	cmp	r3, #1
	beq	.L427
	.loc 2 2513 127 discriminator 2
	ldr	r3, [r7]
	ldrb	r3, [r3, #1]	@ zero_extendqisi2
	.loc 2 2513 116 discriminator 2
	cmp	r3, #2
	beq	.L427
	.loc 2 2513 175 discriminator 3
	ldr	r3, [r7]
	ldrb	r3, [r3, #1]	@ zero_extendqisi2
	.loc 2 2513 13 discriminator 3
	cmp	r3, #3
	beq	.L427
	.loc 2 2513 218 discriminator 4
	bl	CY_HALT
.L427:
	.loc 2 2515 38
	ldr	r3, .L436+4
	ldr	r3, [r3]
	ldrb	r3, [r3, #48]	@ zero_extendqisi2
	.loc 2 2515 54
	cmp	r3, #31
	bhi	.L428
	.loc 2 2515 54 is_stmt 0 discriminator 1
	movs	r3, #1
	b	.L429
.L428:
	.loc 2 2515 54 discriminator 2
	movs	r3, #0
.L429:
	.loc 2 2515 8 is_stmt 1 discriminator 4
	cmp	r3, #0
	beq	.L430
	.loc 2 2517 29
	ldr	r3, [r7]
	ldrh	r3, [r3, #4]
	.loc 2 2517 38
	bic	r3, r3, #127
	.loc 2 2517 11
	cmp	r3, #0
	beq	.L431
	.loc 2 2520 20
	ldr	r3, .L436+8
	str	r3, [r7, #12]
	b	.L430
.L431:
	.loc 2 2525 39
	ldr	r3, [r7]
	ldrb	r3, [r3]	@ zero_extendqisi2
	.loc 2 2525 56
	and	r2, r3, #7
	.loc 2 2526 55
	ldr	r3, [r7]
	ldrb	r3, [r3, #1]	@ zero_extendqisi2
	.loc 2 2526 27
	lsls	r3, r3, #3
	and	r3, r3, #56
	.loc 2 2526 25
	orrs	r2, r2, r3
	.loc 2 2527 48
	ldr	r3, [r7]
	ldrb	r3, [r3, #2]	@ zero_extendqisi2
	.loc 2 2527 29
	eor	r3, r3, #1
	uxtb	r3, r3
	.loc 2 2527 59
	lsls	r3, r3, #6
	.loc 2 2527 67
	and	r3, r3, #64
	.loc 2 2527 25
	orrs	r2, r2, r3
	.loc 2 2528 46
	ldr	r3, [r7]
	ldrh	r3, [r3, #4]
	.loc 2 2528 56
	lsls	r1, r3, #9
	.loc 2 2528 64
	ldr	r3, .L436+12
	ands	r3, r3, r1
	.loc 2 2528 25
	orrs	r2, r2, r3
	.loc 2 2530 46
	ldr	r3, [r7]
	ldrb	r3, [r3, #3]	@ zero_extendqisi2
	.loc 2 2530 57
	lsls	r3, r3, #30
	.loc 2 2530 66
	and	r3, r3, #1073741824
	.loc 2 2525 20
	orrs	r3, r3, r2
	str	r3, [r7, #8]
	.loc 2 2531 25
	ldr	r3, [r7, #8]
	bic	r3, r3, #520093696
	bic	r3, r3, #292
	.loc 2 2531 16
	ldr	r2, [r7, #8]
	cmp	r2, r3
	beq	.L432
	.loc 2 2534 24
	ldr	r3, .L436+8
	str	r3, [r7, #12]
	b	.L430
.L432:
	.loc 2 2538 61
	ldr	r3, [r7, #4]
	ldr	r2, [r7, #8]
	str	r2, [r3, #36]
	.loc 2 2539 64
	ldr	r3, [r7, #4]
	ldr	r3, [r3, #36]
	.loc 2 2539 72
	bic	r3, r3, #520093696
	bic	r3, r3, #292
	.loc 2 2539 160
	ldr	r2, [r7, #8]
	cmp	r2, r3
	beq	.L433
	.loc 2 2539 160 is_stmt 0 discriminator 1
	ldr	r3, .L436+16
	b	.L434
.L433:
	.loc 2 2539 160 discriminator 2
	movs	r3, #0
.L434:
	.loc 2 2539 24 is_stmt 1 discriminator 4
	str	r3, [r7, #12]
.L430:
	.loc 2 2544 12
	ldr	r3, [r7, #12]
	.loc 2 2545 1
	mov	r0, r3
	adds	r7, r7, #16
.LCFI208:
	.cfi_def_cfa_offset 8
	mov	sp, r7
.LCFI209:
	.cfi_def_cfa_register 13
	@ sp needed
	pop	{r7, pc}
.L437:
	.align	2
.L436:
	.word	12713986
	.word	cy_device
	.word	12713985
	.word	16776704
	.word	12713987
	.cfi_endproc
.LFE179:
	.size	Cy_Prot_ConfigPpuFixedRgMasterStruct, .-Cy_Prot_ConfigPpuFixedRgMasterStruct
	.section	.text.Cy_Prot_ConfigPpuFixedRgSlaveStruct,"ax",%progbits
	.align	1
	.global	Cy_Prot_ConfigPpuFixedRgSlaveStruct
	.syntax unified
	.thumb
	.thumb_func
	.type	Cy_Prot_ConfigPpuFixedRgSlaveStruct, %function
Cy_Prot_ConfigPpuFixedRgSlaveStruct:
.LFB180:
	.loc 2 2588 1
	.cfi_startproc
	@ args = 0, pretend = 0, frame = 16
	@ frame_needed = 1, uses_anonymous_args = 0
	push	{r7, lr}
.LCFI210:
	.cfi_def_cfa_offset 8
	.cfi_offset 7, -8
	.cfi_offset 14, -4
	sub	sp, sp, #16
.LCFI211:
	.cfi_def_cfa_offset 24
	add	r7, sp, #0
.LCFI212:
	.cfi_def_cfa_register 7
	str	r0, [r7, #4]
	str	r1, [r7]
	.loc 2 2589 25
	ldr	r3, .L450
	str	r3, [r7, #12]
	.loc 2 2592 12
	ldr	r3, [r7, #4]
	cmp	r3, #0
	bne	.L439
	.loc 2 2592 16 discriminator 1
	bl	CY_HALT
.L439:
	.loc 2 2593 24
	ldr	r3, [r7]
	ldrb	r3, [r3]	@ zero_extendqisi2
	.loc 2 2593 12
	cmp	r3, #0
	beq	.L440
	.loc 2 2593 79 discriminator 1
	ldr	r3, [r7]
	ldrb	r3, [r3]	@ zero_extendqisi2
	.loc 2 2593 68 discriminator 1
	cmp	r3, #1
	beq	.L440
	.loc 2 2593 127 discriminator 2
	ldr	r3, [r7]
	ldrb	r3, [r3]	@ zero_extendqisi2
	.loc 2 2593 116 discriminator 2
	cmp	r3, #2
	beq	.L440
	.loc 2 2593 175 discriminator 3
	ldr	r3, [r7]
	ldrb	r3, [r3]	@ zero_extendqisi2
	.loc 2 2593 13 discriminator 3
	cmp	r3, #3
	beq	.L440
	.loc 2 2593 218 discriminator 4
	bl	CY_HALT
.L440:
	.loc 2 2594 24
	ldr	r3, [r7]
	ldrb	r3, [r3, #1]	@ zero_extendqisi2
	.loc 2 2594 12
	cmp	r3, #0
	beq	.L441
	.loc 2 2594 79 discriminator 1
	ldr	r3, [r7]
	ldrb	r3, [r3, #1]	@ zero_extendqisi2
	.loc 2 2594 68 discriminator 1
	cmp	r3, #1
	beq	.L441
	.loc 2 2594 127 discriminator 2
	ldr	r3, [r7]
	ldrb	r3, [r3, #1]	@ zero_extendqisi2
	.loc 2 2594 116 discriminator 2
	cmp	r3, #2
	beq	.L441
	.loc 2 2594 175 discriminator 3
	ldr	r3, [r7]
	ldrb	r3, [r3, #1]	@ zero_extendqisi2
	.loc 2 2594 13 discriminator 3
	cmp	r3, #3
	beq	.L441
	.loc 2 2594 218 discriminator 4
	bl	CY_HALT
.L441:
	.loc 2 2596 38
	ldr	r3, .L450+4
	ldr	r3, [r3]
	ldrb	r3, [r3, #48]	@ zero_extendqisi2
	.loc 2 2596 54
	cmp	r3, #31
	bhi	.L442
	.loc 2 2596 54 is_stmt 0 discriminator 1
	movs	r3, #1
	b	.L443
.L442:
	.loc 2 2596 54 discriminator 2
	movs	r3, #0
.L443:
	.loc 2 2596 8 is_stmt 1 discriminator 4
	cmp	r3, #0
	beq	.L444
	.loc 2 2598 29
	ldr	r3, [r7]
	ldrh	r3, [r3, #4]
	.loc 2 2598 38
	bic	r3, r3, #127
	.loc 2 2598 11
	cmp	r3, #0
	beq	.L445
	.loc 2 2601 20
	ldr	r3, .L450+8
	str	r3, [r7, #12]
	b	.L444
.L445:
	.loc 2 2606 39
	ldr	r3, [r7]
	ldrb	r3, [r3]	@ zero_extendqisi2
	.loc 2 2606 56
	and	r2, r3, #7
	.loc 2 2607 55
	ldr	r3, [r7]
	ldrb	r3, [r3, #1]	@ zero_extendqisi2
	.loc 2 2607 27
	lsls	r3, r3, #3
	and	r3, r3, #56
	.loc 2 2607 25
	orrs	r2, r2, r3
	.loc 2 2608 48
	ldr	r3, [r7]
	ldrb	r3, [r3, #2]	@ zero_extendqisi2
	.loc 2 2608 29
	eor	r3, r3, #1
	uxtb	r3, r3
	.loc 2 2608 59
	lsls	r3, r3, #6
	.loc 2 2608 67
	and	r3, r3, #64
	.loc 2 2608 25
	orrs	r2, r2, r3
	.loc 2 2609 46
	ldr	r3, [r7]
	ldrh	r3, [r3, #4]
	.loc 2 2609 56
	lsls	r1, r3, #9
	.loc 2 2609 64
	ldr	r3, .L450+12
	ands	r3, r3, r1
	.loc 2 2609 25
	orrs	r2, r2, r3
	.loc 2 2611 46
	ldr	r3, [r7]
	ldrb	r3, [r3, #3]	@ zero_extendqisi2
	.loc 2 2611 57
	lsls	r3, r3, #30
	.loc 2 2611 66
	and	r3, r3, #1073741824
	.loc 2 2606 20
	orrs	r3, r3, r2
	str	r3, [r7, #8]
	.loc 2 2612 25
	ldr	r3, [r7, #8]
	bic	r3, r3, #520093696
	bic	r3, r3, #292
	.loc 2 2612 16
	ldr	r2, [r7, #8]
	cmp	r2, r3
	beq	.L446
	.loc 2 2615 24
	ldr	r3, .L450+8
	str	r3, [r7, #12]
	b	.L444
.L446:
	.loc 2 2619 61
	ldr	r3, [r7, #4]
	ldr	r2, [r7, #8]
	str	r2, [r3, #4]
	.loc 2 2620 64
	ldr	r3, [r7, #4]
	ldr	r3, [r3, #4]
	.loc 2 2620 72
	bic	r3, r3, #520093696
	bic	r3, r3, #292
	.loc 2 2620 160
	ldr	r2, [r7, #8]
	cmp	r2, r3
	beq	.L447
	.loc 2 2620 160 is_stmt 0 discriminator 1
	ldr	r3, .L450+16
	b	.L448
.L447:
	.loc 2 2620 160 discriminator 2
	movs	r3, #0
.L448:
	.loc 2 2620 24 is_stmt 1 discriminator 4
	str	r3, [r7, #12]
.L444:
	.loc 2 2625 12
	ldr	r3, [r7, #12]
	.loc 2 2626 1
	mov	r0, r3
	adds	r7, r7, #16
.LCFI213:
	.cfi_def_cfa_offset 8
	mov	sp, r7
.LCFI214:
	.cfi_def_cfa_register 13
	@ sp needed
	pop	{r7, pc}
.L451:
	.align	2
.L450:
	.word	12713986
	.word	cy_device
	.word	12713985
	.word	16776704
	.word	12713987
	.cfi_endproc
.LFE180:
	.size	Cy_Prot_ConfigPpuFixedRgSlaveStruct, .-Cy_Prot_ConfigPpuFixedRgSlaveStruct
	.section	.text.Cy_Prot_EnablePpuFixedRgMasterStruct,"ax",%progbits
	.align	1
	.global	Cy_Prot_EnablePpuFixedRgMasterStruct
	.syntax unified
	.thumb
	.thumb_func
	.type	Cy_Prot_EnablePpuFixedRgMasterStruct, %function
Cy_Prot_EnablePpuFixedRgMasterStruct:
.LFB181:
	.loc 2 2657 1
	.cfi_startproc
	@ args = 0, pretend = 0, frame = 16
	@ frame_needed = 1, uses_anonymous_args = 0
	@ link register save eliminated.
	push	{r7}
.LCFI215:
	.cfi_def_cfa_offset 4
	.cfi_offset 7, -4
	sub	sp, sp, #20
.LCFI216:
	.cfi_def_cfa_offset 24
	add	r7, sp, #0
.LCFI217:
	.cfi_def_cfa_register 7
	str	r0, [r7, #4]
	.loc 2 2658 25
	ldr	r3, .L459
	str	r3, [r7, #12]
	.loc 2 2660 38
	ldr	r3, .L459+4
	ldr	r3, [r3]
	ldrb	r3, [r3, #48]	@ zero_extendqisi2
	.loc 2 2660 54
	cmp	r3, #31
	bhi	.L453
	.loc 2 2660 54 is_stmt 0 discriminator 1
	movs	r3, #1
	b	.L454
.L453:
	.loc 2 2660 54 discriminator 2
	movs	r3, #0
.L454:
	.loc 2 2660 8 is_stmt 1 discriminator 4
	cmp	r3, #0
	beq	.L455
	.loc 2 2662 53
	ldr	r3, [r7, #4]
	ldr	r3, [r3, #36]
	orr	r2, r3, #-2147483648
	ldr	r3, [r7, #4]
	str	r2, [r3, #36]
	.loc 2 2663 68
	ldr	r3, [r7, #4]
	ldr	r3, [r3, #36]
	.loc 2 2663 93
	lsrs	r3, r3, #31
	and	r3, r3, #1
	.loc 2 2664 37
	cmp	r3, #1
	beq	.L456
	.loc 2 2664 37 is_stmt 0 discriminator 1
	ldr	r3, .L459+8
	b	.L457
.L456:
	.loc 2 2664 37 discriminator 2
	movs	r3, #0
.L457:
	.loc 2 2663 16 is_stmt 1
	str	r3, [r7, #12]
.L455:
	.loc 2 2667 12
	ldr	r3, [r7, #12]
	.loc 2 2668 1
	mov	r0, r3
	adds	r7, r7, #20
.LCFI218:
	.cfi_def_cfa_offset 4
	mov	sp, r7
.LCFI219:
	.cfi_def_cfa_register 13
	@ sp needed
	ldr	r7, [sp], #4
.LCFI220:
	.cfi_restore 7
	.cfi_def_cfa_offset 0
	bx	lr
.L460:
	.align	2
.L459:
	.word	12713986
	.word	cy_device
	.word	12713987
	.cfi_endproc
.LFE181:
	.size	Cy_Prot_EnablePpuFixedRgMasterStruct, .-Cy_Prot_EnablePpuFixedRgMasterStruct
	.section	.text.Cy_Prot_DisablePpuFixedRgMasterStruct,"ax",%progbits
	.align	1
	.global	Cy_Prot_DisablePpuFixedRgMasterStruct
	.syntax unified
	.thumb
	.thumb_func
	.type	Cy_Prot_DisablePpuFixedRgMasterStruct, %function
Cy_Prot_DisablePpuFixedRgMasterStruct:
.LFB182:
	.loc 2 2700 1
	.cfi_startproc
	@ args = 0, pretend = 0, frame = 16
	@ frame_needed = 1, uses_anonymous_args = 0
	@ link register save eliminated.
	push	{r7}
.LCFI221:
	.cfi_def_cfa_offset 4
	.cfi_offset 7, -4
	sub	sp, sp, #20
.LCFI222:
	.cfi_def_cfa_offset 24
	add	r7, sp, #0
.LCFI223:
	.cfi_def_cfa_register 7
	str	r0, [r7, #4]
	.loc 2 2701 25
	ldr	r3, .L468
	str	r3, [r7, #12]
	.loc 2 2703 38
	ldr	r3, .L468+4
	ldr	r3, [r3]
	ldrb	r3, [r3, #48]	@ zero_extendqisi2
	.loc 2 2703 54
	cmp	r3, #31
	bhi	.L462
	.loc 2 2703 54 is_stmt 0 discriminator 1
	movs	r3, #1
	b	.L463
.L462:
	.loc 2 2703 54 discriminator 2
	movs	r3, #0
.L463:
	.loc 2 2703 8 is_stmt 1 discriminator 4
	cmp	r3, #0
	beq	.L464
	.loc 2 2705 53
	ldr	r3, [r7, #4]
	ldr	r3, [r3, #36]
	bic	r2, r3, #-2147483648
	ldr	r3, [r7, #4]
	str	r2, [r3, #36]
	.loc 2 2706 68
	ldr	r3, [r7, #4]
	ldr	r3, [r3, #36]
	.loc 2 2706 93
	lsrs	r3, r3, #31
	and	r3, r3, #1
	.loc 2 2707 37
	cmp	r3, #1
	bne	.L465
	.loc 2 2707 37 is_stmt 0 discriminator 1
	ldr	r3, .L468+8
	b	.L466
.L465:
	.loc 2 2707 37 discriminator 2
	movs	r3, #0
.L466:
	.loc 2 2706 16 is_stmt 1
	str	r3, [r7, #12]
.L464:
	.loc 2 2710 12
	ldr	r3, [r7, #12]
	.loc 2 2711 1
	mov	r0, r3
	adds	r7, r7, #20
.LCFI224:
	.cfi_def_cfa_offset 4
	mov	sp, r7
.LCFI225:
	.cfi_def_cfa_register 13
	@ sp needed
	ldr	r7, [sp], #4
.LCFI226:
	.cfi_restore 7
	.cfi_def_cfa_offset 0
	bx	lr
.L469:
	.align	2
.L468:
	.word	12713986
	.word	cy_device
	.word	12713987
	.cfi_endproc
.LFE182:
	.size	Cy_Prot_DisablePpuFixedRgMasterStruct, .-Cy_Prot_DisablePpuFixedRgMasterStruct
	.section	.text.Cy_Prot_EnablePpuFixedRgSlaveStruct,"ax",%progbits
	.align	1
	.global	Cy_Prot_EnablePpuFixedRgSlaveStruct
	.syntax unified
	.thumb
	.thumb_func
	.type	Cy_Prot_EnablePpuFixedRgSlaveStruct, %function
Cy_Prot_EnablePpuFixedRgSlaveStruct:
.LFB183:
	.loc 2 2742 1
	.cfi_startproc
	@ args = 0, pretend = 0, frame = 16
	@ frame_needed = 1, uses_anonymous_args = 0
	@ link register save eliminated.
	push	{r7}
.LCFI227:
	.cfi_def_cfa_offset 4
	.cfi_offset 7, -4
	sub	sp, sp, #20
.LCFI228:
	.cfi_def_cfa_offset 24
	add	r7, sp, #0
.LCFI229:
	.cfi_def_cfa_register 7
	str	r0, [r7, #4]
	.loc 2 2743 25
	ldr	r3, .L477
	str	r3, [r7, #12]
	.loc 2 2745 38
	ldr	r3, .L477+4
	ldr	r3, [r3]
	ldrb	r3, [r3, #48]	@ zero_extendqisi2
	.loc 2 2745 54
	cmp	r3, #31
	bhi	.L471
	.loc 2 2745 54 is_stmt 0 discriminator 1
	movs	r3, #1
	b	.L472
.L471:
	.loc 2 2745 54 discriminator 2
	movs	r3, #0
.L472:
	.loc 2 2745 8 is_stmt 1 discriminator 4
	cmp	r3, #0
	beq	.L473
	.loc 2 2747 53
	ldr	r3, [r7, #4]
	ldr	r3, [r3, #4]
	orr	r2, r3, #-2147483648
	ldr	r3, [r7, #4]
	str	r2, [r3, #4]
	.loc 2 2748 68
	ldr	r3, [r7, #4]
	ldr	r3, [r3, #4]
	.loc 2 2748 93
	lsrs	r3, r3, #31
	and	r3, r3, #1
	.loc 2 2749 37
	cmp	r3, #1
	beq	.L474
	.loc 2 2749 37 is_stmt 0 discriminator 1
	ldr	r3, .L477+8
	b	.L475
.L474:
	.loc 2 2749 37 discriminator 2
	movs	r3, #0
.L475:
	.loc 2 2748 16 is_stmt 1
	str	r3, [r7, #12]
.L473:
	.loc 2 2752 12
	ldr	r3, [r7, #12]
	.loc 2 2753 1
	mov	r0, r3
	adds	r7, r7, #20
.LCFI230:
	.cfi_def_cfa_offset 4
	mov	sp, r7
.LCFI231:
	.cfi_def_cfa_register 13
	@ sp needed
	ldr	r7, [sp], #4
.LCFI232:
	.cfi_restore 7
	.cfi_def_cfa_offset 0
	bx	lr
.L478:
	.align	2
.L477:
	.word	12713986
	.word	cy_device
	.word	12713987
	.cfi_endproc
.LFE183:
	.size	Cy_Prot_EnablePpuFixedRgSlaveStruct, .-Cy_Prot_EnablePpuFixedRgSlaveStruct
	.section	.text.Cy_Prot_DisablePpuFixedRgSlaveStruct,"ax",%progbits
	.align	1
	.global	Cy_Prot_DisablePpuFixedRgSlaveStruct
	.syntax unified
	.thumb
	.thumb_func
	.type	Cy_Prot_DisablePpuFixedRgSlaveStruct, %function
Cy_Prot_DisablePpuFixedRgSlaveStruct:
.LFB184:
	.loc 2 2785 1
	.cfi_startproc
	@ args = 0, pretend = 0, frame = 16
	@ frame_needed = 1, uses_anonymous_args = 0
	@ link register save eliminated.
	push	{r7}
.LCFI233:
	.cfi_def_cfa_offset 4
	.cfi_offset 7, -4
	sub	sp, sp, #20
.LCFI234:
	.cfi_def_cfa_offset 24
	add	r7, sp, #0
.LCFI235:
	.cfi_def_cfa_register 7
	str	r0, [r7, #4]
	.loc 2 2786 25
	ldr	r3, .L486
	str	r3, [r7, #12]
	.loc 2 2788 38
	ldr	r3, .L486+4
	ldr	r3, [r3]
	ldrb	r3, [r3, #48]	@ zero_extendqisi2
	.loc 2 2788 54
	cmp	r3, #31
	bhi	.L480
	.loc 2 2788 54 is_stmt 0 discriminator 1
	movs	r3, #1
	b	.L481
.L480:
	.loc 2 2788 54 discriminator 2
	movs	r3, #0
.L481:
	.loc 2 2788 8 is_stmt 1 discriminator 4
	cmp	r3, #0
	beq	.L482
	.loc 2 2790 53
	ldr	r3, [r7, #4]
	ldr	r3, [r3, #4]
	bic	r2, r3, #-2147483648
	ldr	r3, [r7, #4]
	str	r2, [r3, #4]
	.loc 2 2791 68
	ldr	r3, [r7, #4]
	ldr	r3, [r3, #4]
	.loc 2 2791 93
	lsrs	r3, r3, #31
	and	r3, r3, #1
	.loc 2 2792 37
	cmp	r3, #1
	bne	.L483
	.loc 2 2792 37 is_stmt 0 discriminator 1
	ldr	r3, .L486+8
	b	.L484
.L483:
	.loc 2 2792 37 discriminator 2
	movs	r3, #0
.L484:
	.loc 2 2791 16 is_stmt 1
	str	r3, [r7, #12]
.L482:
	.loc 2 2795 12
	ldr	r3, [r7, #12]
	.loc 2 2796 1
	mov	r0, r3
	adds	r7, r7, #20
.LCFI236:
	.cfi_def_cfa_offset 4
	mov	sp, r7
.LCFI237:
	.cfi_def_cfa_register 13
	@ sp needed
	ldr	r7, [sp], #4
.LCFI238:
	.cfi_restore 7
	.cfi_def_cfa_offset 0
	bx	lr
.L487:
	.align	2
.L486:
	.word	12713986
	.word	cy_device
	.word	12713987
	.cfi_endproc
.LFE184:
	.size	Cy_Prot_DisablePpuFixedRgSlaveStruct, .-Cy_Prot_DisablePpuFixedRgSlaveStruct
	.section	.text.Prot_IsSmpuStructDisabled,"ax",%progbits
	.align	1
	.syntax unified
	.thumb
	.thumb_func
	.type	Prot_IsSmpuStructDisabled, %function
Prot_IsSmpuStructDisabled:
.LFB185:
	.loc 2 2817 1
	.cfi_startproc
	@ args = 0, pretend = 0, frame = 8
	@ frame_needed = 1, uses_anonymous_args = 0
	@ link register save eliminated.
	push	{r7}
.LCFI239:
	.cfi_def_cfa_offset 4
	.cfi_offset 7, -4
	sub	sp, sp, #12
.LCFI240:
	.cfi_def_cfa_offset 16
	add	r7, sp, #0
.LCFI241:
	.cfi_def_cfa_register 7
	str	r0, [r7, #4]
	.loc 2 2818 49
	ldr	r3, .L492
	ldr	r3, [r3]
	ldr	r3, [r3, #16]
	.loc 2 2818 20
	mov	r2, r3
	.loc 2 2818 90
	ldr	r3, [r7, #4]
	adds	r3, r3, #128
	lsls	r3, r3, #6
	add	r3, r3, r2
	adds	r3, r3, #4
	ldr	r3, [r3]
	.loc 2 2818 125
	cmp	r3, #0
	blt	.L489
	.loc 2 2819 49 discriminator 1
	ldr	r3, .L492
	ldr	r3, [r3]
	ldr	r3, [r3, #16]
	.loc 2 2819 20 discriminator 1
	mov	r2, r3
	.loc 2 2819 90 discriminator 1
	ldr	r3, [r7, #4]
	lsls	r3, r3, #6
	add	r3, r3, r2
	add	r3, r3, #8192
	adds	r3, r3, #36
	ldr	r3, [r3]
	.loc 2 2818 125 discriminator 1
	cmp	r3, #0
	blt	.L489
	.loc 2 2818 125 is_stmt 0 discriminator 3
	movs	r3, #1
	b	.L490
.L489:
	.loc 2 2818 125 discriminator 4
	movs	r3, #0
.L490:
	.loc 2 2818 125 discriminator 6
	and	r3, r3, #1
	uxtb	r3, r3
	.loc 2 2820 1 is_stmt 1 discriminator 6
	mov	r0, r3
	adds	r7, r7, #12
.LCFI242:
	.cfi_def_cfa_offset 4
	mov	sp, r7
.LCFI243:
	.cfi_def_cfa_register 13
	@ sp needed
	ldr	r7, [sp], #4
.LCFI244:
	.cfi_restore 7
	.cfi_def_cfa_offset 0
	bx	lr
.L493:
	.align	2
.L492:
	.word	cy_device
	.cfi_endproc
.LFE185:
	.size	Prot_IsSmpuStructDisabled, .-Prot_IsSmpuStructDisabled
	.section	.text.Prot_IsPpuProgStructDisabled,"ax",%progbits
	.align	1
	.syntax unified
	.thumb
	.thumb_func
	.type	Prot_IsPpuProgStructDisabled, %function
Prot_IsPpuProgStructDisabled:
.LFB186:
	.loc 2 2840 1
	.cfi_startproc
	@ args = 0, pretend = 0, frame = 8
	@ frame_needed = 1, uses_anonymous_args = 0
	@ link register save eliminated.
	push	{r7}
.LCFI245:
	.cfi_def_cfa_offset 4
	.cfi_offset 7, -4
	sub	sp, sp, #12
.LCFI246:
	.cfi_def_cfa_offset 16
	add	r7, sp, #0
.LCFI247:
	.cfi_def_cfa_register 7
	str	r0, [r7, #4]
	.loc 2 2841 47
	ldr	r3, .L498
	ldr	r3, [r3]
	ldr	r3, [r3, #8]
	.loc 2 2841 21
	mov	r2, r3
	.loc 2 2841 82
	ldr	r3, [r7, #4]
	add	r3, r3, #256
	lsls	r3, r3, #6
	add	r3, r3, r2
	adds	r3, r3, #4
	ldr	r3, [r3]
	.loc 2 2841 117
	cmp	r3, #0
	blt	.L495
	.loc 2 2842 47 discriminator 1
	ldr	r3, .L498
	ldr	r3, [r3]
	ldr	r3, [r3, #8]
	.loc 2 2842 21 discriminator 1
	mov	r2, r3
	.loc 2 2842 82 discriminator 1
	ldr	r3, [r7, #4]
	lsls	r3, r3, #6
	add	r3, r3, r2
	add	r3, r3, #16384
	adds	r3, r3, #36
	ldr	r3, [r3]
	.loc 2 2841 117 discriminator 1
	cmp	r3, #0
	blt	.L495
	.loc 2 2841 117 is_stmt 0 discriminator 3
	movs	r3, #1
	b	.L496
.L495:
	.loc 2 2841 117 discriminator 4
	movs	r3, #0
.L496:
	.loc 2 2841 117 discriminator 6
	and	r3, r3, #1
	uxtb	r3, r3
	.loc 2 2843 1 is_stmt 1 discriminator 6
	mov	r0, r3
	adds	r7, r7, #12
.LCFI248:
	.cfi_def_cfa_offset 4
	mov	sp, r7
.LCFI249:
	.cfi_def_cfa_register 13
	@ sp needed
	ldr	r7, [sp], #4
.LCFI250:
	.cfi_restore 7
	.cfi_def_cfa_offset 0
	bx	lr
.L499:
	.align	2
.L498:
	.word	cy_device
	.cfi_endproc
.LFE186:
	.size	Prot_IsPpuProgStructDisabled, .-Prot_IsPpuProgStructDisabled
	.text
.Letext0:
	.file 3 "d:\\llc\\softwares\\env-windows-v1.3.5\\tools\\gnu_gcc\\arm_gcc\\mingw\\arm-none-eabi\\include\\machine\\_default_types.h"
	.file 4 "d:\\llc\\softwares\\env-windows-v1.3.5\\tools\\gnu_gcc\\arm_gcc\\mingw\\arm-none-eabi\\include\\sys\\_stdint.h"
	.file 5 "libraries\\IFX_PSOC6_HAL\\mtb-pdl-cat1\\devices\\COMPONENT_CAT1A\\include/ip/cyip_peri.h"
	.file 6 "libraries\\IFX_PSOC6_HAL\\mtb-pdl-cat1\\devices\\COMPONENT_CAT1A\\include/ip/cyip_peri_ms_v2.h"
	.file 7 "libraries\\IFX_PSOC6_HAL\\mtb-pdl-cat1\\devices\\COMPONENT_CAT1A\\include/ip/cyip_prot_v2.h"
	.file 8 "libraries\\IFX_PSOC6_HAL\\mtb-pdl-cat1\\devices\\COMPONENT_CAT1A\\include/psoc6_02_config.h"
	.file 9 "libraries\\IFX_PSOC6_HAL\\mtb-pdl-cat1\\devices\\COMPONENT_CAT1A\\include/cy_device.h"
	.file 10 "libraries\\IFX_PSOC6_HAL\\mtb-pdl-cat1\\drivers\\include/cy_prot.h"