	.cpu cortex-m4
	.arch armv7e-m
	.fpu fpv4-sp-d16
	.eabi_attribute 27, 1
	.eabi_attribute 28, 1
	.eabi_attribute 20, 1
	.eabi_attribute 21, 1
	.eabi_attribute 23, 3
	.eabi_attribute 24, 1
	.eabi_attribute 25, 1
	.eabi_attribute 26, 1
	.eabi_attribute 30, 6
	.eabi_attribute 34, 1
	.eabi_attribute 18, 4
	.file	"cy_sysint.c"
	.text
.Ltext0:
	.cfi_sections	.debug_frame
	.section	.text.__NVIC_SetPriority,"ax",%progbits
	.align	1
	.syntax unified
	.thumb
	.thumb_func
	.type	__NVIC_SetPriority, %function
__NVIC_SetPriority:
.LFB114:
	.file 1 "libraries\\IFX_PSOC6_HAL\\mtb-pdl-cat1\\cmsis\\include/core_cm4.h"
	.loc 1 1815 1
	.cfi_startproc
	@ args = 0, pretend = 0, frame = 8
	@ frame_needed = 1, uses_anonymous_args = 0
	@ link register save eliminated.
	push	{r7}
.LCFI0:
	.cfi_def_cfa_offset 4
	.cfi_offset 7, -4
	sub	sp, sp, #12
.LCFI1:
	.cfi_def_cfa_offset 16
	add	r7, sp, #0
.LCFI2:
	.cfi_def_cfa_register 7
	mov	r3, r0
	str	r1, [r7]
	strh	r3, [r7, #6]	@ movhi
	.loc 1 1816 6
	ldrsh	r3, [r7, #6]
	cmp	r3, #0
	blt	.L2
	.loc 1 1818 74
	ldr	r3, [r7]
	uxtb	r2, r3
	.loc 1 1818 49
	ldr	r1, .L5
	.loc 1 1818 55
	ldrsh	r3, [r7, #6]
	.loc 1 1818 74
	lsls	r2, r2, #5
	uxtb	r2, r2
	.loc 1 1818 72
	add	r3, r3, r1
	strb	r2, [r3, #768]
	.loc 1 1824 1
	b	.L4
.L2:
	.loc 1 1822 88
	ldr	r3, [r7]
	uxtb	r2, r3
	.loc 1 1822 48
	ldr	r1, .L5+4
	.loc 1 1822 72
	ldrh	r3, [r7, #6]
	and	r3, r3, #15
	.loc 1 1822 80
	subs	r3, r3, #4
	.loc 1 1822 88
	lsls	r2, r2, #5
	uxtb	r2, r2
	.loc 1 1822 86
	add	r3, r3, r1
	strb	r2, [r3, #24]
.L4:
	.loc 1 1824 1
	nop
	adds	r7, r7, #12
.LCFI3:
	.cfi_def_cfa_offset 4
	mov	sp, r7
.LCFI4:
	.cfi_def_cfa_register 13
	@ sp needed
	ldr	r7, [sp], #4
.LCFI5:
	.cfi_restore 7
	.cfi_def_cfa_offset 0
	bx	lr
.L6:
	.align	2
.L5:
	.word	-536813312
	.word	-536810240
	.cfi_endproc
.LFE114:
	.size	__NVIC_SetPriority, .-__NVIC_SetPriority
	.section	.text.CY_HALT,"ax",%progbits
	.align	1
	.syntax unified
	.thumb
	.thumb_func
	.type	CY_HALT, %function
CY_HALT:
.LFB133:
	.file 2 "libraries\\IFX_PSOC6_HAL\\core-lib\\include/cy_utils.h"
	.loc 2 49 1
	.cfi_startproc
	@ args = 0, pretend = 0, frame = 0
	@ frame_needed = 1, uses_anonymous_args = 0
	@ link register save eliminated.
	push	{r7}
.LCFI6:
	.cfi_def_cfa_offset 4
	.cfi_offset 7, -4
	add	r7, sp, #0
.LCFI7:
	.cfi_def_cfa_register 7
	.loc 2 50 5
	.syntax unified
@ 50 "libraries\IFX_PSOC6_HAL\core-lib\include/cy_utils.h" 1
	    bkpt    1
@ 0 "" 2
	.loc 2 51 1
	.thumb
	.syntax unified
	nop
	mov	sp, r7
.LCFI8:
	.cfi_def_cfa_register 13
	@ sp needed
	ldr	r7, [sp], #4
.LCFI9:
	.cfi_restore 7
	.cfi_def_cfa_offset 0
	bx	lr
	.cfi_endproc
.LFE133:
	.size	CY_HALT, .-CY_HALT
	.section	.text.Cy_SysInt_SetNmiSource,"ax",%progbits
	.align	1
	.global	Cy_SysInt_SetNmiSource
	.syntax unified
	.thumb
	.thumb_func
	.type	Cy_SysInt_SetNmiSource, %function
Cy_SysInt_SetNmiSource:
.LFB137:
	.file 3 "libraries\\IFX_PSOC6_HAL\\mtb-pdl-cat1\\drivers\\source\\cy_sysint.c"
	.loc 3 46 1
	.cfi_startproc
	@ args = 0, pretend = 0, frame = 8
	@ frame_needed = 1, uses_anonymous_args = 0
	push	{r7, lr}
.LCFI10:
	.cfi_def_cfa_offset 8
	.cfi_offset 7, -8
	.cfi_offset 14, -4
	sub	sp, sp, #8
.LCFI11:
	.cfi_def_cfa_offset 16
	add	r7, sp, #0
.LCFI12:
	.cfi_def_cfa_register 7
	mov	r3, r0
	mov	r2, r1
	strb	r3, [r7, #7]
	mov	r3, r2	@ movhi
	strh	r3, [r7, #4]	@ movhi
	.loc 3 47 12
	ldrb	r3, [r7, #7]	@ zero_extendqisi2
	cmp	r3, #1
	beq	.L9
	.loc 3 47 45 discriminator 1
	ldrb	r3, [r7, #7]	@ zero_extendqisi2
	cmp	r3, #2
	beq	.L9
	.loc 3 47 77 discriminator 2
	ldrb	r3, [r7, #7]	@ zero_extendqisi2
	cmp	r3, #3
	beq	.L9
	.loc 3 47 13 discriminator 3
	ldrb	r3, [r7, #7]	@ zero_extendqisi2
	cmp	r3, #4
	beq	.L9
	.loc 3 47 146 discriminator 4
	bl	CY_HALT
.L9:
	.loc 3 54 27
	ldr	r3, .L11
	ldr	r3, [r3]
	ldrb	r3, [r3, #44]	@ zero_extendqisi2
	.loc 3 54 8
	cmp	r3, #31
	bhi	.L10
	.loc 3 56 16
	movs	r3, #1
	strb	r3, [r7, #7]
.L10:
	.loc 3 63 92
	ldrb	r3, [r7, #7]	@ zero_extendqisi2
	.loc 3 63 90
	lsls	r2, r3, #2
	.loc 3 63 43
	ldr	r3, .L11
	ldr	r3, [r3]
	ldr	r3, [r3]
	.loc 3 63 66
	ldr	r1, .L11
	ldr	r1, [r1]
	ldrh	r1, [r1, #170]
	.loc 3 63 55
	add	r3, r3, r1
	.loc 3 63 90
	add	r3, r3, r2
	subs	r3, r3, #4
	mov	r2, r3
	.loc 3 63 120
	ldrsh	r3, [r7, #4]
	.loc 3 63 118
	str	r3, [r2]
	.loc 3 74 1
	nop
	adds	r7, r7, #8
.LCFI13:
	.cfi_def_cfa_offset 8
	mov	sp, r7
.LCFI14:
	.cfi_def_cfa_register 13
	@ sp needed
	pop	{r7, pc}
.L12:
	.align	2
.L11:
	.word	cy_device
	.cfi_endproc
.LFE137:
	.size	Cy_SysInt_SetNmiSource, .-Cy_SysInt_SetNmiSource
	.section	.text.Cy_SysInt_GetNmiSource,"ax",%progbits
	.align	1
	.global	Cy_SysInt_GetNmiSource
	.syntax unified
	.thumb
	.thumb_func
	.type	Cy_SysInt_GetNmiSource, %function
Cy_SysInt_GetNmiSource:
.LFB138:
	.loc 3 81 1
	.cfi_startproc
	@ args = 0, pretend = 0, frame = 8
	@ frame_needed = 1, uses_anonymous_args = 0
	push	{r7, lr}
.LCFI15:
	.cfi_def_cfa_offset 8
	.cfi_offset 7, -8
	.cfi_offset 14, -4
	sub	sp, sp, #8
.LCFI16:
	.cfi_def_cfa_offset 16
	add	r7, sp, #0
.LCFI17:
	.cfi_def_cfa_register 7
	mov	r3, r0
	strb	r3, [r7, #7]
	.loc 3 82 12
	ldrb	r3, [r7, #7]	@ zero_extendqisi2
	cmp	r3, #1
	beq	.L14
	.loc 3 82 45 discriminator 1
	ldrb	r3, [r7, #7]	@ zero_extendqisi2
	cmp	r3, #2
	beq	.L14
	.loc 3 82 77 discriminator 2
	ldrb	r3, [r7, #7]	@ zero_extendqisi2
	cmp	r3, #3
	beq	.L14
	.loc 3 82 13 discriminator 3
	ldrb	r3, [r7, #7]	@ zero_extendqisi2
	cmp	r3, #4
	beq	.L14
	.loc 3 82 146 discriminator 4
	bl	CY_HALT
.L14:
	.loc 3 94 108
	ldrb	r3, [r7, #7]	@ zero_extendqisi2
	.loc 3 94 106
	lsls	r2, r3, #2
	.loc 3 94 59
	ldr	r3, .L16
	ldr	r3, [r3]
	ldr	r3, [r3]
	.loc 3 94 82
	ldr	r1, .L16
	ldr	r1, [r1]
	ldrh	r1, [r1, #170]
	.loc 3 94 71
	add	r3, r3, r1
	.loc 3 94 106
	add	r3, r3, r2
	subs	r3, r3, #4
	ldr	r3, [r3]
	.loc 3 94 13
	sxth	r3, r3
	.loc 3 105 1
	mov	r0, r3
	adds	r7, r7, #8
.LCFI18:
	.cfi_def_cfa_offset 8
	mov	sp, r7
.LCFI19:
	.cfi_def_cfa_register 13
	@ sp needed
	pop	{r7, pc}
.L17:
	.align	2
.L16:
	.word	cy_device
	.cfi_endproc
.LFE138:
	.size	Cy_SysInt_GetNmiSource, .-Cy_SysInt_GetNmiSource
	.section	.text.Cy_SysInt_Init,"ax",%progbits
	.align	1
	.global	Cy_SysInt_Init
	.syntax unified
	.thumb
	.thumb_func
	.type	Cy_SysInt_Init, %function
Cy_SysInt_Init:
.LFB139:
	.loc 3 110 1
	.cfi_startproc
	@ args = 0, pretend = 0, frame = 16
	@ frame_needed = 1, uses_anonymous_args = 0
	push	{r7, lr}
.LCFI20:
	.cfi_def_cfa_offset 8
	.cfi_offset 7, -8
	.cfi_offset 14, -4
	sub	sp, sp, #16
.LCFI21:
	.cfi_def_cfa_offset 24
	add	r7, sp, #0
.LCFI22:
	.cfi_def_cfa_register 7
	str	r0, [r7, #4]
	str	r1, [r7]
	.loc 3 111 27
	movs	r3, #0
	str	r3, [r7, #12]
	.loc 3 113 7
	ldr	r3, [r7, #4]
	cmp	r3, #0
	beq	.L19
	.loc 3 115 50
	ldr	r3, [r7, #4]
	ldr	r3, [r3, #4]
	.loc 3 115 16
	cmp	r3, #7
	bls	.L20
	.loc 3 115 71 discriminator 1
	bl	CY_HALT
.L20:
	.loc 3 129 17
	ldr	r3, [r7, #4]
	ldrsh	r2, [r3]
	ldr	r3, [r7, #4]
	ldr	r3, [r3, #4]
	mov	r1, r3
	mov	r0, r2
	bl	__NVIC_SetPriority
	.loc 3 132 64
	ldr	r3, .L23
	ldr	r3, [r3, #8]
	.loc 3 132 71
	ldr	r2, .L23+4
	.loc 3 132 20
	cmp	r3, r2
	bne	.L21
	.loc 3 134 27
	ldr	r3, [r7, #4]
	ldrsh	r3, [r3]
	ldr	r1, [r7]
	mov	r0, r3
	bl	Cy_SysInt_SetVector
	b	.L21
.L19:
	.loc 3 164 16
	ldr	r3, .L23+8
	str	r3, [r7, #12]
.L21:
	.loc 3 167 11
	ldr	r3, [r7, #12]
	.loc 3 168 1
	mov	r0, r3
	adds	r7, r7, #16
.LCFI23:
	.cfi_def_cfa_offset 8
	mov	sp, r7
.LCFI24:
	.cfi_def_cfa_register 13
	@ sp needed
	pop	{r7, pc}
.L24:
	.align	2
.L23:
	.word	-536810240
	.word	__ramVectors
	.word	5636097
	.cfi_endproc
.LFE139:
	.size	Cy_SysInt_Init, .-Cy_SysInt_Init
	.section	.text.Cy_SysInt_SetVector,"ax",%progbits
	.align	1
	.global	Cy_SysInt_SetVector
	.syntax unified
	.thumb
	.thumb_func
	.type	Cy_SysInt_SetVector, %function
Cy_SysInt_SetVector:
.LFB140:
	.loc 3 328 1
	.cfi_startproc
	@ args = 0, pretend = 0, frame = 16
	@ frame_needed = 1, uses_anonymous_args = 0
	push	{r7, lr}
.LCFI25:
	.cfi_def_cfa_offset 8
	.cfi_offset 7, -8
	.cfi_offset 14, -4
	sub	sp, sp, #16
.LCFI26:
	.cfi_def_cfa_offset 24
	add	r7, sp, #0
.LCFI27:
	.cfi_def_cfa_register 7
	mov	r3, r0
	str	r1, [r7]
	strh	r3, [r7, #6]	@ movhi
	.loc 3 332 52
	ldr	r3, .L30
	ldr	r3, [r3, #8]
	.loc 3 332 59
	ldr	r2, .L30+4
	.loc 3 332 8
	cmp	r3, r2
	bne	.L26
	.loc 3 334 16
	ldr	r3, [r7]
	cmp	r3, #0
	bne	.L27
	.loc 3 334 26 discriminator 1
	bl	CY_HALT
.L27:
	.loc 3 336 40
	ldrsh	r3, [r7, #6]
	.loc 3 336 38
	adds	r3, r3, #16
	.loc 3 336 17
	ldr	r2, .L30+4
	ldr	r3, [r2, r3, lsl #2]
	str	r3, [r7, #12]
	.loc 3 337 30
	ldrsh	r3, [r7, #6]
	.loc 3 337 28
	adds	r3, r3, #16
	.loc 3 337 46
	ldr	r1, .L30+4
	ldr	r2, [r7]
	str	r2, [r1, r3, lsl #2]
	b	.L28
.L26:
	.loc 3 350 37
	ldrsh	r3, [r7, #6]
	.loc 3 350 35
	adds	r3, r3, #16
	.loc 3 350 17
	ldr	r2, .L30+8
	ldr	r3, [r2, r3, lsl #2]
	str	r3, [r7, #12]
.L28:
	.loc 3 353 12
	ldr	r3, [r7, #12]
	.loc 3 354 1
	mov	r0, r3
	adds	r7, r7, #16
.LCFI28:
	.cfi_def_cfa_offset 8
	mov	sp, r7
.LCFI29:
	.cfi_def_cfa_register 13
	@ sp needed
	pop	{r7, pc}
.L31:
	.align	2
.L30:
	.word	-536810240
	.word	__ramVectors
	.word	__Vectors
	.cfi_endproc
.LFE140:
	.size	Cy_SysInt_SetVector, .-Cy_SysInt_SetVector
	.section	.text.Cy_SysInt_GetVector,"ax",%progbits
	.align	1
	.global	Cy_SysInt_GetVector
	.syntax unified
	.thumb
	.thumb_func
	.type	Cy_SysInt_GetVector, %function
Cy_SysInt_GetVector:
.LFB141:
	.loc 3 358 1
	.cfi_startproc
	@ args = 0, pretend = 0, frame = 16
	@ frame_needed = 1, uses_anonymous_args = 0
	@ link register save eliminated.
	push	{r7}
.LCFI30:
	.cfi_def_cfa_offset 4
	.cfi_offset 7, -4
	sub	sp, sp, #20
.LCFI31:
	.cfi_def_cfa_offset 24
	add	r7, sp, #0
.LCFI32:
	.cfi_def_cfa_register 7
	mov	r3, r0
	strh	r3, [r7, #6]	@ movhi
	.loc 3 362 52
	ldr	r3, .L36
	ldr	r3, [r3, #8]
	.loc 3 362 59
	ldr	r2, .L36+4
	.loc 3 362 8
	cmp	r3, r2
	bne	.L33
	.loc 3 364 40
	ldrsh	r3, [r7, #6]
	.loc 3 364 38
	adds	r3, r3, #16
	.loc 3 364 17
	ldr	r2, .L36+4
	ldr	r3, [r2, r3, lsl #2]
	str	r3, [r7, #12]
	b	.L34
.L33:
	.loc 3 368 37
	ldrsh	r3, [r7, #6]
	.loc 3 368 35
	adds	r3, r3, #16
	.loc 3 368 17
	ldr	r2, .L36+8
	ldr	r3, [r2, r3, lsl #2]
	str	r3, [r7, #12]
.L34:
	.loc 3 371 12
	ldr	r3, [r7, #12]
	.loc 3 372 1
	mov	r0, r3
	adds	r7, r7, #20
.LCFI33:
	.cfi_def_cfa_offset 4
	mov	sp, r7
.LCFI34:
	.cfi_def_cfa_register 13
	@ sp needed
	ldr	r7, [sp], #4
.LCFI35:
	.cfi_restore 7
	.cfi_def_cfa_offset 0
	bx	lr
.L37:
	.align	2
.L36:
	.word	-536810240
	.word	__ramVectors
	.word	__Vectors
	.cfi_endproc
.LFE141:
	.size	Cy_SysInt_GetVector, .-Cy_SysInt_GetVector
	.section	.text.Cy_SysInt_SoftwareTrig,"ax",%progbits
	.align	1
	.global	Cy_SysInt_SoftwareTrig
	.syntax unified
	.thumb
	.thumb_func
	.type	Cy_SysInt_SoftwareTrig, %function
Cy_SysInt_SoftwareTrig:
.LFB142:
	.loc 3 376 1
	.cfi_startproc
	@ args = 0, pretend = 0, frame = 8
	@ frame_needed = 1, uses_anonymous_args = 0
	@ link register save eliminated.
	push	{r7}
.LCFI36:
	.cfi_def_cfa_offset 4
	.cfi_offset 7, -4
	sub	sp, sp, #12
.LCFI37:
	.cfi_def_cfa_offset 16
	add	r7, sp, #0
.LCFI38:
	.cfi_def_cfa_register 7
	mov	r3, r0
	strh	r3, [r7, #6]	@ movhi
	.loc 3 377 73
	ldrh	r3, [r7, #6]
	.loc 3 377 49
	ldr	r2, .L39
	.loc 3 377 73
	uxtb	r3, r3
	.loc 3 377 56
	str	r3, [r2, #3584]
	.loc 3 378 1
	nop
	adds	r7, r7, #12
.LCFI39:
	.cfi_def_cfa_offset 4
	mov	sp, r7
.LCFI40:
	.cfi_def_cfa_register 13
	@ sp needed
	ldr	r7, [sp], #4
.LCFI41:
	.cfi_restore 7
	.cfi_def_cfa_offset 0
	bx	lr
.L40:
	.align	2
.L39:
	.word	-536813312
	.cfi_endproc
.LFE142:
	.size	Cy_SysInt_SoftwareTrig, .-Cy_SysInt_SoftwareTrig
	.text
.Letext0:
	.file 4 "d:\\llc\\softwares\\env-windows-v1.3.5\\tools\\gnu_gcc\\arm_gcc\\mingw\\arm-none-eabi\\include\\machine\\_default_types.h"
	.file 5 "d:\\llc\\softwares\\env-windows-v1.3.5\\tools\\gnu_gcc\\arm_gcc\\mingw\\arm-none-eabi\\include\\sys\\_stdint.h"
	.file 6 "libraries\\IFX_PSOC6_HAL\\mtb-pdl-cat1\\devices\\COMPONENT_CAT1A\\include/cy8c624alqi_s2d42.h"
	.file 7 "libraries\\IFX_PSOC6_HAL\\mtb-pdl-cat1\\devices\\COMPONENT_CAT1A\\include/cy_device.h"
	.file 8 "libraries\\IFX_PSOC6_HAL\\mtb-pdl-cat1\\drivers\\include/cy_syslib.h"
	.file 9 "libraries\\IFX_PSOC6_HAL\\mtb-pdl-cat1\\drivers\\include/cy_sysint.h"