	.cpu cortex-m4
	.arch armv7e-m
	.fpu fpv4-sp-d16
	.eabi_attribute 27, 1
	.eabi_attribute 28, 1
	.eabi_attribute 20, 1
	.eabi_attribute 21, 1
	.eabi_attribute 23, 3
	.eabi_attribute 24, 1
	.eabi_attribute 25, 1
	.eabi_attribute 26, 1
	.eabi_attribute 30, 6
	.eabi_attribute 34, 1
	.eabi_attribute 18, 4
	.file	"cy_scb_uart.c"
	.text
.Ltext0:
	.cfi_sections	.debug_frame
	.section	.text.CY_HALT,"ax",%progbits
	.align	1
	.syntax unified
	.thumb
	.thumb_func
	.type	CY_HALT, %function
CY_HALT:
.LFB133:
	.file 1 "libraries\\IFX_PSOC6_HAL\\core-lib\\include/cy_utils.h"
	.loc 1 49 1
	.cfi_startproc
	@ args = 0, pretend = 0, frame = 0
	@ frame_needed = 1, uses_anonymous_args = 0
	@ link register save eliminated.
	push	{r7}
.LCFI0:
	.cfi_def_cfa_offset 4
	.cfi_offset 7, -4
	add	r7, sp, #0
.LCFI1:
	.cfi_def_cfa_register 7
	.loc 1 50 5
	.syntax unified
@ 50 "libraries\IFX_PSOC6_HAL\core-lib\include/cy_utils.h" 1
	    bkpt    1
@ 0 "" 2
	.loc 1 51 1
	.thumb
	.syntax unified
	nop
	mov	sp, r7
.LCFI2:
	.cfi_def_cfa_register 13
	@ sp needed
	ldr	r7, [sp], #4
.LCFI3:
	.cfi_restore 7
	.cfi_def_cfa_offset 0
	bx	lr
	.cfi_endproc
.LFE133:
	.size	CY_HALT, .-CY_HALT
	.section	.text.Cy_SCB_SetRxFifoLevel,"ax",%progbits
	.align	1
	.syntax unified
	.thumb
	.thumb_func
	.type	Cy_SCB_SetRxFifoLevel, %function
Cy_SCB_SetRxFifoLevel:
.LFB138:
	.file 2 "libraries\\IFX_PSOC6_HAL\\mtb-pdl-cat1\\drivers\\include/cy_scb_common.h"
	.loc 2 872 1
	.cfi_startproc
	@ args = 0, pretend = 0, frame = 8
	@ frame_needed = 1, uses_anonymous_args = 0
	push	{r7, lr}
.LCFI4:
	.cfi_def_cfa_offset 8
	.cfi_offset 7, -8
	.cfi_offset 14, -4
	sub	sp, sp, #8
.LCFI5:
	.cfi_def_cfa_offset 16
	add	r7, sp, #0
.LCFI6:
	.cfi_def_cfa_register 7
	str	r0, [r7, #4]
	str	r1, [r7]
	.loc 2 873 26
	ldr	r0, [r7, #4]
	bl	Cy_SCB_GetFifoSize
	mov	r2, r0
	.loc 2 873 12
	ldr	r3, [r7]
	cmp	r3, r2
	bcc	.L3
	.loc 2 873 56 discriminator 1
	bl	CY_HALT
.L3:
	.loc 2 875 82
	ldr	r3, [r7, #4]
	ldr	r3, [r3, #772]
	.loc 2 875 100
	bic	r2, r3, #255
	.loc 2 875 160
	ldr	r3, [r7]
	uxtb	r3, r3
	.loc 2 875 127
	orrs	r2, r2, r3
	.loc 2 875 50
	ldr	r3, [r7, #4]
	str	r2, [r3, #772]
	.loc 2 876 1
	nop
	adds	r7, r7, #8
.LCFI7:
	.cfi_def_cfa_offset 8
	mov	sp, r7
.LCFI8:
	.cfi_def_cfa_register 13
	@ sp needed
	pop	{r7, pc}
	.cfi_endproc
.LFE138:
	.size	Cy_SCB_SetRxFifoLevel, .-Cy_SCB_SetRxFifoLevel
	.section	.text.Cy_SCB_GetNumInRxFifo,"ax",%progbits
	.align	1
	.syntax unified
	.thumb
	.thumb_func
	.type	Cy_SCB_GetNumInRxFifo, %function
Cy_SCB_GetNumInRxFifo:
.LFB139:
	.loc 2 893 1
	.cfi_startproc
	@ args = 0, pretend = 0, frame = 8
	@ frame_needed = 1, uses_anonymous_args = 0
	@ link register save eliminated.
	push	{r7}
.LCFI9:
	.cfi_def_cfa_offset 4
	.cfi_offset 7, -4
	sub	sp, sp, #12
.LCFI10:
	.cfi_def_cfa_offset 16
	add	r7, sp, #0
.LCFI11:
	.cfi_def_cfa_register 7
	str	r0, [r7, #4]
	.loc 2 894 51
	ldr	r3, [r7, #4]
	ldr	r3, [r3, #776]
	.loc 2 894 81
	ubfx	r3, r3, #0, #9
	.loc 2 895 1
	mov	r0, r3
	adds	r7, r7, #12
.LCFI12:
	.cfi_def_cfa_offset 4
	mov	sp, r7
.LCFI13:
	.cfi_def_cfa_register 13
	@ sp needed
	ldr	r7, [sp], #4
.LCFI14:
	.cfi_restore 7
	.cfi_def_cfa_offset 0
	bx	lr
	.cfi_endproc
.LFE139:
	.size	Cy_SCB_GetNumInRxFifo, .-Cy_SCB_GetNumInRxFifo
	.section	.text.Cy_SCB_SetTxFifoLevel,"ax",%progbits
	.align	1
	.syntax unified
	.thumb
	.thumb_func
	.type	Cy_SCB_SetTxFifoLevel, %function
Cy_SCB_SetTxFifoLevel:
.LFB143:
	.loc 2 976 1
	.cfi_startproc
	@ args = 0, pretend = 0, frame = 8
	@ frame_needed = 1, uses_anonymous_args = 0
	push	{r7, lr}
.LCFI15:
	.cfi_def_cfa_offset 8
	.cfi_offset 7, -8
	.cfi_offset 14, -4
	sub	sp, sp, #8
.LCFI16:
	.cfi_def_cfa_offset 16
	add	r7, sp, #0
.LCFI17:
	.cfi_def_cfa_register 7
	str	r0, [r7, #4]
	str	r1, [r7]
	.loc 2 977 26
	ldr	r0, [r7, #4]
	bl	Cy_SCB_GetFifoSize
	mov	r2, r0
	.loc 2 977 12
	ldr	r3, [r7]
	cmp	r3, r2
	bcc	.L7
	.loc 2 977 56 discriminator 1
	bl	CY_HALT
.L7:
	.loc 2 979 82
	ldr	r3, [r7, #4]
	ldr	r3, [r3, #516]
	.loc 2 979 100
	bic	r2, r3, #255
	.loc 2 979 160
	ldr	r3, [r7]
	uxtb	r3, r3
	.loc 2 979 127
	orrs	r2, r2, r3
	.loc 2 979 50
	ldr	r3, [r7, #4]
	str	r2, [r3, #516]
	.loc 2 980 1
	nop
	adds	r7, r7, #8
.LCFI18:
	.cfi_def_cfa_offset 8
	mov	sp, r7
.LCFI19:
	.cfi_def_cfa_register 13
	@ sp needed
	pop	{r7, pc}
	.cfi_endproc
.LFE143:
	.size	Cy_SCB_SetTxFifoLevel, .-Cy_SCB_SetTxFifoLevel
	.section	.text.Cy_SCB_GetNumInTxFifo,"ax",%progbits
	.align	1
	.syntax unified
	.thumb
	.thumb_func
	.type	Cy_SCB_GetNumInTxFifo, %function
Cy_SCB_GetNumInTxFifo:
.LFB144:
	.loc 2 997 1
	.cfi_startproc
	@ args = 0, pretend = 0, frame = 8
	@ frame_needed = 1, uses_anonymous_args = 0
	@ link register save eliminated.
	push	{r7}
.LCFI20:
	.cfi_def_cfa_offset 4
	.cfi_offset 7, -4
	sub	sp, sp, #12
.LCFI21:
	.cfi_def_cfa_offset 16
	add	r7, sp, #0
.LCFI22:
	.cfi_def_cfa_register 7
	str	r0, [r7, #4]
	.loc 2 998 51
	ldr	r3, [r7, #4]
	ldr	r3, [r3, #520]
	.loc 2 998 81
	ubfx	r3, r3, #0, #9
	.loc 2 999 1
	mov	r0, r3
	adds	r7, r7, #12
.LCFI23:
	.cfi_def_cfa_offset 4
	mov	sp, r7
.LCFI24:
	.cfi_def_cfa_register 13
	@ sp needed
	ldr	r7, [sp], #4
.LCFI25:
	.cfi_restore 7
	.cfi_def_cfa_offset 0
	bx	lr
	.cfi_endproc
.LFE144:
	.size	Cy_SCB_GetNumInTxFifo, .-Cy_SCB_GetNumInTxFifo
	.section	.text.Cy_SCB_GetTxSrValid,"ax",%progbits
	.align	1
	.syntax unified
	.thumb
	.thumb_func
	.type	Cy_SCB_GetTxSrValid, %function
Cy_SCB_GetTxSrValid:
.LFB145:
	.loc 2 1016 1
	.cfi_startproc
	@ args = 0, pretend = 0, frame = 8
	@ frame_needed = 1, uses_anonymous_args = 0
	@ link register save eliminated.
	push	{r7}
.LCFI26:
	.cfi_def_cfa_offset 4
	.cfi_offset 7, -4
	sub	sp, sp, #12
.LCFI27:
	.cfi_def_cfa_offset 16
	add	r7, sp, #0
.LCFI28:
	.cfi_def_cfa_register 7
	str	r0, [r7, #4]
	.loc 2 1017 51
	ldr	r3, [r7, #4]
	ldr	r3, [r3, #520]
	.loc 2 1017 82
	lsrs	r3, r3, #15
	and	r3, r3, #1
	.loc 2 1018 1
	mov	r0, r3
	adds	r7, r7, #12
.LCFI29:
	.cfi_def_cfa_offset 4
	mov	sp, r7
.LCFI30:
	.cfi_def_cfa_register 13
	@ sp needed
	ldr	r7, [sp], #4
.LCFI31:
	.cfi_restore 7
	.cfi_def_cfa_offset 0
	bx	lr
	.cfi_endproc
.LFE145:
	.size	Cy_SCB_GetTxSrValid, .-Cy_SCB_GetTxSrValid
	.section	.text.Cy_SCB_IsTxComplete,"ax",%progbits
	.align	1
	.syntax unified
	.thumb
	.thumb_func
	.type	Cy_SCB_IsTxComplete, %function
Cy_SCB_IsTxComplete:
.LFB146:
	.loc 2 1035 1
	.cfi_startproc
	@ args = 0, pretend = 0, frame = 8
	@ frame_needed = 1, uses_anonymous_args = 0
	push	{r4, r7, lr}
.LCFI32:
	.cfi_def_cfa_offset 12
	.cfi_offset 4, -12
	.cfi_offset 7, -8
	.cfi_offset 14, -4
	sub	sp, sp, #12
.LCFI33:
	.cfi_def_cfa_offset 24
	add	r7, sp, #0
.LCFI34:
	.cfi_def_cfa_register 7
	str	r0, [r7, #4]
	.loc 2 1036 22
	ldr	r0, [r7, #4]
	bl	Cy_SCB_GetNumInTxFifo
	mov	r4, r0
	.loc 2 1036 52
	ldr	r0, [r7, #4]
	bl	Cy_SCB_GetTxSrValid
	mov	r3, r0
	.loc 2 1036 50
	add	r3, r3, r4
	.loc 2 1036 18
	cmp	r3, #0
	ite	eq
	moveq	r3, #1
	movne	r3, #0
	uxtb	r3, r3
	.loc 2 1037 1
	mov	r0, r3
	adds	r7, r7, #12
.LCFI35:
	.cfi_def_cfa_offset 12
	mov	sp, r7
.LCFI36:
	.cfi_def_cfa_register 13
	@ sp needed
	pop	{r4, r7, pc}
	.cfi_endproc
.LFE146:
	.size	Cy_SCB_IsTxComplete, .-Cy_SCB_IsTxComplete
	.section	.text.Cy_SCB_ClearTxFifo,"ax",%progbits
	.align	1
	.syntax unified
	.thumb
	.thumb_func
	.type	Cy_SCB_ClearTxFifo, %function
Cy_SCB_ClearTxFifo:
.LFB147:
	.loc 2 1056 1
	.cfi_startproc
	@ args = 0, pretend = 0, frame = 8
	@ frame_needed = 1, uses_anonymous_args = 0
	@ link register save eliminated.
	push	{r7}
.LCFI37:
	.cfi_def_cfa_offset 4
	.cfi_offset 7, -4
	sub	sp, sp, #12
.LCFI38:
	.cfi_def_cfa_offset 16
	add	r7, sp, #0
.LCFI39:
	.cfi_def_cfa_register 7
	str	r0, [r7, #4]
	.loc 2 1057 47
	ldr	r3, [r7, #4]
	ldr	r3, [r3, #516]
	orr	r2, r3, #65536
	ldr	r3, [r7, #4]
	str	r2, [r3, #516]
	.loc 2 1058 47
	ldr	r3, [r7, #4]
	ldr	r3, [r3, #516]
	bic	r2, r3, #65536
	ldr	r3, [r7, #4]
	str	r2, [r3, #516]
	.loc 2 1060 5
	ldr	r3, [r7, #4]
	ldr	r3, [r3, #516]
	.loc 2 1061 1
	nop
	adds	r7, r7, #12
.LCFI40:
	.cfi_def_cfa_offset 4
	mov	sp, r7
.LCFI41:
	.cfi_def_cfa_register 13
	@ sp needed
	ldr	r7, [sp], #4
.LCFI42:
	.cfi_restore 7
	.cfi_def_cfa_offset 0
	bx	lr
	.cfi_endproc
.LFE147:
	.size	Cy_SCB_ClearTxFifo, .-Cy_SCB_ClearTxFifo
	.section	.text.Cy_SCB_SetByteMode,"ax",%progbits
	.align	1
	.syntax unified
	.thumb
	.thumb_func
	.type	Cy_SCB_SetByteMode, %function
Cy_SCB_SetByteMode:
.LFB148:
	.loc 2 1081 1
	.cfi_startproc
	@ args = 0, pretend = 0, frame = 8
	@ frame_needed = 1, uses_anonymous_args = 0
	@ link register save eliminated.
	push	{r7}
.LCFI43:
	.cfi_def_cfa_offset 4
	.cfi_offset 7, -4
	sub	sp, sp, #12
.LCFI44:
	.cfi_def_cfa_offset 16
	add	r7, sp, #0
.LCFI45:
	.cfi_def_cfa_register 7
	str	r0, [r7, #4]
	mov	r3, r1
	strb	r3, [r7, #3]
	.loc 2 1093 8
	ldrb	r3, [r7, #3]	@ zero_extendqisi2
	cmp	r3, #0
	beq	.L16
	.loc 2 1095 43
	ldr	r3, [r7, #4]
	ldr	r3, [r3]
	orr	r2, r3, #2048
	ldr	r3, [r7, #4]
	str	r2, [r3]
	.loc 2 1102 1
	b	.L18
.L16:
	.loc 2 1099 43
	ldr	r3, [r7, #4]
	ldr	r3, [r3]
	bic	r2, r3, #2048
	ldr	r3, [r7, #4]
	str	r2, [r3]
.L18:
	.loc 2 1102 1
	nop
	adds	r7, r7, #12
.LCFI46:
	.cfi_def_cfa_offset 4
	mov	sp, r7
.LCFI47:
	.cfi_def_cfa_register 13
	@ sp needed
	ldr	r7, [sp], #4
.LCFI48:
	.cfi_restore 7
	.cfi_def_cfa_offset 0
	bx	lr
	.cfi_endproc
.LFE148:
	.size	Cy_SCB_SetByteMode, .-Cy_SCB_SetByteMode
	.section	.text.Cy_SCB_GetInterruptCause,"ax",%progbits
	.align	1
	.syntax unified
	.thumb
	.thumb_func
	.type	Cy_SCB_GetInterruptCause, %function
Cy_SCB_GetInterruptCause:
.LFB149:
	.loc 2 1152 1
	.cfi_startproc
	@ args = 0, pretend = 0, frame = 8
	@ frame_needed = 1, uses_anonymous_args = 0
	@ link register save eliminated.
	push	{r7}
.LCFI49:
	.cfi_def_cfa_offset 4
	.cfi_offset 7, -4
	sub	sp, sp, #12
.LCFI50:
	.cfi_def_cfa_offset 16
	add	r7, sp, #0
.LCFI51:
	.cfi_def_cfa_register 7
	str	r0, [r7, #4]
	.loc 2 1153 39
	ldr	r3, [r7, #4]
	ldr	r3, [r3, #3584]
	.loc 2 1154 1
	mov	r0, r3
	adds	r7, r7, #12
.LCFI52:
	.cfi_def_cfa_offset 4
	mov	sp, r7
.LCFI53:
	.cfi_def_cfa_register 13
	@ sp needed
	ldr	r7, [sp], #4
.LCFI54:
	.cfi_restore 7
	.cfi_def_cfa_offset 0
	bx	lr
	.cfi_endproc
.LFE149:
	.size	Cy_SCB_GetInterruptCause, .-Cy_SCB_GetInterruptCause
	.section	.text.Cy_SCB_SetRxInterruptMask,"ax",%progbits
	.align	1
	.syntax unified
	.thumb
	.thumb_func
	.type	Cy_SCB_SetRxInterruptMask, %function
Cy_SCB_SetRxInterruptMask:
.LFB151:
	.loc 2 1196 1
	.cfi_startproc
	@ args = 0, pretend = 0, frame = 8
	@ frame_needed = 1, uses_anonymous_args = 0
	push	{r7, lr}
.LCFI55:
	.cfi_def_cfa_offset 8
	.cfi_offset 7, -8
	.cfi_offset 14, -4
	sub	sp, sp, #8
.LCFI56:
	.cfi_def_cfa_offset 16
	add	r7, sp, #0
.LCFI57:
	.cfi_def_cfa_register 7
	str	r0, [r7, #4]
	str	r1, [r7]
	.loc 2 1197 41
	ldr	r3, [r7]
	bic	r3, r3, #2912
	bic	r3, r3, #13
	.loc 2 1197 12
	cmp	r3, #0
	beq	.L22
	.loc 2 1197 138 discriminator 1
	bl	CY_HALT
.L22:
	.loc 2 1199 47
	ldr	r3, [r7, #4]
	ldr	r2, [r7]
	str	r2, [r3, #4040]
	.loc 2 1200 1
	nop
	adds	r7, r7, #8
.LCFI58:
	.cfi_def_cfa_offset 8
	mov	sp, r7
.LCFI59:
	.cfi_def_cfa_register 13
	@ sp needed
	pop	{r7, pc}
	.cfi_endproc
.LFE151:
	.size	Cy_SCB_SetRxInterruptMask, .-Cy_SCB_SetRxInterruptMask
	.section	.text.Cy_SCB_GetRxInterruptStatusMasked,"ax",%progbits
	.align	1
	.syntax unified
	.thumb
	.thumb_func
	.type	Cy_SCB_GetRxInterruptStatusMasked, %function
Cy_SCB_GetRxInterruptStatusMasked:
.LFB153:
	.loc 2 1243 1
	.cfi_startproc
	@ args = 0, pretend = 0, frame = 8
	@ frame_needed = 1, uses_anonymous_args = 0
	@ link register save eliminated.
	push	{r7}
.LCFI60:
	.cfi_def_cfa_offset 4
	.cfi_offset 7, -4
	sub	sp, sp, #12
.LCFI61:
	.cfi_def_cfa_offset 16
	add	r7, sp, #0
.LCFI62:
	.cfi_def_cfa_register 7
	str	r0, [r7, #4]
	.loc 2 1244 39
	ldr	r3, [r7, #4]
	ldr	r3, [r3, #4044]
	.loc 2 1245 1
	mov	r0, r3
	adds	r7, r7, #12
.LCFI63:
	.cfi_def_cfa_offset 4
	mov	sp, r7
.LCFI64:
	.cfi_def_cfa_register 13
	@ sp needed
	ldr	r7, [sp], #4
.LCFI65:
	.cfi_restore 7
	.cfi_def_cfa_offset 0
	bx	lr
	.cfi_endproc
.LFE153:
	.size	Cy_SCB_GetRxInterruptStatusMasked, .-Cy_SCB_GetRxInterruptStatusMasked
	.section	.text.Cy_SCB_ClearRxInterrupt,"ax",%progbits
	.align	1
	.syntax unified
	.thumb
	.thumb_func
	.type	Cy_SCB_ClearRxInterrupt, %function
Cy_SCB_ClearRxInterrupt:
.LFB154:
	.loc 2 1271 1
	.cfi_startproc
	@ args = 0, pretend = 0, frame = 8
	@ frame_needed = 1, uses_anonymous_args = 0
	push	{r7, lr}
.LCFI66:
	.cfi_def_cfa_offset 8
	.cfi_offset 7, -8
	.cfi_offset 14, -4
	sub	sp, sp, #8
.LCFI67:
	.cfi_def_cfa_offset 16
	add	r7, sp, #0
.LCFI68:
	.cfi_def_cfa_register 7
	str	r0, [r7, #4]
	str	r1, [r7]
	.loc 2 1272 41
	ldr	r3, [r7]
	bic	r3, r3, #2912
	bic	r3, r3, #13
	.loc 2 1272 12
	cmp	r3, #0
	beq	.L26
	.loc 2 1272 138 discriminator 1
	bl	CY_HALT
.L26:
	.loc 2 1274 42
	ldr	r3, [r7, #4]
	ldr	r2, [r7]
	str	r2, [r3, #4032]
	.loc 2 1275 5
	ldr	r3, [r7, #4]
	ldr	r3, [r3, #4032]
	.loc 2 1276 1
	nop
	adds	r7, r7, #8
.LCFI69:
	.cfi_def_cfa_offset 8
	mov	sp, r7
.LCFI70:
	.cfi_def_cfa_register 13
	@ sp needed
	pop	{r7, pc}
	.cfi_endproc
.LFE154:
	.size	Cy_SCB_ClearRxInterrupt, .-Cy_SCB_ClearRxInterrupt
	.section	.text.Cy_SCB_GetTxInterruptStatus,"ax",%progbits
	.align	1
	.syntax unified
	.thumb
	.thumb_func
	.type	Cy_SCB_GetTxInterruptStatus, %function
Cy_SCB_GetTxInterruptStatus:
.LFB156:
	.loc 2 1319 1
	.cfi_startproc
	@ args = 0, pretend = 0, frame = 8
	@ frame_needed = 1, uses_anonymous_args = 0
	@ link register save eliminated.
	push	{r7}
.LCFI71:
	.cfi_def_cfa_offset 4
	.cfi_offset 7, -4
	sub	sp, sp, #12
.LCFI72:
	.cfi_def_cfa_offset 16
	add	r7, sp, #0
.LCFI73:
	.cfi_def_cfa_register 7
	str	r0, [r7, #4]
	.loc 2 1320 39
	ldr	r3, [r7, #4]
	ldr	r2, [r3, #3968]
	.loc 2 1320 50
	movw	r3, #1907
	ands	r3, r3, r2
	.loc 2 1321 1
	mov	r0, r3
	adds	r7, r7, #12
.LCFI74:
	.cfi_def_cfa_offset 4
	mov	sp, r7
.LCFI75:
	.cfi_def_cfa_register 13
	@ sp needed
	ldr	r7, [sp], #4
.LCFI76:
	.cfi_restore 7
	.cfi_def_cfa_offset 0
	bx	lr
	.cfi_endproc
.LFE156:
	.size	Cy_SCB_GetTxInterruptStatus, .-Cy_SCB_GetTxInterruptStatus
	.section	.text.Cy_SCB_SetTxInterruptMask,"ax",%progbits
	.align	1
	.syntax unified
	.thumb
	.thumb_func
	.type	Cy_SCB_SetTxInterruptMask, %function
Cy_SCB_SetTxInterruptMask:
.LFB157:
	.loc 2 1340 1
	.cfi_startproc
	@ args = 0, pretend = 0, frame = 8
	@ frame_needed = 1, uses_anonymous_args = 0
	push	{r7, lr}
.LCFI77:
	.cfi_def_cfa_offset 8
	.cfi_offset 7, -8
	.cfi_offset 14, -4
	sub	sp, sp, #8
.LCFI78:
	.cfi_def_cfa_offset 16
	add	r7, sp, #0
.LCFI79:
	.cfi_def_cfa_register 7
	str	r0, [r7, #4]
	str	r1, [r7]
	.loc 2 1341 41
	ldr	r3, [r7]
	bic	r3, r3, #1904
	bic	r3, r3, #3
	.loc 2 1341 12
	cmp	r3, #0
	beq	.L30
	.loc 2 1341 139 discriminator 1
	bl	CY_HALT
.L30:
	.loc 2 1343 47
	ldr	r3, [r7, #4]
	ldr	r2, [r7]
	str	r2, [r3, #3976]
	.loc 2 1344 1
	nop
	adds	r7, r7, #8
.LCFI80:
	.cfi_def_cfa_offset 8
	mov	sp, r7
.LCFI81:
	.cfi_def_cfa_register 13
	@ sp needed
	pop	{r7, pc}
	.cfi_endproc
.LFE157:
	.size	Cy_SCB_SetTxInterruptMask, .-Cy_SCB_SetTxInterruptMask
	.section	.text.Cy_SCB_GetTxInterruptMask,"ax",%progbits
	.align	1
	.syntax unified
	.thumb
	.thumb_func
	.type	Cy_SCB_GetTxInterruptMask, %function
Cy_SCB_GetTxInterruptMask:
.LFB158:
	.loc 2 1363 1
	.cfi_startproc
	@ args = 0, pretend = 0, frame = 8
	@ frame_needed = 1, uses_anonymous_args = 0
	@ link register save eliminated.
	push	{r7}
.LCFI82:
	.cfi_def_cfa_offset 4
	.cfi_offset 7, -4
	sub	sp, sp, #12
.LCFI83:
	.cfi_def_cfa_offset 16
	add	r7, sp, #0
.LCFI84:
	.cfi_def_cfa_register 7
	str	r0, [r7, #4]
	.loc 2 1364 39
	ldr	r3, [r7, #4]
	ldr	r3, [r3, #3976]
	.loc 2 1365 1
	mov	r0, r3
	adds	r7, r7, #12
.LCFI85:
	.cfi_def_cfa_offset 4
	mov	sp, r7
.LCFI86:
	.cfi_def_cfa_register 13
	@ sp needed
	ldr	r7, [sp], #4
.LCFI87:
	.cfi_restore 7
	.cfi_def_cfa_offset 0
	bx	lr
	.cfi_endproc
.LFE158:
	.size	Cy_SCB_GetTxInterruptMask, .-Cy_SCB_GetTxInterruptMask
	.section	.text.Cy_SCB_GetTxInterruptStatusMasked,"ax",%progbits
	.align	1
	.syntax unified
	.thumb
	.thumb_func
	.type	Cy_SCB_GetTxInterruptStatusMasked, %function
Cy_SCB_GetTxInterruptStatusMasked:
.LFB159:
	.loc 2 1387 1
	.cfi_startproc
	@ args = 0, pretend = 0, frame = 8
	@ frame_needed = 1, uses_anonymous_args = 0
	@ link register save eliminated.
	push	{r7}
.LCFI88:
	.cfi_def_cfa_offset 4
	.cfi_offset 7, -4
	sub	sp, sp, #12
.LCFI89:
	.cfi_def_cfa_offset 16
	add	r7, sp, #0
.LCFI90:
	.cfi_def_cfa_register 7
	str	r0, [r7, #4]
	.loc 2 1388 39
	ldr	r3, [r7, #4]
	ldr	r3, [r3, #3980]
	.loc 2 1389 1
	mov	r0, r3
	adds	r7, r7, #12
.LCFI91:
	.cfi_def_cfa_offset 4
	mov	sp, r7
.LCFI92:
	.cfi_def_cfa_register 13
	@ sp needed
	ldr	r7, [sp], #4
.LCFI93:
	.cfi_restore 7
	.cfi_def_cfa_offset 0
	bx	lr
	.cfi_endproc
.LFE159:
	.size	Cy_SCB_GetTxInterruptStatusMasked, .-Cy_SCB_GetTxInterruptStatusMasked
	.section	.text.Cy_SCB_ClearTxInterrupt,"ax",%progbits
	.align	1
	.syntax unified
	.thumb
	.thumb_func
	.type	Cy_SCB_ClearTxInterrupt, %function
Cy_SCB_ClearTxInterrupt:
.LFB160:
	.loc 2 1417 1
	.cfi_startproc
	@ args = 0, pretend = 0, frame = 8
	@ frame_needed = 1, uses_anonymous_args = 0
	push	{r7, lr}
.LCFI94:
	.cfi_def_cfa_offset 8
	.cfi_offset 7, -8
	.cfi_offset 14, -4
	sub	sp, sp, #8
.LCFI95:
	.cfi_def_cfa_offset 16
	add	r7, sp, #0
.LCFI96:
	.cfi_def_cfa_register 7
	str	r0, [r7, #4]
	str	r1, [r7]
	.loc 2 1418 41
	ldr	r3, [r7]
	bic	r3, r3, #1904
	bic	r3, r3, #3
	.loc 2 1418 12
	cmp	r3, #0
	beq	.L36
	.loc 2 1418 139 discriminator 1
	bl	CY_HALT
.L36:
	.loc 2 1420 42
	ldr	r3, [r7, #4]
	ldr	r2, [r7]
	str	r2, [r3, #3968]
	.loc 2 1421 5
	ldr	r3, [r7, #4]
	ldr	r3, [r3, #3968]
	.loc 2 1422 1
	nop
	adds	r7, r7, #8
.LCFI97:
	.cfi_def_cfa_offset 8
	mov	sp, r7
.LCFI98:
	.cfi_def_cfa_register 13
	@ sp needed
	pop	{r7, pc}
	.cfi_endproc
.LFE160:
	.size	Cy_SCB_ClearTxInterrupt, .-Cy_SCB_ClearTxInterrupt
	.section	.text.Cy_SCB_GetFifoSize,"ax",%progbits
	.align	1
	.syntax unified
	.thumb
	.thumb_func
	.type	Cy_SCB_GetFifoSize, %function
Cy_SCB_GetFifoSize:
.LFB184:
	.loc 2 1964 1
	.cfi_startproc
	@ args = 0, pretend = 0, frame = 8
	@ frame_needed = 1, uses_anonymous_args = 0
	@ link register save eliminated.
	push	{r7}
.LCFI99:
	.cfi_def_cfa_offset 4
	.cfi_offset 7, -4
	sub	sp, sp, #12
.LCFI100:
	.cfi_def_cfa_offset 16
	add	r7, sp, #0
.LCFI101:
	.cfi_def_cfa_register 7
	str	r0, [r7, #4]
	.loc 2 1968 43
	ldr	r3, [r7, #4]
	ldr	r3, [r3]
	.loc 2 1968 52
	and	r3, r3, #2048
	.loc 2 1968 85
	cmp	r3, #0
	beq	.L38
	.loc 2 1968 85 is_stmt 0 discriminator 1
	movs	r3, #128
	b	.L40
.L38:
	.loc 2 1968 85 discriminator 2
	movs	r3, #64
.L40:
	.loc 2 1973 1 is_stmt 1 discriminator 5
	mov	r0, r3
	adds	r7, r7, #12
.LCFI102:
	.cfi_def_cfa_offset 4
	mov	sp, r7
.LCFI103:
	.cfi_def_cfa_register 13
	@ sp needed
	ldr	r7, [sp], #4
.LCFI104:
	.cfi_restore 7
	.cfi_def_cfa_offset 0
	bx	lr
	.cfi_endproc
.LFE184:
	.size	Cy_SCB_GetFifoSize, .-Cy_SCB_GetFifoSize
	.section	.text.Cy_SCB_IsRxDataWidthByte,"ax",%progbits
	.align	1
	.syntax unified
	.thumb
	.thumb_func
	.type	Cy_SCB_IsRxDataWidthByte, %function
Cy_SCB_IsRxDataWidthByte:
.LFB185:
	.loc 2 1990 1
	.cfi_startproc
	@ args = 0, pretend = 0, frame = 8
	@ frame_needed = 1, uses_anonymous_args = 0
	@ link register save eliminated.
	push	{r7}
.LCFI105:
	.cfi_def_cfa_offset 4
	.cfi_offset 7, -4
	sub	sp, sp, #12
.LCFI106:
	.cfi_def_cfa_offset 16
	add	r7, sp, #0
.LCFI107:
	.cfi_def_cfa_register 7
	str	r0, [r7, #4]
	.loc 2 1991 52
	ldr	r3, [r7, #4]
	ldr	r3, [r3, #768]
	.loc 2 1991 81
	and	r3, r3, #8
	cmp	r3, #0
	ite	eq
	moveq	r3, #1
	movne	r3, #0
	uxtb	r3, r3
	.loc 2 1992 1
	mov	r0, r3
	adds	r7, r7, #12
.LCFI108:
	.cfi_def_cfa_offset 4
	mov	sp, r7
.LCFI109:
	.cfi_def_cfa_register 13
	@ sp needed
	ldr	r7, [sp], #4
.LCFI110:
	.cfi_restore 7
	.cfi_def_cfa_offset 0
	bx	lr
	.cfi_endproc
.LFE185:
	.size	Cy_SCB_IsRxDataWidthByte, .-Cy_SCB_IsRxDataWidthByte
	.section	.text.Cy_SCB_IsTxDataWidthByte,"ax",%progbits
	.align	1
	.syntax unified
	.thumb
	.thumb_func
	.type	Cy_SCB_IsTxDataWidthByte, %function
Cy_SCB_IsTxDataWidthByte:
.LFB186:
	.loc 2 2034 1
	.cfi_startproc
	@ args = 0, pretend = 0, frame = 8
	@ frame_needed = 1, uses_anonymous_args = 0
	@ link register save eliminated.
	push	{r7}
.LCFI111:
	.cfi_def_cfa_offset 4
	.cfi_offset 7, -4
	sub	sp, sp, #12
.LCFI112:
	.cfi_def_cfa_offset 16
	add	r7, sp, #0
.LCFI113:
	.cfi_def_cfa_register 7
	str	r0, [r7, #4]
	.loc 2 2035 52
	ldr	r3, [r7, #4]
	ldr	r3, [r3, #512]
	.loc 2 2035 81
	and	r3, r3, #8
	cmp	r3, #0
	ite	eq
	moveq	r3, #1
	movne	r3, #0
	uxtb	r3, r3
	.loc 2 2036 1
	mov	r0, r3
	adds	r7, r7, #12
.LCFI114:
	.cfi_def_cfa_offset 4
	mov	sp, r7
.LCFI115:
	.cfi_def_cfa_register 13
	@ sp needed
	ldr	r7, [sp], #4
.LCFI116:
	.cfi_restore 7
	.cfi_def_cfa_offset 0
	bx	lr
	.cfi_endproc
.LFE186:
	.size	Cy_SCB_IsTxDataWidthByte, .-Cy_SCB_IsTxDataWidthByte
	.section	.text.Cy_SCB_UART_Enable,"ax",%progbits
	.align	1
	.syntax unified
	.thumb
	.thumb_func
	.type	Cy_SCB_UART_Enable, %function
Cy_SCB_UART_Enable:
.LFB189:
	.file 3 "libraries\\IFX_PSOC6_HAL\\mtb-pdl-cat1\\drivers\\include/cy_scb_uart.h"
	.loc 3 991 1
	.cfi_startproc
	@ args = 0, pretend = 0, frame = 8
	@ frame_needed = 1, uses_anonymous_args = 0
	@ link register save eliminated.
	push	{r7}
.LCFI117:
	.cfi_def_cfa_offset 4
	.cfi_offset 7, -4
	sub	sp, sp, #12
.LCFI118:
	.cfi_def_cfa_offset 16
	add	r7, sp, #0
.LCFI119:
	.cfi_def_cfa_register 7
	str	r0, [r7, #4]
	.loc 3 992 39
	ldr	r3, [r7, #4]
	ldr	r3, [r3]
	orr	r2, r3, #-2147483648
	ldr	r3, [r7, #4]
	str	r2, [r3]
	.loc 3 993 1
	nop
	adds	r7, r7, #12
.LCFI120:
	.cfi_def_cfa_offset 4
	mov	sp, r7
.LCFI121:
	.cfi_def_cfa_register 13
	@ sp needed
	ldr	r7, [sp], #4
.LCFI122:
	.cfi_restore 7
	.cfi_def_cfa_offset 0
	bx	lr
	.cfi_endproc
.LFE189:
	.size	Cy_SCB_UART_Enable, .-Cy_SCB_UART_Enable
	.section	.text.Cy_SCB_UART_GetRtsFifoLevel,"ax",%progbits
	.align	1
	.syntax unified
	.thumb
	.thumb_func
	.type	Cy_SCB_UART_GetRtsFifoLevel, %function
Cy_SCB_UART_GetRtsFifoLevel:
.LFB193:
	.loc 3 1068 1
	.cfi_startproc
	@ args = 0, pretend = 0, frame = 8
	@ frame_needed = 1, uses_anonymous_args = 0
	@ link register save eliminated.
	push	{r7}
.LCFI123:
	.cfi_def_cfa_offset 4
	.cfi_offset 7, -4
	sub	sp, sp, #12
.LCFI124:
	.cfi_def_cfa_offset 16
	add	r7, sp, #0
.LCFI125:
	.cfi_def_cfa_register 7
	str	r0, [r7, #4]
	.loc 3 1069 51
	ldr	r3, [r7, #4]
	ldr	r3, [r3, #80]
	.loc 3 1069 80
	uxtb	r3, r3
	.loc 3 1070 1
	mov	r0, r3
	adds	r7, r7, #12
.LCFI126:
	.cfi_def_cfa_offset 4
	mov	sp, r7
.LCFI127:
	.cfi_def_cfa_register 13
	@ sp needed
	ldr	r7, [sp], #4
.LCFI128:
	.cfi_restore 7
	.cfi_def_cfa_offset 0
	bx	lr
	.cfi_endproc
.LFE193:
	.size	Cy_SCB_UART_GetRtsFifoLevel, .-Cy_SCB_UART_GetRtsFifoLevel
	.section	.text.Cy_SCB_UART_GetArray,"ax",%progbits
	.align	1
	.syntax unified
	.thumb
	.thumb_func
	.type	Cy_SCB_UART_GetArray, %function
Cy_SCB_UART_GetArray:
.LFB203:
	.loc 3 1310 1
	.cfi_startproc
	@ args = 0, pretend = 0, frame = 16
	@ frame_needed = 1, uses_anonymous_args = 0
	push	{r7, lr}
.LCFI129:
	.cfi_def_cfa_offset 8
	.cfi_offset 7, -8
	.cfi_offset 14, -4
	sub	sp, sp, #16
.LCFI130:
	.cfi_def_cfa_offset 24
	add	r7, sp, #0
.LCFI131:
	.cfi_def_cfa_register 7
	str	r0, [r7, #12]
	str	r1, [r7, #8]
	str	r2, [r7, #4]
	.loc 3 1311 12
	ldr	r3, [r7, #8]
	cmp	r3, #0
	beq	.L49
	.loc 3 1311 13 discriminator 2
	ldr	r3, [r7, #4]
	cmp	r3, #0
	bne	.L50
.L49:
	.loc 3 1311 41 discriminator 3
	bl	CY_HALT
.L50:
	.loc 3 1313 12
	ldr	r2, [r7, #4]
	ldr	r1, [r7, #8]
	ldr	r0, [r7, #12]
	bl	Cy_SCB_ReadArray
	mov	r3, r0
	.loc 3 1314 1
	mov	r0, r3
	adds	r7, r7, #16
.LCFI132:
	.cfi_def_cfa_offset 8
	mov	sp, r7
.LCFI133:
	.cfi_def_cfa_register 13
	@ sp needed
	pop	{r7, pc}
	.cfi_endproc
.LFE203:
	.size	Cy_SCB_UART_GetArray, .-Cy_SCB_UART_GetArray
	.section	.text.Cy_SCB_UART_GetNumInRxFifo,"ax",%progbits
	.align	1
	.syntax unified
	.thumb
	.thumb_func
	.type	Cy_SCB_UART_GetNumInRxFifo, %function
Cy_SCB_UART_GetNumInRxFifo:
.LFB207:
	.loc 3 1408 1
	.cfi_startproc
	@ args = 0, pretend = 0, frame = 8
	@ frame_needed = 1, uses_anonymous_args = 0
	push	{r7, lr}
.LCFI134:
	.cfi_def_cfa_offset 8
	.cfi_offset 7, -8
	.cfi_offset 14, -4
	sub	sp, sp, #8
.LCFI135:
	.cfi_def_cfa_offset 16
	add	r7, sp, #0
.LCFI136:
	.cfi_def_cfa_register 7
	str	r0, [r7, #4]
	.loc 3 1409 12
	ldr	r0, [r7, #4]
	bl	Cy_SCB_GetNumInRxFifo
	mov	r3, r0
	.loc 3 1410 1
	mov	r0, r3
	adds	r7, r7, #8
.LCFI137:
	.cfi_def_cfa_offset 8
	mov	sp, r7
.LCFI138:
	.cfi_def_cfa_register 13
	@ sp needed
	pop	{r7, pc}
	.cfi_endproc
.LFE207:
	.size	Cy_SCB_UART_GetNumInRxFifo, .-Cy_SCB_UART_GetNumInRxFifo
	.section	.text.Cy_SCB_UART_PutArray,"ax",%progbits
	.align	1
	.syntax unified
	.thumb
	.thumb_func
	.type	Cy_SCB_UART_PutArray, %function
Cy_SCB_UART_PutArray:
.LFB210:
	.loc 3 1481 1
	.cfi_startproc
	@ args = 0, pretend = 0, frame = 16
	@ frame_needed = 1, uses_anonymous_args = 0
	push	{r7, lr}
.LCFI139:
	.cfi_def_cfa_offset 8
	.cfi_offset 7, -8
	.cfi_offset 14, -4
	sub	sp, sp, #16
.LCFI140:
	.cfi_def_cfa_offset 24
	add	r7, sp, #0
.LCFI141:
	.cfi_def_cfa_register 7
	str	r0, [r7, #12]
	str	r1, [r7, #8]
	str	r2, [r7, #4]
	.loc 3 1482 12
	ldr	r3, [r7, #8]
	cmp	r3, #0
	beq	.L55
	.loc 3 1482 13 discriminator 2
	ldr	r3, [r7, #4]
	cmp	r3, #0
	bne	.L56
.L55:
	.loc 3 1482 41 discriminator 3
	bl	CY_HALT
.L56:
	.loc 3 1484 12
	ldr	r2, [r7, #4]
	ldr	r1, [r7, #8]
	ldr	r0, [r7, #12]
	bl	Cy_SCB_WriteArray
	mov	r3, r0
	.loc 3 1485 1
	mov	r0, r3
	adds	r7, r7, #16
.LCFI142:
	.cfi_def_cfa_offset 8
	mov	sp, r7
.LCFI143:
	.cfi_def_cfa_register 13
	@ sp needed
	pop	{r7, pc}
	.cfi_endproc
.LFE210:
	.size	Cy_SCB_UART_PutArray, .-Cy_SCB_UART_PutArray
	.section	.text.Cy_SCB_UART_IsTxComplete,"ax",%progbits
	.align	1
	.syntax unified
	.thumb
	.thumb_func
	.type	Cy_SCB_UART_IsTxComplete, %function
Cy_SCB_UART_IsTxComplete:
.LFB216:
	.loc 3 1623 1
	.cfi_startproc
	@ args = 0, pretend = 0, frame = 8
	@ frame_needed = 1, uses_anonymous_args = 0
	push	{r7, lr}
.LCFI144:
	.cfi_def_cfa_offset 8
	.cfi_offset 7, -8
	.cfi_offset 14, -4
	sub	sp, sp, #8
.LCFI145:
	.cfi_def_cfa_offset 16
	add	r7, sp, #0
.LCFI146:
	.cfi_def_cfa_register 7
	str	r0, [r7, #4]
	.loc 3 1624 12
	ldr	r0, [r7, #4]
	bl	Cy_SCB_IsTxComplete
	mov	r3, r0
	.loc 3 1625 1
	mov	r0, r3
	adds	r7, r7, #8
.LCFI147:
	.cfi_def_cfa_offset 8
	mov	sp, r7
.LCFI148:
	.cfi_def_cfa_register 13
	@ sp needed
	pop	{r7, pc}
	.cfi_endproc
.LFE216:
	.size	Cy_SCB_UART_IsTxComplete, .-Cy_SCB_UART_IsTxComplete
	.section	.text.Cy_SCB_UART_ClearTxFifo,"ax",%progbits
	.align	1
	.syntax unified
	.thumb
	.thumb_func
	.type	Cy_SCB_UART_ClearTxFifo, %function
Cy_SCB_UART_ClearTxFifo:
.LFB217:
	.loc 3 1645 1
	.cfi_startproc
	@ args = 0, pretend = 0, frame = 8
	@ frame_needed = 1, uses_anonymous_args = 0
	push	{r7, lr}
.LCFI149:
	.cfi_def_cfa_offset 8
	.cfi_offset 7, -8
	.cfi_offset 14, -4
	sub	sp, sp, #8
.LCFI150:
	.cfi_def_cfa_offset 16
	add	r7, sp, #0
.LCFI151:
	.cfi_def_cfa_register 7
	str	r0, [r7, #4]
	.loc 3 1646 5
	ldr	r0, [r7, #4]
	bl	Cy_SCB_ClearTxFifo
	.loc 3 1647 1
	nop
	adds	r7, r7, #8
.LCFI152:
	.cfi_def_cfa_offset 8
	mov	sp, r7
.LCFI153:
	.cfi_def_cfa_register 13
	@ sp needed
	pop	{r7, pc}
	.cfi_endproc
.LFE217:
	.size	Cy_SCB_UART_ClearTxFifo, .-Cy_SCB_UART_ClearTxFifo
	.section	.text.Cy_SCB_UART_SetOverSample,"ax",%progbits
	.align	1
	.global	Cy_SCB_UART_SetOverSample
	.syntax unified
	.thumb
	.thumb_func
	.type	Cy_SCB_UART_SetOverSample, %function
Cy_SCB_UART_SetOverSample:
.LFB219:
	.file 4 "libraries\\IFX_PSOC6_HAL\\mtb-pdl-cat1\\drivers\\source\\cy_scb_uart.c"
	.loc 4 70 1
	.cfi_startproc
	@ args = 0, pretend = 0, frame = 24
	@ frame_needed = 1, uses_anonymous_args = 0
	@ link register save eliminated.
	push	{r7}
.LCFI154:
	.cfi_def_cfa_offset 4
	.cfi_offset 7, -4
	sub	sp, sp, #28
.LCFI155:
	.cfi_def_cfa_offset 32
	add	r7, sp, #0
.LCFI156:
	.cfi_def_cfa_register 7
	str	r0, [r7, #12]
	str	r1, [r7, #8]
	str	r2, [r7, #4]
	.loc 4 73 7
	ldr	r3, [r7, #12]
	cmp	r3, #0
	beq	.L62
	.loc 4 73 22 discriminator 1
	ldr	r3, [r7, #4]
	cmp	r3, #0
	beq	.L62
	.loc 4 74 102 discriminator 2
	ldr	r3, [r7, #12]
	ldr	r3, [r3, #64]
	.loc 4 74 131 discriminator 2
	lsrs	r3, r3, #24
	and	r3, r3, #3
	.loc 4 74 40 discriminator 2
	uxtb	r3, r3
	.loc 4 73 7 discriminator 2
	cmp	r3, #0
	beq	.L63
	.loc 4 74 236
	ldr	r3, [r7, #12]
	ldr	r3, [r3, #64]
	.loc 4 74 265
	lsrs	r3, r3, #24
	and	r3, r3, #3
	.loc 4 74 174
	uxtb	r3, r3
	.loc 4 74 143
	cmp	r3, #1
	bne	.L64
.L63:
	.loc 4 74 303 discriminator 1
	ldr	r3, [r7, #8]
	cmp	r3, #7
	bls	.L65
	.loc 4 74 303 is_stmt 0 discriminator 3
	ldr	r3, [r7, #8]
	cmp	r3, #16
	bhi	.L65
	.loc 4 74 303 discriminator 5
	movs	r3, #1
	b	.L66
.L65:
	.loc 4 74 303 discriminator 6
	movs	r3, #0
.L66:
	.loc 4 73 43 is_stmt 1
	cmp	r3, #0
	beq	.L62
	b	.L67
.L64:
	.loc 4 74 20 discriminator 2
	ldr	r3, [r7, #4]
	ldrb	r3, [r3, #48]	@ zero_extendqisi2
	.loc 4 74 14 discriminator 2
	cmp	r3, #0
	beq	.L67
	.loc 4 74 213 discriminator 7
	ldr	r3, [r7, #8]
	cmp	r3, #1
	beq	.L68
	.loc 4 74 78 discriminator 9
	ldr	r3, [r7, #8]
	cmp	r3, #2
	beq	.L68
	.loc 4 74 105 discriminator 11
	ldr	r3, [r7, #8]
	cmp	r3, #3
	beq	.L68
	.loc 4 74 132 discriminator 13
	ldr	r3, [r7, #8]
	cmp	r3, #4
	beq	.L68
	.loc 4 74 159 discriminator 15
	ldr	r3, [r7, #8]
	cmp	r3, #5
	beq	.L68
	.loc 4 74 186 discriminator 17
	ldr	r3, [r7, #8]
	cmp	r3, #6
	beq	.L68
	.loc 4 74 213 discriminator 19
	ldr	r3, [r7, #8]
	cmp	r3, #7
	bne	.L69
.L68:
	.loc 4 74 213 is_stmt 0 discriminator 20
	movs	r3, #1
	b	.L70
.L69:
	.loc 4 74 213 discriminator 21
	movs	r3, #0
.L70:
	.loc 4 74 242 is_stmt 1 discriminator 23
	and	r3, r3, #1
	uxtb	r3, r3
	.loc 4 74 14 discriminator 23
	eor	r3, r3, #1
	uxtb	r3, r3
	cmp	r3, #0
	beq	.L67
.L62:
	.loc 4 76 16
	ldr	r3, .L74
	b	.L71
.L67:
	.loc 4 82 79
	ldr	r3, [r7, #12]
	ldr	r3, [r3, #64]
	.loc 4 82 108
	lsrs	r3, r3, #24
	and	r3, r3, #3
	.loc 4 82 8
	cmp	r3, #2
	bne	.L72
	.loc 4 82 130 discriminator 1
	ldr	r3, [r7, #4]
	ldrb	r3, [r3, #48]	@ zero_extendqisi2
	.loc 4 82 122 discriminator 1
	eor	r3, r3, #1
	uxtb	r3, r3
	.loc 4 82 118 discriminator 1
	cmp	r3, #0
	beq	.L72
	.loc 4 85 13
	movs	r3, #0
	str	r3, [r7, #20]
	b	.L73
.L72:
	.loc 4 89 13
	ldr	r3, [r7, #8]
	subs	r3, r3, #1
	str	r3, [r7, #20]
.L73:
	.loc 4 93 74
	ldr	r3, [r7, #12]
	ldr	r3, [r3]
	.loc 4 93 84
	bic	r2, r3, #15
	.loc 4 93 141
	ldr	r3, [r7, #20]
	and	r3, r3, #15
	.loc 4 93 110
	orrs	r2, r2, r3
	.loc 4 93 42
	ldr	r3, [r7, #12]
	str	r2, [r3]
	.loc 4 95 12
	movs	r3, #0
.L71:
	.loc 4 96 1
	mov	r0, r3
	adds	r7, r7, #28
.LCFI157:
	.cfi_def_cfa_offset 4
	mov	sp, r7
.LCFI158:
	.cfi_def_cfa_register 13
	@ sp needed
	ldr	r7, [sp], #4
.LCFI159:
	.cfi_restore 7
	.cfi_def_cfa_offset 0
	bx	lr
.L75:
	.align	2
.L74:
	.word	11165697
	.cfi_endproc
.LFE219:
	.size	Cy_SCB_UART_SetOverSample, .-Cy_SCB_UART_SetOverSample
	.section	.text.Cy_SCB_UART_SetDataWidth,"ax",%progbits
	.align	1
	.global	Cy_SCB_UART_SetDataWidth
	.syntax unified
	.thumb
	.thumb_func
	.type	Cy_SCB_UART_SetDataWidth, %function
Cy_SCB_UART_SetDataWidth:
.LFB220:
	.loc 4 117 1
	.cfi_startproc
	@ args = 0, pretend = 0, frame = 8
	@ frame_needed = 1, uses_anonymous_args = 0
	push	{r7, lr}
.LCFI160:
	.cfi_def_cfa_offset 8
	.cfi_offset 7, -8
	.cfi_offset 14, -4
	sub	sp, sp, #8
.LCFI161:
	.cfi_def_cfa_offset 16
	add	r7, sp, #0
.LCFI162:
	.cfi_def_cfa_register 7
	str	r0, [r7, #4]
	str	r1, [r7]
	.loc 4 118 12
	ldr	r3, [r7]
	cmp	r3, #4
	bls	.L77
	.loc 4 118 13 discriminator 2
	ldr	r3, [r7]
	cmp	r3, #9
	bls	.L78
.L77:
	.loc 4 118 68 discriminator 3
	bl	CY_HALT
.L78:
	.loc 4 121 5
	ldr	r3, [r7]
	cmp	r3, #8
	ite	ls
	movls	r3, #1
	movhi	r3, #0
	uxtb	r3, r3
	mov	r1, r3
	ldr	r0, [r7, #4]
	bl	Cy_SCB_SetByteMode
	.loc 4 123 77
	ldr	r3, [r7, #4]
	ldr	r3, [r3, #768]
	.loc 4 123 90
	bic	r2, r3, #15
	.loc 4 123 153
	ldr	r3, [r7]
	subs	r3, r3, #1
	.loc 4 123 161
	and	r3, r3, #15
	.loc 4 123 116
	orrs	r2, r2, r3
	.loc 4 123 45
	ldr	r3, [r7, #4]
	str	r2, [r3, #768]
	.loc 4 125 77
	ldr	r3, [r7, #4]
	ldr	r3, [r3, #512]
	.loc 4 125 90
	bic	r2, r3, #15
	.loc 4 125 153
	ldr	r3, [r7]
	subs	r3, r3, #1
	.loc 4 125 161
	and	r3, r3, #15
	.loc 4 125 116
	orrs	r2, r2, r3
	.loc 4 125 45
	ldr	r3, [r7, #4]
	str	r2, [r3, #512]
	.loc 4 126 1
	nop
	adds	r7, r7, #8
.LCFI163:
	.cfi_def_cfa_offset 8
	mov	sp, r7
.LCFI164:
	.cfi_def_cfa_register 13
	@ sp needed
	pop	{r7, pc}
	.cfi_endproc
.LFE220:
	.size	Cy_SCB_UART_SetDataWidth, .-Cy_SCB_UART_SetDataWidth
	.section	.text.Cy_SCB_UART_SetParity,"ax",%progbits
	.align	1
	.global	Cy_SCB_UART_SetParity
	.syntax unified
	.thumb
	.thumb_func
	.type	Cy_SCB_UART_SetParity, %function
Cy_SCB_UART_SetParity:
.LFB221:
	.loc 4 147 1
	.cfi_startproc
	@ args = 0, pretend = 0, frame = 8
	@ frame_needed = 1, uses_anonymous_args = 0
	push	{r7, lr}
.LCFI165:
	.cfi_def_cfa_offset 8
	.cfi_offset 7, -8
	.cfi_offset 14, -4
	sub	sp, sp, #8
.LCFI166:
	.cfi_def_cfa_offset 16
	add	r7, sp, #0
.LCFI167:
	.cfi_def_cfa_register 7
	str	r0, [r7, #4]
	mov	r3, r1
	strb	r3, [r7, #3]
	.loc 4 148 12
	ldrb	r3, [r7, #3]	@ zero_extendqisi2
	cmp	r3, #0
	beq	.L80
	.loc 4 148 55 discriminator 1
	ldrb	r3, [r7, #3]	@ zero_extendqisi2
	cmp	r3, #2
	beq	.L80
	.loc 4 148 13 discriminator 2
	ldrb	r3, [r7, #3]	@ zero_extendqisi2
	cmp	r3, #3
	beq	.L80
	.loc 4 148 142 discriminator 3
	bl	CY_HALT
.L80:
	.loc 4 151 82
	ldr	r3, [r7, #4]
	ldr	r3, [r3, #72]
	.loc 4 151 100
	bic	r2, r3, #48
	.loc 4 151 143
	ldrb	r3, [r7, #3]	@ zero_extendqisi2
	.loc 4 151 175
	lsls	r3, r3, #4
	.loc 4 151 183
	and	r3, r3, #48
	.loc 4 151 138
	orrs	r2, r2, r3
	.loc 4 151 50
	ldr	r3, [r7, #4]
	str	r2, [r3, #72]
	.loc 4 154 82
	ldr	r3, [r7, #4]
	ldr	r3, [r3, #68]
	.loc 4 154 100
	bic	r2, r3, #48
	.loc 4 154 143
	ldrb	r3, [r7, #3]	@ zero_extendqisi2
	.loc 4 154 175
	lsls	r3, r3, #4
	.loc 4 154 183
	and	r3, r3, #48
	.loc 4 154 138
	orrs	r2, r2, r3
	.loc 4 154 50
	ldr	r3, [r7, #4]
	str	r2, [r3, #68]
	.loc 4 155 1
	nop
	adds	r7, r7, #8
.LCFI168:
	.cfi_def_cfa_offset 8
	mov	sp, r7
.LCFI169:
	.cfi_def_cfa_register 13
	@ sp needed
	pop	{r7, pc}
	.cfi_endproc
.LFE221:
	.size	Cy_SCB_UART_SetParity, .-Cy_SCB_UART_SetParity
	.section	.text.Cy_SCB_UART_SetStopBits,"ax",%progbits
	.align	1
	.global	Cy_SCB_UART_SetStopBits
	.syntax unified
	.thumb
	.thumb_func
	.type	Cy_SCB_UART_SetStopBits, %function
Cy_SCB_UART_SetStopBits:
.LFB222:
	.loc 4 176 1
	.cfi_startproc
	@ args = 0, pretend = 0, frame = 8
	@ frame_needed = 1, uses_anonymous_args = 0
	push	{r7, lr}
.LCFI170:
	.cfi_def_cfa_offset 8
	.cfi_offset 7, -8
	.cfi_offset 14, -4
	sub	sp, sp, #8
.LCFI171:
	.cfi_def_cfa_offset 16
	add	r7, sp, #0
.LCFI172:
	.cfi_def_cfa_register 7
	str	r0, [r7, #4]
	mov	r3, r1
	strb	r3, [r7, #3]
	.loc 4 177 12
	ldrb	r3, [r7, #3]	@ zero_extendqisi2
	cmp	r3, #2
	beq	.L82
	.loc 4 177 57 discriminator 1
	ldrb	r3, [r7, #3]	@ zero_extendqisi2
	cmp	r3, #3
	beq	.L82
	.loc 4 177 102 discriminator 2
	ldrb	r3, [r7, #3]	@ zero_extendqisi2
	cmp	r3, #4
	beq	.L82
	.loc 4 177 145 discriminator 3
	ldrb	r3, [r7, #3]	@ zero_extendqisi2
	cmp	r3, #5
	beq	.L82
	.loc 4 177 190 discriminator 4
	ldrb	r3, [r7, #3]	@ zero_extendqisi2
	cmp	r3, #6
	beq	.L82
	.loc 4 177 233 discriminator 5
	ldrb	r3, [r7, #3]	@ zero_extendqisi2
	cmp	r3, #7
	beq	.L82
	.loc 4 177 13 discriminator 6
	ldrb	r3, [r7, #3]	@ zero_extendqisi2
	cmp	r3, #8
	beq	.L82
	.loc 4 177 327 discriminator 7
	bl	CY_HALT
.L82:
	.loc 4 180 82
	ldr	r3, [r7, #4]
	ldr	r3, [r3, #72]
	.loc 4 180 100
	bic	r2, r3, #7
	.loc 4 180 144
	ldrb	r3, [r7, #3]	@ zero_extendqisi2
	.loc 4 180 173
	subs	r3, r3, #1
	.loc 4 180 181
	and	r3, r3, #7
	.loc 4 180 126
	orrs	r2, r2, r3
	.loc 4 180 50
	ldr	r3, [r7, #4]
	str	r2, [r3, #72]
	.loc 4 183 82
	ldr	r3, [r7, #4]
	ldr	r3, [r3, #68]
	.loc 4 183 100
	bic	r2, r3, #7
	.loc 4 183 144
	ldrb	r3, [r7, #3]	@ zero_extendqisi2
	.loc 4 183 173
	subs	r3, r3, #1
	.loc 4 183 181
	and	r3, r3, #7
	.loc 4 183 126
	orrs	r2, r2, r3
	.loc 4 183 50
	ldr	r3, [r7, #4]
	str	r2, [r3, #68]
	.loc 4 184 1
	nop
	adds	r7, r7, #8
.LCFI173:
	.cfi_def_cfa_offset 8
	mov	sp, r7
.LCFI174:
	.cfi_def_cfa_register 13
	@ sp needed
	pop	{r7, pc}
	.cfi_endproc
.LFE222:
	.size	Cy_SCB_UART_SetStopBits, .-Cy_SCB_UART_SetStopBits
	.section	.text.Cy_SCB_UART_SetDropOnParityError,"ax",%progbits
	.align	1
	.global	Cy_SCB_UART_SetDropOnParityError
	.syntax unified
	.thumb
	.thumb_func
	.type	Cy_SCB_UART_SetDropOnParityError, %function
Cy_SCB_UART_SetDropOnParityError:
.LFB223:
	.loc 4 206 1
	.cfi_startproc
	@ args = 0, pretend = 0, frame = 8
	@ frame_needed = 1, uses_anonymous_args = 0
	@ link register save eliminated.
	push	{r7}
.LCFI175:
	.cfi_def_cfa_offset 4
	.cfi_offset 7, -4
	sub	sp, sp, #12
.LCFI176:
	.cfi_def_cfa_offset 16
	add	r7, sp, #0
.LCFI177:
	.cfi_def_cfa_register 7
	str	r0, [r7, #4]
	mov	r3, r1
	strb	r3, [r7, #3]
	.loc 4 208 82
	ldr	r3, [r7, #4]
	ldr	r3, [r3, #72]
	.loc 4 208 100
	bic	r2, r3, #256
	.loc 4 208 133
	ldrb	r3, [r7, #3]	@ zero_extendqisi2
	.loc 4 208 165
	lsls	r3, r3, #8
	.loc 4 208 173
	and	r3, r3, #256
	.loc 4 208 128
	orrs	r2, r2, r3
	.loc 4 208 50
	ldr	r3, [r7, #4]
	str	r2, [r3, #72]
	.loc 4 209 1
	nop
	adds	r7, r7, #12
.LCFI178:
	.cfi_def_cfa_offset 4
	mov	sp, r7
.LCFI179:
	.cfi_def_cfa_register 13
	@ sp needed
	ldr	r7, [sp], #4
.LCFI180:
	.cfi_restore 7
	.cfi_def_cfa_offset 0
	bx	lr
	.cfi_endproc
.LFE223:
	.size	Cy_SCB_UART_SetDropOnParityError, .-Cy_SCB_UART_SetDropOnParityError
	.section	.text.Cy_SCB_UART_SetEnableMsbFirst,"ax",%progbits
	.align	1
	.global	Cy_SCB_UART_SetEnableMsbFirst
	.syntax unified
	.thumb
	.thumb_func
	.type	Cy_SCB_UART_SetEnableMsbFirst, %function
Cy_SCB_UART_SetEnableMsbFirst:
.LFB224:
	.loc 4 231 1
	.cfi_startproc
	@ args = 0, pretend = 0, frame = 8
	@ frame_needed = 1, uses_anonymous_args = 0
	@ link register save eliminated.
	push	{r7}
.LCFI181:
	.cfi_def_cfa_offset 4
	.cfi_offset 7, -4
	sub	sp, sp, #12
.LCFI182:
	.cfi_def_cfa_offset 16
	add	r7, sp, #0
.LCFI183:
	.cfi_def_cfa_register 7
	str	r0, [r7, #4]
	mov	r3, r1
	strb	r3, [r7, #3]
	.loc 4 233 77
	ldr	r3, [r7, #4]
	ldr	r3, [r3, #768]
	.loc 4 233 90
	bic	r2, r3, #256
	.loc 4 233 123
	ldrb	r3, [r7, #3]	@ zero_extendqisi2
	.loc 4 233 152
	lsls	r3, r3, #8
	.loc 4 233 160
	and	r3, r3, #256
	.loc 4 233 118
	orrs	r2, r2, r3
	.loc 4 233 45
	ldr	r3, [r7, #4]
	str	r2, [r3, #768]
	.loc 4 236 77
	ldr	r3, [r7, #4]
	ldr	r3, [r3, #512]
	.loc 4 236 90
	bic	r2, r3, #256
	.loc 4 236 123
	ldrb	r3, [r7, #3]	@ zero_extendqisi2
	.loc 4 236 152
	lsls	r3, r3, #8
	.loc 4 236 160
	and	r3, r3, #256
	.loc 4 236 118
	orrs	r2, r2, r3
	.loc 4 236 45
	ldr	r3, [r7, #4]
	str	r2, [r3, #512]
	.loc 4 237 1
	nop
	adds	r7, r7, #12
.LCFI184:
	.cfi_def_cfa_offset 4
	mov	sp, r7
.LCFI185:
	.cfi_def_cfa_register 13
	@ sp needed
	ldr	r7, [sp], #4
.LCFI186:
	.cfi_restore 7
	.cfi_def_cfa_offset 0
	bx	lr
	.cfi_endproc
.LFE224:
	.size	Cy_SCB_UART_SetEnableMsbFirst, .-Cy_SCB_UART_SetEnableMsbFirst
	.section	.text.Cy_SCB_UART_Init,"ax",%progbits
	.align	1
	.global	Cy_SCB_UART_Init
	.syntax unified
	.thumb
	.thumb_func
	.type	Cy_SCB_UART_Init, %function
Cy_SCB_UART_Init:
.LFB225:
	.loc 4 267 1
	.cfi_startproc
	@ args = 0, pretend = 0, frame = 24
	@ frame_needed = 1, uses_anonymous_args = 0
	push	{r4, r7, lr}
.LCFI187:
	.cfi_def_cfa_offset 12
	.cfi_offset 4, -12
	.cfi_offset 7, -8
	.cfi_offset 14, -4
	sub	sp, sp, #28
.LCFI188:
	.cfi_def_cfa_offset 40
	add	r7, sp, #0
.LCFI189:
	.cfi_def_cfa_register 7
	str	r0, [r7, #12]
	str	r1, [r7, #8]
	str	r2, [r7, #4]
	.loc 4 268 8
	ldr	r3, [r7, #12]
	cmp	r3, #0
	beq	.L86
	.loc 4 268 23 discriminator 1
	ldr	r3, [r7, #8]
	cmp	r3, #0
	bne	.L87
.L86:
	.loc 4 270 16
	ldr	r3, .L155
	b	.L88
.L87:
	.loc 4 273 49
	ldr	r3, [r7, #8]
	ldrb	r3, [r3]	@ zero_extendqisi2
	.loc 4 273 12
	cmp	r3, #0
	beq	.L89
	.loc 4 273 98 discriminator 1
	ldr	r3, [r7, #8]
	ldrb	r3, [r3]	@ zero_extendqisi2
	.loc 4 273 62 discriminator 1
	cmp	r3, #1
	beq	.L89
	.loc 4 273 142 discriminator 2
	ldr	r3, [r7, #8]
	ldrb	r3, [r3]	@ zero_extendqisi2
	.loc 4 273 13 discriminator 2
	cmp	r3, #2
	beq	.L89
	.loc 4 273 161 discriminator 3
	bl	CY_HALT
.L89:
	.loc 4 274 52
	ldr	r3, [r7, #8]
	ldrb	r3, [r3, #13]	@ zero_extendqisi2
	.loc 4 274 12
	cmp	r3, #2
	beq	.L90
	.loc 4 274 105 discriminator 1
	ldr	r3, [r7, #8]
	ldrb	r3, [r3, #13]	@ zero_extendqisi2
	.loc 4 274 65 discriminator 1
	cmp	r3, #3
	beq	.L90
	.loc 4 274 156 discriminator 2
	ldr	r3, [r7, #8]
	ldrb	r3, [r3, #13]	@ zero_extendqisi2
	.loc 4 274 118 discriminator 2
	cmp	r3, #4
	beq	.L90
	.loc 4 274 209 discriminator 3
	ldr	r3, [r7, #8]
	ldrb	r3, [r3, #13]	@ zero_extendqisi2
	.loc 4 274 169 discriminator 3
	cmp	r3, #5
	beq	.L90
	.loc 4 274 260 discriminator 4
	ldr	r3, [r7, #8]
	ldrb	r3, [r3, #13]	@ zero_extendqisi2
	.loc 4 274 222 discriminator 4
	cmp	r3, #6
	beq	.L90
	.loc 4 274 313 discriminator 5
	ldr	r3, [r7, #8]
	ldrb	r3, [r3, #13]	@ zero_extendqisi2
	.loc 4 274 273 discriminator 5
	cmp	r3, #7
	beq	.L90
	.loc 4 274 364 discriminator 6
	ldr	r3, [r7, #8]
	ldrb	r3, [r3, #13]	@ zero_extendqisi2
	.loc 4 274 13 discriminator 6
	cmp	r3, #8
	beq	.L90
	.loc 4 274 383 discriminator 7
	bl	CY_HALT
.L90:
	.loc 4 275 52
	ldr	r3, [r7, #8]
	ldrb	r3, [r3, #14]	@ zero_extendqisi2
	.loc 4 275 12
	cmp	r3, #0
	beq	.L91
	.loc 4 275 101 discriminator 1
	ldr	r3, [r7, #8]
	ldrb	r3, [r3, #14]	@ zero_extendqisi2
	.loc 4 275 63 discriminator 1
	cmp	r3, #2
	beq	.L91
	.loc 4 275 149 discriminator 2
	ldr	r3, [r7, #8]
	ldrb	r3, [r3, #14]	@ zero_extendqisi2
	.loc 4 275 13 discriminator 2
	cmp	r3, #3
	beq	.L91
	.loc 4 275 166 discriminator 3
	bl	CY_HALT
.L91:
	.loc 4 276 51
	ldr	r3, [r7, #8]
	ldrb	r3, [r3, #33]	@ zero_extendqisi2
	.loc 4 276 12
	cmp	r3, #0
	beq	.L92
	.loc 4 276 105 discriminator 1
	ldr	r3, [r7, #8]
	ldrb	r3, [r3, #33]	@ zero_extendqisi2
	.loc 4 276 13 discriminator 1
	cmp	r3, #1
	beq	.L92
	.loc 4 276 127 discriminator 2
	bl	CY_HALT
.L92:
	.loc 4 277 51
	ldr	r3, [r7, #8]
	ldrb	r3, [r3, #40]	@ zero_extendqisi2
	.loc 4 277 12
	cmp	r3, #0
	beq	.L93
	.loc 4 277 105 discriminator 1
	ldr	r3, [r7, #8]
	ldrb	r3, [r3, #40]	@ zero_extendqisi2
	.loc 4 277 13 discriminator 1
	cmp	r3, #1
	beq	.L93
	.loc 4 277 127 discriminator 2
	bl	CY_HALT
.L93:
	.loc 4 279 50
	ldr	r3, [r7, #8]
	ldrb	r3, [r3]	@ zero_extendqisi2
	.loc 4 279 13
	cmp	r3, #0
	beq	.L94
	.loc 4 279 99 discriminator 2
	ldr	r3, [r7, #8]
	ldrb	r3, [r3]	@ zero_extendqisi2
	.loc 4 279 63 discriminator 2
	cmp	r3, #1
	bne	.L95
.L94:
	.loc 4 279 124 discriminator 3
	ldr	r3, [r7, #8]
	ldr	r3, [r3, #4]
	.loc 4 279 146 discriminator 3
	cmp	r3, #7
	bls	.L96
	.loc 4 279 157 discriminator 6
	ldr	r3, [r7, #8]
	ldr	r3, [r3, #4]
	.loc 4 279 146 discriminator 6
	cmp	r3, #16
	bls	.L97
.L96:
	.loc 4 279 146 is_stmt 0 discriminator 7
	movs	r3, #1
	b	.L98
.L97:
	.loc 4 279 146 discriminator 8
	movs	r3, #0
.L98:
	.loc 4 279 13 is_stmt 1 discriminator 10
	and	r3, r3, #1
	uxtb	r3, r3
	b	.L99
.L95:
	.loc 4 279 14 discriminator 4
	ldr	r3, [r7, #8]
	ldrb	r3, [r3, #30]	@ zero_extendqisi2
	.loc 4 279 13 discriminator 4
	cmp	r3, #0
	beq	.L100
	.loc 4 279 65 discriminator 12
	ldr	r3, [r7, #8]
	ldr	r3, [r3, #4]
	.loc 4 279 255 discriminator 12
	cmp	r3, #1
	beq	.L101
	.loc 4 279 100 discriminator 15
	ldr	r3, [r7, #8]
	ldr	r3, [r3, #4]
	.loc 4 279 80 discriminator 15
	cmp	r3, #2
	beq	.L101
	.loc 4 279 135 discriminator 17
	ldr	r3, [r7, #8]
	ldr	r3, [r3, #4]
	.loc 4 279 115 discriminator 17
	cmp	r3, #3
	beq	.L101
	.loc 4 279 170 discriminator 19
	ldr	r3, [r7, #8]
	ldr	r3, [r3, #4]
	.loc 4 279 150 discriminator 19
	cmp	r3, #4
	beq	.L101
	.loc 4 279 205 discriminator 21
	ldr	r3, [r7, #8]
	ldr	r3, [r3, #4]
	.loc 4 279 185 discriminator 21
	cmp	r3, #5
	beq	.L101
	.loc 4 279 240 discriminator 23
	ldr	r3, [r7, #8]
	ldr	r3, [r3, #4]
	.loc 4 279 220 discriminator 23
	cmp	r3, #6
	beq	.L101
	.loc 4 279 275 discriminator 25
	ldr	r3, [r7, #8]
	ldr	r3, [r3, #4]
	.loc 4 279 255 discriminator 25
	cmp	r3, #7
	bne	.L102
.L101:
	.loc 4 279 255 is_stmt 0 discriminator 26
	movs	r3, #1
	b	.L103
.L102:
	.loc 4 279 255 discriminator 27
	movs	r3, #0
.L103:
	.loc 4 279 292 is_stmt 1 discriminator 29
	and	r3, r3, #1
	uxtb	r3, r3
	.loc 4 279 13 discriminator 29
	eor	r3, r3, #1
	uxtb	r3, r3
	cmp	r3, #0
	beq	.L100
	.loc 4 279 13 is_stmt 0 discriminator 30
	movs	r3, #1
	b	.L99
.L100:
	.loc 4 279 13 discriminator 31
	movs	r3, #0
.L99:
	.loc 4 279 12 is_stmt 1 discriminator 34
	cmp	r3, #0
	beq	.L105
	.loc 4 279 12 discriminator 35
	bl	CY_HALT
.L105:
	.loc 4 280 25
	ldr	r3, [r7, #8]
	ldr	r3, [r3, #8]
	.loc 4 280 12
	cmp	r3, #4
	bls	.L106
	.loc 4 280 57 discriminator 2
	ldr	r3, [r7, #8]
	ldr	r3, [r3, #8]
	.loc 4 280 13 discriminator 2
	cmp	r3, #9
	bls	.L107
.L106:
	.loc 4 280 84 discriminator 3
	bl	CY_HALT
.L107:
	.loc 4 281 23
	ldr	r3, [r7, #8]
	ldr	r3, [r3, #20]
	.loc 4 281 12
	cmp	r3, #255
	bls	.L108
	.loc 4 281 57 discriminator 1
	bl	CY_HALT
.L108:
	.loc 4 282 23
	ldr	r3, [r7, #8]
	ldr	r3, [r3, #24]
	.loc 4 282 12
	cmp	r3, #255
	bls	.L109
	.loc 4 282 61 discriminator 1
	bl	CY_HALT
.L109:
	.loc 4 284 24
	ldr	r3, [r7, #8]
	ldrb	r3, [r3, #18]	@ zero_extendqisi2
	.loc 4 284 12
	cmp	r3, #0
	beq	.L110
	.loc 4 284 87 discriminator 1
	ldr	r3, [r7, #8]
	ldrb	r3, [r3]	@ zero_extendqisi2
	.loc 4 284 13 discriminator 1
	cmp	r3, #0
	bne	.L111
	.loc 4 284 111 discriminator 3
	ldr	r3, [r7, #8]
	ldr	r3, [r3, #8]
	.loc 4 284 100 discriminator 3
	cmp	r3, #9
	bne	.L111
	.loc 4 284 170 discriminator 5
	ldr	r3, [r7, #8]
	ldrb	r3, [r3, #14]	@ zero_extendqisi2
	.loc 4 284 132 discriminator 5
	cmp	r3, #0
	beq	.L110
.L111:
	.loc 4 284 10 discriminator 6
	bl	CY_HALT
.L110:
	.loc 4 286 32
	ldr	r3, [r7, #8]
	ldr	r3, [r3, #52]
	.loc 4 286 55
	bic	r3, r3, #2912
	bic	r3, r3, #13
	.loc 4 286 12
	cmp	r3, #0
	beq	.L112
	.loc 4 286 168 discriminator 1
	bl	CY_HALT
.L112:
	.loc 4 287 32
	ldr	r3, [r7, #8]
	ldr	r3, [r3, #60]
	.loc 4 287 55
	bic	r3, r3, #1904
	bic	r3, r3, #3
	.loc 4 287 12
	cmp	r3, #0
	beq	.L113
	.loc 4 287 169 discriminator 1
	bl	CY_HALT
.L113:
	.loc 4 291 36
	ldr	r3, [r7, #8]
	ldrb	r3, [r3]	@ zero_extendqisi2
	.loc 4 291 8
	cmp	r3, #2
	bne	.L114
	.loc 4 291 59 discriminator 1
	ldr	r3, [r7, #8]
	ldrb	r3, [r3, #30]	@ zero_extendqisi2
	.loc 4 291 52 discriminator 1
	eor	r3, r3, #1
	uxtb	r3, r3
	.loc 4 291 48 discriminator 1
	cmp	r3, #0
	beq	.L114
	.loc 4 294 13
	movs	r3, #0
	str	r3, [r7, #20]
	b	.L115
.L114:
	.loc 4 298 22
	ldr	r3, [r7, #8]
	ldr	r3, [r3, #4]
	.loc 4 298 13
	subs	r3, r3, #1
	str	r3, [r7, #20]
.L115:
	.loc 4 308 50
	ldr	r3, [r7, #8]
	ldrb	r3, [r3, #28]	@ zero_extendqisi2
	.loc 4 308 37
	cmp	r3, #0
	beq	.L116
	.loc 4 308 37 is_stmt 0 discriminator 1
	mov	r2, #65536
	b	.L117
.L116:
	.loc 4 308 37 discriminator 2
	movs	r2, #0
.L117:
	.loc 4 309 28 is_stmt 1
	ldr	r3, [r7, #8]
	ldr	r3, [r3, #8]
	.loc 4 309 31
	cmp	r3, #8
	bhi	.L118
	.loc 4 309 31 is_stmt 0 discriminator 1
	mov	r3, #2048
	b	.L119
.L156:
	.align	2
.L155:
	.word	11165697
.L118:
	.loc 4 309 31 discriminator 2
	movs	r3, #0
.L119:
	.loc 4 308 44 is_stmt 1
	orrs	r2, r2, r3
	.loc 4 310 44
	ldr	r3, [r7, #20]
	and	r3, r3, #15
	.loc 4 309 38
	orrs	r3, r3, r2
	.loc 4 310 53
	orr	r2, r3, #33554432
	.loc 4 308 39
	ldr	r3, [r7, #12]
	str	r2, [r3]
	.loc 4 314 23
	ldr	r3, [r7, #8]
	ldr	r4, [r3, #48]
	.loc 4 314 47
	ldr	r0, [r7, #12]
	bl	Cy_SCB_GetFifoSize
	mov	r3, r0
	.loc 4 314 12
	cmp	r4, r3
	bcc	.L120
	.loc 4 314 77 discriminator 1
	bl	CY_HALT
.L120:
	.loc 4 315 23
	ldr	r3, [r7, #8]
	ldr	r4, [r3, #56]
	.loc 4 315 47
	ldr	r0, [r7, #12]
	bl	Cy_SCB_GetFifoSize
	mov	r3, r0
	.loc 4 315 12
	cmp	r4, r3
	bcc	.L121
	.loc 4 315 77 discriminator 1
	bl	CY_HALT
.L121:
	.loc 4 316 23
	ldr	r3, [r7, #8]
	ldr	r4, [r3, #36]
	.loc 4 316 43
	ldr	r0, [r7, #12]
	bl	Cy_SCB_GetFifoSize
	mov	r3, r0
	.loc 4 316 12
	cmp	r4, r3
	bcc	.L122
	.loc 4 316 73 discriminator 1
	bl	CY_HALT
.L122:
	.loc 4 318 76
	ldr	r3, [r7, #8]
	ldrb	r3, [r3]	@ zero_extendqisi2
	.loc 4 318 88
	lsls	r3, r3, #24
	.loc 4 318 97
	and	r2, r3, #50331648
	.loc 4 318 44
	ldr	r3, [r7, #12]
	str	r2, [r3, #64]
	.loc 4 321 58
	ldr	r3, [r7, #8]
	ldrb	r3, [r3, #29]	@ zero_extendqisi2
	.loc 4 321 42
	cmp	r3, #0
	beq	.L123
	.loc 4 321 42 is_stmt 0 discriminator 1
	movs	r2, #64
	b	.L124
.L123:
	.loc 4 321 42 discriminator 2
	movs	r2, #0
.L124:
	.loc 4 322 35 is_stmt 1
	ldr	r3, [r7, #8]
	ldrb	r3, [r3, #18]	@ zero_extendqisi2
	.loc 4 322 39
	cmp	r3, #0
	beq	.L125
	.loc 4 322 39 is_stmt 0 discriminator 1
	mov	r3, #1024
	b	.L126
.L125:
	.loc 4 322 39 discriminator 2
	movs	r3, #0
.L126:
	.loc 4 321 49 is_stmt 1
	orrs	r3, r3, r2
	.loc 4 323 35
	ldr	r2, [r7, #8]
	ldrb	r2, [r2, #16]	@ zero_extendqisi2
	.loc 4 323 39
	cmp	r2, #0
	beq	.L127
	.loc 4 323 39 is_stmt 0 discriminator 1
	mov	r2, #256
	b	.L128
.L127:
	.loc 4 323 39 discriminator 2
	movs	r2, #0
.L128:
	.loc 4 322 46 is_stmt 1
	orrs	r3, r3, r2
	.loc 4 324 35
	ldr	r2, [r7, #8]
	ldrb	r2, [r2, #17]	@ zero_extendqisi2
	.loc 4 324 39
	cmp	r2, #0
	beq	.L129
	.loc 4 324 39 is_stmt 0 discriminator 1
	mov	r2, #512
	b	.L130
.L129:
	.loc 4 324 39 discriminator 2
	movs	r2, #0
.L130:
	.loc 4 323 46 is_stmt 1
	orrs	r2, r2, r3
	.loc 4 325 46
	ldr	r3, [r7, #8]
	ldr	r3, [r3, #44]
	.loc 4 325 28
	subs	r3, r3, #1
	.loc 4 325 67
	lsls	r3, r3, #16
	.loc 4 325 76
	and	r3, r3, #983040
	.loc 4 324 46
	orrs	r2, r2, r3
	.loc 4 326 57
	ldr	r3, [r7, #8]
	ldrb	r3, [r3, #13]	@ zero_extendqisi2
	.loc 4 326 76
	subs	r3, r3, #1
	.loc 4 326 84
	and	r3, r3, #7
	.loc 4 325 89
	orrs	r2, r2, r3
	.loc 4 327 56
	ldr	r3, [r7, #8]
	ldrb	r3, [r3, #14]	@ zero_extendqisi2
	.loc 4 327 66
	lsls	r3, r3, #4
	.loc 4 327 74
	and	r3, r3, #48
	.loc 4 326 93
	orrs	r2, r2, r3
	.loc 4 321 47
	ldr	r3, [r7, #12]
	str	r2, [r3, #72]
	.loc 4 332 53
	ldr	r3, [r7, #8]
	ldrb	r3, [r3, #12]	@ zero_extendqisi2
	.loc 4 332 38
	cmp	r3, #0
	beq	.L131
	.loc 4 332 38 is_stmt 0 discriminator 1
	mov	r2, #256
	b	.L132
.L131:
	.loc 4 332 38 discriminator 2
	movs	r2, #0
.L132:
	.loc 4 333 32 is_stmt 1
	ldr	r3, [r7, #8]
	ldrb	r3, [r3, #15]	@ zero_extendqisi2
	.loc 4 333 53
	cmp	r3, #0
	bne	.L133
	.loc 4 333 63 discriminator 2
	ldr	r3, [r7, #8]
	ldrb	r3, [r3]	@ zero_extendqisi2
	.loc 4 333 53 discriminator 2
	cmp	r3, #2
	bne	.L134
.L133:
	.loc 4 333 53 is_stmt 0 discriminator 3
	movs	r3, #1
	b	.L135
.L134:
	.loc 4 333 53 discriminator 4
	movs	r3, #0
.L135:
	.loc 4 333 34 is_stmt 1 discriminator 6
	cmp	r3, #0
	beq	.L136
	.loc 4 333 34 is_stmt 0 discriminator 7
	mov	r3, #512
	b	.L137
.L136:
	.loc 4 333 34 discriminator 8
	movs	r3, #0
.L137:
	.loc 4 332 45 is_stmt 1
	orrs	r2, r2, r3
	.loc 4 335 41
	ldr	r3, [r7, #8]
	ldr	r3, [r3, #8]
	.loc 4 335 61
	subs	r3, r3, #1
	.loc 4 335 69
	and	r3, r3, #15
	.loc 4 334 87
	orrs	r2, r2, r3
	.loc 4 332 42
	ldr	r3, [r7, #12]
	str	r2, [r3, #768]
	.loc 4 337 64
	ldr	r3, [r7, #8]
	ldr	r3, [r3, #20]
	.loc 4 337 91
	uxtb	r2, r3
	.loc 4 338 41
	ldr	r3, [r7, #8]
	ldr	r3, [r3, #24]
	.loc 4 338 64
	lsls	r3, r3, #16
	.loc 4 338 73
	and	r3, r3, #16711680
	.loc 4 337 101
	orrs	r2, r2, r3
	.loc 4 337 43
	ldr	r3, [r7, #12]
	str	r2, [r3, #784]
	.loc 4 341 25
	ldr	r3, [r7, #8]
	ldr	r2, [r3, #44]
	.loc 4 341 62
	ldr	r3, [r7, #12]
	ldr	r3, [r3, #768]
	.loc 4 341 82
	and	r3, r3, #15
	.loc 4 341 90
	adds	r3, r3, #3
	.loc 4 341 12
	cmp	r2, r3
	bcc	.L138
	.loc 4 341 109 discriminator 2
	ldr	r3, [r7, #8]
	ldr	r3, [r3, #44]
	.loc 4 341 13 discriminator 2
	cmp	r3, #16
	bls	.L139
.L138:
	.loc 4 341 138 discriminator 3
	bl	CY_HALT
.L139:
	.loc 4 344 60
	ldr	r3, [r7, #8]
	ldrb	r3, [r3, #31]	@ zero_extendqisi2
	.loc 4 344 84
	cmp	r3, #0
	beq	.L140
	.loc 4 344 94 discriminator 1
	ldr	r3, [r7, #8]
	ldrb	r3, [r3]	@ zero_extendqisi2
	.loc 4 344 84 discriminator 1
	cmp	r3, #1
	bne	.L140
	.loc 4 344 84 is_stmt 0 discriminator 3
	movs	r3, #1
	b	.L141
.L140:
	.loc 4 344 84 discriminator 4
	movs	r3, #0
.L141:
	.loc 4 344 43 is_stmt 1 discriminator 6
	cmp	r3, #0
	beq	.L142
	.loc 4 344 43 is_stmt 0 discriminator 7
	mov	r2, #256
	b	.L143
.L142:
	.loc 4 344 43 discriminator 8
	movs	r2, #0
.L143:
	.loc 4 346 57 is_stmt 1
	ldr	r3, [r7, #8]
	ldrb	r3, [r3, #13]	@ zero_extendqisi2
	.loc 4 346 76
	subs	r3, r3, #1
	.loc 4 346 84
	and	r3, r3, #7
	.loc 4 345 109
	orrs	r2, r2, r3
	.loc 4 347 56
	ldr	r3, [r7, #8]
	ldrb	r3, [r3, #14]	@ zero_extendqisi2
	.loc 4 347 66
	lsls	r3, r3, #4
	.loc 4 347 74
	and	r3, r3, #48
	.loc 4 346 93
	orrs	r2, r2, r3
	.loc 4 344 47
	ldr	r3, [r7, #12]
	str	r2, [r3, #68]
	.loc 4 349 53
	ldr	r3, [r7, #8]
	ldrb	r3, [r3, #12]	@ zero_extendqisi2
	.loc 4 349 39
	cmp	r3, #0
	beq	.L144
	.loc 4 349 39 is_stmt 0 discriminator 1
	mov	r2, #256
	b	.L145
.L144:
	.loc 4 349 39 discriminator 2
	movs	r2, #0
.L145:
	.loc 4 350 42 is_stmt 1
	ldr	r3, [r7, #8]
	ldr	r3, [r3, #8]
	.loc 4 350 62
	subs	r3, r3, #1
	.loc 4 350 70
	and	r3, r3, #15
	.loc 4 349 46
	orrs	r3, r3, r2
	.loc 4 351 32
	ldr	r2, [r7, #8]
	ldrb	r2, [r2]	@ zero_extendqisi2
	.loc 4 351 37
	cmp	r2, #1
	bne	.L146
	.loc 4 351 37 is_stmt 0 discriminator 1
	mov	r2, #65536
	b	.L147
.L146:
	.loc 4 351 37 discriminator 2
	movs	r2, #0
.L147:
	.loc 4 350 79 is_stmt 1
	orrs	r2, r2, r3
	.loc 4 349 42
	ldr	r3, [r7, #12]
	str	r2, [r3, #512]
	.loc 4 353 68
	ldr	r3, [r7, #8]
	ldr	r3, [r3, #48]
	.loc 4 353 98
	uxtb	r2, r3
	.loc 4 353 47
	ldr	r3, [r7, #12]
	str	r2, [r3, #772]
	.loc 4 356 60
	ldr	r3, [r7, #8]
	ldrb	r3, [r3, #32]	@ zero_extendqisi2
	.loc 4 356 49
	cmp	r3, #0
	beq	.L148
	.loc 4 356 49 is_stmt 0 discriminator 1
	mov	r2, #33554432
	b	.L149
.L148:
	.loc 4 356 49 discriminator 2
	movs	r2, #0
.L149:
	.loc 4 357 65 is_stmt 1
	ldr	r3, [r7, #8]
	ldrb	r3, [r3, #33]	@ zero_extendqisi2
	.loc 4 357 45
	cmp	r3, #1
	bne	.L150
	.loc 4 357 45 is_stmt 0 discriminator 1
	mov	r3, #16777216
	b	.L151
.L150:
	.loc 4 357 45 discriminator 2
	movs	r3, #0
.L151:
	.loc 4 356 56 is_stmt 1
	orrs	r3, r3, r2
	.loc 4 358 65
	ldr	r2, [r7, #8]
	ldrb	r2, [r2, #40]	@ zero_extendqisi2
	.loc 4 358 43
	cmp	r2, #1
	bne	.L152
	.loc 4 358 43 is_stmt 0 discriminator 1
	mov	r2, #65536
	b	.L153
.L152:
	.loc 4 358 43 discriminator 2
	movs	r2, #0
.L153:
	.loc 4 357 52 is_stmt 1
	orrs	r2, r2, r3
	.loc 4 359 47
	ldr	r3, [r7, #8]
	ldr	r3, [r3, #36]
	.loc 4 359 73
	uxtb	r3, r3
	.loc 4 358 50
	orrs	r2, r2, r3
	.loc 4 356 49
	ldr	r3, [r7, #12]
	str	r2, [r3, #80]
	.loc 4 361 68
	ldr	r3, [r7, #8]
	ldr	r3, [r3, #56]
	.loc 4 361 98
	uxtb	r2, r3
	.loc 4 361 47
	ldr	r3, [r7, #12]
	str	r2, [r3, #516]
	.loc 4 364 56
	ldr	r3, [r7, #8]
	ldr	r2, [r3, #52]
	.loc 4 364 78
	movw	r3, #2925
	ands	r3, r3, r2
	.loc 4 364 47
	ldr	r2, [r7, #12]
	str	r3, [r2, #4040]
	.loc 4 365 56
	ldr	r3, [r7, #8]
	ldr	r2, [r3, #60]
	.loc 4 365 78
	movw	r3, #1907
	ands	r3, r3, r2
	.loc 4 365 47
	ldr	r2, [r7, #12]
	str	r3, [r2, #3976]
	.loc 4 368 8
	ldr	r3, [r7, #4]
	cmp	r3, #0
	beq	.L154
	.loc 4 370 27
	ldr	r3, [r7, #4]
	movs	r2, #0
	str	r2, [r3, #4]
	.loc 4 371 27
	ldr	r3, [r7, #4]
	movs	r2, #0
	str	r2, [r3]
	.loc 4 373 28
	ldr	r3, [r7, #4]
	movs	r2, #0
	str	r2, [r3, #8]
	.loc 4 374 32
	ldr	r3, [r7, #4]
	movs	r2, #0
	str	r2, [r3, #12]
	.loc 4 376 27
	ldr	r3, [r7, #4]
	movs	r2, #0
	str	r2, [r3, #32]
	.loc 4 377 35
	ldr	r3, [r7, #4]
	movs	r2, #0
	str	r2, [r3, #44]
	.loc 4 379 27
	ldr	r3, [r7, #4]
	movs	r2, #0
	str	r2, [r3, #52]
	.loc 4 380 53
	ldr	r3, [r7, #8]
	ldrb	r2, [r3, #30]	@ zero_extendqisi2
	.loc 4 380 45
	ldr	r3, [r7, #4]
	strb	r2, [r3, #48]
	.loc 4 386 26
	ldr	r3, [r7, #4]
	ldr	r2, .L157
	str	r2, [r3, #56]
.L154:
	.loc 4 390 12
	movs	r3, #0
.L88:
	.loc 4 391 1
	mov	r0, r3
	adds	r7, r7, #28
.LCFI190:
	.cfi_def_cfa_offset 12
	mov	sp, r7
.LCFI191:
	.cfi_def_cfa_register 13
	@ sp needed
	pop	{r4, r7, pc}
.L158:
	.align	2
.L157:
	.word	11259375
	.cfi_endproc
.LFE225:
	.size	Cy_SCB_UART_Init, .-Cy_SCB_UART_Init
	.section	.text.Cy_SCB_UART_DeInit,"ax",%progbits
	.align	1
	.global	Cy_SCB_UART_DeInit
	.syntax unified
	.thumb
	.thumb_func
	.type	Cy_SCB_UART_DeInit, %function
Cy_SCB_UART_DeInit:
.LFB226:
	.loc 4 408 1
	.cfi_startproc
	@ args = 0, pretend = 0, frame = 8
	@ frame_needed = 1, uses_anonymous_args = 0
	@ link register save eliminated.
	push	{r7}
.LCFI192:
	.cfi_def_cfa_offset 4
	.cfi_offset 7, -4
	sub	sp, sp, #12
.LCFI193:
	.cfi_def_cfa_offset 16
	add	r7, sp, #0
.LCFI194:
	.cfi_def_cfa_register 7
	str	r0, [r7, #4]
	.loc 4 410 39
	ldr	r3, [r7, #4]
	ldr	r2, .L160
	str	r2, [r3]
	.loc 4 411 44
	ldr	r3, [r7, #4]
	mov	r2, #50331648
	str	r2, [r3, #64]
	.loc 4 414 47
	ldr	r3, [r7, #4]
	movs	r2, #0
	str	r2, [r3, #72]
	.loc 4 415 42
	ldr	r3, [r7, #4]
	movw	r2, #263
	str	r2, [r3, #768]
	.loc 4 416 47
	ldr	r3, [r7, #4]
	movs	r2, #0
	str	r2, [r3, #772]
	.loc 4 417 43
	ldr	r3, [r7, #4]
	movs	r2, #0
	str	r2, [r3, #784]
	.loc 4 420 47
	ldr	r3, [r7, #4]
	movs	r2, #0
	str	r2, [r3, #68]
	.loc 4 421 42
	ldr	r3, [r7, #4]
	movw	r2, #263
	str	r2, [r3, #512]
	.loc 4 422 47
	ldr	r3, [r7, #4]
	movs	r2, #0
	str	r2, [r3, #516]
	.loc 4 425 49
	ldr	r3, [r7, #4]
	movs	r2, #0
	str	r2, [r3, #80]
	.loc 4 428 51
	ldr	r3, [r7, #4]
	movs	r2, #0
	str	r2, [r3, #3784]
	.loc 4 429 51
	ldr	r3, [r7, #4]
	movs	r2, #0
	str	r2, [r3, #3720]
	.loc 4 430 47
	ldr	r3, [r7, #4]
	movs	r2, #0
	str	r2, [r3, #4040]
	.loc 4 431 47
	ldr	r3, [r7, #4]
	movs	r2, #0
	str	r2, [r3, #3976]
	.loc 4 432 46
	ldr	r3, [r7, #4]
	movs	r2, #0
	str	r2, [r3, #3848]
	.loc 4 433 46
	ldr	r3, [r7, #4]
	movs	r2, #0
	str	r2, [r3, #3912]
	.loc 4 434 1
	nop
	adds	r7, r7, #12
.LCFI195:
	.cfi_def_cfa_offset 4
	mov	sp, r7
.LCFI196:
	.cfi_def_cfa_register 13
	@ sp needed
	ldr	r7, [sp], #4
.LCFI197:
	.cfi_restore 7
	.cfi_def_cfa_offset 0
	bx	lr
.L161:
	.align	2
.L160:
	.word	50331663
	.cfi_endproc
.LFE226:
	.size	Cy_SCB_UART_DeInit, .-Cy_SCB_UART_DeInit
	.section	.text.Cy_SCB_UART_Disable,"ax",%progbits
	.align	1
	.global	Cy_SCB_UART_Disable
	.syntax unified
	.thumb
	.thumb_func
	.type	Cy_SCB_UART_Disable, %function
Cy_SCB_UART_Disable:
.LFB227:
	.loc 4 467 1
	.cfi_startproc
	@ args = 0, pretend = 0, frame = 8
	@ frame_needed = 1, uses_anonymous_args = 0
	@ link register save eliminated.
	push	{r7}
.LCFI198:
	.cfi_def_cfa_offset 4
	.cfi_offset 7, -4
	sub	sp, sp, #12
.LCFI199:
	.cfi_def_cfa_offset 16
	add	r7, sp, #0
.LCFI200:
	.cfi_def_cfa_register 7
	str	r0, [r7, #4]
	str	r1, [r7]
	.loc 4 468 39
	ldr	r3, [r7, #4]
	ldr	r3, [r3]
	bic	r2, r3, #-2147483648
	ldr	r3, [r7, #4]
	str	r2, [r3]
	.loc 4 470 8
	ldr	r3, [r7]
	cmp	r3, #0
	beq	.L164
	.loc 4 472 27
	ldr	r3, [r7]
	movs	r2, #0
	str	r2, [r3, #4]
	.loc 4 473 27
	ldr	r3, [r7]
	movs	r2, #0
	str	r2, [r3]
	.loc 4 475 27
	ldr	r3, [r7]
	movs	r2, #0
	str	r2, [r3, #32]
	.loc 4 476 35
	ldr	r3, [r7]
	movs	r2, #0
	str	r2, [r3, #44]
.L164:
	.loc 4 478 1
	nop
	adds	r7, r7, #12
.LCFI201:
	.cfi_def_cfa_offset 4
	mov	sp, r7
.LCFI202:
	.cfi_def_cfa_register 13
	@ sp needed
	ldr	r7, [sp], #4
.LCFI203:
	.cfi_restore 7
	.cfi_def_cfa_offset 0
	bx	lr
	.cfi_endproc
.LFE227:
	.size	Cy_SCB_UART_Disable, .-Cy_SCB_UART_Disable
	.section	.text.Cy_SCB_UART_DeepSleepCallback,"ax",%progbits
	.align	1
	.global	Cy_SCB_UART_DeepSleepCallback
	.syntax unified
	.thumb
	.thumb_func
	.type	Cy_SCB_UART_DeepSleepCallback, %function
Cy_SCB_UART_DeepSleepCallback:
.LFB228:
	.loc 4 511 1
	.cfi_startproc
	@ args = 0, pretend = 0, frame = 24
	@ frame_needed = 1, uses_anonymous_args = 0
	push	{r7, lr}
.LCFI204:
	.cfi_def_cfa_offset 8
	.cfi_offset 7, -8
	.cfi_offset 14, -4
	sub	sp, sp, #24
.LCFI205:
	.cfi_def_cfa_offset 32
	add	r7, sp, #0
.LCFI206:
	.cfi_def_cfa_register 7
	str	r0, [r7, #4]
	mov	r3, r1
	strb	r3, [r7, #3]
	.loc 4 512 26
	ldr	r3, .L177
	str	r3, [r7, #20]
	.loc 4 514 17
	ldr	r3, [r7, #4]
	ldr	r3, [r3]
	str	r3, [r7, #16]
	.loc 4 515 32
	ldr	r3, [r7, #4]
	ldr	r3, [r3, #4]
	str	r3, [r7, #12]
	.loc 4 517 5
	ldrb	r3, [r7, #3]	@ zero_extendqisi2
	subs	r3, r3, #1
	cmp	r3, #7
	bhi	.L175
	adr	r2, .L168
	ldr	pc, [r2, r3, lsl #2]
	.p2align 2
.L168:
	.word	.L171+1
	.word	.L170+1
	.word	.L175+1
	.word	.L175+1
	.word	.L175+1
	.word	.L175+1
	.word	.L175+1
	.word	.L167+1
	.p2align 1
.L171:
	.loc 4 524 37
	ldr	r1, [r7, #12]
	ldr	r0, [r7, #16]
	bl	Cy_SCB_UART_GetTransmitStatus
	mov	r3, r0
	.loc 4 524 35
	and	r3, r3, #1
	.loc 4 524 16
	cmp	r3, #0
	bne	.L176
	.loc 4 525 37 discriminator 1
	ldr	r1, [r7, #12]
	ldr	r0, [r7, #16]
	bl	Cy_SCB_UART_GetReceiveStatus
	mov	r3, r0
	.loc 4 525 35 discriminator 1
	and	r3, r3, #1
	.loc 4 524 90 discriminator 1
	cmp	r3, #0
	bne	.L176
	.loc 4 531 21
	ldr	r0, [r7, #16]
	bl	Cy_SCB_UART_IsTxComplete
	mov	r3, r0
	.loc 4 531 20
	cmp	r3, #0
	beq	.L176
	.loc 4 533 32
	ldr	r0, [r7, #16]
	bl	Cy_SCB_UART_GetNumInRxFifo
	mov	r3, r0
	.loc 4 533 24
	cmp	r3, #0
	bne	.L176
	.loc 4 541 25
	ldr	r1, [r7, #12]
	ldr	r0, [r7, #16]
	bl	Cy_SCB_UART_Disable
	.loc 4 543 35
	movs	r3, #0
	str	r3, [r7, #20]
	.loc 4 548 9
	b	.L176
.L170:
	.loc 4 557 13
	ldr	r0, [r7, #16]
	bl	Cy_SCB_UART_Enable
	.loc 4 559 23
	movs	r3, #0
	str	r3, [r7, #20]
	.loc 4 561 9
	b	.L173
.L167:
	.loc 4 572 13
	ldr	r0, [r7, #16]
	bl	Cy_SCB_UART_Enable
	.loc 4 574 23
	movs	r3, #0
	str	r3, [r7, #20]
	.loc 4 576 9
	b	.L173
.L175:
	.loc 4 580 13
	nop
	b	.L173
.L176:
	.loc 4 548 9
	nop
.L173:
	.loc 4 583 12
	ldr	r3, [r7, #20]
	.loc 4 584 1
	mov	r0, r3
	adds	r7, r7, #24
.LCFI207:
	.cfi_def_cfa_offset 8
	mov	sp, r7
.LCFI208:
	.cfi_def_cfa_register 13
	@ sp needed
	pop	{r7, pc}
.L178:
	.align	2
.L177:
	.word	4325631
	.cfi_endproc
.LFE228:
	.size	Cy_SCB_UART_DeepSleepCallback, .-Cy_SCB_UART_DeepSleepCallback
	.section	.text.Cy_SCB_UART_HibernateCallback,"ax",%progbits
	.align	1
	.global	Cy_SCB_UART_HibernateCallback
	.syntax unified
	.thumb
	.thumb_func
	.type	Cy_SCB_UART_HibernateCallback, %function
Cy_SCB_UART_HibernateCallback:
.LFB229:
	.loc 4 617 1
	.cfi_startproc
	@ args = 0, pretend = 0, frame = 8
	@ frame_needed = 1, uses_anonymous_args = 0
	push	{r7, lr}
.LCFI209:
	.cfi_def_cfa_offset 8
	.cfi_offset 7, -8
	.cfi_offset 14, -4
	sub	sp, sp, #8
.LCFI210:
	.cfi_def_cfa_offset 16
	add	r7, sp, #0
.LCFI211:
	.cfi_def_cfa_register 7
	str	r0, [r7, #4]
	mov	r3, r1
	strb	r3, [r7, #3]
	.loc 4 618 12
	ldrb	r3, [r7, #3]	@ zero_extendqisi2
	mov	r1, r3
	ldr	r0, [r7, #4]
	bl	Cy_SCB_UART_DeepSleepCallback
	mov	r3, r0
	.loc 4 619 1
	mov	r0, r3
	adds	r7, r7, #8
.LCFI212:
	.cfi_def_cfa_offset 8
	mov	sp, r7
.LCFI213:
	.cfi_def_cfa_register 13
	@ sp needed
	pop	{r7, pc}
	.cfi_endproc
.LFE229:
	.size	Cy_SCB_UART_HibernateCallback, .-Cy_SCB_UART_HibernateCallback
	.section	.text.Cy_SCB_UART_StartRingBuffer,"ax",%progbits
	.align	1
	.global	Cy_SCB_UART_StartRingBuffer
	.syntax unified
	.thumb
	.thumb_func
	.type	Cy_SCB_UART_StartRingBuffer, %function
Cy_SCB_UART_StartRingBuffer:
.LFB230:
	.loc 4 665 1
	.cfi_startproc
	@ args = 0, pretend = 0, frame = 24
	@ frame_needed = 1, uses_anonymous_args = 0
	push	{r7, lr}
.LCFI214:
	.cfi_def_cfa_offset 8
	.cfi_offset 7, -8
	.cfi_offset 14, -4
	sub	sp, sp, #24
.LCFI215:
	.cfi_def_cfa_offset 32
	add	r7, sp, #0
.LCFI216:
	.cfi_def_cfa_register 7
	str	r0, [r7, #12]
	str	r1, [r7, #8]
	str	r2, [r7, #4]
	str	r3, [r7]
	.loc 4 666 12
	ldr	r3, [r7]
	cmp	r3, #0
	bne	.L182
	.loc 4 666 19 discriminator 1
	bl	CY_HALT
.L182:
	.loc 4 668 40
	ldr	r3, [r7]
	ldr	r3, [r3, #56]
	.loc 4 668 12
	ldr	r2, .L190
	cmp	r3, r2
	beq	.L183
	.loc 4 668 54 discriminator 1
	bl	CY_HALT
.L183:
	.loc 4 670 12
	ldr	r3, [r7, #8]
	cmp	r3, #0
	beq	.L184
	.loc 4 670 13 discriminator 2
	ldr	r3, [r7, #4]
	cmp	r3, #0
	bne	.L185
.L184:
	.loc 4 670 41 discriminator 3
	bl	CY_HALT
.L185:
	.loc 4 672 8
	ldr	r3, [r7, #8]
	cmp	r3, #0
	beq	.L189
	.loc 4 672 25 discriminator 1
	ldr	r3, [r7, #4]
	cmp	r3, #0
	beq	.L189
.LBB11:
	.loc 4 674 31
	ldr	r0, [r7, #12]
	bl	SelectRxFifoLevel
	str	r0, [r7, #20]
	.loc 4 676 28
	ldr	r3, [r7]
	ldr	r2, [r7, #8]
	str	r2, [r3, #8]
	.loc 4 677 32
	ldr	r3, [r7]
	ldr	r2, [r7, #4]
	str	r2, [r3, #12]
	.loc 4 678 32
	ldr	r3, [r7]
	movs	r2, #0
	str	r2, [r3, #16]
	.loc 4 679 32
	ldr	r3, [r7]
	movs	r2, #0
	str	r2, [r3, #20]
	.loc 4 682 9
	ldr	r2, [r7, #4]
	ldr	r3, [r7, #20]
	cmp	r2, r3
	bcc	.L187
	.loc 4 682 9 is_stmt 0 discriminator 1
	ldr	r3, [r7, #20]
	subs	r3, r3, #1
	b	.L188
.L187:
	.loc 4 682 9 discriminator 2
	ldr	r3, [r7, #4]
	subs	r3, r3, #1
.L188:
	.loc 4 682 9 discriminator 4
	mov	r1, r3
	ldr	r0, [r7, #12]
	bl	Cy_SCB_SetRxFifoLevel
	.loc 4 684 9 is_stmt 1 discriminator 4
	movs	r1, #1
	ldr	r0, [r7, #12]
	bl	Cy_SCB_SetRxInterruptMask
.L189:
.LBE11:
	.loc 4 686 1
	nop
	adds	r7, r7, #24
.LCFI217:
	.cfi_def_cfa_offset 8
	mov	sp, r7
.LCFI218:
	.cfi_def_cfa_register 13
	@ sp needed
	pop	{r7, pc}
.L191:
	.align	2
.L190:
	.word	11259375
	.cfi_endproc
.LFE230:
	.size	Cy_SCB_UART_StartRingBuffer, .-Cy_SCB_UART_StartRingBuffer
	.section	.text.SelectRxFifoLevel,"ax",%progbits
	.align	1
	.syntax unified
	.thumb
	.thumb_func
	.type	SelectRxFifoLevel, %function
SelectRxFifoLevel:
.LFB231:
	.loc 4 700 1
	.cfi_startproc
	@ args = 0, pretend = 0, frame = 16
	@ frame_needed = 1, uses_anonymous_args = 0
	push	{r7, lr}
.LCFI219:
	.cfi_def_cfa_offset 8
	.cfi_offset 7, -8
	.cfi_offset 14, -4
	sub	sp, sp, #16
.LCFI220:
	.cfi_def_cfa_offset 24
	add	r7, sp, #0
.LCFI221:
	.cfi_def_cfa_register 7
	str	r0, [r7, #4]
	.loc 4 701 29
	ldr	r0, [r7, #4]
	bl	Cy_SCB_GetFifoSize
	mov	r3, r0
	.loc 4 701 14
	lsrs	r3, r3, #1
	str	r3, [r7, #12]
	.loc 4 702 29
	ldr	r0, [r7, #4]
	bl	Cy_SCB_UART_GetRtsFifoLevel
	str	r0, [r7, #8]
	.loc 4 704 53
	ldr	r3, [r7, #8]
	cmp	r3, #0
	beq	.L193
	.loc 4 704 53 is_stmt 0 discriminator 1
	ldr	r3, [r7, #8]
	b	.L195
.L193:
	.loc 4 704 53 discriminator 2
	ldr	r3, [r7, #12]
.L195:
	.loc 4 705 1 is_stmt 1 discriminator 5
	mov	r0, r3
	adds	r7, r7, #16
.LCFI222:
	.cfi_def_cfa_offset 8
	mov	sp, r7
.LCFI223:
	.cfi_def_cfa_register 13
	@ sp needed
	pop	{r7, pc}
	.cfi_endproc
.LFE231:
	.size	SelectRxFifoLevel, .-SelectRxFifoLevel
	.section	.text.Cy_SCB_UART_StopRingBuffer,"ax",%progbits
	.align	1
	.global	Cy_SCB_UART_StopRingBuffer
	.syntax unified
	.thumb
	.thumb_func
	.type	Cy_SCB_UART_StopRingBuffer, %function
Cy_SCB_UART_StopRingBuffer:
.LFB232:
	.loc 4 725 1
	.cfi_startproc
	@ args = 0, pretend = 0, frame = 8
	@ frame_needed = 1, uses_anonymous_args = 0
	push	{r7, lr}
.LCFI224:
	.cfi_def_cfa_offset 8
	.cfi_offset 7, -8
	.cfi_offset 14, -4
	sub	sp, sp, #8
.LCFI225:
	.cfi_def_cfa_offset 16
	add	r7, sp, #0
.LCFI226:
	.cfi_def_cfa_register 7
	str	r0, [r7, #4]
	str	r1, [r7]
	.loc 4 726 5
	movs	r1, #0
	ldr	r0, [r7, #4]
	bl	Cy_SCB_SetRxInterruptMask
	.loc 4 727 5
	ldr	r1, [r7]
	ldr	r0, [r7, #4]
	bl	Cy_SCB_UART_ClearRingBuffer
	.loc 4 729 24
	ldr	r3, [r7]
	movs	r2, #0
	str	r2, [r3, #8]
	.loc 4 730 28
	ldr	r3, [r7]
	movs	r2, #0
	str	r2, [r3, #12]
	.loc 4 731 1
	nop
	adds	r7, r7, #8
.LCFI227:
	.cfi_def_cfa_offset 8
	mov	sp, r7
.LCFI228:
	.cfi_def_cfa_register 13
	@ sp needed
	pop	{r7, pc}
	.cfi_endproc
.LFE232:
	.size	Cy_SCB_UART_StopRingBuffer, .-Cy_SCB_UART_StopRingBuffer
	.section	.text.Cy_SCB_UART_GetNumInRingBuffer,"ax",%progbits
	.align	1
	.global	Cy_SCB_UART_GetNumInRingBuffer
	.syntax unified
	.thumb
	.thumb_func
	.type	Cy_SCB_UART_GetNumInRingBuffer, %function
Cy_SCB_UART_GetNumInRingBuffer:
.LFB233:
	.loc 4 758 1
	.cfi_startproc
	@ args = 0, pretend = 0, frame = 16
	@ frame_needed = 1, uses_anonymous_args = 0
	@ link register save eliminated.
	push	{r7}
.LCFI229:
	.cfi_def_cfa_offset 4
	.cfi_offset 7, -4
	sub	sp, sp, #20
.LCFI230:
	.cfi_def_cfa_offset 24
	add	r7, sp, #0
.LCFI231:
	.cfi_def_cfa_register 7
	str	r0, [r7, #4]
	str	r1, [r7]
	.loc 4 760 14
	ldr	r3, [r7]
	ldr	r3, [r3, #16]
	str	r3, [r7, #8]
	.loc 4 765 27
	ldr	r3, [r7]
	ldr	r3, [r3, #20]
	.loc 4 765 8
	ldr	r2, [r7, #8]
	cmp	r2, r3
	bcc	.L198
	.loc 4 767 34
	ldr	r3, [r7]
	ldr	r3, [r3, #20]
	.loc 4 767 14
	ldr	r2, [r7, #8]
	subs	r3, r2, r3
	str	r3, [r7, #12]
	b	.L199
.L198:
	.loc 4 771 35
	ldr	r3, [r7]
	ldr	r2, [r3, #12]
	.loc 4 771 60
	ldr	r3, [r7]
	ldr	r3, [r3, #20]
	.loc 4 771 51
	subs	r3, r2, r3
	.loc 4 771 14
	ldr	r2, [r7, #8]
	add	r3, r3, r2
	str	r3, [r7, #12]
.L199:
	.loc 4 774 12
	ldr	r3, [r7, #12]
	.loc 4 775 1
	mov	r0, r3
	adds	r7, r7, #20
.LCFI232:
	.cfi_def_cfa_offset 4
	mov	sp, r7
.LCFI233:
	.cfi_def_cfa_register 13
	@ sp needed
	ldr	r7, [sp], #4
.LCFI234:
	.cfi_restore 7
	.cfi_def_cfa_offset 0
	bx	lr
	.cfi_endproc
.LFE233:
	.size	Cy_SCB_UART_GetNumInRingBuffer, .-Cy_SCB_UART_GetNumInRingBuffer
	.section	.text.Cy_SCB_UART_ClearRingBuffer,"ax",%progbits
	.align	1
	.global	Cy_SCB_UART_ClearRingBuffer
	.syntax unified
	.thumb
	.thumb_func
	.type	Cy_SCB_UART_ClearRingBuffer, %function
Cy_SCB_UART_ClearRingBuffer:
.LFB234:
	.loc 4 795 1
	.cfi_startproc
	@ args = 0, pretend = 0, frame = 8
	@ frame_needed = 1, uses_anonymous_args = 0
	@ link register save eliminated.
	push	{r7}
.LCFI235:
	.cfi_def_cfa_offset 4
	.cfi_offset 7, -4
	sub	sp, sp, #12
.LCFI236:
	.cfi_def_cfa_offset 16
	add	r7, sp, #0
.LCFI237:
	.cfi_def_cfa_register 7
	str	r0, [r7, #4]
	str	r1, [r7]
	.loc 4 799 37
	ldr	r3, [r7]
	ldr	r2, [r3, #20]
	.loc 4 799 28
	ldr	r3, [r7]
	str	r2, [r3, #16]
	.loc 4 800 1
	nop
	adds	r7, r7, #12
.LCFI238:
	.cfi_def_cfa_offset 4
	mov	sp, r7
.LCFI239:
	.cfi_def_cfa_register 13
	@ sp needed
	ldr	r7, [sp], #4
.LCFI240:
	.cfi_restore 7
	.cfi_def_cfa_offset 0
	bx	lr
	.cfi_endproc
.LFE234:
	.size	Cy_SCB_UART_ClearRingBuffer, .-Cy_SCB_UART_ClearRingBuffer
	.section	.text.Cy_SCB_UART_Receive,"ax",%progbits
	.align	1
	.global	Cy_SCB_UART_Receive
	.syntax unified
	.thumb
	.thumb_func
	.type	Cy_SCB_UART_Receive, %function
Cy_SCB_UART_Receive:
.LFB235:
	.loc 4 848 1
	.cfi_startproc
	@ args = 0, pretend = 0, frame = 56
	@ frame_needed = 1, uses_anonymous_args = 0
	push	{r7, lr}
.LCFI241:
	.cfi_def_cfa_offset 8
	.cfi_offset 7, -8
	.cfi_offset 14, -4
	sub	sp, sp, #56
.LCFI242:
	.cfi_def_cfa_offset 64
	add	r7, sp, #0
.LCFI243:
	.cfi_def_cfa_register 7
	str	r0, [r7, #12]
	str	r1, [r7, #8]
	str	r2, [r7, #4]
	str	r3, [r7]
	.loc 4 849 12
	ldr	r3, [r7]
	cmp	r3, #0
	bne	.L203
	.loc 4 849 19 discriminator 1
	bl	CY_HALT
.L203:
	.loc 4 851 40
	ldr	r3, [r7]
	ldr	r3, [r3, #56]
	.loc 4 851 12
	ldr	r2, .L223
	cmp	r3, r2
	beq	.L204
	.loc 4 851 54 discriminator 1
	bl	CY_HALT
.L204:
	.loc 4 853 12
	ldr	r3, [r7, #8]
	cmp	r3, #0
	beq	.L205
	.loc 4 853 13 discriminator 2
	ldr	r3, [r7, #4]
	cmp	r3, #0
	bne	.L206
.L205:
	.loc 4 853 41 discriminator 3
	bl	CY_HALT
.L206:
	.loc 4 855 29
	ldr	r3, .L223+4
	str	r3, [r7, #52]
	.loc 4 858 24
	ldr	r3, [r7]
	ldr	r3, [r3, #4]
	.loc 4 858 35
	and	r3, r3, #1
	.loc 4 858 8
	cmp	r3, #0
	bne	.L207
.LBB12:
	.loc 4 860 18
	ldr	r3, [r7, #8]
	str	r3, [r7, #48]
	.loc 4 861 18
	movs	r3, #0
	str	r3, [r7, #44]
	.loc 4 864 9
	movs	r1, #0
	ldr	r0, [r7, #12]
	bl	Cy_SCB_SetRxInterruptMask
	.loc 4 866 27
	ldr	r3, [r7]
	ldr	r3, [r3, #8]
	.loc 4 866 12
	cmp	r3, #0
	beq	.L208
	.loc 4 869 25
	ldr	r1, [r7]
	ldr	r0, [r7, #12]
	bl	Cy_SCB_UART_GetNumInRingBuffer
	str	r0, [r7, #44]
	.loc 4 871 16
	ldr	r3, [r7, #44]
	cmp	r3, #0
	beq	.L208
.LBB13:
	.loc 4 874 26
	ldr	r3, [r7]
	ldr	r3, [r3, #20]
	str	r3, [r7, #36]
	.loc 4 875 36
	ldr	r0, [r7, #12]
	bl	Cy_SCB_IsRxDataWidthByte
	mov	r3, r0
	strb	r3, [r7, #35]
	.loc 4 878 20
	ldr	r2, [r7, #44]
	ldr	r3, [r7, #4]
	cmp	r2, r3
	bls	.L209
	.loc 4 880 31
	ldr	r3, [r7, #4]
	str	r3, [r7, #44]
.L209:
	.loc 4 884 26
	movs	r3, #0
	str	r3, [r7, #40]
	.loc 4 884 17
	b	.L210
.L214:
	.loc 4 886 21
	ldr	r3, [r7, #36]
	adds	r3, r3, #1
	str	r3, [r7, #36]
	.loc 4 888 43
	ldr	r3, [r7]
	ldr	r3, [r3, #12]
	.loc 4 888 24
	ldr	r2, [r7, #36]
	cmp	r2, r3
	bne	.L211
	.loc 4 890 33
	movs	r3, #0
	str	r3, [r7, #36]
.L211:
	.loc 4 893 24
	ldrb	r3, [r7, #35]	@ zero_extendqisi2
	cmp	r3, #0
	beq	.L212
.LBB14:
	.loc 4 895 34
	ldr	r3, [r7, #8]
	str	r3, [r7, #24]
	.loc 4 896 56
	ldr	r3, [r7]
	ldr	r2, [r3, #8]
	.loc 4 896 68
	ldr	r3, [r7, #36]
	add	r2, r2, r3
	.loc 4 896 28
	ldr	r1, [r7, #24]
	ldr	r3, [r7, #40]
	add	r3, r3, r1
	.loc 4 896 68
	ldrb	r2, [r2]	@ zero_extendqisi2
	.loc 4 896 34
	strb	r2, [r3]
.LBE14:
	b	.L213
.L212:
.LBB15:
	.loc 4 900 35
	ldr	r3, [r7, #8]
	str	r3, [r7, #28]
	.loc 4 901 57
	ldr	r3, [r7]
	ldr	r2, [r3, #8]
	.loc 4 901 69
	ldr	r3, [r7, #36]
	lsls	r3, r3, #1
	add	r2, r2, r3
	.loc 4 901 28
	ldr	r3, [r7, #40]
	lsls	r3, r3, #1
	ldr	r1, [r7, #28]
	add	r3, r3, r1
	.loc 4 901 69
	ldrh	r2, [r2]
	.loc 4 901 34
	strh	r2, [r3]	@ movhi
.L213:
.LBE15:
	.loc 4 884 50 discriminator 2
	ldr	r3, [r7, #40]
	adds	r3, r3, #1
	str	r3, [r7, #40]
.L210:
	.loc 4 884 17 discriminator 1
	ldr	r2, [r7, #40]
	ldr	r3, [r7, #44]
	cmp	r2, r3
	bcc	.L214
	.loc 4 906 40
	ldr	r3, [r7]
	ldr	r2, [r7, #36]
	str	r2, [r3, #20]
	.loc 4 909 22
	ldr	r2, [r7, #4]
	ldr	r3, [r7, #44]
	subs	r3, r2, r3
	str	r3, [r7, #4]
	.loc 4 910 35
	ldr	r3, [r7]
	ldr	r2, [r7, #44]
	str	r2, [r3, #32]
	.loc 4 913 20
	ldr	r3, [r7, #4]
	cmp	r3, #0
	bne	.L215
	.loc 4 916 21
	mov	r1, #800
	ldr	r0, [r7, #12]
	bl	Cy_SCB_SetRxInterruptMask
	.loc 4 921 32
	ldr	r3, [r7]
	ldr	r3, [r3, #32]
	.loc 4 921 24
	cmp	r3, #0
	beq	.L216
	.loc 4 923 43
	ldr	r3, [r7]
	ldr	r3, [r3, #52]
	.loc 4 923 28
	cmp	r3, #0
	beq	.L216
	.loc 4 925 36
	ldr	r3, [r7]
	ldr	r3, [r3, #52]
	.loc 4 925 29
	movs	r0, #4
	blx	r3
.LVL0:
.L216:
	.loc 4 930 21
	movs	r1, #1
	ldr	r0, [r7, #12]
	bl	Cy_SCB_SetRxInterruptMask
	b	.L208
.L215:
	.loc 4 934 49
	ldrb	r3, [r7, #35]
	eor	r3, r3, #1
	uxtb	r3, r3
	.loc 4 934 63
	cmp	r3, #0
	beq	.L217
	.loc 4 934 63 is_stmt 0 discriminator 1
	ldr	r3, [r7, #44]
	lsls	r3, r3, #1
	b	.L218
.L217:
	.loc 4 934 63 discriminator 2
	ldr	r3, [r7, #44]
.L218:
	.loc 4 934 28 is_stmt 1 discriminator 4
	ldr	r2, [r7, #48]
	add	r3, r3, r2
	str	r3, [r7, #48]
.L208:
.LBE13:
	.loc 4 940 12
	ldr	r3, [r7, #4]
	cmp	r3, #0
	beq	.L219
.LBB16:
	.loc 4 942 35
	ldr	r0, [r7, #12]
	bl	SelectRxFifoLevel
	str	r0, [r7, #20]
	.loc 4 945 31
	ldr	r3, [r7]
	movs	r2, #1
	str	r2, [r3, #4]
	.loc 4 947 28
	ldr	r3, [r7]
	ldr	r2, [r7, #48]
	str	r2, [r3, #24]
	.loc 4 948 32
	ldr	r3, [r7]
	ldr	r2, [r7, #4]
	str	r2, [r3, #28]
	.loc 4 949 31
	ldr	r3, [r7]
	ldr	r2, [r7, #44]
	str	r2, [r3, #32]
	.loc 4 952 13
	ldr	r2, [r7, #4]
	ldr	r3, [r7, #20]
	cmp	r2, r3
	bls	.L220
	.loc 4 952 13 is_stmt 0 discriminator 1
	ldr	r3, [r7, #20]
	subs	r3, r3, #1
	b	.L221
.L220:
	.loc 4 952 13 discriminator 2
	ldr	r3, [r7, #4]
	subs	r3, r3, #1
.L221:
	.loc 4 952 13 discriminator 4
	mov	r1, r3
	ldr	r0, [r7, #12]
	bl	Cy_SCB_SetRxFifoLevel
	.loc 4 955 13 is_stmt 1 discriminator 4
	movw	r1, #2849
	ldr	r0, [r7, #12]
	bl	Cy_SCB_SetRxInterruptMask
.L219:
.LBE16:
	.loc 4 958 19
	movs	r3, #0
	str	r3, [r7, #52]
.L207:
.LBE12:
	.loc 4 961 12
	ldr	r3, [r7, #52]
	.loc 4 962 1
	mov	r0, r3
	adds	r7, r7, #56
.LCFI244:
	.cfi_def_cfa_offset 8
	mov	sp, r7
.LCFI245:
	.cfi_def_cfa_register 13
	@ sp needed
	pop	{r7, pc}
.L224:
	.align	2
.L223:
	.word	11259375
	.word	11165698
	.cfi_endproc
.LFE235:
	.size	Cy_SCB_UART_Receive, .-Cy_SCB_UART_Receive
	.section	.text.Cy_SCB_UART_AbortReceive,"ax",%progbits
	.align	1
	.global	Cy_SCB_UART_AbortReceive
	.syntax unified
	.thumb
	.thumb_func
	.type	Cy_SCB_UART_AbortReceive, %function
Cy_SCB_UART_AbortReceive:
.LFB236:
	.loc 4 994 1
	.cfi_startproc
	@ args = 0, pretend = 0, frame = 8
	@ frame_needed = 1, uses_anonymous_args = 0
	push	{r7, lr}
.LCFI246:
	.cfi_def_cfa_offset 8
	.cfi_offset 7, -8
	.cfi_offset 14, -4
	sub	sp, sp, #8
.LCFI247:
	.cfi_def_cfa_offset 16
	add	r7, sp, #0
.LCFI248:
	.cfi_def_cfa_register 7
	str	r0, [r7, #4]
	str	r1, [r7]
	.loc 4 995 23
	ldr	r3, [r7]
	ldr	r3, [r3, #8]
	.loc 4 995 8
	cmp	r3, #0
	bne	.L226
	.loc 4 997 9
	movs	r1, #0
	ldr	r0, [r7, #4]
	bl	Cy_SCB_SetRxInterruptMask
.L226:
	.loc 4 1000 24
	ldr	r3, [r7]
	movs	r2, #0
	str	r2, [r3, #28]
	.loc 4 1001 23
	ldr	r3, [r7]
	movs	r2, #0
	str	r2, [r3, #32]
	.loc 4 1003 23
	ldr	r3, [r7]
	movs	r2, #0
	str	r2, [r3, #4]
	.loc 4 1004 1
	nop
	adds	r7, r7, #8
.LCFI249:
	.cfi_def_cfa_offset 8
	mov	sp, r7
.LCFI250:
	.cfi_def_cfa_register 13
	@ sp needed
	pop	{r7, pc}
	.cfi_endproc
.LFE236:
	.size	Cy_SCB_UART_AbortReceive, .-Cy_SCB_UART_AbortReceive
	.section	.text.Cy_SCB_UART_GetNumReceived,"ax",%progbits
	.align	1
	.global	Cy_SCB_UART_GetNumReceived
	.syntax unified
	.thumb
	.thumb_func
	.type	Cy_SCB_UART_GetNumReceived, %function
Cy_SCB_UART_GetNumReceived:
.LFB237:
	.loc 4 1028 1
	.cfi_startproc
	@ args = 0, pretend = 0, frame = 8
	@ frame_needed = 1, uses_anonymous_args = 0
	@ link register save eliminated.
	push	{r7}
.LCFI251:
	.cfi_def_cfa_offset 4
	.cfi_offset 7, -4
	sub	sp, sp, #12
.LCFI252:
	.cfi_def_cfa_offset 16
	add	r7, sp, #0
.LCFI253:
	.cfi_def_cfa_register 7
	str	r0, [r7, #4]
	str	r1, [r7]
	.loc 4 1032 20
	ldr	r3, [r7]
	ldr	r3, [r3, #32]
	.loc 4 1033 1
	mov	r0, r3
	adds	r7, r7, #12
.LCFI254:
	.cfi_def_cfa_offset 4
	mov	sp, r7
.LCFI255:
	.cfi_def_cfa_register 13
	@ sp needed
	ldr	r7, [sp], #4
.LCFI256:
	.cfi_restore 7
	.cfi_def_cfa_offset 0
	bx	lr
	.cfi_endproc
.LFE237:
	.size	Cy_SCB_UART_GetNumReceived, .-Cy_SCB_UART_GetNumReceived
	.section	.text.Cy_SCB_UART_GetReceiveStatus,"ax",%progbits
	.align	1
	.global	Cy_SCB_UART_GetReceiveStatus
	.syntax unified
	.thumb
	.thumb_func
	.type	Cy_SCB_UART_GetReceiveStatus, %function
Cy_SCB_UART_GetReceiveStatus:
.LFB238:
	.loc 4 1060 1
	.cfi_startproc
	@ args = 0, pretend = 0, frame = 8
	@ frame_needed = 1, uses_anonymous_args = 0
	@ link register save eliminated.
	push	{r7}
.LCFI257:
	.cfi_def_cfa_offset 4
	.cfi_offset 7, -4
	sub	sp, sp, #12
.LCFI258:
	.cfi_def_cfa_offset 16
	add	r7, sp, #0
.LCFI259:
	.cfi_def_cfa_register 7
	str	r0, [r7, #4]
	str	r1, [r7]
	.loc 4 1064 20
	ldr	r3, [r7]
	ldr	r3, [r3, #4]
	.loc 4 1065 1
	mov	r0, r3
	adds	r7, r7, #12
.LCFI260:
	.cfi_def_cfa_offset 4
	mov	sp, r7
.LCFI261:
	.cfi_def_cfa_register 13
	@ sp needed
	ldr	r7, [sp], #4
.LCFI262:
	.cfi_restore 7
	.cfi_def_cfa_offset 0
	bx	lr
	.cfi_endproc
.LFE238:
	.size	Cy_SCB_UART_GetReceiveStatus, .-Cy_SCB_UART_GetReceiveStatus
	.section	.text.Cy_SCB_UART_Transmit,"ax",%progbits
	.align	1
	.global	Cy_SCB_UART_Transmit
	.syntax unified
	.thumb
	.thumb_func
	.type	Cy_SCB_UART_Transmit, %function
Cy_SCB_UART_Transmit:
.LFB239:
	.loc 4 1108 1
	.cfi_startproc
	@ args = 0, pretend = 0, frame = 24
	@ frame_needed = 1, uses_anonymous_args = 0
	push	{r7, lr}
.LCFI263:
	.cfi_def_cfa_offset 8
	.cfi_offset 7, -8
	.cfi_offset 14, -4
	sub	sp, sp, #24
.LCFI264:
	.cfi_def_cfa_offset 32
	add	r7, sp, #0
.LCFI265:
	.cfi_def_cfa_register 7
	str	r0, [r7, #12]
	str	r1, [r7, #8]
	str	r2, [r7, #4]
	str	r3, [r7]
	.loc 4 1109 12
	ldr	r3, [r7]
	cmp	r3, #0
	bne	.L232
	.loc 4 1109 19 discriminator 1
	bl	CY_HALT
.L232:
	.loc 4 1111 40
	ldr	r3, [r7]
	ldr	r3, [r3, #56]
	.loc 4 1111 12
	ldr	r2, .L240
	cmp	r3, r2
	beq	.L233
	.loc 4 1111 54 discriminator 1
	bl	CY_HALT
.L233:
	.loc 4 1113 12
	ldr	r3, [r7, #8]
	cmp	r3, #0
	beq	.L234
	.loc 4 1113 13 discriminator 2
	ldr	r3, [r7, #4]
	cmp	r3, #0
	bne	.L235
.L234:
	.loc 4 1113 41 discriminator 3
	bl	CY_HALT
.L235:
	.loc 4 1115 29
	ldr	r3, .L240+4
	str	r3, [r7, #20]
	.loc 4 1118 35
	ldr	r3, [r7]
	ldr	r3, [r3]
	.loc 4 1118 26
	and	r3, r3, #1
	.loc 4 1118 8
	cmp	r3, #0
	bne	.L236
	.loc 4 1121 27
	ldr	r3, [r7]
	movs	r2, #1
	str	r2, [r3]
	.loc 4 1123 24
	ldr	r3, [r7]
	ldr	r2, [r7, #8]
	str	r2, [r3, #36]
	.loc 4 1124 28
	ldr	r3, [r7]
	ldr	r2, [r7, #4]
	str	r2, [r3, #40]
	.loc 4 1127 38
	ldr	r0, [r7, #12]
	bl	Cy_SCB_GetFifoSize
	mov	r3, r0
	.loc 4 1127 9
	lsrs	r3, r3, #1
	mov	r1, r3
	ldr	r0, [r7, #12]
	bl	Cy_SCB_SetTxFifoLevel
	.loc 4 1130 90
	ldr	r3, [r7, #12]
	ldr	r3, [r3, #64]
	.loc 4 1130 119
	lsrs	r3, r3, #24
	and	r3, r3, #3
	.loc 4 1130 12
	cmp	r3, #1
	bne	.L237
	.loc 4 1133 13
	movw	r1, #1281
	ldr	r0, [r7, #12]
	bl	Cy_SCB_SetTxInterruptMask
	b	.L238
.L237:
	.loc 4 1138 13
	movs	r1, #1
	ldr	r0, [r7, #12]
	bl	Cy_SCB_SetTxInterruptMask
.L238:
	.loc 4 1141 19
	movs	r3, #0
	str	r3, [r7, #20]
.L236:
	.loc 4 1144 12
	ldr	r3, [r7, #20]
	.loc 4 1145 1
	mov	r0, r3
	adds	r7, r7, #24
.LCFI266:
	.cfi_def_cfa_offset 8
	mov	sp, r7
.LCFI267:
	.cfi_def_cfa_register 13
	@ sp needed
	pop	{r7, pc}
.L241:
	.align	2
.L240:
	.word	11259375
	.word	11165699
	.cfi_endproc
.LFE239:
	.size	Cy_SCB_UART_Transmit, .-Cy_SCB_UART_Transmit
	.section	.text.Cy_SCB_UART_AbortTransmit,"ax",%progbits
	.align	1
	.global	Cy_SCB_UART_AbortTransmit
	.syntax unified
	.thumb
	.thumb_func
	.type	Cy_SCB_UART_AbortTransmit, %function
Cy_SCB_UART_AbortTransmit:
.LFB240:
	.loc 4 1173 1
	.cfi_startproc
	@ args = 0, pretend = 0, frame = 8
	@ frame_needed = 1, uses_anonymous_args = 0
	push	{r7, lr}
.LCFI268:
	.cfi_def_cfa_offset 8
	.cfi_offset 7, -8
	.cfi_offset 14, -4
	sub	sp, sp, #8
.LCFI269:
	.cfi_def_cfa_offset 16
	add	r7, sp, #0
.LCFI270:
	.cfi_def_cfa_register 7
	str	r0, [r7, #4]
	str	r1, [r7]
	.loc 4 1174 5
	movs	r1, #0
	ldr	r0, [r7, #4]
	bl	Cy_SCB_SetTxInterruptMask
	.loc 4 1176 5
	ldr	r0, [r7, #4]
	bl	Cy_SCB_UART_ClearTxFifo
	.loc 4 1178 24
	ldr	r3, [r7]
	movs	r2, #0
	str	r2, [r3, #40]
	.loc 4 1179 31
	ldr	r3, [r7]
	movs	r2, #0
	str	r2, [r3, #44]
	.loc 4 1181 23
	ldr	r3, [r7]
	movs	r2, #0
	str	r2, [r3]
	.loc 4 1182 1
	nop
	adds	r7, r7, #8
.LCFI271:
	.cfi_def_cfa_offset 8
	mov	sp, r7
.LCFI272:
	.cfi_def_cfa_register 13
	@ sp needed
	pop	{r7, pc}
	.cfi_endproc
.LFE240:
	.size	Cy_SCB_UART_AbortTransmit, .-Cy_SCB_UART_AbortTransmit
	.section	.text.Cy_SCB_UART_GetNumLeftToTransmit,"ax",%progbits
	.align	1
	.global	Cy_SCB_UART_GetNumLeftToTransmit
	.syntax unified
	.thumb
	.thumb_func
	.type	Cy_SCB_UART_GetNumLeftToTransmit, %function
Cy_SCB_UART_GetNumLeftToTransmit:
.LFB241:
	.loc 4 1206 1
	.cfi_startproc
	@ args = 0, pretend = 0, frame = 8
	@ frame_needed = 1, uses_anonymous_args = 0
	@ link register save eliminated.
	push	{r7}
.LCFI273:
	.cfi_def_cfa_offset 4
	.cfi_offset 7, -4
	sub	sp, sp, #12
.LCFI274:
	.cfi_def_cfa_offset 16
	add	r7, sp, #0
.LCFI275:
	.cfi_def_cfa_register 7
	str	r0, [r7, #4]
	str	r1, [r7]
	.loc 4 1210 20
	ldr	r3, [r7]
	ldr	r3, [r3, #44]
	.loc 4 1211 1
	mov	r0, r3
	adds	r7, r7, #12
.LCFI276:
	.cfi_def_cfa_offset 4
	mov	sp, r7
.LCFI277:
	.cfi_def_cfa_register 13
	@ sp needed
	ldr	r7, [sp], #4
.LCFI278:
	.cfi_restore 7
	.cfi_def_cfa_offset 0
	bx	lr
	.cfi_endproc
.LFE241:
	.size	Cy_SCB_UART_GetNumLeftToTransmit, .-Cy_SCB_UART_GetNumLeftToTransmit
	.section	.text.Cy_SCB_UART_GetTransmitStatus,"ax",%progbits
	.align	1
	.global	Cy_SCB_UART_GetTransmitStatus
	.syntax unified
	.thumb
	.thumb_func
	.type	Cy_SCB_UART_GetTransmitStatus, %function
Cy_SCB_UART_GetTransmitStatus:
.LFB242:
	.loc 4 1239 1
	.cfi_startproc
	@ args = 0, pretend = 0, frame = 8
	@ frame_needed = 1, uses_anonymous_args = 0
	@ link register save eliminated.
	push	{r7}
.LCFI279:
	.cfi_def_cfa_offset 4
	.cfi_offset 7, -4
	sub	sp, sp, #12
.LCFI280:
	.cfi_def_cfa_offset 16
	add	r7, sp, #0
.LCFI281:
	.cfi_def_cfa_register 7
	str	r0, [r7, #4]
	str	r1, [r7]
	.loc 4 1243 20
	ldr	r3, [r7]
	ldr	r3, [r3]
	.loc 4 1244 1
	mov	r0, r3
	adds	r7, r7, #12
.LCFI282:
	.cfi_def_cfa_offset 4
	mov	sp, r7
.LCFI283:
	.cfi_def_cfa_register 13
	@ sp needed
	ldr	r7, [sp], #4
.LCFI284:
	.cfi_restore 7
	.cfi_def_cfa_offset 0
	bx	lr
	.cfi_endproc
.LFE242:
	.size	Cy_SCB_UART_GetTransmitStatus, .-Cy_SCB_UART_GetTransmitStatus
	.section	.text.Cy_SCB_UART_SendBreakBlocking,"ax",%progbits
	.align	1
	.global	Cy_SCB_UART_SendBreakBlocking
	.syntax unified
	.thumb
	.thumb_func
	.type	Cy_SCB_UART_SendBreakBlocking, %function
Cy_SCB_UART_SendBreakBlocking:
.LFB243:
	.loc 4 1271 1
	.cfi_startproc
	@ args = 0, pretend = 0, frame = 24
	@ frame_needed = 1, uses_anonymous_args = 0
	push	{r7, lr}
.LCFI285:
	.cfi_def_cfa_offset 8
	.cfi_offset 7, -8
	.cfi_offset 14, -4
	sub	sp, sp, #24
.LCFI286:
	.cfi_def_cfa_offset 32
	add	r7, sp, #0
.LCFI287:
	.cfi_def_cfa_register 7
	str	r0, [r7, #4]
	str	r1, [r7]
	.loc 4 1275 12
	ldr	r3, [r7]
	cmp	r3, #3
	bls	.L248
	.loc 4 1275 13 discriminator 2
	ldr	r3, [r7]
	cmp	r3, #16
	bls	.L249
.L248:
	.loc 4 1275 71 discriminator 3
	bl	CY_HALT
.L249:
	.loc 4 1278 17
	ldr	r0, [r7, #4]
	bl	Cy_SCB_GetTxInterruptMask
	str	r0, [r7, #20]
	.loc 4 1279 5
	movs	r1, #0
	ldr	r0, [r7, #4]
	bl	Cy_SCB_SetTxInterruptMask
	.loc 4 1280 5
	mov	r1, #512
	ldr	r0, [r7, #4]
	bl	Cy_SCB_ClearTxInterrupt
	.loc 4 1283 15
	ldr	r3, [r7, #4]
	ldr	r3, [r3, #512]
	str	r3, [r7, #16]
	.loc 4 1286 77
	ldr	r3, [r7, #4]
	ldr	r3, [r3, #512]
	.loc 4 1286 90
	bic	r2, r3, #15
	.loc 4 1286 154
	ldr	r3, [r7]
	subs	r3, r3, #1
	.loc 4 1286 162
	and	r3, r3, #15
	.loc 4 1286 116
	orrs	r2, r2, r3
	.loc 4 1286 45
	ldr	r3, [r7, #4]
	str	r2, [r3, #512]
	ldr	r3, [r7, #4]
	str	r3, [r7, #12]
	movs	r3, #0
	str	r3, [r7, #8]
.LBB17:
.LBB18:
	.loc 2 956 45
	ldr	r3, [r7, #12]
	ldr	r2, [r7, #8]
	str	r2, [r3, #576]
	.loc 2 957 1
	nop
.LBE18:
.LBE17:
	.loc 4 1292 11
	nop
.L250:
	.loc 4 1292 20 discriminator 1
	ldr	r0, [r7, #4]
	bl	Cy_SCB_GetTxInterruptStatus
	mov	r3, r0
	.loc 4 1292 54 discriminator 1
	and	r3, r3, #512
	.loc 4 1292 11 discriminator 1
	cmp	r3, #0
	beq	.L250
	.loc 4 1297 5
	movw	r1, #1907
	ldr	r0, [r7, #4]
	bl	Cy_SCB_ClearTxInterrupt
	.loc 4 1300 42
	ldr	r3, [r7, #4]
	ldr	r2, [r7, #16]
	str	r2, [r3, #512]
	.loc 4 1301 5
	ldr	r1, [r7, #20]
	ldr	r0, [r7, #4]
	bl	Cy_SCB_SetTxInterruptMask
	.loc 4 1302 1
	nop
	adds	r7, r7, #24
.LCFI288:
	.cfi_def_cfa_offset 8
	mov	sp, r7
.LCFI289:
	.cfi_def_cfa_register 13
	@ sp needed
	pop	{r7, pc}
	.cfi_endproc
.LFE243:
	.size	Cy_SCB_UART_SendBreakBlocking, .-Cy_SCB_UART_SendBreakBlocking
	.section	.text.Cy_SCB_UART_Interrupt,"ax",%progbits
	.align	1
	.global	Cy_SCB_UART_Interrupt
	.syntax unified
	.thumb
	.thumb_func
	.type	Cy_SCB_UART_Interrupt, %function
Cy_SCB_UART_Interrupt:
.LFB244:
	.loc 4 1326 1
	.cfi_startproc
	@ args = 0, pretend = 0, frame = 16
	@ frame_needed = 1, uses_anonymous_args = 0
	push	{r7, lr}
.LCFI290:
	.cfi_def_cfa_offset 8
	.cfi_offset 7, -8
	.cfi_offset 14, -4
	sub	sp, sp, #16
.LCFI291:
	.cfi_def_cfa_offset 24
	add	r7, sp, #0
.LCFI292:
	.cfi_def_cfa_register 7
	str	r0, [r7, #4]
	str	r1, [r7]
	.loc 4 1327 25
	ldr	r0, [r7, #4]
	bl	Cy_SCB_GetInterruptCause
	mov	r3, r0
	.loc 4 1327 23
	and	r3, r3, #8
	.loc 4 1327 8
	cmp	r3, #0
	beq	.L252
.LBB19:
	.loc 4 1330 61
	ldr	r0, [r7, #4]
	bl	Cy_SCB_GetRxInterruptStatusMasked
	mov	r3, r0
	.loc 4 1330 18
	and	r3, r3, #800
	str	r3, [r7, #12]
	.loc 4 1333 12
	ldr	r3, [r7, #12]
	cmp	r3, #0
	beq	.L253
	.loc 4 1335 31
	ldr	r3, [r7]
	ldr	r2, [r3, #4]
	ldr	r3, [r7, #12]
	orrs	r2, r2, r3
	ldr	r3, [r7]
	str	r2, [r3, #4]
	.loc 4 1337 13
	ldr	r1, [r7, #12]
	ldr	r0, [r7, #4]
	bl	Cy_SCB_ClearRxInterrupt
	.loc 4 1339 31
	ldr	r3, [r7]
	ldr	r3, [r3, #52]
	.loc 4 1339 16
	cmp	r3, #0
	beq	.L253
	.loc 4 1341 24
	ldr	r3, [r7]
	ldr	r3, [r3, #52]
	.loc 4 1341 17
	movs	r0, #16
	blx	r3
.LVL1:
.L253:
	.loc 4 1346 31
	ldr	r0, [r7, #4]
	bl	Cy_SCB_GetRxInterruptStatusMasked
	mov	r3, r0
	.loc 4 1346 29
	and	r3, r3, #2048
	.loc 4 1346 12
	cmp	r3, #0
	beq	.L254
	.loc 4 1348 31
	ldr	r3, [r7]
	ldr	r3, [r3, #4]
	orr	r2, r3, #2048
	ldr	r3, [r7]
	str	r2, [r3, #4]
	.loc 4 1350 13
	mov	r1, #2048
	ldr	r0, [r7, #4]
	bl	Cy_SCB_ClearRxInterrupt
.L254:
	.loc 4 1354 29
	ldr	r0, [r7, #4]
	bl	Cy_SCB_GetRxInterruptStatusMasked
	mov	r3, r0
	.loc 4 1354 27
	and	r3, r3, #1
	.loc 4 1354 12
	cmp	r3, #0
	beq	.L255
	.loc 4 1356 24
	ldr	r3, [r7]
	ldr	r3, [r3, #28]
	.loc 4 1356 16
	cmp	r3, #0
	beq	.L256
	.loc 4 1358 17
	ldr	r1, [r7]
	ldr	r0, [r7, #4]
	bl	HandleDataReceive
	b	.L257
.L256:
	.loc 4 1362 35
	ldr	r3, [r7]
	ldr	r3, [r3, #8]
	.loc 4 1362 20
	cmp	r3, #0
	beq	.L257
	.loc 4 1364 21
	ldr	r1, [r7]
	ldr	r0, [r7, #4]
	bl	HandleRingBuffer
.L257:
	.loc 4 1368 13
	movs	r1, #1
	ldr	r0, [r7, #4]
	bl	Cy_SCB_ClearRxInterrupt
.L255:
	.loc 4 1371 29
	ldr	r0, [r7, #4]
	bl	Cy_SCB_GetRxInterruptStatusMasked
	mov	r3, r0
	.loc 4 1371 27
	and	r3, r3, #4
	.loc 4 1371 12
	cmp	r3, #0
	beq	.L252
	.loc 4 1373 31
	ldr	r3, [r7]
	ldr	r3, [r3, #52]
	.loc 4 1373 16
	cmp	r3, #0
	beq	.L258
	.loc 4 1375 24
	ldr	r3, [r7]
	ldr	r3, [r3, #52]
	.loc 4 1375 17
	movs	r0, #64
	blx	r3
.LVL2:
.L258:
	.loc 4 1378 13
	movs	r1, #4
	ldr	r0, [r7, #4]
	bl	Cy_SCB_ClearRxInterrupt
.L252:
.LBE19:
	.loc 4 1383 25
	ldr	r0, [r7, #4]
	bl	Cy_SCB_GetInterruptCause
	mov	r3, r0
	.loc 4 1383 23
	and	r3, r3, #4
	.loc 4 1383 8
	cmp	r3, #0
	beq	.L264
.LBB20:
	.loc 4 1385 52
	ldr	r0, [r7, #4]
	bl	Cy_SCB_GetTxInterruptStatusMasked
	mov	r3, r0
	.loc 4 1385 18
	and	r3, r3, #1280
	str	r3, [r7, #8]
	.loc 4 1388 12
	ldr	r3, [r7, #8]
	cmp	r3, #0
	beq	.L260
	.loc 4 1390 31
	ldr	r3, [r7]
	ldr	r2, [r3]
	ldr	r3, [r7, #8]
	orrs	r2, r2, r3
	ldr	r3, [r7]
	str	r2, [r3]
	.loc 4 1391 13
	ldr	r1, [r7, #8]
	ldr	r0, [r7, #4]
	bl	Cy_SCB_ClearTxInterrupt
	.loc 4 1393 31
	ldr	r3, [r7]
	ldr	r3, [r3, #52]
	.loc 4 1393 16
	cmp	r3, #0
	beq	.L260
	.loc 4 1395 24
	ldr	r3, [r7]
	ldr	r3, [r3, #52]
	.loc 4 1395 17
	movs	r0, #32
	blx	r3
.LVL3:
.L260:
	.loc 4 1400 29
	ldr	r0, [r7, #4]
	bl	Cy_SCB_GetTxInterruptStatusMasked
	mov	r3, r0
	.loc 4 1400 27
	and	r3, r3, #1
	.loc 4 1400 12
	cmp	r3, #0
	beq	.L261
	.loc 4 1402 13
	ldr	r1, [r7]
	ldr	r0, [r7, #4]
	bl	HandleDataTransmit
	.loc 4 1404 13
	movs	r1, #1
	ldr	r0, [r7, #4]
	bl	Cy_SCB_ClearTxInterrupt
.L261:
	.loc 4 1408 31
	ldr	r0, [r7, #4]
	bl	Cy_SCB_GetTxInterruptStatusMasked
	mov	r3, r0
	.loc 4 1408 29
	and	r3, r3, #512
	.loc 4 1408 12
	cmp	r3, #0
	beq	.L262
	.loc 4 1411 13
	movs	r1, #0
	ldr	r0, [r7, #4]
	bl	Cy_SCB_SetTxInterruptMask
	.loc 4 1413 31
	ldr	r3, [r7]
	ldr	r3, [r3]
	bic	r2, r3, #1
	ldr	r3, [r7]
	str	r2, [r3]
	.loc 4 1414 39
	ldr	r3, [r7]
	movs	r2, #0
	str	r2, [r3, #44]
	.loc 4 1416 31
	ldr	r3, [r7]
	ldr	r3, [r3, #52]
	.loc 4 1416 16
	cmp	r3, #0
	beq	.L262
	.loc 4 1418 24
	ldr	r3, [r7]
	ldr	r3, [r3, #52]
	.loc 4 1418 17
	movs	r0, #2
	blx	r3
.LVL4:
.L262:
	.loc 4 1422 32
	ldr	r0, [r7, #4]
	bl	Cy_SCB_GetTxInterruptStatusMasked
	mov	r3, r0
	.loc 4 1422 30
	and	r3, r3, #16
	.loc 4 1422 12
	cmp	r3, #0
	beq	.L264
	.loc 4 1424 31
	ldr	r3, [r7]
	ldr	r3, [r3, #52]
	.loc 4 1424 16
	cmp	r3, #0
	beq	.L263
	.loc 4 1426 24
	ldr	r3, [r7]
	ldr	r3, [r3, #52]
	.loc 4 1426 17
	movs	r0, #128
	blx	r3
.LVL5:
.L263:
	.loc 4 1429 13
	movs	r1, #16
	ldr	r0, [r7, #4]
	bl	Cy_SCB_ClearTxInterrupt
.L264:
.LBE20:
	.loc 4 1433 1
	nop
	adds	r7, r7, #16
.LCFI293:
	.cfi_def_cfa_offset 8
	mov	sp, r7
.LCFI294:
	.cfi_def_cfa_register 13
	@ sp needed
	pop	{r7, pc}
	.cfi_endproc
.LFE244:
	.size	Cy_SCB_UART_Interrupt, .-Cy_SCB_UART_Interrupt
	.section	.text.HandleDataReceive,"ax",%progbits
	.align	1
	.syntax unified
	.thumb
	.thumb_func
	.type	HandleDataReceive, %function
HandleDataReceive:
.LFB245:
	.loc 4 1455 1
	.cfi_startproc
	@ args = 0, pretend = 0, frame = 24
	@ frame_needed = 1, uses_anonymous_args = 0
	push	{r7, lr}
.LCFI295:
	.cfi_def_cfa_offset 8
	.cfi_offset 7, -8
	.cfi_offset 14, -4
	sub	sp, sp, #24
.LCFI296:
	.cfi_def_cfa_offset 32
	add	r7, sp, #0
.LCFI297:
	.cfi_def_cfa_register 7
	str	r0, [r7, #4]
	str	r1, [r7]
	.loc 4 1457 27
	ldr	r0, [r7, #4]
	bl	SelectRxFifoLevel
	str	r0, [r7, #20]
	.loc 4 1460 17
	ldr	r3, [r7]
	ldr	r1, [r3, #24]
	ldr	r3, [r7]
	ldr	r3, [r3, #28]
	mov	r2, r3
	ldr	r0, [r7, #4]
	bl	Cy_SCB_UART_GetArray
	str	r0, [r7, #16]
	.loc 4 1463 23
	ldr	r3, [r7]
	ldr	r2, [r3, #32]
	ldr	r3, [r7, #16]
	add	r2, r2, r3
	ldr	r3, [r7]
	str	r2, [r3, #32]
	.loc 4 1464 24
	ldr	r3, [r7]
	ldr	r2, [r3, #28]
	ldr	r3, [r7, #16]
	subs	r2, r2, r3
	ldr	r3, [r7]
	str	r2, [r3, #28]
	.loc 4 1466 23
	ldr	r3, [r7]
	ldr	r3, [r3, #28]
	.loc 4 1466 8
	cmp	r3, #0
	bne	.L266
	.loc 4 1468 27
	ldr	r3, [r7]
	ldr	r3, [r3, #8]
	.loc 4 1468 12
	cmp	r3, #0
	beq	.L267
	.loc 4 1471 49
	ldr	r3, [r7]
	ldr	r3, [r3, #12]
	.loc 4 1471 13
	ldr	r2, [r7, #20]
	cmp	r2, r3
	bhi	.L268
	.loc 4 1471 13 is_stmt 0 discriminator 1
	ldr	r3, [r7, #20]
	subs	r3, r3, #1
	b	.L269
.L268:
	.loc 4 1472 74 is_stmt 1 discriminator 2
	ldr	r3, [r7]
	ldr	r3, [r3, #12]
	.loc 4 1471 13 discriminator 2
	subs	r3, r3, #1
.L269:
	.loc 4 1471 13 is_stmt 0 discriminator 4
	mov	r1, r3
	ldr	r0, [r7, #4]
	bl	Cy_SCB_SetRxFifoLevel
	.loc 4 1474 13 is_stmt 1 discriminator 4
	movs	r1, #1
	ldr	r0, [r7, #4]
	bl	Cy_SCB_SetRxInterruptMask
	b	.L270
.L267:
	.loc 4 1478 13
	movs	r1, #0
	ldr	r0, [r7, #4]
	bl	Cy_SCB_SetRxInterruptMask
.L270:
	.loc 4 1482 27
	ldr	r3, [r7]
	ldr	r3, [r3, #4]
	bic	r2, r3, #1
	ldr	r3, [r7]
	str	r2, [r3, #4]
	.loc 4 1485 27
	ldr	r3, [r7]
	ldr	r3, [r3, #52]
	.loc 4 1485 12
	cmp	r3, #0
	beq	.L274
	.loc 4 1487 20
	ldr	r3, [r7]
	ldr	r3, [r3, #52]
	.loc 4 1487 13
	movs	r0, #4
	blx	r3
.LVL6:
	.loc 4 1503 1
	b	.L274
.L266:
.LBB21:
	.loc 4 1492 18
	ldr	r3, [r7]
	ldr	r3, [r3, #24]
	str	r3, [r7, #12]
	.loc 4 1494 21
	ldr	r0, [r7, #4]
	bl	Cy_SCB_IsRxDataWidthByte
	mov	r3, r0
	.loc 4 1494 52
	eor	r3, r3, #1
	uxtb	r3, r3
	.loc 4 1494 66
	cmp	r3, #0
	beq	.L272
	.loc 4 1494 66 is_stmt 0 discriminator 1
	ldr	r3, [r7, #16]
	lsls	r3, r3, #1
	b	.L273
.L272:
	.loc 4 1494 66 discriminator 2
	ldr	r3, [r7, #16]
.L273:
	.loc 4 1494 13 is_stmt 1 discriminator 4
	ldr	r2, [r7, #12]
	add	r3, r3, r2
	str	r3, [r7, #12]
	.loc 4 1495 24 discriminator 4
	ldr	r3, [r7]
	ldr	r2, [r7, #12]
	str	r2, [r3, #24]
	.loc 4 1497 20 discriminator 4
	ldr	r3, [r7]
	ldr	r3, [r3, #28]
	.loc 4 1497 12 discriminator 4
	ldr	r2, [r7, #20]
	cmp	r2, r3
	bls	.L274
	.loc 4 1500 49
	ldr	r3, [r7]
	ldr	r3, [r3, #28]
	.loc 4 1500 13
	subs	r3, r3, #1
	mov	r1, r3
	ldr	r0, [r7, #4]
	bl	Cy_SCB_SetRxFifoLevel
.L274:
.LBE21:
	.loc 4 1503 1
	nop
	adds	r7, r7, #24
.LCFI298:
	.cfi_def_cfa_offset 8
	mov	sp, r7
.LCFI299:
	.cfi_def_cfa_register 13
	@ sp needed
	pop	{r7, pc}
	.cfi_endproc
.LFE245:
	.size	HandleDataReceive, .-HandleDataReceive
	.section	.text.HandleRingBuffer,"ax",%progbits
	.align	1
	.syntax unified
	.thumb
	.thumb_func
	.type	HandleRingBuffer, %function
HandleRingBuffer:
.LFB246:
	.loc 4 1523 1
	.cfi_startproc
	@ args = 0, pretend = 0, frame = 32
	@ frame_needed = 1, uses_anonymous_args = 0
	push	{r4, r7, lr}
.LCFI300:
	.cfi_def_cfa_offset 12
	.cfi_offset 4, -12
	.cfi_offset 7, -8
	.cfi_offset 14, -4
	sub	sp, sp, #36
.LCFI301:
	.cfi_def_cfa_offset 48
	add	r7, sp, #0
.LCFI302:
	.cfi_def_cfa_register 7
	str	r0, [r7, #4]
	str	r1, [r7]
	.loc 4 1524 27
	ldr	r0, [r7, #4]
	bl	SelectRxFifoLevel
	str	r0, [r7, #20]
	.loc 4 1525 26
	ldr	r0, [r7, #4]
	bl	Cy_SCB_GetNumInRxFifo
	str	r0, [r7, #28]
	.loc 4 1526 14
	ldr	r3, [r7]
	ldr	r3, [r3, #16]
	str	r3, [r7, #24]
	.loc 4 1530 11
	b	.L276
.L286:
	.loc 4 1532 9
	ldr	r3, [r7, #24]
	adds	r3, r3, #1
	str	r3, [r7, #24]
	.loc 4 1534 31
	ldr	r3, [r7]
	ldr	r3, [r3, #12]
	.loc 4 1534 12
	ldr	r2, [r7, #24]
	cmp	r2, r3
	bne	.L277
	.loc 4 1536 21
	movs	r3, #0
	str	r3, [r7, #24]
.L277:
	.loc 4 1539 31
	ldr	r3, [r7]
	ldr	r3, [r3, #20]
	.loc 4 1539 12
	ldr	r2, [r7, #24]
	cmp	r2, r3
	bne	.L278
	.loc 4 1542 31
	ldr	r3, [r7]
	ldr	r3, [r3, #52]
	.loc 4 1542 16
	cmp	r3, #0
	beq	.L279
	.loc 4 1544 24
	ldr	r3, [r7]
	ldr	r3, [r3, #52]
	.loc 4 1544 17
	movs	r0, #8
	blx	r3
.LVL7:
.L279:
	.loc 4 1550 35
	ldr	r3, [r7]
	ldr	r3, [r3, #20]
	.loc 4 1550 16
	ldr	r2, [r7, #24]
	cmp	r2, r3
	bne	.L278
	.loc 4 1552 17
	movs	r1, #0
	ldr	r0, [r7, #4]
	bl	Cy_SCB_SetRxInterruptMask
	.loc 4 1554 61
	ldr	r3, [r7, #24]
	cmp	r3, #0
	beq	.L280
	.loc 4 1554 61 is_stmt 0 discriminator 1
	ldr	r3, [r7, #24]
	subs	r3, r3, #1
	b	.L281
.L280:
	.loc 4 1554 71 is_stmt 1 discriminator 2
	ldr	r3, [r7]
	ldr	r3, [r3, #12]
	.loc 4 1554 61 discriminator 2
	subs	r3, r3, #1
.L281:
	.loc 4 1554 25 discriminator 4
	str	r3, [r7, #24]
	.loc 4 1555 17 discriminator 4
	b	.L282
.L278:
	ldr	r3, [r7, #4]
	str	r3, [r7, #8]
.LBB22:
.LBB23:
	.loc 2 853 39
	ldr	r3, [r7, #8]
	ldr	r3, [r3, #832]
.LBE23:
.LBE22:
	.loc 4 1560 18
	str	r3, [r7, #16]
	.loc 4 1563 13
	ldr	r0, [r7, #4]
	bl	Cy_SCB_IsRxDataWidthByte
	mov	r3, r0
	.loc 4 1563 12
	cmp	r3, #0
	beq	.L284
	.loc 4 1565 33
	ldr	r3, [r7]
	ldr	r2, [r3, #8]
	.loc 4 1565 45
	ldr	r3, [r7, #24]
	add	r3, r3, r2
	.loc 4 1565 57
	ldr	r2, [r7, #16]
	uxtb	r2, r2
	.loc 4 1565 55
	strb	r2, [r3]
	b	.L285
.L284:
	.loc 4 1569 34
	ldr	r3, [r7]
	ldr	r2, [r3, #8]
	.loc 4 1569 46
	ldr	r3, [r7, #24]
	lsls	r3, r3, #1
	add	r3, r3, r2
	.loc 4 1569 58
	ldr	r2, [r7, #16]
	uxth	r2, r2
	.loc 4 1569 56
	strh	r2, [r3]	@ movhi
.L285:
	.loc 4 1572 9
	ldr	r3, [r7, #28]
	subs	r3, r3, #1
	str	r3, [r7, #28]
.L276:
	.loc 4 1530 11
	ldr	r3, [r7, #28]
	cmp	r3, #0
	bne	.L286
.L282:
	.loc 4 1576 28
	ldr	r3, [r7]
	ldr	r2, [r7, #24]
	str	r2, [r3, #16]
	.loc 4 1579 24
	ldr	r3, [r7]
	ldr	r4, [r3, #12]
	.loc 4 1579 42
	ldr	r1, [r7]
	ldr	r0, [r7, #4]
	bl	Cy_SCB_UART_GetNumInRingBuffer
	mov	r3, r0
	.loc 4 1579 15
	subs	r3, r4, r3
	str	r3, [r7, #28]
	.loc 4 1581 8
	ldr	r2, [r7, #28]
	ldr	r3, [r7, #20]
	cmp	r2, r3
	bcs	.L290
.LBB24:
	.loc 4 1584 64
	ldr	r3, [r7, #28]
	cmp	r3, #0
	beq	.L288
	.loc 4 1584 64 is_stmt 0 discriminator 1
	ldr	r3, [r7, #28]
	subs	r3, r3, #1
	b	.L289
.L288:
	.loc 4 1584 64 discriminator 2
	movs	r3, #0
.L289:
	.loc 4 1584 18 is_stmt 1 discriminator 4
	str	r3, [r7, #12]
	.loc 4 1585 9 discriminator 4
	ldr	r1, [r7, #12]
	ldr	r0, [r7, #4]
	bl	Cy_SCB_SetRxFifoLevel
.L290:
.LBE24:
	.loc 4 1587 1
	nop
	adds	r7, r7, #36
.LCFI303:
	.cfi_def_cfa_offset 12
	mov	sp, r7
.LCFI304:
	.cfi_def_cfa_register 13
	@ sp needed
	pop	{r4, r7, pc}
	.cfi_endproc
.LFE246:
	.size	HandleRingBuffer, .-HandleRingBuffer
	.section	.text.HandleDataTransmit,"ax",%progbits
	.align	1
	.syntax unified
	.thumb
	.thumb_func
	.type	HandleDataTransmit, %function
HandleDataTransmit:
.LFB247:
	.loc 4 1607 1
	.cfi_startproc
	@ args = 0, pretend = 0, frame = 40
	@ frame_needed = 1, uses_anonymous_args = 0
	push	{r7, lr}
.LCFI305:
	.cfi_def_cfa_offset 8
	.cfi_offset 7, -8
	.cfi_offset 14, -4
	sub	sp, sp, #40
.LCFI306:
	.cfi_def_cfa_offset 48
	add	r7, sp, #0
.LCFI307:
	.cfi_def_cfa_register 7
	str	r0, [r7, #4]
	str	r1, [r7]
	.loc 4 1609 25
	ldr	r0, [r7, #4]
	bl	Cy_SCB_GetFifoSize
	str	r0, [r7, #36]
	.loc 4 1610 24
	ldr	r0, [r7, #4]
	bl	Cy_SCB_IsTxDataWidthByte
	mov	r3, r0
	strb	r3, [r7, #35]
	.loc 4 1612 16
	ldr	r3, [r7]
	ldr	r3, [r3, #40]
	.loc 4 1612 8
	cmp	r3, #1
	bls	.L292
.LBB25:
	.loc 4 1614 18
	ldr	r3, [r7]
	ldr	r3, [r3, #36]
	str	r3, [r7, #28]
	.loc 4 1617 44
	ldr	r3, [r7]
	ldr	r2, [r3, #40]
	.loc 4 1617 35
	ldr	r3, [r7]
	str	r2, [r3, #44]
	.loc 4 1620 21
	ldr	r3, [r7]
	ldr	r1, [r3, #36]
	.loc 4 1620 72
	ldr	r3, [r7]
	ldr	r3, [r3, #40]
	.loc 4 1620 21
	subs	r3, r3, #1
	mov	r2, r3
	ldr	r0, [r7, #4]
	bl	Cy_SCB_UART_PutArray
	str	r0, [r7, #24]
	.loc 4 1623 28
	ldr	r3, [r7]
	ldr	r2, [r3, #40]
	ldr	r3, [r7, #24]
	subs	r2, r2, r3
	ldr	r3, [r7]
	str	r2, [r3, #40]
	.loc 4 1625 31
	ldrb	r3, [r7, #35]
	eor	r3, r3, #1
	uxtb	r3, r3
	.loc 4 1625 45
	cmp	r3, #0
	beq	.L293
	.loc 4 1625 45 is_stmt 0 discriminator 1
	ldr	r3, [r7, #24]
	lsls	r3, r3, #1
	b	.L294
.L293:
	.loc 4 1625 45 discriminator 2
	ldr	r3, [r7, #24]
.L294:
	.loc 4 1625 13 is_stmt 1 discriminator 4
	ldr	r2, [r7, #28]
	add	r3, r3, r2
	str	r3, [r7, #28]
	.loc 4 1626 24 discriminator 4
	ldr	r3, [r7]
	ldr	r2, [r7, #28]
	str	r2, [r3, #36]
.L292:
.LBE25:
	.loc 4 1630 22
	ldr	r0, [r7, #4]
	bl	Cy_SCB_GetNumInTxFifo
	mov	r2, r0
	.loc 4 1630 8
	ldr	r3, [r7, #36]
	cmp	r3, r2
	beq	.L298
	.loc 4 1630 69 discriminator 1
	ldr	r3, [r7]
	ldr	r3, [r3, #40]
	.loc 4 1630 51 discriminator 1
	cmp	r3, #1
	bne	.L298
.LBB26:
	.loc 4 1635 28
	ldr	r3, [r7]
	movs	r2, #0
	str	r2, [r3, #40]
	.loc 4 1638 18
	ldrb	r3, [r7, #35]	@ zero_extendqisi2
	cmp	r3, #0
	beq	.L296
	.loc 4 1638 63 discriminator 1
	ldr	r3, [r7]
	ldr	r3, [r3, #36]
	.loc 4 1638 71 discriminator 1
	ldrb	r3, [r3]	@ zero_extendqisi2
	b	.L297
.L296:
	.loc 4 1639 64 discriminator 2
	ldr	r3, [r7]
	ldr	r3, [r3, #36]
	.loc 4 1639 72 discriminator 2
	ldrh	r3, [r3]
.L297:
	.loc 4 1638 16 discriminator 4
	str	r3, [r7, #20]
	.loc 4 1642 22 discriminator 4
	bl	Cy_SysLib_EnterCriticalSection
	str	r0, [r7, #16]
	.loc 4 1644 9 discriminator 4
	mov	r1, #512
	ldr	r0, [r7, #4]
	bl	Cy_SCB_ClearTxInterrupt
	ldr	r3, [r7, #4]
	str	r3, [r7, #12]
	ldr	r3, [r7, #20]
	str	r3, [r7, #8]
.LBB27:
.LBB28:
	.loc 2 956 45 discriminator 4
	ldr	r3, [r7, #12]
	ldr	r2, [r7, #8]
	str	r2, [r3, #576]
	.loc 2 957 1 discriminator 4
	nop
.LBE28:
.LBE27:
	.loc 4 1647 9 discriminator 4
	ldr	r0, [r7, #16]
	bl	Cy_SysLib_ExitCriticalSection
	.loc 4 1651 22 discriminator 4
	ldr	r0, [r7, #4]
	bl	Cy_SCB_GetTxInterruptMask
	mov	r3, r0
	.loc 4 1650 50 discriminator 4
	bic	r3, r3, #512
	bic	r3, r3, #1
	.loc 4 1650 9 discriminator 4
	orr	r3, r3, #512
	mov	r1, r3
	ldr	r0, [r7, #4]
	bl	Cy_SCB_SetTxInterruptMask
	.loc 4 1654 27 discriminator 4
	ldr	r3, [r7]
	ldr	r3, [r3]
	orr	r2, r3, #2
	ldr	r3, [r7]
	str	r2, [r3]
	.loc 4 1656 27 discriminator 4
	ldr	r3, [r7]
	ldr	r3, [r3, #52]
	.loc 4 1656 12 discriminator 4
	cmp	r3, #0
	beq	.L298
	.loc 4 1658 20
	ldr	r3, [r7]
	ldr	r3, [r3, #52]
	.loc 4 1658 13
	movs	r0, #1
	blx	r3
.LVL8:
.L298:
.LBE26:
	.loc 4 1661 1
	nop
	adds	r7, r7, #40
.LCFI308:
	.cfi_def_cfa_offset 8
	mov	sp, r7
.LCFI309:
	.cfi_def_cfa_register 13
	@ sp needed
	pop	{r7, pc}
	.cfi_endproc
.LFE247:
	.size	HandleDataTransmit, .-HandleDataTransmit
	.text
.Letext0:
	.file 5 "d:\\llc\\softwares\\env-windows-v1.3.5\\tools\\gnu_gcc\\arm_gcc\\mingw\\arm-none-eabi\\include\\machine\\_default_types.h"
	.file 6 "d:\\llc\\softwares\\env-windows-v1.3.5\\tools\\gnu_gcc\\arm_gcc\\mingw\\arm-none-eabi\\include\\sys\\_stdint.h"
	.file 7 "libraries\\IFX_PSOC6_HAL\\mtb-pdl-cat1\\devices\\COMPONENT_CAT1A\\include/ip/cyip_scb.h"
	.file 8 "libraries\\IFX_PSOC6_HAL\\mtb-pdl-cat1\\devices\\COMPONENT_CAT1A\\include/psoc6_02_config.h"
	.file 9 "libraries\\IFX_PSOC6_HAL\\mtb-pdl-cat1\\drivers\\include/cy_syspm.h"