	.cpu cortex-m4
	.arch armv7e-m
	.fpu fpv4-sp-d16
	.eabi_attribute 27, 1
	.eabi_attribute 28, 1
	.eabi_attribute 20, 1
	.eabi_attribute 21, 1
	.eabi_attribute 23, 3
	.eabi_attribute 24, 1
	.eabi_attribute 25, 1
	.eabi_attribute 26, 1
	.eabi_attribute 30, 6
	.eabi_attribute 34, 1
	.eabi_attribute 18, 4
	.file	"cy_syspm.c"
	.text
.Ltext0:
	.cfi_sections	.debug_frame
	.section	.text.CY_HALT,"ax",%progbits
	.align	1
	.syntax unified
	.thumb
	.thumb_func
	.type	CY_HALT, %function
CY_HALT:
.LFB133:
	.file 1 "libraries\\IFX_PSOC6_HAL\\core-lib\\include/cy_utils.h"
	.loc 1 49 1
	.cfi_startproc
	@ args = 0, pretend = 0, frame = 0
	@ frame_needed = 1, uses_anonymous_args = 0
	@ link register save eliminated.
	push	{r7}
.LCFI0:
	.cfi_def_cfa_offset 4
	.cfi_offset 7, -4
	add	r7, sp, #0
.LCFI1:
	.cfi_def_cfa_register 7
	.loc 1 50 5
	.syntax unified
@ 50 "libraries\IFX_PSOC6_HAL\core-lib\include/cy_utils.h" 1
	    bkpt    1
@ 0 "" 2
	.loc 1 51 1
	.thumb
	.syntax unified
	nop
	mov	sp, r7
.LCFI2:
	.cfi_def_cfa_register 13
	@ sp needed
	ldr	r7, [sp], #4
.LCFI3:
	.cfi_restore 7
	.cfi_def_cfa_offset 0
	bx	lr
	.cfi_endproc
.LFE133:
	.size	CY_HALT, .-CY_HALT
	.section	.text.Cy_IPC_Drv_GetIpcBaseAddress,"ax",%progbits
	.align	1
	.syntax unified
	.thumb
	.thumb_func
	.type	Cy_IPC_Drv_GetIpcBaseAddress, %function
Cy_IPC_Drv_GetIpcBaseAddress:
.LFB137:
	.file 2 "libraries\\IFX_PSOC6_HAL\\mtb-pdl-cat1\\drivers\\include/cy_ipc_drv.h"
	.loc 2 588 1
	.cfi_startproc
	@ args = 0, pretend = 0, frame = 8
	@ frame_needed = 1, uses_anonymous_args = 0
	push	{r7, lr}
.LCFI4:
	.cfi_def_cfa_offset 8
	.cfi_offset 7, -8
	.cfi_offset 14, -4
	sub	sp, sp, #8
.LCFI5:
	.cfi_def_cfa_offset 16
	add	r7, sp, #0
.LCFI6:
	.cfi_def_cfa_register 7
	str	r0, [r7, #4]
	.loc 2 589 35
	ldr	r3, .L5
	ldr	r3, [r3]
	ldrb	r3, [r3, #51]	@ zero_extendqisi2
	.loc 2 589 15
	mov	r2, r3
	.loc 2 589 12
	ldr	r3, [r7, #4]
	cmp	r3, r2
	bcc	.L3
	.loc 2 589 64 discriminator 1
	bl	CY_HALT
.L3:
	.loc 2 590 62
	ldr	r3, .L5
	ldr	r3, [r3]
	ldr	r2, [r3, #32]
	.loc 2 590 84
	ldr	r3, .L5
	ldr	r3, [r3]
	ldrh	r3, [r3, #186]
	mov	r1, r3
	.loc 2 590 100
	ldr	r3, [r7, #4]
	mul	r3, r1, r3
	.loc 2 590 72
	add	r3, r3, r2
	.loc 2 591 1
	mov	r0, r3
	adds	r7, r7, #8
.LCFI7:
	.cfi_def_cfa_offset 8
	mov	sp, r7
.LCFI8:
	.cfi_def_cfa_register 13
	@ sp needed
	pop	{r7, pc}
.L6:
	.align	2
.L5:
	.word	cy_device
	.cfi_endproc
.LFE137:
	.size	Cy_IPC_Drv_GetIpcBaseAddress, .-Cy_IPC_Drv_GetIpcBaseAddress
	.section	.text.Cy_IPC_Drv_ReadDataValue,"ax",%progbits
	.align	1
	.syntax unified
	.thumb
	.thumb_func
	.type	Cy_IPC_Drv_ReadDataValue, %function
Cy_IPC_Drv_ReadDataValue:
.LFB151:
	.loc 2 1004 1
	.cfi_startproc
	@ args = 0, pretend = 0, frame = 8
	@ frame_needed = 1, uses_anonymous_args = 0
	@ link register save eliminated.
	push	{r7}
.LCFI9:
	.cfi_def_cfa_offset 4
	.cfi_offset 7, -4
	sub	sp, sp, #12
.LCFI10:
	.cfi_def_cfa_offset 16
	add	r7, sp, #0
.LCFI11:
	.cfi_def_cfa_register 7
	str	r0, [r7, #4]
	.loc 2 1005 42
	ldr	r3, [r7, #4]
	ldr	r3, [r3, #12]
	.loc 2 1006 1
	mov	r0, r3
	adds	r7, r7, #12
.LCFI12:
	.cfi_def_cfa_offset 4
	mov	sp, r7
.LCFI13:
	.cfi_def_cfa_register 13
	@ sp needed
	ldr	r7, [sp], #4
.LCFI14:
	.cfi_restore 7
	.cfi_def_cfa_offset 0
	bx	lr
	.cfi_endproc
.LFE151:
	.size	Cy_IPC_Drv_ReadDataValue, .-Cy_IPC_Drv_ReadDataValue
	.section	.text.Cy_IPC_Drv_IsLockAcquired,"ax",%progbits
	.align	1
	.syntax unified
	.thumb
	.thumb_func
	.type	Cy_IPC_Drv_IsLockAcquired, %function
Cy_IPC_Drv_IsLockAcquired:
.LFB153:
	.loc 2 1061 1
	.cfi_startproc
	@ args = 0, pretend = 0, frame = 8
	@ frame_needed = 1, uses_anonymous_args = 0
	@ link register save eliminated.
	push	{r7}
.LCFI15:
	.cfi_def_cfa_offset 4
	.cfi_offset 7, -4
	sub	sp, sp, #12
.LCFI16:
	.cfi_def_cfa_offset 16
	add	r7, sp, #0
.LCFI17:
	.cfi_def_cfa_register 7
	str	r0, [r7, #4]
	.loc 2 1062 84
	ldr	r3, .L11
	ldr	r3, [r3]
	ldr	r2, [r3, #188]
	.loc 2 1062 56
	ldr	r3, [r7, #4]
	.loc 2 1062 73
	add	r3, r3, r2
	.loc 2 1062 34
	ldr	r3, [r3]
	.loc 2 1062 17
	lsrs	r3, r3, #31
	uxtb	r3, r3
	.loc 2 1063 1
	mov	r0, r3
	adds	r7, r7, #12
.LCFI18:
	.cfi_def_cfa_offset 4
	mov	sp, r7
.LCFI19:
	.cfi_def_cfa_register 13
	@ sp needed
	ldr	r7, [sp], #4
.LCFI20:
	.cfi_restore 7
	.cfi_def_cfa_offset 0
	bx	lr
.L12:
	.align	2
.L11:
	.word	cy_device
	.cfi_endproc
.LFE153:
	.size	Cy_IPC_Drv_IsLockAcquired, .-Cy_IPC_Drv_IsLockAcquired
	.section	.bss.pmCallbackRoot,"aw",%nobits
	.align	2
	.type	pmCallbackRoot, %object
	.size	pmCallbackRoot, 20
pmCallbackRoot:
	.space	20
	.section	.bss.failedCallback,"aw",%nobits
	.align	2
	.type	failedCallback, %object
	.size	failedCallback, 20
failedCallback:
	.space	20
	.section	.bss.wasEventSent,"aw",%nobits
	.type	wasEventSent, %object
	.size	wasEventSent, 1
wasEventSent:
	.space	1
	.section	.text.Cy_SysPm_ReadStatus,"ax",%progbits
	.align	1
	.global	Cy_SysPm_ReadStatus
	.syntax unified
	.thumb
	.thumb_func
	.type	Cy_SysPm_ReadStatus, %function
Cy_SysPm_ReadStatus:
.LFB162:
	.file 3 "libraries\\IFX_PSOC6_HAL\\mtb-pdl-cat1\\drivers\\source\\cy_syspm.c"
	.loc 3 329 1
	.cfi_startproc
	@ args = 0, pretend = 0, frame = 8
	@ frame_needed = 1, uses_anonymous_args = 0
	push	{r7, lr}
.LCFI21:
	.cfi_def_cfa_offset 8
	.cfi_offset 7, -8
	.cfi_offset 14, -4
	sub	sp, sp, #8
.LCFI22:
	.cfi_def_cfa_offset 16
	add	r7, sp, #0
.LCFI23:
	.cfi_def_cfa_register 7
	.loc 3 330 14
	movs	r3, #0
	str	r3, [r7, #4]
	.loc 3 333 44
	ldr	r3, .L25
	ldr	r3, [r3]
	ldr	r2, [r3]
	.loc 3 333 67
	ldr	r3, .L25
	ldr	r3, [r3]
	ldr	r3, [r3, #144]
	.loc 3 333 56
	add	r3, r3, r2
	.loc 3 333 11
	ldr	r3, [r3]
	.loc 3 333 92
	and	r3, r3, #3
	.loc 3 333 8
	cmp	r3, #3
	bne	.L14
	.loc 3 335 18
	ldr	r3, [r7, #4]
	orr	r3, r3, #4
	str	r3, [r7, #4]
	b	.L15
.L14:
	.loc 3 338 66
	ldr	r3, .L25
	ldr	r3, [r3]
	ldr	r2, [r3]
	.loc 3 338 89
	ldr	r3, .L25
	ldr	r3, [r3]
	ldr	r3, [r3, #144]
	.loc 3 338 78
	add	r3, r3, r2
	.loc 3 338 21
	ldr	r3, [r3]
	.loc 3 338 124
	and	r3, r3, #1
	.loc 3 338 12
	cmp	r3, #0
	beq	.L16
	.loc 3 340 18
	ldr	r3, [r7, #4]
	orr	r3, r3, #2
	str	r3, [r7, #4]
	b	.L15
.L16:
	.loc 3 344 18
	ldr	r3, [r7, #4]
	orr	r3, r3, #1
	str	r3, [r7, #4]
.L15:
	.loc 3 349 44
	ldr	r3, .L25
	ldr	r3, [r3]
	ldr	r2, [r3]
	.loc 3 349 67
	ldr	r3, .L25
	ldr	r3, [r3]
	ldr	r3, [r3, #148]
	.loc 3 349 56
	add	r3, r3, r2
	.loc 3 349 11
	ldr	r3, [r3]
	.loc 3 349 92
	and	r3, r3, #3
	.loc 3 349 8
	cmp	r3, #3
	bne	.L17
	.loc 3 351 18
	ldr	r3, [r7, #4]
	orr	r3, r3, #1024
	str	r3, [r7, #4]
	b	.L18
.L17:
	.loc 3 354 67
	ldr	r3, .L25
	ldr	r3, [r3]
	ldr	r2, [r3]
	.loc 3 354 90
	ldr	r3, .L25
	ldr	r3, [r3]
	ldr	r3, [r3, #148]
	.loc 3 354 79
	add	r3, r3, r2
	.loc 3 354 22
	ldr	r3, [r3]
	.loc 3 354 125
	and	r3, r3, #1
	.loc 3 354 13
	cmp	r3, #0
	beq	.L19
	.loc 3 356 18
	ldr	r3, [r7, #4]
	orr	r3, r3, #512
	str	r3, [r7, #4]
	b	.L18
.L19:
	.loc 3 360 18
	ldr	r3, [r7, #4]
	orr	r3, r3, #256
	str	r3, [r7, #4]
.L18:
	.loc 3 371 9
	bl	Cy_SysPm_LdoIsEnabled
	mov	r3, r0
	.loc 3 371 8
	cmp	r3, #0
	beq	.L20
	.loc 3 374 13
	bl	Cy_SysPm_LdoGetVoltage
	mov	r3, r0
	.loc 3 374 12
	cmp	r3, #0
	beq	.L21
	.loc 3 376 22
	ldr	r3, [r7, #4]
	orr	r3, r3, #128
	str	r3, [r7, #4]
	b	.L22
.L21:
	.loc 3 380 22
	ldr	r3, [r7, #4]
	orr	r3, r3, #2048
	str	r3, [r7, #4]
	b	.L22
.L20:
	.loc 3 386 13
	bl	Cy_SysPm_BuckGetVoltage1
	mov	r3, r0
	.loc 3 386 12
	cmp	r3, #2
	beq	.L23
	.loc 3 388 22
	ldr	r3, [r7, #4]
	orr	r3, r3, #128
	str	r3, [r7, #4]
	b	.L22
.L23:
	.loc 3 392 22
	ldr	r3, [r7, #4]
	orr	r3, r3, #2048
	str	r3, [r7, #4]
.L22:
	.loc 3 396 12
	ldr	r3, [r7, #4]
	.loc 3 397 1
	mov	r0, r3
	adds	r7, r7, #8
.LCFI24:
	.cfi_def_cfa_offset 8
	mov	sp, r7
.LCFI25:
	.cfi_def_cfa_register 13
	@ sp needed
	pop	{r7, pc}
.L26:
	.align	2
.L25:
	.word	cy_device
	.cfi_endproc
.LFE162:
	.size	Cy_SysPm_ReadStatus, .-Cy_SysPm_ReadStatus
	.section	.text.Cy_SysPm_CpuEnterSleep,"ax",%progbits
	.align	1
	.global	Cy_SysPm_CpuEnterSleep
	.syntax unified
	.thumb
	.thumb_func
	.type	Cy_SysPm_CpuEnterSleep, %function
Cy_SysPm_CpuEnterSleep:
.LFB163:
	.loc 3 401 1
	.cfi_startproc
	@ args = 0, pretend = 0, frame = 24
	@ frame_needed = 1, uses_anonymous_args = 0
	push	{r7, lr}
.LCFI26:
	.cfi_def_cfa_offset 8
	.cfi_offset 7, -8
	.cfi_offset 14, -4
	sub	sp, sp, #24
.LCFI27:
	.cfi_def_cfa_offset 32
	add	r7, sp, #0
.LCFI28:
	.cfi_def_cfa_register 7
	mov	r3, r0
	strb	r3, [r7, #7]
	.loc 3 403 14
	movs	r3, #0
	str	r3, [r7, #16]
	.loc 3 404 26
	movs	r3, #0
	str	r3, [r7, #20]
	.loc 3 406 12
	ldrb	r3, [r7, #7]	@ zero_extendqisi2
	cmp	r3, #0
	beq	.L28
	.loc 3 406 13 discriminator 1
	ldrb	r3, [r7, #7]	@ zero_extendqisi2
	cmp	r3, #1
	beq	.L28
	.loc 3 406 106 discriminator 2
	bl	CY_HALT
.L28:
	.loc 3 409 23
	ldr	r2, .L37
	ldr	r3, [r7, #16]
	ldr	r3, [r2, r3, lsl #2]
	.loc 3 409 8
	cmp	r3, #0
	beq	.L29
	.loc 3 411 18
	movs	r1, #1
	movs	r0, #0
	bl	Cy_SysPm_ExecuteCallback
	str	r0, [r7, #20]
.L29:
	.loc 3 418 7
	ldr	r3, [r7, #20]
	cmp	r3, #0
	bne	.L30
	.loc 3 423 26
	bl	Cy_SysLib_EnterCriticalSection
	str	r0, [r7, #12]
	.loc 3 424 27
	ldr	r2, .L37
	ldr	r3, [r7, #16]
	ldr	r3, [r2, r3, lsl #2]
	.loc 3 424 12
	cmp	r3, #0
	beq	.L31
	.loc 3 426 20
	movs	r1, #4
	movs	r0, #0
	bl	Cy_SysPm_ExecuteCallback
.L31:
	.loc 3 430 74
	ldr	r3, .L37+4
	ldr	r3, [r3, #16]
	ldr	r2, .L37+4
	bic	r3, r3, #4
	str	r3, [r2, #16]
	.loc 3 432 11
	ldrb	r3, [r7, #7]	@ zero_extendqisi2
	cmp	r3, #1
	beq	.L32
	.loc 3 434 13
	.syntax unified
@ 434 "libraries\IFX_PSOC6_HAL\mtb-pdl-cat1\drivers\source\cy_syspm.c" 1
	wfi
@ 0 "" 2
	.thumb
	.syntax unified
	b	.L33
.L32:
	.loc 3 438 13
	.syntax unified
@ 438 "libraries\IFX_PSOC6_HAL\mtb-pdl-cat1\drivers\source\cy_syspm.c" 1
	wfe
@ 0 "" 2
	.loc 3 441 17
	.thumb
	.syntax unified
	bl	Cy_SysLib_GetDevice
	mov	r3, r0
	.loc 3 441 16
	cmp	r3, #256
	bne	.L33
	.loc 3 447 20
	ldr	r3, .L37+8
	ldrb	r3, [r3]	@ zero_extendqisi2
	.loc 3 447 19
	cmp	r3, #0
	beq	.L34
	.loc 3 449 21
	.syntax unified
@ 449 "libraries\IFX_PSOC6_HAL\mtb-pdl-cat1\drivers\source\cy_syspm.c" 1
	wfe
@ 0 "" 2
	.thumb
	.syntax unified
.L34:
	.loc 3 452 30
	ldr	r3, .L37+8
	movs	r2, #1
	strb	r2, [r3]
.L33:
	.loc 3 456 9
	ldr	r0, [r7, #12]
	bl	Cy_SysLib_ExitCriticalSection
	.loc 3 461 27
	ldr	r2, .L37
	ldr	r3, [r7, #16]
	ldr	r3, [r2, r3, lsl #2]
	.loc 3 461 12
	cmp	r3, #0
	beq	.L35
	.loc 3 463 20
	movs	r1, #8
	movs	r0, #0
	bl	Cy_SysPm_ExecuteCallback
	b	.L35
.L30:
	.loc 3 472 16
	movs	r1, #2
	movs	r0, #0
	bl	Cy_SysPm_ExecuteCallback
	.loc 3 473 16
	ldr	r3, .L37+12
	str	r3, [r7, #20]
.L35:
	.loc 3 475 12
	ldr	r3, [r7, #20]
	.loc 3 476 1
	mov	r0, r3
	adds	r7, r7, #24
.LCFI29:
	.cfi_def_cfa_offset 8
	mov	sp, r7
.LCFI30:
	.cfi_def_cfa_register 13
	@ sp needed
	pop	{r7, pc}
.L38:
	.align	2
.L37:
	.word	pmCallbackRoot
	.word	-536810240
	.word	wasEventSent
	.word	4325631
	.cfi_endproc
.LFE163:
	.size	Cy_SysPm_CpuEnterSleep, .-Cy_SysPm_CpuEnterSleep
	.section	.text.Cy_SysPm_CpuEnterDeepSleep,"ax",%progbits
	.align	1
	.global	Cy_SysPm_CpuEnterDeepSleep
	.syntax unified
	.thumb
	.thumb_func
	.type	Cy_SysPm_CpuEnterDeepSleep, %function
Cy_SysPm_CpuEnterDeepSleep:
.LFB164:
	.loc 3 480 1
	.cfi_startproc
	@ args = 0, pretend = 0, frame = 32
	@ frame_needed = 1, uses_anonymous_args = 0
	push	{r7, lr}
.LCFI31:
	.cfi_def_cfa_offset 8
	.cfi_offset 7, -8
	.cfi_offset 14, -4
	sub	sp, sp, #32
.LCFI32:
	.cfi_def_cfa_offset 40
	add	r7, sp, #0
.LCFI33:
	.cfi_def_cfa_register 7
	mov	r3, r0
	strb	r3, [r7, #7]
	.loc 3 484 25
	bl	Cy_SysLib_GetDeviceRevision
	mov	r3, r0
	strb	r3, [r7, #23]
	.loc 3 487 14
	movs	r3, #1
	str	r3, [r7, #16]
	.loc 3 488 14
	movs	r3, #0
	str	r3, [r7, #28]
	.loc 3 489 26
	movs	r3, #0
	str	r3, [r7, #24]
	.loc 3 491 12
	ldrb	r3, [r7, #7]	@ zero_extendqisi2
	cmp	r3, #0
	beq	.L40
	.loc 3 491 13 discriminator 1
	ldrb	r3, [r7, #7]	@ zero_extendqisi2
	cmp	r3, #1
	beq	.L40
	.loc 3 491 106 discriminator 2
	bl	CY_HALT
.L40:
	.loc 3 496 23
	ldr	r2, .L60
	ldr	r3, [r7, #16]
	ldr	r3, [r2, r3, lsl #2]
	.loc 3 496 8
	cmp	r3, #0
	beq	.L41
	.loc 3 498 18
	movs	r1, #1
	movs	r0, #1
	bl	Cy_SysPm_ExecuteCallback
	str	r0, [r7, #24]
.L41:
	.loc 3 505 8
	ldr	r3, [r7, #24]
	cmp	r3, #0
	bne	.L42
	.loc 3 510 26
	bl	Cy_SysLib_EnterCriticalSection
	str	r0, [r7, #12]
	.loc 3 511 27
	ldr	r2, .L60
	ldr	r3, [r7, #16]
	ldr	r3, [r2, r3, lsl #2]
	.loc 3 511 12
	cmp	r3, #0
	beq	.L58
	.loc 3 513 20
	movs	r1, #4
	movs	r0, #1
	bl	Cy_SysPm_ExecuteCallback
.L58:
	.loc 3 520 15
	nop
.L44:
	.loc 3 520 85 discriminator 1
	ldr	r3, .L60+4
	ldr	r3, [r3]
	ldr	r2, [r3, #32]
	.loc 3 520 107 discriminator 1
	ldr	r3, .L60+4
	ldr	r3, [r3]
	ldrh	r3, [r3, #186]
	mov	r1, r3
	.loc 3 520 123 discriminator 1
	mov	r3, r1
	lsls	r3, r3, #3
	subs	r3, r3, r1
	.loc 3 520 95 discriminator 1
	add	r3, r3, r2
	.loc 3 520 137 discriminator 1
	ldr	r3, [r3]
	.loc 3 520 15 discriminator 1
	cmp	r3, #0
	bge	.L44
	.loc 3 525 79
	ldr	r3, .L60+4
	ldr	r3, [r3]
	ldr	r2, [r3, #32]
	.loc 3 525 101
	ldr	r3, .L60+4
	ldr	r3, [r3]
	ldrh	r3, [r3, #186]
	mov	r1, r3
	.loc 3 525 117
	mov	r3, r1
	lsls	r3, r3, #3
	subs	r3, r3, r1
	.loc 3 525 89
	add	r3, r3, r2
	.loc 3 525 24
	ldr	r3, [r3, #12]
	str	r3, [r7, #28]
	.loc 3 527 35
	ldr	r3, [r7, #28]
	and	r3, r3, #536870912
	.loc 3 527 12
	cmp	r3, #0
	beq	.L45
	.loc 3 529 28
	ldr	r3, [r7, #28]
	and	r3, r3, #-268435456
	str	r3, [r7, #28]
	.loc 3 531 13
	ldr	r0, .L60+8
	bl	Cy_SysPm_SaveRegisters
	.loc 3 534 16
	ldrb	r3, [r7, #23]	@ zero_extendqisi2
	cmp	r3, #33
	bne	.L46
	.loc 3 538 54
	ldr	r3, .L60+4
	ldr	r3, [r3]
	ldr	r2, [r3]
	.loc 3 538 77
	ldr	r3, .L60+4
	ldr	r3, [r3]
	ldr	r3, [r3, #136]
	.loc 3 538 66
	add	r3, r3, r2
	.loc 3 538 21
	ldr	r3, [r3]
	.loc 3 538 105
	bic	r3, r3, #65280
	.loc 3 537 51
	ldr	r2, .L60+4
	ldr	r2, [r2]
	ldr	r1, [r2]
	.loc 3 537 74
	ldr	r2, .L60+4
	ldr	r2, [r2]
	ldr	r2, [r2, #136]
	.loc 3 537 63
	add	r2, r2, r1
	.loc 3 538 134
	orr	r3, r3, #2304
	.loc 3 537 101
	str	r3, [r2]
	.loc 3 541 54
	ldr	r3, .L60+4
	ldr	r3, [r3]
	ldr	r2, [r3]
	.loc 3 541 77
	ldr	r3, .L60+4
	ldr	r3, [r3]
	ldr	r3, [r3, #140]
	.loc 3 541 66
	add	r3, r3, r2
	.loc 3 541 21
	ldr	r3, [r3]
	.loc 3 541 105
	bic	r3, r3, #65280
	.loc 3 540 51
	ldr	r2, .L60+4
	ldr	r2, [r2]
	ldr	r1, [r2]
	.loc 3 540 74
	ldr	r2, .L60+4
	ldr	r2, [r2]
	ldr	r2, [r2, #140]
	.loc 3 540 63
	add	r2, r2, r1
	.loc 3 541 134
	orr	r3, r3, #2304
	.loc 3 540 101
	str	r3, [r2]
	b	.L47
.L46:
	.loc 3 548 54
	ldr	r3, .L60+4
	ldr	r3, [r3]
	ldr	r2, [r3]
	.loc 3 548 77
	ldr	r3, .L60+4
	ldr	r3, [r3]
	ldr	r3, [r3, #136]
	.loc 3 548 66
	add	r3, r3, r2
	.loc 3 548 21
	ldr	r3, [r3]
	.loc 3 548 105
	bic	r3, r3, #65280
	.loc 3 547 51
	ldr	r2, .L60+4
	ldr	r2, [r2]
	ldr	r1, [r2]
	.loc 3 547 74
	ldr	r2, .L60+4
	ldr	r2, [r2]
	ldr	r2, [r2, #136]
	.loc 3 547 63
	add	r2, r2, r1
	.loc 3 548 134
	orr	r3, r3, #256
	.loc 3 547 101
	str	r3, [r2]
	.loc 3 551 54
	ldr	r3, .L60+4
	ldr	r3, [r3]
	ldr	r2, [r3]
	.loc 3 551 77
	ldr	r3, .L60+4
	ldr	r3, [r3]
	ldr	r3, [r3, #140]
	.loc 3 551 66
	add	r3, r3, r2
	.loc 3 551 21
	ldr	r3, [r3]
	.loc 3 551 105
	bic	r3, r3, #65280
	.loc 3 550 51
	ldr	r2, .L60+4
	ldr	r2, [r2]
	ldr	r1, [r2]
	.loc 3 550 74
	ldr	r2, .L60+4
	ldr	r2, [r2]
	ldr	r2, [r2, #140]
	.loc 3 550 63
	add	r2, r2, r1
	.loc 3 551 134
	orr	r3, r3, #256
	.loc 3 550 101
	str	r3, [r2]
.L47:
	.loc 3 554 31
	ldr	r2, .L60+8
	.loc 3 554 28
	ldr	r3, [r7, #28]
	orrs	r3, r3, r2
	str	r3, [r7, #28]
.L45:
	.loc 3 557 24
	ldr	r3, [r7, #28]
	orr	r3, r3, #268435456
	str	r3, [r7, #28]
	.loc 3 560 62
	ldr	r3, .L60+4
	ldr	r3, [r3]
	ldr	r2, [r3, #32]
	.loc 3 560 84
	ldr	r3, .L60+4
	ldr	r3, [r3]
	ldrh	r3, [r3, #186]
	mov	r1, r3
	.loc 3 560 100
	mov	r3, r1
	lsls	r3, r3, #3
	subs	r3, r3, r1
	.loc 3 560 72
	add	r3, r3, r2
	.loc 3 560 11
	mov	r2, r3
	.loc 3 560 123
	ldr	r3, [r7, #28]
	str	r3, [r2, #12]
	.loc 3 563 59
	ldr	r3, .L60+4
	ldr	r3, [r3]
	ldr	r2, [r3, #32]
	.loc 3 563 81
	ldr	r3, .L60+4
	ldr	r3, [r3]
	ldrh	r3, [r3, #186]
	mov	r1, r3
	.loc 3 563 97
	mov	r3, r1
	lsls	r3, r3, #3
	subs	r3, r3, r1
	.loc 3 563 69
	add	r3, r3, r2
	.loc 3 563 11
	mov	r2, r3
	.loc 3 563 122
	movs	r3, #0
	str	r3, [r2, #4]
	.loc 3 566 66
	ldr	r3, .L60+4
	ldr	r3, [r3]
	ldr	r2, [r3, #32]
	.loc 3 566 88
	ldr	r3, .L60+4
	ldr	r3, [r3]
	ldrh	r3, [r3, #186]
	mov	r1, r3
	.loc 3 566 104
	mov	r3, r1
	lsls	r3, r3, #3
	subs	r3, r3, r1
	.loc 3 566 76
	add	r3, r3, r2
	.loc 3 566 9
	ldr	r3, [r3, #4]
	.loc 3 576 13
	bl	Cy_SysLib_GetDevice
	mov	r3, r0
	.loc 3 576 12
	cmp	r3, #256
	bne	.L48
	.loc 3 579 13
	ldrb	r3, [r7, #7]	@ zero_extendqisi2
	mov	r0, r3
	bl	EnterDeepSleepRam
	b	.L59
.L48:
	.loc 3 607 86
	ldr	r3, .L60+12
	ldr	r3, [r3, #16]
	ldr	r2, .L60+12
	orr	r3, r3, #4
	str	r3, [r2, #16]
	.loc 3 609 23
	ldrb	r3, [r7, #7]	@ zero_extendqisi2
	cmp	r3, #1
	beq	.L50
	.loc 3 611 25
	.syntax unified
@ 611 "libraries\IFX_PSOC6_HAL\mtb-pdl-cat1\drivers\source\cy_syspm.c" 1
	wfi
@ 0 "" 2
	.thumb
	.syntax unified
	b	.L51
.L61:
	.align	2
.L60:
	.word	pmCallbackRoot
	.word	cy_device
	.word	bkpRegs.1
	.word	-536810240
.L50:
	.loc 3 615 25
	.syntax unified
@ 615 "libraries\IFX_PSOC6_HAL\mtb-pdl-cat1\drivers\source\cy_syspm.c" 1
	wfe
@ 0 "" 2
	.thumb
	.syntax unified
.L51:
	.loc 3 619 73
	ldr	r3, .L62
	ldr	r3, [r3]
	ldr	r2, [r3]
	.loc 3 619 96
	ldr	r3, .L62
	ldr	r3, [r3]
	ldr	r3, [r3, #152]
	.loc 3 619 85
	add	r3, r3, r2
	.loc 3 619 28
	ldr	r3, [r3]
	.loc 3 619 131
	and	r3, r3, #3
	.loc 3 619 17
	cmp	r3, #2
	beq	.L48
.L59:
	.loc 3 628 15
	nop
.L52:
	.loc 3 628 85 discriminator 1
	ldr	r3, .L62
	ldr	r3, [r3]
	ldr	r2, [r3, #32]
	.loc 3 628 107 discriminator 1
	ldr	r3, .L62
	ldr	r3, [r3]
	ldrh	r3, [r3, #186]
	mov	r1, r3
	.loc 3 628 123 discriminator 1
	mov	r3, r1
	lsls	r3, r3, #3
	subs	r3, r3, r1
	.loc 3 628 95 discriminator 1
	add	r3, r3, r2
	.loc 3 628 137 discriminator 1
	ldr	r3, [r3]
	.loc 3 628 15 discriminator 1
	cmp	r3, #0
	bge	.L52
	.loc 3 633 79
	ldr	r3, .L62
	ldr	r3, [r3]
	ldr	r2, [r3, #32]
	.loc 3 633 101
	ldr	r3, .L62
	ldr	r3, [r3]
	ldrh	r3, [r3, #186]
	mov	r1, r3
	.loc 3 633 117
	mov	r3, r1
	lsls	r3, r3, #3
	subs	r3, r3, r1
	.loc 3 633 89
	add	r3, r3, r2
	.loc 3 633 24
	ldr	r3, [r3, #12]
	str	r3, [r7, #28]
	.loc 3 637 35
	ldr	r3, [r7, #28]
	and	r3, r3, #536870912
	.loc 3 637 12
	cmp	r3, #0
	beq	.L53
.LBB2:
	.loc 3 641 70
	ldr	r3, [r7, #28]
	bic	r3, r3, #-268435456
	.loc 3 641 21
	str	r3, [r7, #8]
	.loc 3 644 13
	ldr	r0, [r7, #8]
	bl	Cy_SysPm_RestoreRegisters
.L53:
.LBE2:
	.loc 3 648 24
	ldr	r3, [r7, #28]
	bic	r3, r3, #268435456
	str	r3, [r7, #28]
	.loc 3 651 62
	ldr	r3, .L62
	ldr	r3, [r3]
	ldr	r2, [r3, #32]
	.loc 3 651 84
	ldr	r3, .L62
	ldr	r3, [r3]
	ldrh	r3, [r3, #186]
	mov	r1, r3
	.loc 3 651 100
	mov	r3, r1
	lsls	r3, r3, #3
	subs	r3, r3, r1
	.loc 3 651 72
	add	r3, r3, r2
	.loc 3 651 11
	mov	r2, r3
	.loc 3 651 123
	ldr	r3, [r7, #28]
	str	r3, [r2, #12]
	.loc 3 654 59
	ldr	r3, .L62
	ldr	r3, [r3]
	ldr	r2, [r3, #32]
	.loc 3 654 81
	ldr	r3, .L62
	ldr	r3, [r3]
	ldrh	r3, [r3, #186]
	mov	r1, r3
	.loc 3 654 97
	mov	r3, r1
	lsls	r3, r3, #3
	subs	r3, r3, r1
	.loc 3 654 69
	add	r3, r3, r2
	.loc 3 654 11
	mov	r2, r3
	.loc 3 654 122
	movs	r3, #0
	str	r3, [r2, #4]
	.loc 3 656 9
	ldr	r0, [r7, #12]
	bl	Cy_SysLib_ExitCriticalSection
.L42:
	.loc 3 659 8
	ldr	r3, [r7, #24]
	cmp	r3, #0
	bne	.L54
	.loc 3 664 27
	ldr	r2, .L62+4
	ldr	r3, [r7, #16]
	ldr	r3, [r2, r3, lsl #2]
	.loc 3 664 12
	cmp	r3, #0
	beq	.L55
	.loc 3 666 20
	movs	r1, #8
	movs	r0, #1
	bl	Cy_SysPm_ExecuteCallback
	b	.L55
.L54:
	.loc 3 675 27
	ldr	r2, .L62+4
	ldr	r3, [r7, #16]
	ldr	r3, [r2, r3, lsl #2]
	.loc 3 675 12
	cmp	r3, #0
	beq	.L56
	.loc 3 677 20
	movs	r1, #2
	movs	r0, #1
	bl	Cy_SysPm_ExecuteCallback
.L56:
	.loc 3 681 12
	ldr	r3, [r7, #24]
	ldr	r2, .L62+8
	cmp	r3, r2
	beq	.L55
	.loc 3 683 20
	ldr	r3, .L62+12
	str	r3, [r7, #24]
.L55:
	.loc 3 686 12
	ldr	r3, [r7, #24]
	.loc 3 687 1
	mov	r0, r3
	adds	r7, r7, #32
.LCFI34:
	.cfi_def_cfa_offset 8
	mov	sp, r7
.LCFI35:
	.cfi_def_cfa_register 13
	@ sp needed
	pop	{r7, pc}
.L63:
	.align	2
.L62:
	.word	cy_device
	.word	pmCallbackRoot
	.word	4325381
	.word	4325631
	.cfi_endproc
.LFE164:
	.size	Cy_SysPm_CpuEnterDeepSleep, .-Cy_SysPm_CpuEnterDeepSleep
	.section	.text.Cy_SysPm_SystemEnterHibernate,"ax",%progbits
	.align	1
	.global	Cy_SysPm_SystemEnterHibernate
	.syntax unified
	.thumb
	.thumb_func
	.type	Cy_SysPm_SystemEnterHibernate, %function
Cy_SysPm_SystemEnterHibernate:
.LFB165:
	.loc 3 691 1
	.cfi_startproc
	@ args = 0, pretend = 0, frame = 8
	@ frame_needed = 1, uses_anonymous_args = 0
	push	{r7, lr}
.LCFI36:
	.cfi_def_cfa_offset 8
	.cfi_offset 7, -8
	.cfi_offset 14, -4
	sub	sp, sp, #8
.LCFI37:
	.cfi_def_cfa_offset 16
	add	r7, sp, #0
.LCFI38:
	.cfi_def_cfa_register 7
	.loc 3 692 26
	movs	r3, #0
	str	r3, [r7, #4]
	.loc 3 693 14
	movs	r3, #2
	str	r3, [r7]
	.loc 3 697 23
	ldr	r2, .L70
	ldr	r3, [r7]
	ldr	r3, [r2, r3, lsl #2]
	.loc 3 697 8
	cmp	r3, #0
	beq	.L65
	.loc 3 699 18
	movs	r1, #1
	movs	r0, #2
	bl	Cy_SysPm_ExecuteCallback
	str	r0, [r7, #4]
.L65:
	.loc 3 706 7
	ldr	r3, [r7, #4]
	cmp	r3, #0
	bne	.L66
	.loc 3 711 16
	bl	Cy_SysLib_EnterCriticalSection
	.loc 3 712 27
	ldr	r2, .L70
	ldr	r3, [r7]
	ldr	r3, [r2, r3, lsl #2]
	.loc 3 712 12
	cmp	r3, #0
	beq	.L67
	.loc 3 714 20
	movs	r1, #4
	movs	r0, #2
	bl	Cy_SysPm_ExecuteCallback
.L67:
	.loc 3 727 123
	ldr	r3, .L70+4
	ldr	r2, [r3, #4]
	.loc 3 727 140
	ldr	r3, .L70+8
	ands	r3, r3, r2
	.loc 3 727 56
	ldr	r2, .L70+4
	.loc 3 727 196
	orr	r3, r3, #27
	.loc 3 727 73
	str	r3, [r2, #4]
	.loc 3 730 73
	ldr	r3, .L70+4
	ldr	r2, [r3, #4]
	ldr	r1, .L70+4
	ldr	r3, .L70+12
	orrs	r3, r3, r2
	str	r3, [r1, #4]
	.loc 3 733 73
	ldr	r3, .L70+4
	ldr	r2, [r3, #4]
	ldr	r1, .L70+4
	ldr	r3, .L70+12
	orrs	r3, r3, r2
	str	r3, [r1, #4]
	.loc 3 736 73
	ldr	r3, .L70+4
	ldr	r2, [r3, #4]
	ldr	r1, .L70+4
	ldr	r3, .L70+12
	orrs	r3, r3, r2
	str	r3, [r1, #4]
	.loc 3 740 63
	ldr	r3, .L70+4
	.loc 3 740 9
	ldr	r3, [r3, #4]
	.loc 3 743 9
	.syntax unified
@ 743 "libraries\IFX_PSOC6_HAL\mtb-pdl-cat1\drivers\source\cy_syspm.c" 1
	wfi
@ 0 "" 2
	.thumb
	.syntax unified
	b	.L68
.L66:
	.loc 3 763 16
	movs	r1, #2
	movs	r0, #2
	bl	Cy_SysPm_ExecuteCallback
	.loc 3 764 16
	ldr	r3, .L70+16
	str	r3, [r7, #4]
.L68:
	.loc 3 766 12
	ldr	r3, [r7, #4]
	.loc 3 767 1
	mov	r0, r3
	adds	r7, r7, #8
.LCFI39:
	.cfi_def_cfa_offset 8
	mov	sp, r7
.LCFI40:
	.cfi_def_cfa_register 13
	@ sp needed
	pop	{r7, pc}
.L71:
	.align	2
.L70:
	.word	pmCallbackRoot
	.word	1076232192
	.word	268173312
	.word	-2147337728
	.word	4325631
	.cfi_endproc
.LFE165:
	.size	Cy_SysPm_SystemEnterHibernate, .-Cy_SysPm_SystemEnterHibernate
	.section	.text.Cy_SysPm_SystemEnterLp,"ax",%progbits
	.align	1
	.global	Cy_SysPm_SystemEnterLp
	.syntax unified
	.thumb
	.thumb_func
	.type	Cy_SysPm_SystemEnterLp, %function
Cy_SysPm_SystemEnterLp:
.LFB166:
	.loc 3 771 1
	.cfi_startproc
	@ args = 0, pretend = 0, frame = 16
	@ frame_needed = 1, uses_anonymous_args = 0
	push	{r7, lr}
.LCFI41:
	.cfi_def_cfa_offset 8
	.cfi_offset 7, -8
	.cfi_offset 14, -4
	sub	sp, sp, #16
.LCFI42:
	.cfi_def_cfa_offset 24
	add	r7, sp, #0
.LCFI43:
	.cfi_def_cfa_register 7
	.loc 3 773 14
	movs	r3, #3
	str	r3, [r7, #8]
	.loc 3 774 26
	movs	r3, #0
	str	r3, [r7, #12]
	.loc 3 779 23
	ldr	r2, .L80
	ldr	r3, [r7, #8]
	ldr	r3, [r2, r3, lsl #2]
	.loc 3 779 8
	cmp	r3, #0
	beq	.L73
	.loc 3 781 18
	movs	r1, #1
	movs	r0, #3
	bl	Cy_SysPm_ExecuteCallback
	str	r0, [r7, #12]
.L73:
	.loc 3 788 8
	ldr	r3, [r7, #12]
	cmp	r3, #0
	bne	.L74
	.loc 3 794 26
	bl	Cy_SysLib_EnterCriticalSection
	str	r0, [r7, #4]
	.loc 3 795 27
	ldr	r2, .L80
	ldr	r3, [r7, #8]
	ldr	r3, [r2, r3, lsl #2]
	.loc 3 795 12
	cmp	r3, #0
	beq	.L75
	.loc 3 797 20
	movs	r1, #4
	movs	r0, #3
	bl	Cy_SysPm_ExecuteCallback
.L75:
	.loc 3 801 13
	bl	Cy_SysPm_LdoIsEnabled
	mov	r3, r0
	.loc 3 801 12
	cmp	r3, #0
	beq	.L76
	.loc 3 804 17
	bl	Cy_SysPm_LdoGetVoltage
	mov	r3, r0
	.loc 3 804 16
	cmp	r3, #1
	beq	.L77
	.loc 3 806 26
	movs	r0, #1
	bl	Cy_SysPm_LdoSetVoltage
	str	r0, [r7, #12]
	b	.L77
.L76:
	.loc 3 812 17
	bl	Cy_SysPm_BuckGetVoltage1
	mov	r3, r0
	.loc 3 812 16
	cmp	r3, #5
	beq	.L77
	.loc 3 814 26
	movs	r0, #5
	bl	Cy_SysPm_BuckSetVoltage1
	str	r0, [r7, #12]
.L77:
	.loc 3 818 9
	ldr	r0, [r7, #4]
	bl	Cy_SysLib_ExitCriticalSection
	.loc 3 823 27
	ldr	r2, .L80
	ldr	r3, [r7, #8]
	ldr	r3, [r2, r3, lsl #2]
	.loc 3 823 12
	cmp	r3, #0
	beq	.L78
	.loc 3 825 20
	movs	r1, #8
	movs	r0, #3
	bl	Cy_SysPm_ExecuteCallback
	b	.L78
.L74:
	.loc 3 834 16
	movs	r1, #2
	movs	r0, #3
	bl	Cy_SysPm_ExecuteCallback
	.loc 3 835 16
	ldr	r3, .L80+4
	str	r3, [r7, #12]
.L78:
	.loc 3 838 12
	ldr	r3, [r7, #12]
	.loc 3 839 1
	mov	r0, r3
	adds	r7, r7, #16
.LCFI44:
	.cfi_def_cfa_offset 8
	mov	sp, r7
.LCFI45:
	.cfi_def_cfa_register 13
	@ sp needed
	pop	{r7, pc}
.L81:
	.align	2
.L80:
	.word	pmCallbackRoot
	.word	4325631
	.cfi_endproc
.LFE166:
	.size	Cy_SysPm_SystemEnterLp, .-Cy_SysPm_SystemEnterLp
	.section	.text.Cy_SysPm_SystemEnterUlp,"ax",%progbits
	.align	1
	.global	Cy_SysPm_SystemEnterUlp
	.syntax unified
	.thumb
	.thumb_func
	.type	Cy_SysPm_SystemEnterUlp, %function
Cy_SysPm_SystemEnterUlp:
.LFB167:
	.loc 3 843 1
	.cfi_startproc
	@ args = 0, pretend = 0, frame = 16
	@ frame_needed = 1, uses_anonymous_args = 0
	push	{r7, lr}
.LCFI46:
	.cfi_def_cfa_offset 8
	.cfi_offset 7, -8
	.cfi_offset 14, -4
	sub	sp, sp, #16
.LCFI47:
	.cfi_def_cfa_offset 24
	add	r7, sp, #0
.LCFI48:
	.cfi_def_cfa_register 7
	.loc 3 845 26
	movs	r3, #0
	str	r3, [r7, #12]
	.loc 3 846 14
	movs	r3, #4
	str	r3, [r7, #8]
	.loc 3 851 23
	ldr	r2, .L90
	ldr	r3, [r7, #8]
	ldr	r3, [r2, r3, lsl #2]
	.loc 3 851 8
	cmp	r3, #0
	beq	.L83
	.loc 3 853 18
	movs	r1, #1
	movs	r0, #4
	bl	Cy_SysPm_ExecuteCallback
	str	r0, [r7, #12]
.L83:
	.loc 3 860 8
	ldr	r3, [r7, #12]
	cmp	r3, #0
	bne	.L84
	.loc 3 865 26
	bl	Cy_SysLib_EnterCriticalSection
	str	r0, [r7, #4]
	.loc 3 866 27
	ldr	r2, .L90
	ldr	r3, [r7, #8]
	ldr	r3, [r2, r3, lsl #2]
	.loc 3 866 12
	cmp	r3, #0
	beq	.L85
	.loc 3 868 20
	movs	r1, #4
	movs	r0, #4
	bl	Cy_SysPm_ExecuteCallback
.L85:
	.loc 3 872 13
	bl	Cy_SysPm_LdoIsEnabled
	mov	r3, r0
	.loc 3 872 12
	cmp	r3, #0
	beq	.L86
	.loc 3 875 17
	bl	Cy_SysPm_LdoGetVoltage
	mov	r3, r0
	.loc 3 875 16
	cmp	r3, #0
	beq	.L87
	.loc 3 877 26
	movs	r0, #0
	bl	Cy_SysPm_LdoSetVoltage
	str	r0, [r7, #12]
	b	.L87
.L86:
	.loc 3 883 17
	bl	Cy_SysPm_BuckGetVoltage1
	mov	r3, r0
	.loc 3 883 16
	cmp	r3, #2
	beq	.L87
	.loc 3 885 26
	movs	r0, #2
	bl	Cy_SysPm_BuckSetVoltage1
	str	r0, [r7, #12]
.L87:
	.loc 3 889 9
	ldr	r0, [r7, #4]
	bl	Cy_SysLib_ExitCriticalSection
	.loc 3 894 27
	ldr	r2, .L90
	ldr	r3, [r7, #8]
	ldr	r3, [r2, r3, lsl #2]
	.loc 3 894 12
	cmp	r3, #0
	beq	.L88
	.loc 3 896 20
	movs	r1, #8
	movs	r0, #4
	bl	Cy_SysPm_ExecuteCallback
	b	.L88
.L84:
	.loc 3 905 16
	movs	r1, #2
	movs	r0, #4
	bl	Cy_SysPm_ExecuteCallback
	.loc 3 906 16
	ldr	r3, .L90+4
	str	r3, [r7, #12]
.L88:
	.loc 3 909 12
	ldr	r3, [r7, #12]
	.loc 3 910 1
	mov	r0, r3
	adds	r7, r7, #16
.LCFI49:
	.cfi_def_cfa_offset 8
	mov	sp, r7
.LCFI50:
	.cfi_def_cfa_register 13
	@ sp needed
	pop	{r7, pc}
.L91:
	.align	2
.L90:
	.word	pmCallbackRoot
	.word	4325631
	.cfi_endproc
.LFE167:
	.size	Cy_SysPm_SystemEnterUlp, .-Cy_SysPm_SystemEnterUlp
	.section	.text.Cy_SysPm_SystemSetMinRegulatorCurrent,"ax",%progbits
	.align	1
	.global	Cy_SysPm_SystemSetMinRegulatorCurrent
	.syntax unified
	.thumb
	.thumb_func
	.type	Cy_SysPm_SystemSetMinRegulatorCurrent, %function
Cy_SysPm_SystemSetMinRegulatorCurrent:
.LFB168:
	.loc 3 914 1
	.cfi_startproc
	@ args = 0, pretend = 0, frame = 8
	@ frame_needed = 1, uses_anonymous_args = 0
	push	{r7, lr}
.LCFI51:
	.cfi_def_cfa_offset 8
	.cfi_offset 7, -8
	.cfi_offset 14, -4
	sub	sp, sp, #8
.LCFI52:
	.cfi_def_cfa_offset 16
	add	r7, sp, #0
.LCFI53:
	.cfi_def_cfa_register 7
	.loc 3 915 26
	ldr	r3, .L97
	str	r3, [r7, #4]
	.loc 3 925 75
	ldr	r3, .L97+4
	ldr	r3, [r3]
	.loc 3 925 12
	and	r3, r3, #32
	.loc 3 925 8
	cmp	r3, #0
	beq	.L93
	.loc 3 927 12
	bl	Cy_SysPm_LdoIsEnabled
	mov	r3, r0
	.loc 3 927 11
	cmp	r3, #0
	beq	.L94
	.loc 3 930 71
	ldr	r3, .L97+4
	ldr	r3, [r3]
	ldr	r2, .L97+4
	orr	r3, r3, #385875968
	orr	r3, r3, #262144
	str	r3, [r2]
	.loc 3 933 17
	bl	Cy_SysPm_LdoGetVoltage
	mov	r3, r0
	.loc 3 933 16
	cmp	r3, #1
	bne	.L95
	.loc 3 936 64
	ldr	r3, .L97+4
	.loc 3 936 85
	add	r3, r3, #28672
	mov	r2, r3
	movs	r3, #80
	str	r3, [r2, #3888]
	b	.L95
.L94:
	.loc 3 942 71
	ldr	r3, .L97+4
	ldr	r3, [r3]
	ldr	r2, .L97+4
	orr	r3, r3, #369098752
	orr	r3, r3, #262144
	str	r3, [r2]
.L95:
	.loc 3 948 9
	movs	r0, #1
	bl	Cy_SysLib_DelayUs
	.loc 3 951 67
	ldr	r3, .L97+4
	ldr	r3, [r3]
	ldr	r2, .L97+4
	orr	r3, r3, #1073741824
	str	r3, [r2]
	.loc 3 953 16
	movs	r3, #0
	str	r3, [r7, #4]
.L93:
	.loc 3 957 12
	ldr	r3, [r7, #4]
	.loc 3 958 1
	mov	r0, r3
	adds	r7, r7, #8
.LCFI54:
	.cfi_def_cfa_offset 8
	mov	sp, r7
.LCFI55:
	.cfi_def_cfa_register 13
	@ sp needed
	pop	{r7, pc}
.L98:
	.align	2
.L97:
	.word	4325380
	.word	1076232192
	.cfi_endproc
.LFE168:
	.size	Cy_SysPm_SystemSetMinRegulatorCurrent, .-Cy_SysPm_SystemSetMinRegulatorCurrent
	.section	.text.Cy_SysPm_SystemSetNormalRegulatorCurrent,"ax",%progbits
	.align	1
	.global	Cy_SysPm_SystemSetNormalRegulatorCurrent
	.syntax unified
	.thumb
	.thumb_func
	.type	Cy_SysPm_SystemSetNormalRegulatorCurrent, %function
Cy_SysPm_SystemSetNormalRegulatorCurrent:
.LFB169:
	.loc 3 962 1
	.cfi_startproc
	@ args = 0, pretend = 0, frame = 8
	@ frame_needed = 1, uses_anonymous_args = 0
	push	{r7, lr}
.LCFI56:
	.cfi_def_cfa_offset 8
	.cfi_offset 7, -8
	.cfi_offset 14, -4
	sub	sp, sp, #8
.LCFI57:
	.cfi_def_cfa_offset 16
	add	r7, sp, #0
.LCFI58:
	.cfi_def_cfa_register 7
	.loc 3 963 26
	ldr	r3, .L108
	str	r3, [r7, #4]
	.loc 3 970 14
	movs	r3, #100
	str	r3, [r7]
	.loc 3 975 9
	bl	Cy_SysPm_LdoIsEnabled
	mov	r3, r0
	.loc 3 975 8
	cmp	r3, #0
	beq	.L100
	.loc 3 977 67
	ldr	r3, .L108+4
	ldr	r3, [r3]
	ldr	r2, .L108+4
	bic	r3, r3, #1392508928
	bic	r3, r3, #262144
	str	r3, [r2]
	b	.L101
.L100:
	.loc 3 981 67
	ldr	r3, .L108+4
	ldr	r3, [r3]
	ldr	r2, .L108+4
	bic	r3, r3, #1375731712
	bic	r3, r3, #262144
	str	r3, [r2]
.L101:
	.loc 3 985 5
	movs	r0, #8
	bl	Cy_SysLib_DelayUs
	.loc 3 987 11
	b	.L102
.L104:
	.loc 3 989 16
	ldr	r3, [r7]
	subs	r3, r3, #1
	str	r3, [r7]
.L102:
	.loc 3 987 79
	ldr	r3, .L108+4
	ldr	r3, [r3]
	.loc 3 987 11
	cmp	r3, #0
	blt	.L103
	.loc 3 987 117 discriminator 1
	ldr	r3, [r7]
	cmp	r3, #0
	bne	.L104
.L103:
	.loc 3 992 8
	ldr	r3, [r7]
	cmp	r3, #0
	beq	.L105
	.loc 3 995 67
	ldr	r3, .L108+4
	ldr	r3, [r3]
	ldr	r2, .L108+4
	bic	r3, r3, #67108864
	str	r3, [r2]
	.loc 3 998 9
	movs	r0, #1
	bl	Cy_SysLib_DelayUs
	.loc 3 1001 13
	bl	Cy_SysPm_LdoIsEnabled
	mov	r3, r0
	.loc 3 1001 12
	cmp	r3, #0
	beq	.L106
	.loc 3 1001 41 discriminator 1
	bl	Cy_SysPm_LdoGetVoltage
	mov	r3, r0
	.loc 3 1001 37 discriminator 1
	cmp	r3, #1
	bne	.L106
	.loc 3 1004 134
	mov	r3, #369098752
	.loc 3 1004 60
	ldr	r2, .L108+4
	.loc 3 1004 134
	add	r3, r3, #4096
	ldr	r3, [r3, #2064]
	.loc 3 1004 81
	add	r2, r2, #28672
	str	r3, [r2, #3888]
.L106:
	.loc 3 1007 15
	movs	r3, #0
	str	r3, [r7, #4]
.L105:
	.loc 3 1011 12
	ldr	r3, [r7, #4]
	.loc 3 1012 1
	mov	r0, r3
	adds	r7, r7, #8
.LCFI59:
	.cfi_def_cfa_offset 8
	mov	sp, r7
.LCFI60:
	.cfi_def_cfa_register 13
	@ sp needed
	pop	{r7, pc}
.L109:
	.align	2
.L108:
	.word	4325378
	.word	1076232192
	.cfi_endproc
.LFE169:
	.size	Cy_SysPm_SystemSetNormalRegulatorCurrent, .-Cy_SysPm_SystemSetNormalRegulatorCurrent
	.section	.text.Cy_SysPm_CpuSleepOnExit,"ax",%progbits
	.align	1
	.global	Cy_SysPm_CpuSleepOnExit
	.syntax unified
	.thumb
	.thumb_func
	.type	Cy_SysPm_CpuSleepOnExit, %function
Cy_SysPm_CpuSleepOnExit:
.LFB170:
	.loc 3 1016 1
	.cfi_startproc
	@ args = 0, pretend = 0, frame = 8
	@ frame_needed = 1, uses_anonymous_args = 0
	@ link register save eliminated.
	push	{r7}
.LCFI61:
	.cfi_def_cfa_offset 4
	.cfi_offset 7, -4
	sub	sp, sp, #12
.LCFI62:
	.cfi_def_cfa_offset 16
	add	r7, sp, #0
.LCFI63:
	.cfi_def_cfa_register 7
	mov	r3, r0
	strb	r3, [r7, #7]
	.loc 3 1017 7
	ldrb	r3, [r7, #7]	@ zero_extendqisi2
	cmp	r3, #0
	beq	.L111
	.loc 3 1020 74
	ldr	r3, .L114
	ldr	r3, [r3, #16]
	ldr	r2, .L114
	orr	r3, r3, #2
	str	r3, [r2, #16]
	.loc 3 1027 1
	b	.L113
.L111:
	.loc 3 1025 74
	ldr	r3, .L114
	ldr	r3, [r3, #16]
	ldr	r2, .L114
	bic	r3, r3, #2
	str	r3, [r2, #16]
.L113:
	.loc 3 1027 1
	nop
	adds	r7, r7, #12
.LCFI64:
	.cfi_def_cfa_offset 4
	mov	sp, r7
.LCFI65:
	.cfi_def_cfa_register 13
	@ sp needed
	ldr	r7, [sp], #4
.LCFI66:
	.cfi_restore 7
	.cfi_def_cfa_offset 0
	bx	lr
.L115:
	.align	2
.L114:
	.word	-536810240
	.cfi_endproc
.LFE170:
	.size	Cy_SysPm_CpuSleepOnExit, .-Cy_SysPm_CpuSleepOnExit
	.section	.text.Cy_SysPm_SetHibernateWakeupSource,"ax",%progbits
	.align	1
	.global	Cy_SysPm_SetHibernateWakeupSource
	.syntax unified
	.thumb
	.thumb_func
	.type	Cy_SysPm_SetHibernateWakeupSource, %function
Cy_SysPm_SetHibernateWakeupSource:
.LFB171:
	.loc 3 1031 1
	.cfi_startproc
	@ args = 0, pretend = 0, frame = 16
	@ frame_needed = 1, uses_anonymous_args = 0
	push	{r7, lr}
.LCFI67:
	.cfi_def_cfa_offset 8
	.cfi_offset 7, -8
	.cfi_offset 14, -4
	sub	sp, sp, #16
.LCFI68:
	.cfi_def_cfa_offset 24
	add	r7, sp, #0
.LCFI69:
	.cfi_def_cfa_register 7
	str	r0, [r7, #4]
	.loc 3 1032 39
	ldr	r3, [r7, #4]
	bic	r3, r3, #267386880
	bic	r3, r3, #786432
	.loc 3 1032 12
	cmp	r3, #0
	beq	.L117
	.loc 3 1032 375 discriminator 1
	bl	CY_HALT
.L117:
	.loc 3 1034 14
	movs	r3, #0
	str	r3, [r7, #12]
	.loc 3 1036 56
	ldr	r3, [r7, #4]
	lsrs	r3, r3, #20
	and	r3, r3, #15
	.loc 3 1036 8
	cmp	r3, #0
	beq	.L118
	.loc 3 1039 33
	ldr	r3, [r7, #4]
	and	r3, r3, #67108864
	.loc 3 1039 12
	cmp	r3, #0
	beq	.L119
	.loc 3 1041 26
	ldr	r3, [r7, #12]
	orr	r3, r3, #4194304
	str	r3, [r7, #12]
.L119:
	.loc 3 1044 33
	ldr	r3, [r7, #4]
	and	r3, r3, #134217728
	.loc 3 1044 12
	cmp	r3, #0
	beq	.L120
	.loc 3 1046 26
	ldr	r3, [r7, #12]
	orr	r3, r3, #8388608
	str	r3, [r7, #12]
.L120:
	.loc 3 1049 33
	ldr	r3, [r7, #4]
	and	r3, r3, #16777216
	.loc 3 1049 12
	cmp	r3, #0
	beq	.L121
	.loc 3 1051 26
	ldr	r3, [r7, #12]
	orr	r3, r3, #1048576
	str	r3, [r7, #12]
.L121:
	.loc 3 1054 33
	ldr	r3, [r7, #4]
	and	r3, r3, #33554432
	.loc 3 1054 12
	cmp	r3, #0
	beq	.L118
	.loc 3 1056 26
	ldr	r3, [r7, #12]
	orr	r3, r3, #2097152
	str	r3, [r7, #12]
.L118:
	.loc 3 1063 119
	ldr	r3, .L122
	ldr	r2, [r3, #4]
	.loc 3 1063 149
	ldr	r3, [r7, #12]
	mvns	r3, r3
	.loc 3 1063 136
	ands	r2, r2, r3
	.loc 3 1063 52
	ldr	r1, .L122
	.loc 3 1063 164
	ldr	r3, [r7, #4]
	orrs	r3, r3, r2
	.loc 3 1063 69
	str	r3, [r1, #4]
	.loc 3 1067 59
	ldr	r3, .L122
	.loc 3 1067 5
	ldr	r3, [r3, #4]
	.loc 3 1068 1
	nop
	adds	r7, r7, #16
.LCFI70:
	.cfi_def_cfa_offset 8
	mov	sp, r7
.LCFI71:
	.cfi_def_cfa_register 13
	@ sp needed
	pop	{r7, pc}
.L123:
	.align	2
.L122:
	.word	1076232192
	.cfi_endproc
.LFE171:
	.size	Cy_SysPm_SetHibernateWakeupSource, .-Cy_SysPm_SetHibernateWakeupSource
	.section	.text.Cy_SysPm_ClearHibernateWakeupSource,"ax",%progbits
	.align	1
	.global	Cy_SysPm_ClearHibernateWakeupSource
	.syntax unified
	.thumb
	.thumb_func
	.type	Cy_SysPm_ClearHibernateWakeupSource, %function
Cy_SysPm_ClearHibernateWakeupSource:
.LFB172:
	.loc 3 1072 1
	.cfi_startproc
	@ args = 0, pretend = 0, frame = 16
	@ frame_needed = 1, uses_anonymous_args = 0
	push	{r7, lr}
.LCFI72:
	.cfi_def_cfa_offset 8
	.cfi_offset 7, -8
	.cfi_offset 14, -4
	sub	sp, sp, #16
.LCFI73:
	.cfi_def_cfa_offset 24
	add	r7, sp, #0
.LCFI74:
	.cfi_def_cfa_register 7
	str	r0, [r7, #4]
	.loc 3 1073 39
	ldr	r3, [r7, #4]
	bic	r3, r3, #267386880
	bic	r3, r3, #786432
	.loc 3 1073 12
	cmp	r3, #0
	beq	.L125
	.loc 3 1073 375 discriminator 1
	bl	CY_HALT
.L125:
	.loc 3 1075 14
	ldr	r3, [r7, #4]
	bic	r3, r3, #15728640
	str	r3, [r7, #12]
	.loc 3 1077 56
	ldr	r3, [r7, #4]
	lsrs	r3, r3, #20
	and	r3, r3, #15
	.loc 3 1077 8
	cmp	r3, #0
	beq	.L126
	.loc 3 1080 73
	ldr	r3, [r7, #4]
	and	r3, r3, #71303168
	.loc 3 1080 12
	cmp	r3, #71303168
	bne	.L127
	.loc 3 1082 35
	ldr	r3, [r7, #12]
	orr	r3, r3, #4194304
	str	r3, [r7, #12]
.L127:
	.loc 3 1085 73
	ldr	r3, [r7, #4]
	and	r3, r3, #142606336
	.loc 3 1085 12
	cmp	r3, #142606336
	bne	.L128
	.loc 3 1087 35
	ldr	r3, [r7, #12]
	orr	r3, r3, #8388608
	str	r3, [r7, #12]
.L128:
	.loc 3 1090 70
	ldr	r3, [r7, #4]
	and	r3, r3, #17825792
	.loc 3 1090 12
	cmp	r3, #17825792
	bne	.L129
	.loc 3 1092 35
	ldr	r3, [r7, #12]
	orr	r3, r3, #1048576
	str	r3, [r7, #12]
.L129:
	.loc 3 1095 70
	ldr	r3, [r7, #4]
	and	r3, r3, #35651584
	.loc 3 1095 12
	cmp	r3, #35651584
	bne	.L126
	.loc 3 1097 35
	ldr	r3, [r7, #12]
	orr	r3, r3, #2097152
	str	r3, [r7, #12]
.L126:
	.loc 3 1104 69
	ldr	r3, .L130
	ldr	r2, [r3, #4]
	.loc 3 1104 83
	ldr	r3, [r7, #12]
	mvns	r3, r3
	.loc 3 1104 69
	ldr	r1, .L130
	ands	r3, r3, r2
	str	r3, [r1, #4]
	.loc 3 1108 59
	ldr	r3, .L130
	.loc 3 1108 5
	ldr	r3, [r3, #4]
	.loc 3 1109 1
	nop
	adds	r7, r7, #16
.LCFI75:
	.cfi_def_cfa_offset 8
	mov	sp, r7
.LCFI76:
	.cfi_def_cfa_register 13
	@ sp needed
	pop	{r7, pc}
.L131:
	.align	2
.L130:
	.word	1076232192
	.cfi_endproc
.LFE172:
	.size	Cy_SysPm_ClearHibernateWakeupSource, .-Cy_SysPm_ClearHibernateWakeupSource
	.section	.text.Cy_SysPm_BuckEnable,"ax",%progbits
	.align	1
	.global	Cy_SysPm_BuckEnable
	.syntax unified
	.thumb
	.thumb_func
	.type	Cy_SysPm_BuckEnable, %function
Cy_SysPm_BuckEnable:
.LFB173:
	.loc 3 1113 1
	.cfi_startproc
	@ args = 0, pretend = 0, frame = 24
	@ frame_needed = 1, uses_anonymous_args = 0
	push	{r7, lr}
.LCFI77:
	.cfi_def_cfa_offset 8
	.cfi_offset 7, -8
	.cfi_offset 14, -4
	sub	sp, sp, #24
.LCFI78:
	.cfi_def_cfa_offset 32
	add	r7, sp, #0
.LCFI79:
	.cfi_def_cfa_register 7
	mov	r3, r0
	strb	r3, [r7, #7]
	.loc 3 1114 12
	ldrb	r3, [r7, #7]	@ zero_extendqisi2
	cmp	r3, #2
	beq	.L133
	.loc 3 1114 13 discriminator 1
	ldrb	r3, [r7, #7]	@ zero_extendqisi2
	cmp	r3, #5
	beq	.L133
	.loc 3 1114 118 discriminator 2
	bl	CY_HALT
.L133:
	.loc 3 1116 26
	ldr	r3, .L145
	str	r3, [r7, #20]
	.loc 3 1128 9
	bl	Cy_SysPm_LdoIsEnabled
	mov	r3, r0
	.loc 3 1128 8
	cmp	r3, #0
	beq	.L134
.LBB3:
	.loc 3 1131 26
	bl	Cy_SysLib_EnterCriticalSection
	str	r0, [r7, #12]
	.loc 3 1134 12
	ldrb	r3, [r7, #7]	@ zero_extendqisi2
	cmp	r3, #2
	bne	.L135
	.loc 3 1136 17
	bl	Cy_SysPm_LdoGetVoltage
	mov	r3, r0
	.loc 3 1136 16
	cmp	r3, #0
	beq	.L136
	.loc 3 1138 26
	movs	r0, #0
	bl	Cy_SysPm_LdoSetVoltage
	str	r0, [r7, #20]
	b	.L137
.L136:
	.loc 3 1142 24
	movs	r3, #0
	str	r3, [r7, #20]
.L137:
	.loc 3 1145 16
	ldr	r3, [r7, #20]
	cmp	r3, #0
	bne	.L135
	.loc 3 1148 140
	ldr	r3, .L145+4
	add	r3, r3, #61440
	ldr	r3, [r3, #3868]
	.loc 3 1148 165
	bic	r3, r3, #31
	.loc 3 1148 64
	ldr	r2, .L145+4
	.loc 3 1148 192
	orr	r3, r3, #11
	.loc 3 1148 87
	add	r2, r2, #61440
	str	r3, [r2, #3868]
.L135:
	.loc 3 1154 12
	ldrb	r3, [r7, #7]	@ zero_extendqisi2
	cmp	r3, #5
	bne	.L138
	.loc 3 1156 17
	bl	Cy_SysPm_LdoGetVoltage
	mov	r3, r0
	.loc 3 1156 16
	cmp	r3, #1
	beq	.L139
	.loc 3 1158 26
	movs	r0, #1
	bl	Cy_SysPm_LdoSetVoltage
	str	r0, [r7, #20]
	b	.L140
.L139:
	.loc 3 1162 24
	movs	r3, #0
	str	r3, [r7, #20]
.L140:
	.loc 3 1165 16
	ldr	r3, [r7, #20]
	cmp	r3, #0
	bne	.L138
	.loc 3 1168 140
	ldr	r3, .L145+4
	add	r3, r3, #61440
	ldr	r3, [r3, #3868]
	.loc 3 1168 165
	bic	r3, r3, #31
	.loc 3 1168 64
	ldr	r2, .L145+4
	.loc 3 1168 192
	orr	r3, r3, #27
	.loc 3 1168 87
	add	r2, r2, #61440
	str	r3, [r2, #3868]
.L138:
	.loc 3 1174 12
	ldr	r3, [r7, #20]
	cmp	r3, #0
	bne	.L141
	.loc 3 1177 13
	movs	r0, #9
	bl	Cy_SysLib_DelayUs
	.loc 3 1180 71
	ldr	r3, .L145+4
	ldr	r3, [r3]
	ldr	r2, .L145+4
	orr	r3, r3, #7340032
	str	r3, [r2]
	.loc 3 1186 64
	ldr	r3, .L145+4
	ldr	r3, [r3, #20]
	.loc 3 1186 82
	bic	r2, r3, #7
	.loc 3 1186 144
	ldrb	r3, [r7, #7]	@ zero_extendqisi2
	.loc 3 1186 152
	and	r3, r3, #7
	.loc 3 1185 60
	ldr	r1, .L145+4
	.loc 3 1186 108
	orrs	r3, r3, r2
	.loc 3 1185 76
	str	r3, [r1, #20]
	.loc 3 1188 76
	ldr	r3, .L145+4
	ldr	r3, [r3, #20]
	ldr	r2, .L145+4
	orr	r3, r3, #1073741824
	str	r3, [r2, #20]
	.loc 3 1190 76
	ldr	r3, .L145+4
	ldr	r3, [r3, #20]
	ldr	r2, .L145+4
	orr	r3, r3, #-2147483648
	str	r3, [r2, #20]
	.loc 3 1193 13
	mov	r0, #900
	bl	Cy_SysLib_DelayUs
	.loc 3 1196 71
	ldr	r3, .L145+4
	ldr	r3, [r3]
	ldr	r2, .L145+4
	orr	r3, r3, #8388608
	str	r3, [r2]
	.loc 3 1201 60
	ldr	r3, .L145+4
	.loc 3 1201 81
	add	r3, r3, #28672
	mov	r2, r3
	movs	r3, #0
	str	r3, [r2, #3888]
.L141:
	.loc 3 1204 9
	ldr	r0, [r7, #12]
	bl	Cy_SysLib_ExitCriticalSection
.LBE3:
	b	.L142
.L134:
.LBB4:
	.loc 3 1209 54
	bl	Cy_SysPm_BuckGetVoltage1
	mov	r3, r0
	strb	r3, [r7, #19]
	.loc 3 1211 12
	ldrb	r2, [r7, #7]	@ zero_extendqisi2
	ldrb	r3, [r7, #19]	@ zero_extendqisi2
	cmp	r2, r3
	beq	.L143
	.loc 3 1213 22
	ldrb	r3, [r7, #7]	@ zero_extendqisi2
	mov	r0, r3
	bl	Cy_SysPm_BuckSetVoltage1
	str	r0, [r7, #20]
	b	.L142
.L143:
	.loc 3 1217 20
	movs	r3, #0
	str	r3, [r7, #20]
.L142:
.LBE4:
	.loc 3 1222 12
	ldr	r3, [r7, #20]
	.loc 3 1223 1
	mov	r0, r3
	adds	r7, r7, #24
.LCFI80:
	.cfi_def_cfa_offset 8
	mov	sp, r7
.LCFI81:
	.cfi_def_cfa_register 13
	@ sp needed
	pop	{r7, pc}
.L146:
	.align	2
.L145:
	.word	4325379
	.word	1076232192
	.cfi_endproc
.LFE173:
	.size	Cy_SysPm_BuckEnable, .-Cy_SysPm_BuckEnable
	.section	.text.Cy_SysPm_BuckSetVoltage1,"ax",%progbits
	.align	1
	.global	Cy_SysPm_BuckSetVoltage1
	.syntax unified
	.thumb
	.thumb_func
	.type	Cy_SysPm_BuckSetVoltage1, %function
Cy_SysPm_BuckSetVoltage1:
.LFB174:
	.loc 3 1227 1
	.cfi_startproc
	@ args = 0, pretend = 0, frame = 16
	@ frame_needed = 1, uses_anonymous_args = 0
	push	{r7, lr}
.LCFI82:
	.cfi_def_cfa_offset 8
	.cfi_offset 7, -8
	.cfi_offset 14, -4
	sub	sp, sp, #16
.LCFI83:
	.cfi_def_cfa_offset 24
	add	r7, sp, #0
.LCFI84:
	.cfi_def_cfa_register 7
	mov	r3, r0
	strb	r3, [r7, #7]
	.loc 3 1228 12
	ldrb	r3, [r7, #7]	@ zero_extendqisi2
	cmp	r3, #2
	beq	.L148
	.loc 3 1228 13 discriminator 1
	ldrb	r3, [r7, #7]	@ zero_extendqisi2
	cmp	r3, #5
	beq	.L148
	.loc 3 1228 118 discriminator 2
	bl	CY_HALT
.L148:
	.loc 3 1230 26
	ldr	r3, .L155
	str	r3, [r7, #12]
	.loc 3 1242 9
	bl	IsVoltageChangePossible
	mov	r3, r0
	.loc 3 1242 8
	cmp	r3, #0
	beq	.L149
.LBB5:
	.loc 3 1245 26
	bl	Cy_SysLib_EnterCriticalSection
	str	r0, [r7, #8]
	.loc 3 1247 12
	ldrb	r3, [r7, #7]	@ zero_extendqisi2
	cmp	r3, #2
	bne	.L150
	.loc 3 1250 22
	movs	r0, #1
	bl	Cy_SysPm_WriteVoltageBitForFlash
	str	r0, [r7, #12]
	.loc 3 1252 16
	ldr	r3, [r7, #12]
	cmp	r3, #0
	bne	.L151
	.loc 3 1255 17
	bl	SetReadMarginTrimUlp
	b	.L151
.L150:
	.loc 3 1262 64
	ldr	r3, .L155+4
	ldr	r3, [r3, #20]
	.loc 3 1262 82
	bic	r3, r3, #7
	.loc 3 1261 60
	ldr	r2, .L155+4
	.loc 3 1262 108
	orr	r3, r3, #3
	.loc 3 1261 76
	str	r3, [r2, #20]
	.loc 3 1265 13
	movs	r0, #52
	bl	Cy_SysLib_DelayUs
	.loc 3 1268 13
	bl	SetWriteAssistTrimLp
	.loc 3 1270 20
	movs	r3, #0
	str	r3, [r7, #12]
.L151:
	.loc 3 1274 12
	ldr	r3, [r7, #12]
	cmp	r3, #0
	bne	.L152
	.loc 3 1282 64
	ldr	r3, .L155+4
	ldr	r3, [r3, #20]
	.loc 3 1282 82
	bic	r2, r3, #7
	.loc 3 1282 144
	ldrb	r3, [r7, #7]	@ zero_extendqisi2
	.loc 3 1282 152
	and	r3, r3, #7
	.loc 3 1281 60
	ldr	r1, .L155+4
	.loc 3 1282 108
	orrs	r3, r3, r2
	.loc 3 1281 76
	str	r3, [r1, #20]
	.loc 3 1284 16
	ldrb	r3, [r7, #7]	@ zero_extendqisi2
	cmp	r3, #2
	bne	.L153
	.loc 3 1287 17
	bl	SetWriteAssistTrimUlp
	b	.L152
.L153:
	.loc 3 1294 17
	movs	r0, #145
	bl	Cy_SysLib_DelayUs
	.loc 3 1297 17
	bl	SetReadMarginTrimLp
	.loc 3 1302 26
	movs	r0, #0
	bl	Cy_SysPm_WriteVoltageBitForFlash
	str	r0, [r7, #12]
.L152:
	.loc 3 1306 9
	ldr	r0, [r7, #8]
	bl	Cy_SysLib_ExitCriticalSection
.L149:
.LBE5:
	.loc 3 1310 12
	ldr	r3, [r7, #12]
	.loc 3 1311 1
	mov	r0, r3
	adds	r7, r7, #16
.LCFI85:
	.cfi_def_cfa_offset 8
	mov	sp, r7
.LCFI86:
	.cfi_def_cfa_register 13
	@ sp needed
	pop	{r7, pc}
.L156:
	.align	2
.L155:
	.word	4325379
	.word	1076232192
	.cfi_endproc
.LFE174:
	.size	Cy_SysPm_BuckSetVoltage1, .-Cy_SysPm_BuckSetVoltage1
	.section	.text.Cy_SysPm_BuckIsOutputEnabled,"ax",%progbits
	.align	1
	.global	Cy_SysPm_BuckIsOutputEnabled
	.syntax unified
	.thumb
	.thumb_func
	.type	Cy_SysPm_BuckIsOutputEnabled, %function
Cy_SysPm_BuckIsOutputEnabled:
.LFB175:
	.loc 3 1315 1
	.cfi_startproc
	@ args = 0, pretend = 0, frame = 16
	@ frame_needed = 1, uses_anonymous_args = 0
	push	{r7, lr}
.LCFI87:
	.cfi_def_cfa_offset 8
	.cfi_offset 7, -8
	.cfi_offset 14, -4
	sub	sp, sp, #16
.LCFI88:
	.cfi_def_cfa_offset 24
	add	r7, sp, #0
.LCFI89:
	.cfi_def_cfa_register 7
	mov	r3, r0
	strb	r3, [r7, #7]
	.loc 3 1316 12
	ldrb	r3, [r7, #7]	@ zero_extendqisi2
	cmp	r3, #0
	beq	.L158
	.loc 3 1316 13 discriminator 1
	ldrb	r3, [r7, #7]	@ zero_extendqisi2
	cmp	r3, #1
	beq	.L158
	.loc 3 1316 92 discriminator 2
	bl	CY_HALT
.L158:
	.loc 3 1318 9
	movs	r3, #0
	strb	r3, [r7, #15]
	.loc 3 1320 8
	ldrb	r3, [r7, #7]	@ zero_extendqisi2
	cmp	r3, #0
	bne	.L159
	.loc 3 1322 69
	ldr	r3, .L165
	ldr	r3, [r3, #20]
	.loc 3 1322 16
	lsrs	r3, r3, #31
	strb	r3, [r7, #15]
.L159:
	.loc 3 1326 24
	ldr	r3, .L165+4
	ldr	r3, [r3]
	ldrb	r3, [r3, #71]	@ zero_extendqisi2
	.loc 3 1326 8
	cmp	r3, #0
	beq	.L160
	.loc 3 1328 11
	ldrb	r3, [r7, #7]	@ zero_extendqisi2
	cmp	r3, #1
	bne	.L160
	.loc 3 1330 90
	ldr	r3, .L165
	ldr	r3, [r3, #24]
	.loc 3 1330 27
	and	r3, r3, #1073741824
	.loc 3 1330 134
	cmp	r3, #0
	bne	.L161
	.loc 3 1331 90 discriminator 2
	ldr	r3, .L165
	ldr	r3, [r3, #24]
	.loc 3 1330 134 discriminator 2
	cmp	r3, #0
	bge	.L162
.L161:
	.loc 3 1330 134 is_stmt 0 discriminator 3
	movs	r3, #1
	b	.L163
.L162:
	.loc 3 1330 134 discriminator 4
	movs	r3, #0
.L163:
	.loc 3 1330 20 is_stmt 1 discriminator 6
	strb	r3, [r7, #15]
	ldrb	r3, [r7, #15]
	and	r3, r3, #1
	strb	r3, [r7, #15]
.L160:
	.loc 3 1335 11
	ldrb	r3, [r7, #15]	@ zero_extendqisi2
	.loc 3 1336 1
	mov	r0, r3
	adds	r7, r7, #16
.LCFI90:
	.cfi_def_cfa_offset 8
	mov	sp, r7
.LCFI91:
	.cfi_def_cfa_register 13
	@ sp needed
	pop	{r7, pc}
.L166:
	.align	2
.L165:
	.word	1076232192
	.word	cy_device
	.cfi_endproc
.LFE175:
	.size	Cy_SysPm_BuckIsOutputEnabled, .-Cy_SysPm_BuckIsOutputEnabled
	.section	.text.Cy_SysPm_BuckEnableVoltage2,"ax",%progbits
	.align	1
	.global	Cy_SysPm_BuckEnableVoltage2
	.syntax unified
	.thumb
	.thumb_func
	.type	Cy_SysPm_BuckEnableVoltage2, %function
Cy_SysPm_BuckEnableVoltage2:
.LFB176:
	.loc 3 1340 1
	.cfi_startproc
	@ args = 0, pretend = 0, frame = 0
	@ frame_needed = 1, uses_anonymous_args = 0
	push	{r7, lr}
.LCFI92:
	.cfi_def_cfa_offset 8
	.cfi_offset 7, -8
	.cfi_offset 14, -4
	add	r7, sp, #0
.LCFI93:
	.cfi_def_cfa_register 7
	.loc 3 1346 24
	ldr	r3, .L171
	ldr	r3, [r3]
	ldrb	r3, [r3, #71]	@ zero_extendqisi2
	.loc 3 1346 8
	cmp	r3, #0
	beq	.L170
	.loc 3 1348 14
	bl	Cy_SysPm_BuckIsEnabled
	mov	r3, r0
	.loc 3 1348 13
	eor	r3, r3, #1
	uxtb	r3, r3
	.loc 3 1348 12
	cmp	r3, #0
	beq	.L169
	.loc 3 1351 76
	ldr	r3, .L171+4
	ldr	r3, [r3, #20]
	ldr	r2, .L171+4
	orr	r3, r3, #1073741824
	str	r3, [r2, #20]
.L169:
	.loc 3 1355 73
	ldr	r3, .L171+4
	ldr	r3, [r3, #24]
	ldr	r2, .L171+4
	orr	r3, r3, #-2147483648
	str	r3, [r2, #24]
	.loc 3 1358 9
	mov	r0, #600
	bl	Cy_SysLib_DelayUs
.L170:
	.loc 3 1361 1
	nop
	pop	{r7, pc}
.L172:
	.align	2
.L171:
	.word	cy_device
	.word	1076232192
	.cfi_endproc
.LFE176:
	.size	Cy_SysPm_BuckEnableVoltage2, .-Cy_SysPm_BuckEnableVoltage2
	.section	.text.Cy_SysPm_BuckSetVoltage2,"ax",%progbits
	.align	1
	.global	Cy_SysPm_BuckSetVoltage2
	.syntax unified
	.thumb
	.thumb_func
	.type	Cy_SysPm_BuckSetVoltage2, %function
Cy_SysPm_BuckSetVoltage2:
.LFB177:
	.loc 3 1365 1
	.cfi_startproc
	@ args = 0, pretend = 0, frame = 16
	@ frame_needed = 1, uses_anonymous_args = 0
	push	{r7, lr}
.LCFI94:
	.cfi_def_cfa_offset 8
	.cfi_offset 7, -8
	.cfi_offset 14, -4
	sub	sp, sp, #16
.LCFI95:
	.cfi_def_cfa_offset 24
	add	r7, sp, #0
.LCFI96:
	.cfi_def_cfa_register 7
	mov	r3, r0
	mov	r2, r1
	strb	r3, [r7, #7]
	mov	r3, r2
	strb	r3, [r7, #6]
	.loc 3 1376 24
	ldr	r3, .L177
	ldr	r3, [r3]
	ldrb	r3, [r3, #71]	@ zero_extendqisi2
	.loc 3 1376 8
	cmp	r3, #0
	beq	.L176
.LBB6:
	.loc 3 1380 16
	ldrb	r3, [r7, #7]	@ zero_extendqisi2
	cmp	r3, #0
	beq	.L175
	.loc 3 1380 68 discriminator 1
	ldrb	r3, [r7, #7]	@ zero_extendqisi2
	cmp	r3, #1
	beq	.L175
	.loc 3 1380 118 discriminator 2
	ldrb	r3, [r7, #7]	@ zero_extendqisi2
	cmp	r3, #2
	beq	.L175
	.loc 3 1380 169 discriminator 3
	ldrb	r3, [r7, #7]	@ zero_extendqisi2
	cmp	r3, #3
	beq	.L175
	.loc 3 1380 219 discriminator 4
	ldrb	r3, [r7, #7]	@ zero_extendqisi2
	cmp	r3, #4
	beq	.L175
	.loc 3 1380 270 discriminator 5
	ldrb	r3, [r7, #7]	@ zero_extendqisi2
	cmp	r3, #5
	beq	.L175
	.loc 3 1380 320 discriminator 6
	ldrb	r3, [r7, #7]	@ zero_extendqisi2
	cmp	r3, #6
	beq	.L175
	.loc 3 1380 17 discriminator 7
	ldrb	r3, [r7, #7]	@ zero_extendqisi2
	cmp	r3, #7
	beq	.L175
	.loc 3 1380 426 discriminator 8
	bl	CY_HALT
.L175:
	.loc 3 1383 33
	bl	Cy_SysPm_BuckGetVoltage2
	mov	r3, r0
	.loc 3 1383 20
	str	r3, [r7, #12]
	.loc 3 1385 13
	ldrb	r3, [r7, #7]	@ zero_extendqisi2
	.loc 3 1385 12
	ldr	r2, [r7, #12]
	cmp	r2, r3
	beq	.L176
	.loc 3 1388 64
	ldr	r3, .L177+4
	ldr	r3, [r3, #24]
	.loc 3 1388 83
	bic	r2, r3, #7
	.loc 3 1388 145
	ldrb	r3, [r7, #7]	@ zero_extendqisi2
	.loc 3 1388 153
	and	r3, r3, #7
	.loc 3 1387 60
	ldr	r1, .L177+4
	.loc 3 1388 109
	orrs	r3, r3, r2
	.loc 3 1387 77
	str	r3, [r1, #24]
	.loc 3 1393 15
	ldrb	r3, [r7, #6]	@ zero_extendqisi2
	cmp	r3, #0
	beq	.L176
	.loc 3 1393 33 discriminator 1
	ldrb	r3, [r7, #7]	@ zero_extendqisi2
	.loc 3 1393 29 discriminator 1
	ldr	r2, [r7, #12]
	cmp	r2, r3
	bcs	.L176
	.loc 3 1395 17
	movs	r0, #200
	bl	Cy_SysLib_DelayUs
.L176:
.LBE6:
	.loc 3 1400 1
	nop
	adds	r7, r7, #16
.LCFI97:
	.cfi_def_cfa_offset 8
	mov	sp, r7
.LCFI98:
	.cfi_def_cfa_register 13
	@ sp needed
	pop	{r7, pc}
.L178:
	.align	2
.L177:
	.word	cy_device
	.word	1076232192
	.cfi_endproc
.LFE177:
	.size	Cy_SysPm_BuckSetVoltage2, .-Cy_SysPm_BuckSetVoltage2
	.section	.text.Cy_SysPm_LdoSetVoltage,"ax",%progbits
	.align	1
	.global	Cy_SysPm_LdoSetVoltage
	.syntax unified
	.thumb
	.thumb_func
	.type	Cy_SysPm_LdoSetVoltage, %function
Cy_SysPm_LdoSetVoltage:
.LFB178:
	.loc 3 1404 1
	.cfi_startproc
	@ args = 0, pretend = 0, frame = 24
	@ frame_needed = 1, uses_anonymous_args = 0
	push	{r7, lr}
.LCFI99:
	.cfi_def_cfa_offset 8
	.cfi_offset 7, -8
	.cfi_offset 14, -4
	sub	sp, sp, #24
.LCFI100:
	.cfi_def_cfa_offset 32
	add	r7, sp, #0
.LCFI101:
	.cfi_def_cfa_register 7
	mov	r3, r0
	strb	r3, [r7, #7]
	.loc 3 1405 12
	ldrb	r3, [r7, #7]	@ zero_extendqisi2
	cmp	r3, #0
	beq	.L180
	.loc 3 1405 13 discriminator 1
	ldrb	r3, [r7, #7]	@ zero_extendqisi2
	cmp	r3, #1
	beq	.L180
	.loc 3 1405 106 discriminator 2
	bl	CY_HALT
.L180:
	.loc 3 1407 26
	ldr	r3, .L189
	str	r3, [r7, #20]
	.loc 3 1418 9
	bl	IsVoltageChangePossible
	mov	r3, r0
	.loc 3 1418 8
	cmp	r3, #0
	beq	.L181
.LBB7:
	.loc 3 1423 26
	bl	Cy_SysLib_EnterCriticalSection
	str	r0, [r7, #12]
	.loc 3 1425 12
	ldrb	r3, [r7, #7]	@ zero_extendqisi2
	cmp	r3, #0
	bne	.L182
	.loc 3 1430 60
	ldr	r3, .L189+4
	.loc 3 1430 81
	add	r3, r3, #28672
	mov	r2, r3
	movs	r3, #0
	str	r3, [r2, #3888]
	.loc 3 1432 78
	mov	r3, #369098752
	ldrb	r3, [r3, #1856]
	uxtb	r3, r3
	.loc 3 1432 25
	str	r3, [r7, #16]
	.loc 3 1435 22
	movs	r0, #1
	bl	Cy_SysPm_WriteVoltageBitForFlash
	str	r0, [r7, #20]
	.loc 3 1437 16
	ldr	r3, [r7, #20]
	cmp	r3, #0
	bne	.L183
	.loc 3 1440 17
	bl	SetReadMarginTrimUlp
	b	.L183
.L182:
	.loc 3 1448 17
	bl	Cy_SysPm_SystemIsMinRegulatorCurrentSet
	mov	r3, r0
	.loc 3 1448 16
	cmp	r3, #0
	beq	.L184
	.loc 3 1451 64
	ldr	r3, .L189+4
	.loc 3 1451 85
	add	r3, r3, #28672
	mov	r2, r3
	movs	r3, #80
	str	r3, [r2, #3888]
	b	.L185
.L184:
	.loc 3 1455 138
	mov	r3, #369098752
	.loc 3 1455 64
	ldr	r2, .L189+4
	.loc 3 1455 138
	add	r3, r3, #4096
	ldr	r3, [r3, #2064]
	.loc 3 1455 85
	add	r2, r2, #28672
	str	r3, [r2, #3888]
.L185:
	.loc 3 1458 78
	mov	r3, #369098752
	ldrb	r3, [r3, #1857]
	uxtb	r3, r3
	.loc 3 1458 25
	str	r3, [r7, #16]
	.loc 3 1461 64
	ldr	r3, .L189+4
	add	r3, r3, #61440
	ldr	r3, [r3, #3868]
	.loc 3 1461 89
	bic	r3, r3, #31
	.loc 3 1460 60
	ldr	r2, .L189+4
	.loc 3 1461 116
	orr	r3, r3, #11
	.loc 3 1460 83
	add	r2, r2, #61440
	str	r3, [r2, #3868]
	.loc 3 1464 13
	movs	r0, #3
	bl	Cy_SysLib_DelayUs
	.loc 3 1467 13
	bl	SetWriteAssistTrimLp
	.loc 3 1469 20
	movs	r3, #0
	str	r3, [r7, #20]
.L183:
	.loc 3 1472 12
	ldr	r3, [r7, #20]
	cmp	r3, #0
	bne	.L186
	.loc 3 1480 64
	ldr	r3, .L189+4
	add	r3, r3, #61440
	ldr	r3, [r3, #3868]
	.loc 3 1480 89
	bic	r2, r3, #31
	.loc 3 1480 153
	ldr	r3, [r7, #16]
	and	r3, r3, #31
	.loc 3 1479 60
	ldr	r1, .L189+4
	.loc 3 1480 116
	orrs	r3, r3, r2
	.loc 3 1479 83
	add	r2, r1, #61440
	str	r3, [r2, #3868]
	.loc 3 1482 16
	ldrb	r3, [r7, #7]	@ zero_extendqisi2
	cmp	r3, #0
	bne	.L187
	.loc 3 1485 17
	bl	SetWriteAssistTrimUlp
	b	.L186
.L187:
	.loc 3 1490 17
	movs	r0, #7
	bl	Cy_SysLib_DelayUs
	.loc 3 1493 17
	bl	SetReadMarginTrimLp
	.loc 3 1498 26
	movs	r0, #0
	bl	Cy_SysPm_WriteVoltageBitForFlash
	str	r0, [r7, #20]
.L186:
	.loc 3 1502 9
	ldr	r0, [r7, #12]
	bl	Cy_SysLib_ExitCriticalSection
.L181:
.LBE7:
	.loc 3 1506 12
	ldr	r3, [r7, #20]
	.loc 3 1507 1
	mov	r0, r3
	adds	r7, r7, #24
.LCFI102:
	.cfi_def_cfa_offset 8
	mov	sp, r7
.LCFI103:
	.cfi_def_cfa_register 13
	@ sp needed
	pop	{r7, pc}
.L190:
	.align	2
.L189:
	.word	4325379
	.word	1076232192
	.cfi_endproc
.LFE178:
	.size	Cy_SysPm_LdoSetVoltage, .-Cy_SysPm_LdoSetVoltage
	.section	.text.Cy_SysPm_LdoSetMode,"ax",%progbits
	.align	1
	.global	Cy_SysPm_LdoSetMode
	.syntax unified
	.thumb
	.thumb_func
	.type	Cy_SysPm_LdoSetMode, %function
Cy_SysPm_LdoSetMode:
.LFB179:
	.loc 3 1511 1
	.cfi_startproc
	@ args = 0, pretend = 0, frame = 16
	@ frame_needed = 1, uses_anonymous_args = 0
	push	{r7, lr}
.LCFI104:
	.cfi_def_cfa_offset 8
	.cfi_offset 7, -8
	.cfi_offset 14, -4
	sub	sp, sp, #16
.LCFI105:
	.cfi_def_cfa_offset 24
	add	r7, sp, #0
.LCFI106:
	.cfi_def_cfa_register 7
	mov	r3, r0
	strb	r3, [r7, #7]
	.loc 3 1512 12
	ldrb	r3, [r7, #7]	@ zero_extendqisi2
	cmp	r3, #0
	beq	.L192
	.loc 3 1512 55 discriminator 1
	ldrb	r3, [r7, #7]	@ zero_extendqisi2
	cmp	r3, #1
	beq	.L192
	.loc 3 1512 13 discriminator 2
	ldrb	r3, [r7, #7]	@ zero_extendqisi2
	cmp	r3, #2
	beq	.L192
	.loc 3 1512 137 discriminator 3
	bl	CY_HALT
.L192:
	.loc 3 1514 26
	ldr	r3, .L198
	str	r3, [r7, #12]
	.loc 3 1516 5
	ldrb	r3, [r7, #7]	@ zero_extendqisi2
	cmp	r3, #2
	beq	.L193
	cmp	r3, #2
	bgt	.L194
	cmp	r3, #0
	beq	.L195
	cmp	r3, #1
	bne	.L194
	.loc 3 1520 22
	bl	Cy_SysPm_SystemSetNormalRegulatorCurrent
	str	r0, [r7, #12]
	.loc 3 1522 9
	b	.L196
.L193:
	.loc 3 1526 22
	bl	Cy_SysPm_SystemSetMinRegulatorCurrent
	str	r0, [r7, #12]
	.loc 3 1528 9
	b	.L196
.L195:
	.loc 3 1534 71
	ldr	r3, .L198+4
	ldr	r3, [r3]
	ldr	r2, .L198+4
	orr	r3, r3, #15728640
	str	r3, [r2]
	.loc 3 1539 20
	movs	r3, #0
	str	r3, [r7, #12]
	.loc 3 1542 9
	b	.L196
.L194:
	.loc 3 1545 20
	ldr	r3, .L198+8
	str	r3, [r7, #12]
	.loc 3 1546 9
	nop
.L196:
	.loc 3 1549 12
	ldr	r3, [r7, #12]
	.loc 3 1550 1
	mov	r0, r3
	adds	r7, r7, #16
.LCFI107:
	.cfi_def_cfa_offset 8
	mov	sp, r7
.LCFI108:
	.cfi_def_cfa_register 13
	@ sp needed
	pop	{r7, pc}
.L199:
	.align	2
.L198:
	.word	4325380
	.word	1076232192
	.word	4325631
	.cfi_endproc
.LFE179:
	.size	Cy_SysPm_LdoSetMode, .-Cy_SysPm_LdoSetMode
	.section	.text.Cy_SysPm_LdoGetMode,"ax",%progbits
	.align	1
	.global	Cy_SysPm_LdoGetMode
	.syntax unified
	.thumb
	.thumb_func
	.type	Cy_SysPm_LdoGetMode, %function
Cy_SysPm_LdoGetMode:
.LFB180:
	.loc 3 1554 1
	.cfi_startproc
	@ args = 0, pretend = 0, frame = 8
	@ frame_needed = 1, uses_anonymous_args = 0
	push	{r7, lr}
.LCFI109:
	.cfi_def_cfa_offset 8
	.cfi_offset 7, -8
	.cfi_offset 14, -4
	sub	sp, sp, #8
.LCFI110:
	.cfi_def_cfa_offset 16
	add	r7, sp, #0
.LCFI111:
	.cfi_def_cfa_register 7
	.loc 3 1557 10
	bl	Cy_SysPm_LdoIsEnabled
	mov	r3, r0
	.loc 3 1557 9
	eor	r3, r3, #1
	uxtb	r3, r3
	.loc 3 1557 8
	cmp	r3, #0
	beq	.L201
	.loc 3 1559 16
	movs	r3, #0
	strb	r3, [r7, #7]
	b	.L202
.L201:
	.loc 3 1561 14
	bl	Cy_SysPm_SystemIsMinRegulatorCurrentSet
	mov	r3, r0
	.loc 3 1561 13
	cmp	r3, #0
	beq	.L203
	.loc 3 1563 16
	movs	r3, #2
	strb	r3, [r7, #7]
	b	.L202
.L203:
	.loc 3 1567 16
	movs	r3, #1
	strb	r3, [r7, #7]
.L202:
	.loc 3 1570 12
	ldrb	r3, [r7, #7]	@ zero_extendqisi2
	.loc 3 1571 1
	mov	r0, r3
	adds	r7, r7, #8
.LCFI112:
	.cfi_def_cfa_offset 8
	mov	sp, r7
.LCFI113:
	.cfi_def_cfa_register 13
	@ sp needed
	pop	{r7, pc}
	.cfi_endproc
.LFE180:
	.size	Cy_SysPm_LdoGetMode, .-Cy_SysPm_LdoGetMode
	.section	.text.Cy_SysPm_RegisterCallback,"ax",%progbits
	.align	1
	.global	Cy_SysPm_RegisterCallback
	.syntax unified
	.thumb
	.thumb_func
	.type	Cy_SysPm_RegisterCallback, %function
Cy_SysPm_RegisterCallback:
.LFB181:
	.loc 3 1575 1
	.cfi_startproc
	@ args = 0, pretend = 0, frame = 24
	@ frame_needed = 1, uses_anonymous_args = 0
	@ link register save eliminated.
	push	{r7}
.LCFI114:
	.cfi_def_cfa_offset 4
	.cfi_offset 7, -4
	sub	sp, sp, #28
.LCFI115:
	.cfi_def_cfa_offset 32
	add	r7, sp, #0
.LCFI116:
	.cfi_def_cfa_register 7
	str	r0, [r7, #4]
	.loc 3 1576 9
	movs	r3, #0
	strb	r3, [r7, #23]
	.loc 3 1579 8
	ldr	r3, [r7, #4]
	cmp	r3, #0
	beq	.L206
	.loc 3 1579 37 discriminator 1
	ldr	r3, [r7, #4]
	ldr	r3, [r3, #12]
	.loc 3 1579 26 discriminator 1
	cmp	r3, #0
	beq	.L206
	.loc 3 1579 74 discriminator 2
	ldr	r3, [r7, #4]
	ldr	r3, [r3]
	.loc 3 1579 63 discriminator 2
	cmp	r3, #0
	beq	.L206
.LBB8:
	.loc 3 1581 54
	ldr	r3, [r7, #4]
	ldrb	r3, [r3, #4]	@ zero_extendqisi2
	.loc 3 1581 18
	str	r3, [r7, #8]
	.loc 3 1584 27
	ldr	r2, .L215
	ldr	r3, [r7, #8]
	ldr	r3, [r2, r3, lsl #2]
	.loc 3 1584 12
	cmp	r3, #0
	beq	.L207
.LBB9:
	.loc 3 1586 38
	ldr	r2, .L215
	ldr	r3, [r7, #8]
	ldr	r3, [r2, r3, lsl #2]
	str	r3, [r7, #16]
	.loc 3 1587 38
	ldr	r3, [r7, #16]
	str	r3, [r7, #12]
	.loc 3 1592 19
	b	.L208
.L210:
	.loc 3 1594 29
	ldr	r3, [r7, #16]
	ldr	r3, [r3, #20]
	str	r3, [r7, #16]
	.loc 3 1598 32
	ldr	r3, [r7, #16]
	ldrb	r2, [r3, #24]	@ zero_extendqisi2
	.loc 3 1598 50
	ldr	r3, [r7, #4]
	ldrb	r3, [r3, #24]	@ zero_extendqisi2
	.loc 3 1598 20
	cmp	r2, r3
	bhi	.L208
	.loc 3 1600 31
	ldr	r3, [r7, #16]
	str	r3, [r7, #12]
.L208:
	.loc 3 1592 39
	ldr	r3, [r7, #16]
	ldr	r3, [r3, #20]
	.loc 3 1592 19
	cmp	r3, #0
	beq	.L209
	.loc 3 1592 50 discriminator 1
	ldr	r2, [r7, #16]
	ldr	r3, [r7, #4]
	cmp	r2, r3
	bne	.L210
.L209:
	.loc 3 1604 16
	ldr	r2, [r7, #16]
	ldr	r3, [r7, #4]
	cmp	r2, r3
	beq	.L206
	.loc 3 1607 31
	ldr	r3, [r7, #12]
	ldr	r3, [r3, #16]
	.loc 3 1607 20
	cmp	r3, #0
	bne	.L211
	.loc 3 1607 60 discriminator 1
	ldr	r3, [r7, #4]
	ldrb	r2, [r3, #24]	@ zero_extendqisi2
	.loc 3 1607 79 discriminator 1
	ldr	r3, [r7, #12]
	ldrb	r3, [r3, #24]	@ zero_extendqisi2
	.loc 3 1607 49 discriminator 1
	cmp	r2, r3
	bcs	.L211
	.loc 3 1609 38
	ldr	r3, [r7, #4]
	ldr	r2, [r7, #12]
	str	r2, [r3, #20]
	.loc 3 1610 38
	ldr	r3, [r7, #4]
	movs	r2, #0
	str	r2, [r3, #16]
	.loc 3 1611 28
	ldr	r3, [r7, #4]
	ldr	r3, [r3, #20]
	.loc 3 1611 47
	ldr	r2, [r7, #4]
	str	r2, [r3, #16]
	.loc 3 1612 53
	ldr	r1, .L215
	ldr	r3, [r7, #8]
	ldr	r2, [r7, #4]
	str	r2, [r1, r3, lsl #2]
	b	.L212
.L211:
	.loc 3 1616 49
	ldr	r3, [r7, #12]
	ldr	r2, [r3, #20]
	.loc 3 1616 38
	ldr	r3, [r7, #4]
	str	r2, [r3, #20]
	.loc 3 1617 38
	ldr	r3, [r7, #4]
	ldr	r2, [r7, #12]
	str	r2, [r3, #16]
	.loc 3 1620 32
	ldr	r3, [r7, #4]
	ldr	r3, [r3, #20]
	.loc 3 1620 24
	cmp	r3, #0
	beq	.L213
	.loc 3 1622 32
	ldr	r3, [r7, #4]
	ldr	r3, [r3, #20]
	.loc 3 1622 51
	ldr	r2, [r7, #4]
	str	r2, [r3, #16]
.L213:
	.loc 3 1624 40
	ldr	r3, [r7, #12]
	ldr	r2, [r7, #4]
	str	r2, [r3, #20]
.L212:
	.loc 3 1626 24
	movs	r3, #1
	strb	r3, [r7, #23]
	b	.L206
.L207:
.LBE9:
	.loc 3 1632 45
	ldr	r1, .L215
	ldr	r3, [r7, #8]
	ldr	r2, [r7, #4]
	str	r2, [r1, r3, lsl #2]
	.loc 3 1633 30
	ldr	r3, [r7, #4]
	movs	r2, #0
	str	r2, [r3, #20]
	.loc 3 1634 30
	ldr	r3, [r7, #4]
	movs	r2, #0
	str	r2, [r3, #16]
	.loc 3 1635 20
	movs	r3, #1
	strb	r3, [r7, #23]
.L206:
.LBE8:
	.loc 3 1638 12
	ldrb	r3, [r7, #23]	@ zero_extendqisi2
	.loc 3 1639 1
	mov	r0, r3
	adds	r7, r7, #28
.LCFI117:
	.cfi_def_cfa_offset 4
	mov	sp, r7
.LCFI118:
	.cfi_def_cfa_register 13
	@ sp needed
	ldr	r7, [sp], #4
.LCFI119:
	.cfi_restore 7
	.cfi_def_cfa_offset 0
	bx	lr
.L216:
	.align	2
.L215:
	.word	pmCallbackRoot
	.cfi_endproc
.LFE181:
	.size	Cy_SysPm_RegisterCallback, .-Cy_SysPm_RegisterCallback
	.section	.text.Cy_SysPm_UnregisterCallback,"ax",%progbits
	.align	1
	.global	Cy_SysPm_UnregisterCallback
	.syntax unified
	.thumb
	.thumb_func
	.type	Cy_SysPm_UnregisterCallback, %function
Cy_SysPm_UnregisterCallback:
.LFB182:
	.loc 3 1643 1
	.cfi_startproc
	@ args = 0, pretend = 0, frame = 24
	@ frame_needed = 1, uses_anonymous_args = 0
	@ link register save eliminated.
	push	{r7}
.LCFI120:
	.cfi_def_cfa_offset 4
	.cfi_offset 7, -4
	sub	sp, sp, #28
.LCFI121:
	.cfi_def_cfa_offset 32
	add	r7, sp, #0
.LCFI122:
	.cfi_def_cfa_register 7
	str	r0, [r7, #4]
	.loc 3 1644 9
	movs	r3, #0
	strb	r3, [r7, #23]
	.loc 3 1646 8
	ldr	r3, [r7, #4]
	cmp	r3, #0
	beq	.L218
.LBB10:
	.loc 3 1648 54
	ldr	r3, [r7, #4]
	ldrb	r3, [r3, #4]	@ zero_extendqisi2
	.loc 3 1648 18
	str	r3, [r7, #12]
	.loc 3 1649 34
	ldr	r2, .L226
	ldr	r3, [r7, #12]
	ldr	r3, [r2, r3, lsl #2]
	str	r3, [r7, #16]
	.loc 3 1652 15
	b	.L219
.L222:
	.loc 3 1655 16
	ldr	r2, [r7, #16]
	ldr	r3, [r7, #4]
	cmp	r2, r3
	bne	.L220
	.loc 3 1657 24
	movs	r3, #1
	strb	r3, [r7, #23]
	.loc 3 1658 17
	b	.L221
.L220:
	.loc 3 1662 25
	ldr	r3, [r7, #16]
	ldr	r3, [r3, #20]
	str	r3, [r7, #16]
.L219:
	.loc 3 1652 15
	ldr	r3, [r7, #16]
	cmp	r3, #0
	bne	.L222
.L221:
	.loc 3 1665 12
	ldrb	r3, [r7, #23]	@ zero_extendqisi2
	cmp	r3, #0
	beq	.L218
	.loc 3 1668 31
	ldr	r2, .L226
	ldr	r3, [r7, #12]
	ldr	r3, [r2, r3, lsl #2]
	.loc 3 1668 16
	ldr	r2, [r7, #4]
	cmp	r2, r3
	bne	.L223
	.loc 3 1671 35
	ldr	r2, .L226
	ldr	r3, [r7, #12]
	ldr	r3, [r2, r3, lsl #2]
	.loc 3 1671 52
	ldr	r3, [r3, #20]
	.loc 3 1671 20
	cmp	r3, #0
	beq	.L224
	.loc 3 1673 69
	ldr	r2, .L226
	ldr	r3, [r7, #12]
	ldr	r3, [r2, r3, lsl #2]
	.loc 3 1673 86
	ldr	r2, [r3, #20]
	.loc 3 1673 53
	ldr	r1, .L226
	ldr	r3, [r7, #12]
	str	r2, [r1, r3, lsl #2]
	.loc 3 1674 35
	ldr	r2, .L226
	ldr	r3, [r7, #12]
	ldr	r3, [r2, r3, lsl #2]
	.loc 3 1674 62
	movs	r2, #0
	str	r2, [r3, #16]
	b	.L218
.L224:
	.loc 3 1679 53
	ldr	r2, .L226
	ldr	r3, [r7, #12]
	movs	r1, #0
	str	r1, [r2, r3, lsl #2]
	b	.L218
.L223:
	.loc 3 1685 28
	ldr	r3, [r7, #16]
	ldr	r3, [r3, #16]
	.loc 3 1685 60
	ldr	r2, [r7, #16]
	ldr	r2, [r2, #20]
	.loc 3 1685 47
	str	r2, [r3, #20]
	.loc 3 1687 32
	ldr	r3, [r7, #16]
	ldr	r3, [r3, #20]
	.loc 3 1687 20
	cmp	r3, #0
	beq	.L218
	.loc 3 1689 32
	ldr	r3, [r7, #16]
	ldr	r3, [r3, #20]
	.loc 3 1689 64
	ldr	r2, [r7, #16]
	ldr	r2, [r2, #16]
	.loc 3 1689 51
	str	r2, [r3, #16]
.L218:
.LBE10:
	.loc 3 1695 12
	ldrb	r3, [r7, #23]	@ zero_extendqisi2
	.loc 3 1696 1
	mov	r0, r3
	adds	r7, r7, #28
.LCFI123:
	.cfi_def_cfa_offset 4
	mov	sp, r7
.LCFI124:
	.cfi_def_cfa_register 13
	@ sp needed
	ldr	r7, [sp], #4
.LCFI125:
	.cfi_restore 7
	.cfi_def_cfa_offset 0
	bx	lr
.L227:
	.align	2
.L226:
	.word	pmCallbackRoot
	.cfi_endproc
.LFE182:
	.size	Cy_SysPm_UnregisterCallback, .-Cy_SysPm_UnregisterCallback
	.section	.text.Cy_SysPm_ExecuteCallback,"ax",%progbits
	.align	1
	.global	Cy_SysPm_ExecuteCallback
	.syntax unified
	.thumb
	.thumb_func
	.type	Cy_SysPm_ExecuteCallback, %function
Cy_SysPm_ExecuteCallback:
.LFB183:
	.loc 3 1700 1
	.cfi_startproc
	@ args = 0, pretend = 0, frame = 24
	@ frame_needed = 1, uses_anonymous_args = 0
	push	{r7, lr}
.LCFI126:
	.cfi_def_cfa_offset 8
	.cfi_offset 7, -8
	.cfi_offset 14, -4
	sub	sp, sp, #24
.LCFI127:
	.cfi_def_cfa_offset 32
	add	r7, sp, #0
.LCFI128:
	.cfi_def_cfa_register 7
	mov	r3, r0
	mov	r2, r1
	strb	r3, [r7, #7]
	mov	r3, r2
	strb	r3, [r7, #6]
	.loc 3 1701 12
	ldrb	r3, [r7, #7]	@ zero_extendqisi2
	cmp	r3, #0
	beq	.L229
	.loc 3 1701 43 discriminator 1
	ldrb	r3, [r7, #7]	@ zero_extendqisi2
	cmp	r3, #1
	beq	.L229
	.loc 3 1701 77 discriminator 2
	ldrb	r3, [r7, #7]	@ zero_extendqisi2
	cmp	r3, #2
	beq	.L229
	.loc 3 1701 111 discriminator 3
	ldrb	r3, [r7, #7]	@ zero_extendqisi2
	cmp	r3, #4
	beq	.L229
	.loc 3 1701 13 discriminator 4
	ldrb	r3, [r7, #7]	@ zero_extendqisi2
	cmp	r3, #3
	beq	.L229
	.loc 3 1701 171 discriminator 5
	bl	CY_HALT
.L229:
	.loc 3 1702 12
	ldrb	r3, [r7, #6]	@ zero_extendqisi2
	cmp	r3, #1
	beq	.L230
	.loc 3 1702 49 discriminator 1
	ldrb	r3, [r7, #6]	@ zero_extendqisi2
	cmp	r3, #2
	beq	.L230
	.loc 3 1702 84 discriminator 2
	ldrb	r3, [r7, #6]	@ zero_extendqisi2
	cmp	r3, #4
	beq	.L230
	.loc 3 1702 13 discriminator 3
	ldrb	r3, [r7, #6]	@ zero_extendqisi2
	cmp	r3, #8
	beq	.L230
	.loc 3 1702 172 discriminator 4
	bl	CY_HALT
.L230:
	.loc 3 1705 26
	movs	r3, #0
	str	r3, [r7, #20]
	.loc 3 1706 59
	ldrb	r3, [r7, #7]	@ zero_extendqisi2
	.loc 3 1706 30
	ldr	r2, .L248
	ldr	r3, [r2, r3, lsl #2]
	str	r3, [r7, #16]
	.loc 3 1709 8
	ldrb	r3, [r7, #6]	@ zero_extendqisi2
	cmp	r3, #4
	beq	.L233
	.loc 3 1709 46 discriminator 1
	ldrb	r3, [r7, #6]	@ zero_extendqisi2
	cmp	r3, #1
	bne	.L232
	.loc 3 1715 15
	b	.L233
.L236:
	.loc 3 1718 25
	ldrb	r2, [r7, #6]	@ zero_extendqisi2
	.loc 3 1718 54
	ldr	r3, [r7, #16]
	ldr	r3, [r3, #8]
	.loc 3 1718 41
	ands	r3, r3, r2
	.loc 3 1718 16
	cmp	r3, #0
	bne	.L234
	.loc 3 1721 45
	ldr	r3, [r7, #16]
	ldr	r3, [r3, #12]
	.loc 3 1721 61
	ldr	r3, [r3]
	.loc 3 1721 32
	str	r3, [r7, #8]
	.loc 3 1722 48
	ldr	r3, [r7, #16]
	ldr	r3, [r3, #12]
	.loc 3 1722 64
	ldr	r3, [r3, #4]
	.loc 3 1722 35
	str	r3, [r7, #12]
	.loc 3 1724 37
	ldr	r3, [r7, #16]
	ldr	r3, [r3]
	.loc 3 1724 26
	ldrb	r1, [r7, #6]	@ zero_extendqisi2
	add	r2, r7, #8
	mov	r0, r2
	blx	r3
.LVL0:
	str	r0, [r7, #20]
	.loc 3 1732 38
	ldr	r2, .L248+4
	ldr	r3, [r7, #16]
	str	r3, [r2]
.L234:
	.loc 3 1734 25
	ldr	r3, [r7, #16]
	ldr	r3, [r3, #20]
	str	r3, [r7, #16]
.L233:
	.loc 3 1715 15
	ldr	r3, [r7, #16]
	cmp	r3, #0
	beq	.L235
	.loc 3 1715 37 discriminator 1
	ldr	r3, [r7, #20]
	ldr	r2, .L248+8
	cmp	r3, r2
	bne	.L236
	.loc 3 1715 67 discriminator 2
	ldrb	r3, [r7, #6]	@ zero_extendqisi2
	cmp	r3, #1
	bne	.L236
.L235:
	.loc 3 1737 12
	ldrb	r3, [r7, #6]	@ zero_extendqisi2
	cmp	r3, #1
	bne	.L239
	.loc 3 1744 15
	ldr	r3, [r7, #20]
	ldr	r2, .L248+8
	cmp	r3, r2
	bne	.L238
	.loc 3 1746 32
	ldrb	r3, [r7, #7]	@ zero_extendqisi2
	.loc 3 1746 49
	ldr	r2, .L248+4
	ldr	r2, [r2]
	ldr	r1, .L248+12
	str	r2, [r1, r3, lsl #2]
	.loc 3 1737 12
	b	.L239
.L238:
	.loc 3 1750 32
	ldrb	r3, [r7, #7]	@ zero_extendqisi2
	.loc 3 1750 49
	ldr	r2, .L248+12
	movs	r1, #0
	str	r1, [r2, r3, lsl #2]
	.loc 3 1737 12
	b	.L239
.L232:
	.loc 3 1762 12
	ldrb	r3, [r7, #6]	@ zero_extendqisi2
	cmp	r3, #2
	beq	.L240
	.loc 3 1764 19
	b	.L241
.L242:
	.loc 3 1766 29
	ldr	r3, [r7, #16]
	ldr	r3, [r3, #20]
	str	r3, [r7, #16]
.L241:
	.loc 3 1764 31
	ldr	r3, [r7, #16]
	ldr	r3, [r3, #20]
	.loc 3 1764 19
	cmp	r3, #0
	bne	.L242
	b	.L244
.L240:
	.loc 3 1774 25
	ldr	r3, .L248+4
	ldr	r3, [r3]
	str	r3, [r7, #16]
	.loc 3 1776 16
	ldr	r3, [r7, #16]
	cmp	r3, #0
	beq	.L244
	.loc 3 1778 29
	ldr	r3, [r7, #16]
	ldr	r3, [r3, #16]
	str	r3, [r7, #16]
	.loc 3 1783 15
	b	.L244
.L246:
	.loc 3 1786 25
	ldrb	r2, [r7, #6]	@ zero_extendqisi2
	.loc 3 1786 54
	ldr	r3, [r7, #16]
	ldr	r3, [r3, #8]
	.loc 3 1786 41
	ands	r3, r3, r2
	.loc 3 1786 16
	cmp	r3, #0
	bne	.L245
	.loc 3 1789 45
	ldr	r3, [r7, #16]
	ldr	r3, [r3, #12]
	.loc 3 1789 61
	ldr	r3, [r3]
	.loc 3 1789 32
	str	r3, [r7, #8]
	.loc 3 1790 48
	ldr	r3, [r7, #16]
	ldr	r3, [r3, #12]
	.loc 3 1790 64
	ldr	r3, [r3, #4]
	.loc 3 1790 35
	str	r3, [r7, #12]
	.loc 3 1792 37
	ldr	r3, [r7, #16]
	ldr	r3, [r3]
	.loc 3 1792 26
	ldrb	r1, [r7, #6]	@ zero_extendqisi2
	add	r2, r7, #8
	mov	r0, r2
	blx	r3
.LVL1:
	str	r0, [r7, #20]
.L245:
	.loc 3 1794 25
	ldr	r3, [r7, #16]
	ldr	r3, [r3, #16]
	str	r3, [r7, #16]
.L244:
	.loc 3 1783 15
	ldr	r3, [r7, #16]
	cmp	r3, #0
	bne	.L246
.L239:
	.loc 3 1798 12
	ldr	r3, [r7, #20]
	.loc 3 1799 1
	mov	r0, r3
	adds	r7, r7, #24
.LCFI129:
	.cfi_def_cfa_offset 8
	mov	sp, r7
.LCFI130:
	.cfi_def_cfa_register 13
	@ sp needed
	pop	{r7, pc}
.L249:
	.align	2
.L248:
	.word	pmCallbackRoot
	.word	lastExecutedCallback.0
	.word	4325631
	.word	failedCallback
	.cfi_endproc
.LFE183:
	.size	Cy_SysPm_ExecuteCallback, .-Cy_SysPm_ExecuteCallback
	.section	.text.Cy_SysPm_GetFailedCallback,"ax",%progbits
	.align	1
	.global	Cy_SysPm_GetFailedCallback
	.syntax unified
	.thumb
	.thumb_func
	.type	Cy_SysPm_GetFailedCallback, %function
Cy_SysPm_GetFailedCallback:
.LFB184:
	.loc 3 1803 1
	.cfi_startproc
	@ args = 0, pretend = 0, frame = 8
	@ frame_needed = 1, uses_anonymous_args = 0
	@ link register save eliminated.
	push	{r7}
.LCFI131:
	.cfi_def_cfa_offset 4
	.cfi_offset 7, -4
	sub	sp, sp, #12
.LCFI132:
	.cfi_def_cfa_offset 16
	add	r7, sp, #0
.LCFI133:
	.cfi_def_cfa_register 7
	mov	r3, r0
	strb	r3, [r7, #7]
	.loc 3 1804 27
	ldrb	r3, [r7, #7]	@ zero_extendqisi2
	.loc 3 1804 26
	ldr	r2, .L252
	ldr	r3, [r2, r3, lsl #2]
	.loc 3 1805 1
	mov	r0, r3
	adds	r7, r7, #12
.LCFI134:
	.cfi_def_cfa_offset 4
	mov	sp, r7
.LCFI135:
	.cfi_def_cfa_register 13
	@ sp needed
	ldr	r7, [sp], #4
.LCFI136:
	.cfi_restore 7
	.cfi_def_cfa_offset 0
	bx	lr
.L253:
	.align	2
.L252:
	.word	failedCallback
	.cfi_endproc
.LFE184:
	.size	Cy_SysPm_GetFailedCallback, .-Cy_SysPm_GetFailedCallback
	.section	.text.Cy_SysPm_IoUnfreeze,"ax",%progbits
	.align	1
	.global	Cy_SysPm_IoUnfreeze
	.syntax unified
	.thumb
	.thumb_func
	.type	Cy_SysPm_IoUnfreeze, %function
Cy_SysPm_IoUnfreeze:
.LFB185:
	.loc 3 1809 1
	.cfi_startproc
	@ args = 0, pretend = 0, frame = 8
	@ frame_needed = 1, uses_anonymous_args = 0
	push	{r7, lr}
.LCFI137:
	.cfi_def_cfa_offset 8
	.cfi_offset 7, -8
	.cfi_offset 14, -4
	sub	sp, sp, #8
.LCFI138:
	.cfi_def_cfa_offset 16
	add	r7, sp, #0
.LCFI139:
	.cfi_def_cfa_register 7
	.loc 3 1811 22
	bl	Cy_SysLib_EnterCriticalSection
	str	r0, [r7, #4]
	.loc 3 1819 119
	ldr	r3, .L255
	ldr	r2, [r3, #4]
	.loc 3 1819 136
	ldr	r3, .L255+4
	ands	r3, r3, r2
	.loc 3 1819 52
	ldr	r2, .L255
	.loc 3 1819 201
	orr	r3, r3, #14848
	.loc 3 1819 69
	str	r3, [r2, #4]
	.loc 3 1824 69
	ldr	r3, .L255
	ldr	r2, [r3, #4]
	ldr	r1, .L255
	ldr	r3, .L255+4
	ands	r3, r3, r2
	str	r3, [r1, #4]
	.loc 3 1828 59
	ldr	r3, .L255
	.loc 3 1828 5
	ldr	r3, [r3, #4]
	.loc 3 1830 5
	ldr	r0, [r7, #4]
	bl	Cy_SysLib_ExitCriticalSection
	.loc 3 1831 1
	nop
	adds	r7, r7, #8
.LCFI140:
	.cfi_def_cfa_offset 8
	mov	sp, r7
.LCFI141:
	.cfi_def_cfa_register 13
	@ sp needed
	pop	{r7, pc}
.L256:
	.align	2
.L255:
	.word	1076232192
	.word	268173567
	.cfi_endproc
.LFE185:
	.size	Cy_SysPm_IoUnfreeze, .-Cy_SysPm_IoUnfreeze
	.section	.text.Cy_SysPm_WriteVoltageBitForFlash,"ax",%progbits
	.align	1
	.global	Cy_SysPm_WriteVoltageBitForFlash
	.syntax unified
	.thumb
	.thumb_func
	.type	Cy_SysPm_WriteVoltageBitForFlash, %function
Cy_SysPm_WriteVoltageBitForFlash:
.LFB186:
	.loc 3 1835 1
	.cfi_startproc
	@ args = 0, pretend = 0, frame = 32
	@ frame_needed = 1, uses_anonymous_args = 0
	push	{r7, lr}
.LCFI142:
	.cfi_def_cfa_offset 8
	.cfi_offset 7, -8
	.cfi_offset 14, -4
	sub	sp, sp, #32
.LCFI143:
	.cfi_def_cfa_offset 40
	add	r7, sp, #0
.LCFI144:
	.cfi_def_cfa_register 7
	mov	r3, r0
	strb	r3, [r7, #7]
	.loc 3 1836 12
	ldrb	r3, [r7, #7]	@ zero_extendqisi2
	cmp	r3, #1
	beq	.L258
	.loc 3 1836 13 discriminator 1
	ldrb	r3, [r7, #7]	@ zero_extendqisi2
	cmp	r3, #0
	beq	.L258
	.loc 3 1836 111 discriminator 2
	bl	CY_HALT
.L258:
	.loc 3 1838 26
	ldr	r3, .L271
	str	r3, [r7, #28]
	.loc 3 1841 34
	bl	Cy_SysLib_GetDeviceRevision
	mov	r3, r0
	.loc 3 1841 14
	strh	r3, [r7, #22]	@ movhi
	.loc 3 1842 26
	bl	Cy_SysLib_GetDevice
	mov	r3, r0
	strh	r3, [r7, #20]	@ movhi
	.loc 3 1846 10
	movs	r0, #14
	bl	Cy_Prot_GetActivePC
	mov	r3, r0
	.loc 3 1846 8
	cmp	r3, #0
	bne	.L259
	.loc 3 1846 54 discriminator 1
	ldrh	r3, [r7, #20]
	cmp	r3, #256
	bne	.L259
	.loc 3 1846 81 discriminator 2
	ldrh	r3, [r7, #22]
	cmp	r3, #34
	bhi	.L259
	.loc 3 1850 43
	ldr	r3, .L271+4
	ldr	r3, [r3]
	ldr	r3, [r3, #4]
	.loc 3 1850 64
	add	r3, r3, #61440
	ldr	r3, [r3, #24]
	.loc 3 1850 77
	bic	r2, r3, #16777216
	.loc 3 1850 114
	ldrb	r3, [r7, #7]	@ zero_extendqisi2
	.loc 3 1850 132
	lsls	r3, r3, #24
	.loc 3 1850 141
	and	r3, r3, #16777216
	.loc 3 1849 39
	ldr	r1, .L271+4
	ldr	r1, [r1]
	ldr	r1, [r1, #4]
	.loc 3 1850 109
	orrs	r3, r3, r2
	.loc 3 1849 71
	add	r2, r1, #61440
	str	r3, [r2, #24]
	.loc 3 1852 16
	movs	r3, #0
	str	r3, [r7, #28]
.L259:
	.loc 3 1858 8
	ldrh	r3, [r7, #20]
	cmp	r3, #256
	bne	.L260
	.loc 3 1858 34 discriminator 1
	ldrh	r3, [r7, #22]
	cmp	r3, #34
	bhi	.L261
.L260:
	.loc 3 1858 68 discriminator 3
	ldrh	r3, [r7, #20]
	cmp	r3, #256
	beq	.L262
.L261:
.LBB11:
	.loc 3 1862 43
	movs	r0, #1
	bl	Cy_IPC_Drv_GetIpcBaseAddress
	str	r0, [r7, #16]
	.loc 3 1865 12
	ldrh	r3, [r7, #20]
	cmp	r3, #256
	bne	.L263
	.loc 3 1868 27
	ldrb	r3, [r7, #7]	@ zero_extendqisi2
	cmp	r3, #0
	beq	.L264
	.loc 3 1868 27 is_stmt 0 discriminator 1
	ldr	r3, .L271+8
	b	.L265
.L264:
	.loc 3 1868 27 discriminator 2
	ldr	r3, .L271+12
.L265:
	.loc 3 1867 25 is_stmt 1
	str	r3, [r7, #24]
	b	.L266
.L263:
	.loc 3 1873 27
	ldrb	r3, [r7, #7]	@ zero_extendqisi2
	cmp	r3, #0
	beq	.L267
	.loc 3 1873 27 is_stmt 0 discriminator 1
	ldr	r3, .L271+16
	b	.L268
.L267:
	.loc 3 1873 27 discriminator 2
	ldr	r3, .L271+20
.L268:
	.loc 3 1872 25 is_stmt 1
	str	r3, [r7, #24]
.L266:
	.loc 3 1877 13
	ldr	r2, [r7, #24]
	movs	r1, #1
	ldr	r0, [r7, #16]
	bl	Cy_IPC_Drv_SendMsgWord
	mov	r3, r0
	.loc 3 1877 12
	cmp	r3, #0
	bne	.L262
.LBB12:
	.loc 3 1880 19
	nop
.L269:
	.loc 3 1880 20 discriminator 1
	ldr	r0, [r7, #16]
	bl	Cy_IPC_Drv_IsLockAcquired
	mov	r3, r0
	.loc 3 1880 19 discriminator 1
	cmp	r3, #0
	bne	.L269
	.loc 3 1886 38
	ldr	r0, [r7, #16]
	bl	Cy_IPC_Drv_ReadDataValue
	str	r0, [r7, #12]
	.loc 3 1888 49
	ldr	r3, [r7, #12]
	and	r3, r3, #-16777216
	.loc 3 1888 16
	cmp	r3, #-1610612736
	bne	.L262
	.loc 3 1890 24
	movs	r3, #0
	str	r3, [r7, #28]
.L262:
.LBE12:
.LBE11:
	.loc 3 1898 12
	ldr	r3, [r7, #28]
	.loc 3 1899 1
	mov	r0, r3
	adds	r7, r7, #32
.LCFI145:
	.cfi_def_cfa_offset 8
	mov	sp, r7
.LCFI146:
	.cfi_def_cfa_register 13
	@ sp needed
	pop	{r7, pc}
.L272:
	.align	2
.L271:
	.word	4325380
	.word	cy_device
	.word	805306625
	.word	805306369
	.word	201326595
	.word	201326593
	.cfi_endproc
.LFE186:
	.size	Cy_SysPm_WriteVoltageBitForFlash, .-Cy_SysPm_WriteVoltageBitForFlash
	.section	.text.Cy_SysPm_SaveRegisters,"ax",%progbits
	.align	1
	.global	Cy_SysPm_SaveRegisters
	.syntax unified
	.thumb
	.thumb_func
	.type	Cy_SysPm_SaveRegisters, %function
Cy_SysPm_SaveRegisters:
.LFB187:
	.loc 3 1904 1
	.cfi_startproc
	@ args = 0, pretend = 0, frame = 8
	@ frame_needed = 1, uses_anonymous_args = 0
	push	{r7, lr}
.LCFI147:
	.cfi_def_cfa_offset 8
	.cfi_offset 7, -8
	.cfi_offset 14, -4
	sub	sp, sp, #8
.LCFI148:
	.cfi_def_cfa_offset 16
	add	r7, sp, #0
.LCFI149:
	.cfi_def_cfa_register 7
	str	r0, [r7, #4]
	.loc 3 1905 12
	ldr	r3, [r7, #4]
	cmp	r3, #0
	bne	.L274
	.loc 3 1905 16 discriminator 1
	bl	CY_HALT
.L274:
	.loc 3 1908 74
	ldr	r3, .L277
	ldr	r3, [r3]
	ldr	r2, [r3]
	.loc 3 1908 97
	ldr	r3, .L277
	ldr	r3, [r3]
	ldr	r3, [r3, #136]
	.loc 3 1908 86
	add	r3, r3, r2
	.loc 3 1908 41
	ldr	r2, [r3]
	.loc 3 1908 38
	ldr	r3, [r7, #4]
	str	r2, [r3, #32]
	.loc 3 1909 74
	ldr	r3, .L277
	ldr	r3, [r3]
	ldr	r2, [r3]
	.loc 3 1909 97
	ldr	r3, .L277
	ldr	r3, [r3]
	ldr	r3, [r3, #140]
	.loc 3 1909 86
	add	r3, r3, r2
	.loc 3 1909 41
	ldr	r2, [r3]
	.loc 3 1909 38
	ldr	r3, [r7, #4]
	str	r2, [r3, #36]
	.loc 3 1911 25
	ldr	r3, .L277
	ldr	r3, [r3]
	ldrb	r3, [r3, #70]	@ zero_extendqisi2
	.loc 3 1911 8
	cmp	r3, #0
	beq	.L276
	.loc 3 1911 80 discriminator 1
	ldr	r3, .L277
	ldr	r3, [r3]
	ldr	r3, [r3, #8]
	.loc 3 1911 102 discriminator 1
	ldr	r3, [r3, #224]
	.loc 3 1911 111 discriminator 1
	and	r3, r3, #16
	.loc 3 1911 39 discriminator 1
	cmp	r3, #0
	beq	.L276
	.loc 3 1913 76
	ldr	r3, .L277
	ldr	r3, [r3]
	ldr	r3, [r3, #12]
	.loc 3 1913 93
	add	r3, r3, #28672
	ldr	r2, [r3, #2304]
	.loc 3 1913 47
	ldr	r3, [r7, #4]
	str	r2, [r3]
	.loc 3 1915 75
	ldr	r3, .L277
	ldr	r3, [r3]
	ldr	r3, [r3, #12]
	.loc 3 1915 91
	add	r3, r3, #28672
	ldr	r2, [r3, #2048]
	.loc 3 1915 46
	ldr	r3, [r7, #4]
	str	r2, [r3, #4]
	.loc 3 1916 75
	ldr	r3, .L277
	ldr	r3, [r3]
	ldr	r3, [r3, #12]
	.loc 3 1916 91
	add	r3, r3, #28672
	ldr	r2, [r3, #2052]
	.loc 3 1916 46
	ldr	r3, [r7, #4]
	str	r2, [r3, #8]
	.loc 3 1917 75
	ldr	r3, .L277
	ldr	r3, [r3]
	ldr	r3, [r3, #12]
	.loc 3 1917 91
	add	r3, r3, #28672
	ldr	r2, [r3, #2056]
	.loc 3 1917 46
	ldr	r3, [r7, #4]
	str	r2, [r3, #12]
	.loc 3 1918 75
	ldr	r3, .L277
	ldr	r3, [r3]
	ldr	r3, [r3, #12]
	.loc 3 1918 91
	add	r3, r3, #28672
	ldr	r2, [r3, #2060]
	.loc 3 1918 46
	ldr	r3, [r7, #4]
	str	r2, [r3, #16]
	.loc 3 1919 75
	ldr	r3, .L277
	ldr	r3, [r3]
	ldr	r3, [r3, #12]
	.loc 3 1919 99
	add	r3, r3, #28672
	ldr	r2, [r3, #2064]
	.loc 3 1919 46
	ldr	r3, [r7, #4]
	str	r2, [r3, #20]
	.loc 3 1920 75
	ldr	r3, .L277
	ldr	r3, [r3]
	ldr	r3, [r3, #12]
	.loc 3 1920 99
	add	r3, r3, #28672
	ldr	r2, [r3, #2068]
	.loc 3 1920 46
	ldr	r3, [r7, #4]
	str	r2, [r3, #24]
	.loc 3 1921 75
	ldr	r3, .L277
	ldr	r3, [r3]
	ldr	r3, [r3, #12]
	.loc 3 1921 99
	add	r3, r3, #28672
	ldr	r2, [r3, #2072]
	.loc 3 1921 46
	ldr	r3, [r7, #4]
	str	r2, [r3, #28]
.L276:
	.loc 3 1923 1
	nop
	adds	r7, r7, #8
.LCFI150:
	.cfi_def_cfa_offset 8
	mov	sp, r7
.LCFI151:
	.cfi_def_cfa_register 13
	@ sp needed
	pop	{r7, pc}
.L278:
	.align	2
.L277:
	.word	cy_device
	.cfi_endproc
.LFE187:
	.size	Cy_SysPm_SaveRegisters, .-Cy_SysPm_SaveRegisters
	.section	.text.Cy_SysPm_RestoreRegisters,"ax",%progbits
	.align	1
	.global	Cy_SysPm_RestoreRegisters
	.syntax unified
	.thumb
	.thumb_func
	.type	Cy_SysPm_RestoreRegisters, %function
Cy_SysPm_RestoreRegisters:
.LFB188:
	.loc 3 1927 1
	.cfi_startproc
	@ args = 0, pretend = 0, frame = 8
	@ frame_needed = 1, uses_anonymous_args = 0
	push	{r7, lr}
.LCFI152:
	.cfi_def_cfa_offset 8
	.cfi_offset 7, -8
	.cfi_offset 14, -4
	sub	sp, sp, #8
.LCFI153:
	.cfi_def_cfa_offset 16
	add	r7, sp, #0
.LCFI154:
	.cfi_def_cfa_register 7
	str	r0, [r7, #4]
	.loc 3 1928 12
	ldr	r3, [r7, #4]
	cmp	r3, #0
	bne	.L280
	.loc 3 1928 16 discriminator 1
	bl	CY_HALT
.L280:
	.loc 3 1931 39
	ldr	r3, .L283
	ldr	r3, [r3]
	ldr	r2, [r3]
	.loc 3 1931 62
	ldr	r3, .L283
	ldr	r3, [r3]
	ldr	r3, [r3, #136]
	.loc 3 1931 51
	add	r3, r3, r2
	.loc 3 1931 7
	mov	r2, r3
	.loc 3 1931 95
	ldr	r3, [r7, #4]
	ldr	r3, [r3, #32]
	.loc 3 1931 89
	str	r3, [r2]
	.loc 3 1932 39
	ldr	r3, .L283
	ldr	r3, [r3]
	ldr	r2, [r3]
	.loc 3 1932 62
	ldr	r3, .L283
	ldr	r3, [r3]
	ldr	r3, [r3, #140]
	.loc 3 1932 51
	add	r3, r3, r2
	.loc 3 1932 7
	mov	r2, r3
	.loc 3 1932 95
	ldr	r3, [r7, #4]
	ldr	r3, [r3, #36]
	.loc 3 1932 89
	str	r3, [r2]
	.loc 3 1934 25
	ldr	r3, .L283
	ldr	r3, [r3]
	ldrb	r3, [r3, #70]	@ zero_extendqisi2
	.loc 3 1934 8
	cmp	r3, #0
	beq	.L282
	.loc 3 1934 80 discriminator 1
	ldr	r3, .L283
	ldr	r3, [r3]
	ldr	r3, [r3, #8]
	.loc 3 1934 102 discriminator 1
	ldr	r3, [r3, #224]
	.loc 3 1934 111 discriminator 1
	and	r3, r3, #16
	.loc 3 1934 39 discriminator 1
	cmp	r3, #0
	beq	.L282
	.loc 3 1936 36
	ldr	r3, .L283
	ldr	r3, [r3]
	ldr	r3, [r3, #12]
	.loc 3 1936 11
	mov	r2, r3
	.loc 3 1936 69
	ldr	r3, [r7, #4]
	ldr	r3, [r3, #4]
	.loc 3 1936 63
	add	r2, r2, #28672
	str	r3, [r2, #2048]
	.loc 3 1937 36
	ldr	r3, .L283
	ldr	r3, [r3]
	ldr	r3, [r3, #12]
	.loc 3 1937 11
	mov	r2, r3
	.loc 3 1937 69
	ldr	r3, [r7, #4]
	ldr	r3, [r3, #8]
	.loc 3 1937 63
	add	r2, r2, #28672
	str	r3, [r2, #2052]
	.loc 3 1938 36
	ldr	r3, .L283
	ldr	r3, [r3]
	ldr	r3, [r3, #12]
	.loc 3 1938 11
	mov	r2, r3
	.loc 3 1938 69
	ldr	r3, [r7, #4]
	ldr	r3, [r3, #12]
	.loc 3 1938 63
	add	r2, r2, #28672
	str	r3, [r2, #2056]
	.loc 3 1939 36
	ldr	r3, .L283
	ldr	r3, [r3]
	ldr	r3, [r3, #12]
	.loc 3 1939 11
	mov	r2, r3
	.loc 3 1939 69
	ldr	r3, [r7, #4]
	ldr	r3, [r3, #16]
	.loc 3 1939 63
	add	r2, r2, #28672
	str	r3, [r2, #2060]
	.loc 3 1940 36
	ldr	r3, .L283
	ldr	r3, [r3]
	ldr	r3, [r3, #12]
	.loc 3 1940 11
	mov	r2, r3
	.loc 3 1940 72
	ldr	r3, [r7, #4]
	ldr	r3, [r3, #20]
	.loc 3 1940 66
	add	r2, r2, #28672
	str	r3, [r2, #2064]
	.loc 3 1941 36
	ldr	r3, .L283
	ldr	r3, [r3]
	ldr	r3, [r3, #12]
	.loc 3 1941 11
	mov	r2, r3
	.loc 3 1941 72
	ldr	r3, [r7, #4]
	ldr	r3, [r3, #24]
	.loc 3 1941 66
	add	r2, r2, #28672
	str	r3, [r2, #2068]
	.loc 3 1942 36
	ldr	r3, .L283
	ldr	r3, [r3]
	ldr	r3, [r3, #12]
	.loc 3 1942 11
	mov	r2, r3
	.loc 3 1942 72
	ldr	r3, [r7, #4]
	ldr	r3, [r3, #28]
	.loc 3 1942 66
	add	r2, r2, #28672
	str	r3, [r2, #2072]
	.loc 3 1944 36
	ldr	r3, .L283
	ldr	r3, [r3]
	ldr	r3, [r3, #12]
	.loc 3 1944 11
	mov	r2, r3
	.loc 3 1944 70
	ldr	r3, [r7, #4]
	ldr	r3, [r3]
	.loc 3 1944 64
	add	r2, r2, #28672
	str	r3, [r2, #2304]
.L282:
	.loc 3 1946 1
	nop
	adds	r7, r7, #8
.LCFI155:
	.cfi_def_cfa_offset 8
	mov	sp, r7
.LCFI156:
	.cfi_def_cfa_register 13
	@ sp needed
	pop	{r7, pc}
.L284:
	.align	2
.L283:
	.word	cy_device
	.cfi_endproc
.LFE188:
	.size	Cy_SysPm_RestoreRegisters, .-Cy_SysPm_RestoreRegisters
	.section	.cy_ramfunc,"ax",%progbits
	.align	1
	.syntax unified
	.thumb
	.thumb_func
	.type	EnterDeepSleepRam, %function
EnterDeepSleepRam:
.LFB189:
	.loc 3 1970 1
	.cfi_startproc
	@ args = 0, pretend = 0, frame = 32
	@ frame_needed = 1, uses_anonymous_args = 0
	@ link register save eliminated.
	push	{r7}
.LCFI157:
	.cfi_def_cfa_offset 4
	.cfi_offset 7, -4
	sub	sp, sp, #36
.LCFI158:
	.cfi_def_cfa_offset 40
	add	r7, sp, #0
.LCFI159:
	.cfi_def_cfa_register 7
	mov	r3, r0
	strb	r3, [r7, #7]
	.loc 3 1974 72
	ldr	r3, .L293
	ldr	r3, [r3]
	ldr	r3, [r3, #4]
	.loc 3 1974 24
	add	r3, r3, #268
	str	r3, [r7, #28]
	.loc 3 1980 80
	ldr	r3, .L293
	ldr	r3, [r3]
	ldr	r2, [r3]
	.loc 3 1980 103
	ldr	r3, .L293
	ldr	r3, [r3]
	ldr	r3, [r3, #152]
	.loc 3 1980 92
	add	r3, r3, r2
	.loc 3 1980 24
	str	r3, [r7, #24]
.L289:
	.loc 3 1990 74
	ldr	r3, .L293+4
	ldr	r3, [r3, #16]
	ldr	r2, .L293+4
	orr	r3, r3, #4
	str	r3, [r2, #16]
	.loc 3 1992 11
	ldrb	r3, [r7, #7]	@ zero_extendqisi2
	cmp	r3, #1
	beq	.L286
	.loc 3 1994 13
	.syntax unified
@ 1994 "libraries\IFX_PSOC6_HAL\mtb-pdl-cat1\drivers\source\cy_syspm.c" 1
	wfi
@ 0 "" 2
	.thumb
	.syntax unified
	b	.L287
.L286:
	.loc 3 1998 13
	.syntax unified
@ 1998 "libraries\IFX_PSOC6_HAL\mtb-pdl-cat1\drivers\source\cy_syspm.c" 1
	wfe
@ 0 "" 2
	.loc 3 2004 16
	.thumb
	.syntax unified
	ldr	r3, .L293+8
	ldrb	r3, [r3]	@ zero_extendqisi2
	.loc 3 2004 15
	cmp	r3, #0
	beq	.L288
	.loc 3 2006 17
	.syntax unified
@ 2006 "libraries\IFX_PSOC6_HAL\mtb-pdl-cat1\drivers\source\cy_syspm.c" 1
	wfe
@ 0 "" 2
	.thumb
	.syntax unified
.L288:
	.loc 3 2008 26
	ldr	r3, .L293+8
	movs	r2, #1
	strb	r2, [r3]
.L287:
	.loc 3 2013 16
	ldr	r3, [r7, #24]
	ldr	r3, [r3]
	.loc 3 2013 59
	and	r3, r3, #3
	.loc 3 2013 5
	cmp	r3, #2
	beq	.L289
	.loc 3 2024 9
	ldr	r3, [r7, #28]
	ldr	r3, [r3]
	.loc 3 2024 8
	cmp	r3, #0
	bne	.L292
.LBB13:
	.loc 3 2035 24
	ldr	r3, .L293+12
	.loc 3 2035 21
	ldr	r3, [r3]
	str	r3, [r7, #20]
	.loc 3 2036 72
	ldr	r3, .L293+16
	.loc 3 2036 23
	ldr	r3, [r3, #1304]
	str	r3, [r7, #16]
	.loc 3 2037 24
	ldr	r3, .L293+20
	.loc 3 2037 21
	ldr	r3, [r3]
	str	r3, [r7, #12]
	.loc 3 2040 10
	ldr	r3, .L293+12
	.loc 3 2040 46
	movw	r2, #7966
	str	r2, [r3]
	.loc 3 2041 56
	ldr	r3, .L293+16
	.loc 3 2041 75
	movs	r2, #6
	str	r2, [r3, #1304]
	.loc 3 2042 10
	ldr	r3, .L293+20
	.loc 3 2042 46
	movs	r2, #62
	str	r2, [r3]
	.loc 3 2045 56
	ldr	r3, .L293+16
	.loc 3 2045 72
	movs	r2, #68
	str	r2, [r3, #1308]
	.loc 3 2047 15
	nop
.L291:
	.loc 3 2047 70 discriminator 1
	ldr	r3, .L293+16
	ldr	r3, [r3, #1308]
	.loc 3 2047 15 discriminator 1
	cmp	r3, #0
	bge	.L291
	.loc 3 2053 24
	ldr	r3, [r7, #28]
	mov	r2, #-1431655766
	str	r2, [r3]
	.loc 3 2056 10
	ldr	r2, .L293+12
	.loc 3 2056 46
	ldr	r3, [r7, #20]
	str	r3, [r2]
	.loc 3 2057 56
	ldr	r2, .L293+16
	.loc 3 2057 75
	ldr	r3, [r7, #16]
	str	r3, [r2, #1304]
	.loc 3 2058 10
	ldr	r2, .L293+20
	.loc 3 2058 46
	ldr	r3, [r7, #12]
	str	r3, [r2]
.L292:
.LBE13:
	.loc 3 2065 1
	nop
	adds	r7, r7, #36
.LCFI160:
	.cfi_def_cfa_offset 4
	mov	sp, r7
.LCFI161:
	.cfi_def_cfa_register 13
	@ sp needed
	ldr	r7, [sp], #4
.LCFI162:
	.cfi_restore 7
	.cfi_def_cfa_offset 0
	bx	lr
.L294:
	.align	2
.L293:
	.word	cy_device
	.word	-536810240
	.word	wasEventSent
	.word	1076232456
	.word	1076232192
	.word	1076232452
	.cfi_endproc
.LFE189:
	.size	EnterDeepSleepRam, .-EnterDeepSleepRam
	.section	.text.Cy_SysPm_SetSRAMMacroPwrMode,"ax",%progbits
	.align	1
	.global	Cy_SysPm_SetSRAMMacroPwrMode
	.syntax unified
	.thumb
	.thumb_func
	.type	Cy_SysPm_SetSRAMMacroPwrMode, %function
Cy_SysPm_SetSRAMMacroPwrMode:
.LFB190:
	.loc 3 2069 1
	.cfi_startproc
	@ args = 0, pretend = 0, frame = 16
	@ frame_needed = 1, uses_anonymous_args = 0
	push	{r7, lr}
.LCFI163:
	.cfi_def_cfa_offset 8
	.cfi_offset 7, -8
	.cfi_offset 14, -4
	sub	sp, sp, #16
.LCFI164:
	.cfi_def_cfa_offset 24
	add	r7, sp, #0
.LCFI165:
	.cfi_def_cfa_register 7
	mov	r3, r0
	str	r1, [r7]
	strb	r3, [r7, #7]
	mov	r3, r2
	strb	r3, [r7, #6]
	.loc 3 2073 26
	ldr	r3, .L304
	str	r3, [r7, #12]
	.loc 3 2075 12
	ldrb	r3, [r7, #7]	@ zero_extendqisi2
	cmp	r3, #2
	bls	.L296
	.loc 3 2075 44 discriminator 1
	bl	CY_HALT
.L296:
	.loc 3 2086 7
	ldrb	r3, [r7, #7]	@ zero_extendqisi2
	cmp	r3, #0
	bne	.L297
	.loc 3 2088 16
	ldr	r3, [r7]
	cmp	r3, #15
	bls	.L298
	.loc 3 2088 42 discriminator 1
	bl	CY_HALT
.L298:
	.loc 3 2089 12
	ldr	r3, [r7]
	cmp	r3, #15
	bhi	.L299
	.loc 3 2092 75
	ldrb	r3, [r7, #6]	@ zero_extendqisi2
	.loc 3 2092 83
	and	r3, r3, #3
	.loc 3 2091 89
	ldr	r2, [r7]
	lsls	r1, r2, #2
	.loc 3 2091 47
	ldr	r2, .L304+4
	ldr	r2, [r2]
	ldr	r2, [r2]
	.loc 3 2091 70
	ldr	r0, .L304+4
	ldr	r0, [r0]
	ldrh	r0, [r0, #180]
	.loc 3 2091 59
	add	r2, r2, r0
	.loc 3 2091 89
	add	r2, r2, r1
	.loc 3 2091 158
	orr	r3, r3, #100139008
	orr	r3, r3, #131072
	.loc 3 2091 107
	str	r3, [r2]
	.loc 3 2093 20
	movs	r3, #0
	str	r3, [r7, #12]
	b	.L299
.L297:
	.loc 3 2096 12
	ldrb	r3, [r7, #7]	@ zero_extendqisi2
	cmp	r3, #1
	bne	.L300
	.loc 3 2099 16
	ldr	r3, [r7]
	cmp	r3, #0
	beq	.L301
	.loc 3 2099 43 discriminator 1
	bl	CY_HALT
.L301:
	.loc 3 2102 63
	ldrb	r3, [r7, #6]	@ zero_extendqisi2
	.loc 3 2102 71
	and	r3, r3, #3
	.loc 3 2101 43
	ldr	r2, .L304+4
	ldr	r2, [r2]
	ldr	r2, [r2]
	.loc 3 2101 66
	ldr	r1, .L304+4
	ldr	r1, [r1]
	ldrh	r1, [r1, #182]
	.loc 3 2101 55
	add	r2, r2, r1
	.loc 3 2101 137
	orr	r3, r3, #100139008
	orr	r3, r3, #131072
	.loc 3 2101 86
	str	r3, [r2]
	.loc 3 2103 16
	movs	r3, #0
	str	r3, [r7, #12]
	b	.L299
.L300:
	.loc 3 2105 12
	ldrb	r3, [r7, #7]	@ zero_extendqisi2
	cmp	r3, #2
	bne	.L299
	.loc 3 2108 16
	ldr	r3, [r7]
	cmp	r3, #0
	beq	.L302
	.loc 3 2108 43 discriminator 1
	bl	CY_HALT
.L302:
	.loc 3 2111 63
	ldrb	r3, [r7, #6]	@ zero_extendqisi2
	.loc 3 2111 71
	and	r3, r3, #3
	.loc 3 2110 43
	ldr	r2, .L304+4
	ldr	r2, [r2]
	ldr	r2, [r2]
	.loc 3 2110 66
	ldr	r1, .L304+4
	ldr	r1, [r1]
	ldrh	r1, [r1, #184]
	.loc 3 2110 55
	add	r2, r2, r1
	.loc 3 2110 137
	orr	r3, r3, #100139008
	orr	r3, r3, #131072
	.loc 3 2110 86
	str	r3, [r2]
	.loc 3 2112 16
	movs	r3, #0
	str	r3, [r7, #12]
.L299:
	.loc 3 2119 12
	ldr	r3, [r7, #12]
	.loc 3 2120 1
	mov	r0, r3
	adds	r7, r7, #16
.LCFI166:
	.cfi_def_cfa_offset 8
	mov	sp, r7
.LCFI167:
	.cfi_def_cfa_register 13
	@ sp needed
	pop	{r7, pc}
.L305:
	.align	2
.L304:
	.word	4325377
	.word	cy_device
	.cfi_endproc
.LFE190:
	.size	Cy_SysPm_SetSRAMMacroPwrMode, .-Cy_SysPm_SetSRAMMacroPwrMode
	.section	.text.Cy_SysPm_GetSRAMMacroPwrMode,"ax",%progbits
	.align	1
	.global	Cy_SysPm_GetSRAMMacroPwrMode
	.syntax unified
	.thumb
	.thumb_func
	.type	Cy_SysPm_GetSRAMMacroPwrMode, %function
Cy_SysPm_GetSRAMMacroPwrMode:
.LFB191:
	.loc 3 2123 1
	.cfi_startproc
	@ args = 0, pretend = 0, frame = 16
	@ frame_needed = 1, uses_anonymous_args = 0
	push	{r7, lr}
.LCFI168:
	.cfi_def_cfa_offset 8
	.cfi_offset 7, -8
	.cfi_offset 14, -4
	sub	sp, sp, #16
.LCFI169:
	.cfi_def_cfa_offset 24
	add	r7, sp, #0
.LCFI170:
	.cfi_def_cfa_register 7
	mov	r3, r0
	str	r1, [r7]
	strb	r3, [r7, #7]
	.loc 3 2124 14
	movs	r3, #1
	str	r3, [r7, #12]
	.loc 3 2126 12
	ldrb	r3, [r7, #7]	@ zero_extendqisi2
	cmp	r3, #2
	bls	.L307
	.loc 3 2126 44 discriminator 1
	bl	CY_HALT
.L307:
	.loc 3 2128 7
	ldrb	r3, [r7, #7]	@ zero_extendqisi2
	cmp	r3, #0
	bne	.L308
	.loc 3 2130 16
	ldr	r3, [r7]
	cmp	r3, #15
	bls	.L309
	.loc 3 2130 42 discriminator 1
	bl	CY_HALT
.L309:
	.loc 3 2131 12
	ldr	r3, [r7]
	cmp	r3, #15
	bhi	.L310
	.loc 3 2133 111
	ldr	r3, [r7]
	lsls	r2, r3, #2
	.loc 3 2133 69
	ldr	r3, .L315
	ldr	r3, [r3]
	ldr	r3, [r3]
	.loc 3 2133 92
	ldr	r1, .L315
	ldr	r1, [r1]
	ldrh	r1, [r1, #180]
	.loc 3 2133 81
	add	r3, r3, r1
	.loc 3 2133 111
	add	r3, r3, r2
	.loc 3 2133 24
	ldr	r3, [r3]
	.loc 3 2133 20
	and	r3, r3, #3
	str	r3, [r7, #12]
	b	.L310
.L308:
	.loc 3 2136 12
	ldrb	r3, [r7, #7]	@ zero_extendqisi2
	cmp	r3, #1
	bne	.L311
	.loc 3 2138 16
	ldr	r3, [r7]
	cmp	r3, #0
	beq	.L312
	.loc 3 2138 43 discriminator 1
	bl	CY_HALT
.L312:
	.loc 3 2139 65
	ldr	r3, .L315
	ldr	r3, [r3]
	ldr	r3, [r3]
	.loc 3 2139 88
	ldr	r2, .L315
	ldr	r2, [r2]
	ldrh	r2, [r2, #182]
	.loc 3 2139 77
	add	r3, r3, r2
	.loc 3 2139 20
	ldr	r3, [r3]
	.loc 3 2139 16
	and	r3, r3, #3
	str	r3, [r7, #12]
	b	.L310
.L311:
	.loc 3 2141 12
	ldrb	r3, [r7, #7]	@ zero_extendqisi2
	cmp	r3, #2
	bne	.L310
	.loc 3 2143 16
	ldr	r3, [r7]
	cmp	r3, #0
	beq	.L313
	.loc 3 2143 43 discriminator 1
	bl	CY_HALT
.L313:
	.loc 3 2144 65
	ldr	r3, .L315
	ldr	r3, [r3]
	ldr	r3, [r3]
	.loc 3 2144 88
	ldr	r2, .L315
	ldr	r2, [r2]
	ldrh	r2, [r2, #184]
	.loc 3 2144 77
	add	r3, r3, r2
	.loc 3 2144 20
	ldr	r3, [r3]
	.loc 3 2144 16
	and	r3, r3, #3
	str	r3, [r7, #12]
.L310:
	.loc 3 2150 12
	ldr	r3, [r7, #12]
	uxtb	r3, r3
	.loc 3 2151 1
	mov	r0, r3
	adds	r7, r7, #16
.LCFI171:
	.cfi_def_cfa_offset 8
	mov	sp, r7
.LCFI172:
	.cfi_def_cfa_register 13
	@ sp needed
	pop	{r7, pc}
.L316:
	.align	2
.L315:
	.word	cy_device
	.cfi_endproc
.LFE191:
	.size	Cy_SysPm_GetSRAMMacroPwrMode, .-Cy_SysPm_GetSRAMMacroPwrMode
	.section	.text.Cy_SysPm_SetSRAMPwrMode,"ax",%progbits
	.align	1
	.global	Cy_SysPm_SetSRAMPwrMode
	.syntax unified
	.thumb
	.thumb_func
	.type	Cy_SysPm_SetSRAMPwrMode, %function
Cy_SysPm_SetSRAMPwrMode:
.LFB192:
	.loc 3 2154 1
	.cfi_startproc
	@ args = 0, pretend = 0, frame = 16
	@ frame_needed = 1, uses_anonymous_args = 0
	push	{r7, lr}
.LCFI173:
	.cfi_def_cfa_offset 8
	.cfi_offset 7, -8
	.cfi_offset 14, -4
	sub	sp, sp, #16
.LCFI174:
	.cfi_def_cfa_offset 24
	add	r7, sp, #0
.LCFI175:
	.cfi_def_cfa_register 7
	mov	r3, r0
	mov	r2, r1
	strb	r3, [r7, #7]
	mov	r3, r2
	strb	r3, [r7, #6]
	.loc 3 2160 26
	ldr	r3, .L325
	str	r3, [r7, #8]
	.loc 3 2161 12
	ldrb	r3, [r7, #7]	@ zero_extendqisi2
	cmp	r3, #2
	bls	.L318
	.loc 3 2161 44 discriminator 1
	bl	CY_HALT
.L318:
	.loc 3 2169 7
	ldrb	r3, [r7, #7]	@ zero_extendqisi2
	cmp	r3, #0
	bne	.L319
	.loc 3 2171 17
	movs	r3, #0
	str	r3, [r7, #12]
	.loc 3 2171 9
	b	.L320
.L321:
	.loc 3 2174 67 discriminator 3
	ldrb	r3, [r7, #6]	@ zero_extendqisi2
	.loc 3 2174 75 discriminator 3
	and	r3, r3, #3
	.loc 3 2173 89 discriminator 3
	ldr	r2, [r7, #12]
	lsls	r1, r2, #2
	.loc 3 2173 47 discriminator 3
	ldr	r2, .L325+4
	ldr	r2, [r2]
	ldr	r2, [r2]
	.loc 3 2173 70 discriminator 3
	ldr	r0, .L325+4
	ldr	r0, [r0]
	ldrh	r0, [r0, #180]
	.loc 3 2173 59 discriminator 3
	add	r2, r2, r0
	.loc 3 2173 89 discriminator 3
	add	r2, r2, r1
	.loc 3 2173 149 discriminator 3
	orr	r3, r3, #100139008
	orr	r3, r3, #131072
	.loc 3 2173 98 discriminator 3
	str	r3, [r2]
	.loc 3 2171 38 discriminator 3
	ldr	r3, [r7, #12]
	adds	r3, r3, #1
	str	r3, [r7, #12]
.L320:
	.loc 3 2171 9 discriminator 1
	ldr	r3, [r7, #12]
	cmp	r3, #15
	bls	.L321
	.loc 3 2176 16
	movs	r3, #0
	str	r3, [r7, #8]
	b	.L322
.L319:
	.loc 3 2178 12
	ldrb	r3, [r7, #7]	@ zero_extendqisi2
	cmp	r3, #1
	bne	.L323
	.loc 3 2182 67
	ldrb	r3, [r7, #6]	@ zero_extendqisi2
	.loc 3 2182 75
	and	r3, r3, #3
	.loc 3 2181 43
	ldr	r2, .L325+4
	ldr	r2, [r2]
	ldr	r2, [r2]
	.loc 3 2181 66
	ldr	r1, .L325+4
	ldr	r1, [r1]
	ldrh	r1, [r1, #182]
	.loc 3 2181 55
	add	r2, r2, r1
	.loc 3 2181 137
	orr	r3, r3, #100139008
	orr	r3, r3, #131072
	.loc 3 2181 86
	str	r3, [r2]
	.loc 3 2183 16
	movs	r3, #0
	str	r3, [r7, #8]
	b	.L322
.L323:
	.loc 3 2186 12
	ldrb	r3, [r7, #7]	@ zero_extendqisi2
	cmp	r3, #2
	bne	.L322
	.loc 3 2190 67
	ldrb	r3, [r7, #6]	@ zero_extendqisi2
	.loc 3 2190 75
	and	r3, r3, #3
	.loc 3 2189 43
	ldr	r2, .L325+4
	ldr	r2, [r2]
	ldr	r2, [r2]
	.loc 3 2189 66
	ldr	r1, .L325+4
	ldr	r1, [r1]
	ldrh	r1, [r1, #184]
	.loc 3 2189 55
	add	r2, r2, r1
	.loc 3 2189 137
	orr	r3, r3, #100139008
	orr	r3, r3, #131072
	.loc 3 2189 86
	str	r3, [r2]
	.loc 3 2191 16
	movs	r3, #0
	str	r3, [r7, #8]
.L322:
	.loc 3 2199 12
	ldr	r3, [r7, #8]
	.loc 3 2200 1
	mov	r0, r3
	adds	r7, r7, #16
.LCFI176:
	.cfi_def_cfa_offset 8
	mov	sp, r7
.LCFI177:
	.cfi_def_cfa_register 13
	@ sp needed
	pop	{r7, pc}
.L326:
	.align	2
.L325:
	.word	4325377
	.word	cy_device
	.cfi_endproc
.LFE192:
	.size	Cy_SysPm_SetSRAMPwrMode, .-Cy_SysPm_SetSRAMPwrMode
	.section	.text.SetReadMarginTrimUlp,"ax",%progbits
	.align	1
	.syntax unified
	.thumb
	.thumb_func
	.type	SetReadMarginTrimUlp, %function
SetReadMarginTrimUlp:
.LFB193:
	.loc 3 2213 1
	.cfi_startproc
	@ args = 0, pretend = 0, frame = 0
	@ frame_needed = 1, uses_anonymous_args = 0
	push	{r7, lr}
.LCFI178:
	.cfi_def_cfa_offset 8
	.cfi_offset 7, -8
	.cfi_offset 14, -4
	add	r7, sp, #0
.LCFI179:
	.cfi_def_cfa_register 7
	.loc 3 2215 9
	bl	Cy_SysLib_GetDevice
	mov	r3, r0
	.loc 3 2215 8
	cmp	r3, #256
	bne	.L328
	.loc 3 2217 129
	ldr	r3, .L331
	ldr	r3, [r3]
	ldr	r2, [r3]
	.loc 3 2217 152
	ldr	r3, .L331
	ldr	r3, [r3]
	ldr	r3, [r3, #156]
	.loc 3 2217 141
	add	r3, r3, r2
	.loc 3 2217 96
	ldr	r3, [r3]
	.loc 3 2217 178
	bic	r3, r3, #15
	.loc 3 2217 43
	ldr	r2, .L331
	ldr	r2, [r2]
	ldr	r1, [r2]
	.loc 3 2217 66
	ldr	r2, .L331
	ldr	r2, [r2]
	ldr	r2, [r2, #156]
	.loc 3 2217 55
	add	r2, r2, r1
	.loc 3 2217 201
	orr	r3, r3, #2
	.loc 3 2217 92
	str	r3, [r2]
	.loc 3 2220 129
	ldr	r3, .L331
	ldr	r3, [r3]
	ldr	r2, [r3]
	.loc 3 2220 152
	ldr	r3, .L331
	ldr	r3, [r3]
	ldr	r3, [r3, #160]
	.loc 3 2220 141
	add	r3, r3, r2
	.loc 3 2220 96
	ldr	r3, [r3]
	.loc 3 2220 178
	bic	r3, r3, #15
	.loc 3 2220 43
	ldr	r2, .L331
	ldr	r2, [r2]
	ldr	r1, [r2]
	.loc 3 2220 66
	ldr	r2, .L331
	ldr	r2, [r2]
	ldr	r2, [r2, #160]
	.loc 3 2220 55
	add	r2, r2, r1
	.loc 3 2220 201
	orr	r3, r3, #2
	.loc 3 2220 92
	str	r3, [r2]
	.loc 3 2230 1
	b	.L330
.L328:
	.loc 3 2225 146
	mov	r3, #369098752
	add	r3, r3, #4096
	ldr	r3, [r3, #2120]
	.loc 3 2225 177
	bic	r2, r3, #768
	.loc 3 2226 65
	ldr	r3, .L331
	ldr	r3, [r3]
	ldr	r1, [r3]
	.loc 3 2226 88
	ldr	r3, .L331
	ldr	r3, [r3]
	ldr	r3, [r3, #156]
	.loc 3 2226 77
	add	r3, r3, r1
	.loc 3 2226 32
	ldr	r3, [r3]
	.loc 3 2226 114
	and	r3, r3, #768
	.loc 3 2225 43
	ldr	r1, .L331
	ldr	r1, [r1]
	ldr	r0, [r1]
	.loc 3 2225 66
	ldr	r1, .L331
	ldr	r1, [r1]
	ldr	r1, [r1, #156]
	.loc 3 2225 55
	add	r1, r1, r0
	.loc 3 2225 218
	orrs	r3, r3, r2
	.loc 3 2225 92
	str	r3, [r1]
	.loc 3 2228 145
	mov	r1, #369098752
	.loc 3 2228 43
	ldr	r3, .L331
	ldr	r3, [r3]
	ldr	r2, [r3]
	.loc 3 2228 66
	ldr	r3, .L331
	ldr	r3, [r3]
	ldr	r3, [r3, #160]
	.loc 3 2228 55
	add	r3, r3, r2
	.loc 3 2228 11
	mov	r2, r3
	.loc 3 2228 145
	add	r3, r1, #4096
	ldr	r3, [r3, #2116]
	.loc 3 2228 92
	str	r3, [r2]
.L330:
	.loc 3 2230 1
	nop
	pop	{r7, pc}
.L332:
	.align	2
.L331:
	.word	cy_device
	.cfi_endproc
.LFE193:
	.size	SetReadMarginTrimUlp, .-SetReadMarginTrimUlp
	.section	.text.SetReadMarginTrimLp,"ax",%progbits
	.align	1
	.syntax unified
	.thumb
	.thumb_func
	.type	SetReadMarginTrimLp, %function
SetReadMarginTrimLp:
.LFB194:
	.loc 3 2243 1
	.cfi_startproc
	@ args = 0, pretend = 0, frame = 0
	@ frame_needed = 1, uses_anonymous_args = 0
	push	{r7, lr}
.LCFI180:
	.cfi_def_cfa_offset 8
	.cfi_offset 7, -8
	.cfi_offset 14, -4
	add	r7, sp, #0
.LCFI181:
	.cfi_def_cfa_register 7
	.loc 3 2245 9
	bl	Cy_SysLib_GetDevice
	mov	r3, r0
	.loc 3 2245 8
	cmp	r3, #256
	bne	.L334
	.loc 3 2247 129
	ldr	r3, .L337
	ldr	r3, [r3]
	ldr	r2, [r3]
	.loc 3 2247 152
	ldr	r3, .L337
	ldr	r3, [r3]
	ldr	r3, [r3, #156]
	.loc 3 2247 141
	add	r3, r3, r2
	.loc 3 2247 96
	ldr	r3, [r3]
	.loc 3 2247 178
	bic	r3, r3, #15
	.loc 3 2247 43
	ldr	r2, .L337
	ldr	r2, [r2]
	ldr	r1, [r2]
	.loc 3 2247 66
	ldr	r2, .L337
	ldr	r2, [r2]
	ldr	r2, [r2, #156]
	.loc 3 2247 55
	add	r2, r2, r1
	.loc 3 2247 201
	orr	r3, r3, #3
	.loc 3 2247 92
	str	r3, [r2]
	.loc 3 2250 129
	ldr	r3, .L337
	ldr	r3, [r3]
	ldr	r2, [r3]
	.loc 3 2250 152
	ldr	r3, .L337
	ldr	r3, [r3]
	ldr	r3, [r3, #160]
	.loc 3 2250 141
	add	r3, r3, r2
	.loc 3 2250 96
	ldr	r3, [r3]
	.loc 3 2250 178
	bic	r3, r3, #15
	.loc 3 2250 43
	ldr	r2, .L337
	ldr	r2, [r2]
	ldr	r1, [r2]
	.loc 3 2250 66
	ldr	r2, .L337
	ldr	r2, [r2]
	ldr	r2, [r2, #160]
	.loc 3 2250 55
	add	r2, r2, r1
	.loc 3 2250 201
	orr	r3, r3, #3
	.loc 3 2250 92
	str	r3, [r2]
	.loc 3 2260 1
	b	.L336
.L334:
	.loc 3 2255 146
	mov	r3, #369098752
	add	r3, r3, #4096
	ldr	r3, [r3, #2084]
	.loc 3 2255 171
	bic	r2, r3, #768
	.loc 3 2256 65
	ldr	r3, .L337
	ldr	r3, [r3]
	ldr	r1, [r3]
	.loc 3 2256 88
	ldr	r3, .L337
	ldr	r3, [r3]
	ldr	r3, [r3, #156]
	.loc 3 2256 77
	add	r3, r3, r1
	.loc 3 2256 32
	ldr	r3, [r3]
	.loc 3 2256 114
	and	r3, r3, #768
	.loc 3 2255 43
	ldr	r1, .L337
	ldr	r1, [r1]
	ldr	r0, [r1]
	.loc 3 2255 66
	ldr	r1, .L337
	ldr	r1, [r1]
	ldr	r1, [r1, #156]
	.loc 3 2255 55
	add	r1, r1, r0
	.loc 3 2255 212
	orrs	r3, r3, r2
	.loc 3 2255 92
	str	r3, [r1]
	.loc 3 2258 145
	mov	r1, #369098752
	.loc 3 2258 43
	ldr	r3, .L337
	ldr	r3, [r3]
	ldr	r2, [r3]
	.loc 3 2258 66
	ldr	r3, .L337
	ldr	r3, [r3]
	ldr	r3, [r3, #160]
	.loc 3 2258 55
	add	r3, r3, r2
	.loc 3 2258 11
	mov	r2, r3
	.loc 3 2258 145
	add	r3, r1, #4096
	ldr	r3, [r3, #2080]
	.loc 3 2258 92
	str	r3, [r2]
.L336:
	.loc 3 2260 1
	nop
	pop	{r7, pc}
.L338:
	.align	2
.L337:
	.word	cy_device
	.cfi_endproc
.LFE194:
	.size	SetReadMarginTrimLp, .-SetReadMarginTrimLp
	.section	.text.SetWriteAssistTrimUlp,"ax",%progbits
	.align	1
	.syntax unified
	.thumb
	.thumb_func
	.type	SetWriteAssistTrimUlp, %function
SetWriteAssistTrimUlp:
.LFB195:
	.loc 3 2273 1
	.cfi_startproc
	@ args = 0, pretend = 0, frame = 0
	@ frame_needed = 1, uses_anonymous_args = 0
	push	{r7, lr}
.LCFI182:
	.cfi_def_cfa_offset 8
	.cfi_offset 7, -8
	.cfi_offset 14, -4
	add	r7, sp, #0
.LCFI183:
	.cfi_def_cfa_register 7
	.loc 3 2275 9
	bl	Cy_SysLib_GetDevice
	mov	r3, r0
	.loc 3 2275 8
	cmp	r3, #256
	bne	.L340
	.loc 3 2277 129
	ldr	r3, .L343
	ldr	r3, [r3]
	ldr	r2, [r3]
	.loc 3 2277 152
	ldr	r3, .L343
	ldr	r3, [r3]
	ldr	r3, [r3, #156]
	.loc 3 2277 141
	add	r3, r3, r2
	.loc 3 2277 96
	ldr	r3, [r3]
	.loc 3 2277 178
	bic	r3, r3, #28672
	.loc 3 2277 43
	ldr	r2, .L343
	ldr	r2, [r2]
	ldr	r1, [r2]
	.loc 3 2277 66
	ldr	r2, .L343
	ldr	r2, [r2]
	ldr	r2, [r2, #156]
	.loc 3 2277 55
	add	r2, r2, r1
	.loc 3 2277 204
	orr	r3, r3, #24576
	.loc 3 2277 92
	str	r3, [r2]
	.loc 3 2285 1
	b	.L342
.L340:
	.loc 3 2282 146
	mov	r3, #369098752
	add	r3, r3, #4096
	ldr	r3, [r3, #2076]
	.loc 3 2282 172
	bic	r2, r3, #768
	.loc 3 2283 65
	ldr	r3, .L343
	ldr	r3, [r3]
	ldr	r1, [r3]
	.loc 3 2283 88
	ldr	r3, .L343
	ldr	r3, [r3]
	ldr	r3, [r3, #156]
	.loc 3 2283 77
	add	r3, r3, r1
	.loc 3 2283 32
	ldr	r3, [r3]
	.loc 3 2283 114
	and	r3, r3, #768
	.loc 3 2282 43
	ldr	r1, .L343
	ldr	r1, [r1]
	ldr	r0, [r1]
	.loc 3 2282 66
	ldr	r1, .L343
	ldr	r1, [r1]
	ldr	r1, [r1, #156]
	.loc 3 2282 55
	add	r1, r1, r0
	.loc 3 2282 213
	orrs	r3, r3, r2
	.loc 3 2282 92
	str	r3, [r1]
.L342:
	.loc 3 2285 1
	nop
	pop	{r7, pc}
.L344:
	.align	2
.L343:
	.word	cy_device
	.cfi_endproc
.LFE195:
	.size	SetWriteAssistTrimUlp, .-SetWriteAssistTrimUlp
	.section	.text.SetWriteAssistTrimLp,"ax",%progbits
	.align	1
	.syntax unified
	.thumb
	.thumb_func
	.type	SetWriteAssistTrimLp, %function
SetWriteAssistTrimLp:
.LFB196:
	.loc 3 2298 1
	.cfi_startproc
	@ args = 0, pretend = 0, frame = 0
	@ frame_needed = 1, uses_anonymous_args = 0
	push	{r7, lr}
.LCFI184:
	.cfi_def_cfa_offset 8
	.cfi_offset 7, -8
	.cfi_offset 14, -4
	add	r7, sp, #0
.LCFI185:
	.cfi_def_cfa_register 7
	.loc 3 2300 9
	bl	Cy_SysLib_GetDevice
	mov	r3, r0
	.loc 3 2300 8
	cmp	r3, #256
	bne	.L346
	.loc 3 2302 129
	ldr	r3, .L349
	ldr	r3, [r3]
	ldr	r2, [r3]
	.loc 3 2302 152
	ldr	r3, .L349
	ldr	r3, [r3]
	ldr	r3, [r3, #156]
	.loc 3 2302 141
	add	r3, r3, r2
	.loc 3 2302 96
	ldr	r3, [r3]
	.loc 3 2302 178
	bic	r3, r3, #28672
	.loc 3 2302 43
	ldr	r2, .L349
	ldr	r2, [r2]
	ldr	r1, [r2]
	.loc 3 2302 66
	ldr	r2, .L349
	ldr	r2, [r2]
	ldr	r2, [r2, #156]
	.loc 3 2302 55
	add	r2, r2, r1
	.loc 3 2302 204
	orr	r3, r3, #16384
	.loc 3 2302 92
	str	r3, [r2]
	.loc 3 2312 1
	b	.L348
.L346:
	.loc 3 2307 146
	mov	r3, #369098752
	add	r3, r3, #4096
	ldr	r3, [r3, #2128]
	.loc 3 2307 176
	bic	r2, r3, #768
	.loc 3 2308 65
	ldr	r3, .L349
	ldr	r3, [r3]
	ldr	r1, [r3]
	.loc 3 2308 88
	ldr	r3, .L349
	ldr	r3, [r3]
	ldr	r3, [r3, #156]
	.loc 3 2308 77
	add	r3, r3, r1
	.loc 3 2308 32
	ldr	r3, [r3]
	.loc 3 2308 114
	and	r3, r3, #768
	.loc 3 2307 43
	ldr	r1, .L349
	ldr	r1, [r1]
	ldr	r0, [r1]
	.loc 3 2307 66
	ldr	r1, .L349
	ldr	r1, [r1]
	ldr	r1, [r1, #156]
	.loc 3 2307 55
	add	r1, r1, r0
	.loc 3 2307 217
	orrs	r3, r3, r2
	.loc 3 2307 92
	str	r3, [r1]
	.loc 3 2310 145
	mov	r1, #369098752
	.loc 3 2310 43
	ldr	r3, .L349
	ldr	r3, [r3]
	ldr	r2, [r3]
	.loc 3 2310 66
	ldr	r3, .L349
	ldr	r3, [r3]
	ldr	r3, [r3, #160]
	.loc 3 2310 55
	add	r3, r3, r2
	.loc 3 2310 11
	mov	r2, r3
	.loc 3 2310 145
	add	r3, r1, #4096
	ldr	r3, [r3, #2124]
	.loc 3 2310 92
	str	r3, [r2]
.L348:
	.loc 3 2312 1
	nop
	pop	{r7, pc}
.L350:
	.align	2
.L349:
	.word	cy_device
	.cfi_endproc
.LFE196:
	.size	SetWriteAssistTrimLp, .-SetWriteAssistTrimLp
	.section	.text.IsVoltageChangePossible,"ax",%progbits
	.align	1
	.syntax unified
	.thumb
	.thumb_func
	.type	IsVoltageChangePossible, %function
IsVoltageChangePossible:
.LFB197:
	.loc 3 2325 1
	.cfi_startproc
	@ args = 0, pretend = 0, frame = 16
	@ frame_needed = 1, uses_anonymous_args = 0
	push	{r7, lr}
.LCFI186:
	.cfi_def_cfa_offset 8
	.cfi_offset 7, -8
	.cfi_offset 14, -4
	sub	sp, sp, #16
.LCFI187:
	.cfi_def_cfa_offset 24
	add	r7, sp, #0
.LCFI188:
	.cfi_def_cfa_register 7
	.loc 3 2326 9
	movs	r3, #0
	strb	r3, [r7, #15]
	.loc 3 2327 67
	ldr	r3, .L358
	ldr	r3, [r3]
	ldr	r2, [r3]
	.loc 3 2327 90
	ldr	r3, .L358
	ldr	r3, [r3]
	ldr	r3, [r3, #156]
	.loc 3 2327 79
	add	r3, r3, r2
	.loc 3 2327 34
	ldr	r3, [r3]
	.loc 3 2327 14
	and	r3, r3, #3072
	str	r3, [r7, #8]
	.loc 3 2330 9
	bl	Cy_SysLib_GetDevice
	mov	r3, r0
	.loc 3 2330 8
	cmp	r3, #256
	bne	.L352
.LBB14:
	.loc 3 2332 35
	movs	r0, #14
	bl	Cy_Prot_GetActivePC
	str	r0, [r7, #4]
	.loc 3 2334 20
	bl	Cy_SysLib_GetDeviceRevision
	mov	r3, r0
	.loc 3 2334 61
	cmp	r3, #34
	bhi	.L353
	.loc 3 2334 61 is_stmt 0 discriminator 2
	ldr	r3, [r7, #4]
	cmp	r3, #0
	bne	.L354
.L353:
	.loc 3 2334 61 discriminator 3
	movs	r3, #1
	b	.L355
.L354:
	.loc 3 2334 61 discriminator 4
	movs	r3, #0
.L355:
	.loc 3 2334 16 is_stmt 1 discriminator 6
	strb	r3, [r7, #15]
	ldrb	r3, [r7, #15]
	and	r3, r3, #1
	strb	r3, [r7, #15]
.LBE14:
	b	.L356
.L352:
	.loc 3 2338 43
	ldr	r3, .L358
	ldr	r3, [r3]
	ldr	r2, [r3]
	.loc 3 2338 66
	ldr	r3, .L358
	ldr	r3, [r3]
	ldr	r3, [r3, #156]
	.loc 3 2338 55
	add	r3, r3, r2
	.loc 3 2338 92
	ldr	r3, [r3]
	.loc 3 2338 43
	ldr	r2, .L358
	ldr	r2, [r2]
	ldr	r1, [r2]
	.loc 3 2338 66
	ldr	r2, .L358
	ldr	r2, [r2]
	ldr	r2, [r2, #156]
	.loc 3 2338 55
	add	r2, r2, r1
	.loc 3 2338 92
	bic	r3, r3, #3072
	str	r3, [r2]
	.loc 3 2339 43
	ldr	r3, .L358
	ldr	r3, [r3]
	ldr	r2, [r3]
	.loc 3 2339 66
	ldr	r3, .L358
	ldr	r3, [r3]
	ldr	r3, [r3, #156]
	.loc 3 2339 55
	add	r3, r3, r2
	.loc 3 2339 92
	ldr	r2, [r3]
	.loc 3 2339 97
	ldr	r3, [r7, #8]
	mvns	r3, r3
	.loc 3 2339 115
	and	r3, r3, #3072
	.loc 3 2339 43
	ldr	r1, .L358
	ldr	r1, [r1]
	ldr	r0, [r1]
	.loc 3 2339 66
	ldr	r1, .L358
	ldr	r1, [r1]
	ldr	r1, [r1, #156]
	.loc 3 2339 55
	add	r1, r1, r0
	.loc 3 2339 92
	orrs	r3, r3, r2
	str	r3, [r1]
	.loc 3 2341 73
	ldr	r3, .L358
	ldr	r3, [r3]
	ldr	r2, [r3]
	.loc 3 2341 96
	ldr	r3, .L358
	ldr	r3, [r3]
	ldr	r3, [r3, #156]
	.loc 3 2341 85
	add	r3, r3, r2
	.loc 3 2341 40
	ldr	r3, [r3]
	.loc 3 2341 122
	and	r3, r3, #3072
	.loc 3 2341 16
	ldr	r2, [r7, #8]
	cmp	r2, r3
	ite	ne
	movne	r3, #1
	moveq	r3, #0
	strb	r3, [r7, #15]
.L356:
	.loc 3 2344 12
	ldrb	r3, [r7, #15]	@ zero_extendqisi2
	.loc 3 2345 1
	mov	r0, r3
	adds	r7, r7, #16
.LCFI189:
	.cfi_def_cfa_offset 8
	mov	sp, r7
.LCFI190:
	.cfi_def_cfa_register 13
	@ sp needed
	pop	{r7, pc}
.L359:
	.align	2
.L358:
	.word	cy_device
	.cfi_endproc
.LFE197:
	.size	IsVoltageChangePossible, .-IsVoltageChangePossible
	.section	.text.Cy_SysPm_Cm4IsActive,"ax",%progbits
	.align	1
	.global	Cy_SysPm_Cm4IsActive
	.syntax unified
	.thumb
	.thumb_func
	.type	Cy_SysPm_Cm4IsActive, %function
Cy_SysPm_Cm4IsActive:
.LFB198:
	.loc 3 2351 1
	.cfi_startproc
	@ args = 0, pretend = 0, frame = 0
	@ frame_needed = 1, uses_anonymous_args = 0
	push	{r7, lr}
.LCFI191:
	.cfi_def_cfa_offset 8
	.cfi_offset 7, -8
	.cfi_offset 14, -4
	add	r7, sp, #0
.LCFI192:
	.cfi_def_cfa_register 7
	.loc 3 2352 14
	bl	Cy_SysPm_ReadStatus
	mov	r3, r0
	.loc 3 2352 36
	and	r3, r3, #1
	.loc 3 2352 47
	cmp	r3, #0
	ite	ne
	movne	r3, #1
	moveq	r3, #0
	uxtb	r3, r3
	.loc 3 2353 1
	mov	r0, r3
	pop	{r7, pc}
	.cfi_endproc
.LFE198:
	.size	Cy_SysPm_Cm4IsActive, .-Cy_SysPm_Cm4IsActive
	.section	.text.Cy_SysPm_Cm4IsSleep,"ax",%progbits
	.align	1
	.global	Cy_SysPm_Cm4IsSleep
	.syntax unified
	.thumb
	.thumb_func
	.type	Cy_SysPm_Cm4IsSleep, %function
Cy_SysPm_Cm4IsSleep:
.LFB199:
	.loc 3 2357 1
	.cfi_startproc
	@ args = 0, pretend = 0, frame = 0
	@ frame_needed = 1, uses_anonymous_args = 0
	push	{r7, lr}
.LCFI193:
	.cfi_def_cfa_offset 8
	.cfi_offset 7, -8
	.cfi_offset 14, -4
	add	r7, sp, #0
.LCFI194:
	.cfi_def_cfa_register 7
	.loc 3 2358 14
	bl	Cy_SysPm_ReadStatus
	mov	r3, r0
	.loc 3 2358 36
	and	r3, r3, #2
	.loc 3 2358 47
	cmp	r3, #0
	ite	ne
	movne	r3, #1
	moveq	r3, #0
	uxtb	r3, r3
	.loc 3 2359 1
	mov	r0, r3
	pop	{r7, pc}
	.cfi_endproc
.LFE199:
	.size	Cy_SysPm_Cm4IsSleep, .-Cy_SysPm_Cm4IsSleep
	.section	.text.Cy_SysPm_Cm4IsDeepSleep,"ax",%progbits
	.align	1
	.global	Cy_SysPm_Cm4IsDeepSleep
	.syntax unified
	.thumb
	.thumb_func
	.type	Cy_SysPm_Cm4IsDeepSleep, %function
Cy_SysPm_Cm4IsDeepSleep:
.LFB200:
	.loc 3 2363 1
	.cfi_startproc
	@ args = 0, pretend = 0, frame = 0
	@ frame_needed = 1, uses_anonymous_args = 0
	push	{r7, lr}
.LCFI195:
	.cfi_def_cfa_offset 8
	.cfi_offset 7, -8
	.cfi_offset 14, -4
	add	r7, sp, #0
.LCFI196:
	.cfi_def_cfa_register 7
	.loc 3 2364 14
	bl	Cy_SysPm_ReadStatus
	mov	r3, r0
	.loc 3 2364 36
	and	r3, r3, #4
	.loc 3 2364 47
	cmp	r3, #0
	ite	ne
	movne	r3, #1
	moveq	r3, #0
	uxtb	r3, r3
	.loc 3 2365 1
	mov	r0, r3
	pop	{r7, pc}
	.cfi_endproc
.LFE200:
	.size	Cy_SysPm_Cm4IsDeepSleep, .-Cy_SysPm_Cm4IsDeepSleep
	.section	.text.Cy_SysPm_Cm0IsActive,"ax",%progbits
	.align	1
	.global	Cy_SysPm_Cm0IsActive
	.syntax unified
	.thumb
	.thumb_func
	.type	Cy_SysPm_Cm0IsActive, %function
Cy_SysPm_Cm0IsActive:
.LFB201:
	.loc 3 2369 1
	.cfi_startproc
	@ args = 0, pretend = 0, frame = 0
	@ frame_needed = 1, uses_anonymous_args = 0
	push	{r7, lr}
.LCFI197:
	.cfi_def_cfa_offset 8
	.cfi_offset 7, -8
	.cfi_offset 14, -4
	add	r7, sp, #0
.LCFI198:
	.cfi_def_cfa_register 7
	.loc 3 2370 14
	bl	Cy_SysPm_ReadStatus
	mov	r3, r0
	.loc 3 2370 36
	and	r3, r3, #256
	.loc 3 2370 64
	cmp	r3, #0
	ite	ne
	movne	r3, #1
	moveq	r3, #0
	uxtb	r3, r3
	.loc 3 2371 1
	mov	r0, r3
	pop	{r7, pc}
	.cfi_endproc
.LFE201:
	.size	Cy_SysPm_Cm0IsActive, .-Cy_SysPm_Cm0IsActive
	.section	.text.Cy_SysPm_Cm0IsSleep,"ax",%progbits
	.align	1
	.global	Cy_SysPm_Cm0IsSleep
	.syntax unified
	.thumb
	.thumb_func
	.type	Cy_SysPm_Cm0IsSleep, %function
Cy_SysPm_Cm0IsSleep:
.LFB202:
	.loc 3 2374 1
	.cfi_startproc
	@ args = 0, pretend = 0, frame = 0
	@ frame_needed = 1, uses_anonymous_args = 0
	push	{r7, lr}
.LCFI199:
	.cfi_def_cfa_offset 8
	.cfi_offset 7, -8
	.cfi_offset 14, -4
	add	r7, sp, #0
.LCFI200:
	.cfi_def_cfa_register 7
	.loc 3 2375 13
	bl	Cy_SysPm_ReadStatus
	mov	r3, r0
	.loc 3 2375 35
	and	r3, r3, #512
	.loc 3 2375 63
	cmp	r3, #0
	ite	ne
	movne	r3, #1
	moveq	r3, #0
	uxtb	r3, r3
	.loc 3 2376 1
	mov	r0, r3
	pop	{r7, pc}
	.cfi_endproc
.LFE202:
	.size	Cy_SysPm_Cm0IsSleep, .-Cy_SysPm_Cm0IsSleep
	.section	.text.Cy_SysPm_Cm0IsDeepSleep,"ax",%progbits
	.align	1
	.global	Cy_SysPm_Cm0IsDeepSleep
	.syntax unified
	.thumb
	.thumb_func
	.type	Cy_SysPm_Cm0IsDeepSleep, %function
Cy_SysPm_Cm0IsDeepSleep:
.LFB203:
	.loc 3 2380 1
	.cfi_startproc
	@ args = 0, pretend = 0, frame = 0
	@ frame_needed = 1, uses_anonymous_args = 0
	push	{r7, lr}
.LCFI201:
	.cfi_def_cfa_offset 8
	.cfi_offset 7, -8
	.cfi_offset 14, -4
	add	r7, sp, #0
.LCFI202:
	.cfi_def_cfa_register 7
	.loc 3 2381 13
	bl	Cy_SysPm_ReadStatus
	mov	r3, r0
	.loc 3 2381 35
	and	r3, r3, #1024
	.loc 3 2381 63
	cmp	r3, #0
	ite	ne
	movne	r3, #1
	moveq	r3, #0
	uxtb	r3, r3
	.loc 3 2382 1
	mov	r0, r3
	pop	{r7, pc}
	.cfi_endproc
.LFE203:
	.size	Cy_SysPm_Cm0IsDeepSleep, .-Cy_SysPm_Cm0IsDeepSleep
	.section	.text.Cy_SysPm_IsSystemLp,"ax",%progbits
	.align	1
	.global	Cy_SysPm_IsSystemLp
	.syntax unified
	.thumb
	.thumb_func
	.type	Cy_SysPm_IsSystemLp, %function
Cy_SysPm_IsSystemLp:
.LFB204:
	.loc 3 2386 1
	.cfi_startproc
	@ args = 0, pretend = 0, frame = 0
	@ frame_needed = 1, uses_anonymous_args = 0
	push	{r7, lr}
.LCFI203:
	.cfi_def_cfa_offset 8
	.cfi_offset 7, -8
	.cfi_offset 14, -4
	add	r7, sp, #0
.LCFI204:
	.cfi_def_cfa_register 7
	.loc 3 2387 13
	bl	Cy_SysPm_ReadStatus
	mov	r3, r0
	.loc 3 2387 35
	and	r3, r3, #128
	.loc 3 2387 46
	cmp	r3, #0
	ite	ne
	movne	r3, #1
	moveq	r3, #0
	uxtb	r3, r3
	.loc 3 2388 1
	mov	r0, r3
	pop	{r7, pc}
	.cfi_endproc
.LFE204:
	.size	Cy_SysPm_IsSystemLp, .-Cy_SysPm_IsSystemLp
	.section	.text.Cy_SysPm_IsSystemUlp,"ax",%progbits
	.align	1
	.global	Cy_SysPm_IsSystemUlp
	.syntax unified
	.thumb
	.thumb_func
	.type	Cy_SysPm_IsSystemUlp, %function
Cy_SysPm_IsSystemUlp:
.LFB205:
	.loc 3 2392 1
	.cfi_startproc
	@ args = 0, pretend = 0, frame = 0
	@ frame_needed = 1, uses_anonymous_args = 0
	push	{r7, lr}
.LCFI205:
	.cfi_def_cfa_offset 8
	.cfi_offset 7, -8
	.cfi_offset 14, -4
	add	r7, sp, #0
.LCFI206:
	.cfi_def_cfa_register 7
	.loc 3 2393 13
	bl	Cy_SysPm_ReadStatus
	mov	r3, r0
	.loc 3 2393 35
	and	r3, r3, #2048
	.loc 3 2393 63
	cmp	r3, #0
	ite	ne
	movne	r3, #1
	moveq	r3, #0
	uxtb	r3, r3
	.loc 3 2394 1
	mov	r0, r3
	pop	{r7, pc}
	.cfi_endproc
.LFE205:
	.size	Cy_SysPm_IsSystemUlp, .-Cy_SysPm_IsSystemUlp
	.section	.text.Cy_SysPm_CpuSendWakeupEvent,"ax",%progbits
	.align	1
	.global	Cy_SysPm_CpuSendWakeupEvent
	.syntax unified
	.thumb
	.thumb_func
	.type	Cy_SysPm_CpuSendWakeupEvent, %function
Cy_SysPm_CpuSendWakeupEvent:
.LFB206:
	.loc 3 2398 1
	.cfi_startproc
	@ args = 0, pretend = 0, frame = 0
	@ frame_needed = 1, uses_anonymous_args = 0
	@ link register save eliminated.
	push	{r7}
.LCFI207:
	.cfi_def_cfa_offset 4
	.cfi_offset 7, -4
	add	r7, sp, #0
.LCFI208:
	.cfi_def_cfa_register 7
	.loc 3 2399 5
	.syntax unified
@ 2399 "libraries\IFX_PSOC6_HAL\mtb-pdl-cat1\drivers\source\cy_syspm.c" 1
	sev
@ 0 "" 2
	.loc 3 2400 1
	.thumb
	.syntax unified
	nop
	mov	sp, r7
.LCFI209:
	.cfi_def_cfa_register 13
	@ sp needed
	ldr	r7, [sp], #4
.LCFI210:
	.cfi_restore 7
	.cfi_def_cfa_offset 0
	bx	lr
	.cfi_endproc
.LFE206:
	.size	Cy_SysPm_CpuSendWakeupEvent, .-Cy_SysPm_CpuSendWakeupEvent
	.section	.text.Cy_SysPm_SystemIsMinRegulatorCurrentSet,"ax",%progbits
	.align	1
	.global	Cy_SysPm_SystemIsMinRegulatorCurrentSet
	.syntax unified
	.thumb
	.thumb_func
	.type	Cy_SysPm_SystemIsMinRegulatorCurrentSet, %function
Cy_SysPm_SystemIsMinRegulatorCurrentSet:
.LFB207:
	.loc 3 2404 1
	.cfi_startproc
	@ args = 0, pretend = 0, frame = 8
	@ frame_needed = 1, uses_anonymous_args = 0
	push	{r7, lr}
.LCFI211:
	.cfi_def_cfa_offset 8
	.cfi_offset 7, -8
	.cfi_offset 14, -4
	sub	sp, sp, #8
.LCFI212:
	.cfi_def_cfa_offset 16
	add	r7, sp, #0
.LCFI213:
	.cfi_def_cfa_register 7
	.loc 3 2405 24
	bl	Cy_SysPm_LdoIsEnabled
	mov	r3, r0
	.loc 3 2405 122
	cmp	r3, #0
	beq	.L378
	.loc 3 2405 122 is_stmt 0 discriminator 1
	ldr	r3, .L381
	b	.L379
.L378:
	.loc 3 2405 122 discriminator 2
	ldr	r3, .L381+4
.L379:
	.loc 3 2405 14 is_stmt 1 discriminator 4
	str	r3, [r7, #4]
	.loc 3 2407 61 discriminator 4
	ldr	r3, .L381+8
	ldr	r2, [r3]
	.loc 3 2407 72 discriminator 4
	ldr	r3, [r7, #4]
	ands	r3, r3, r2
	.loc 3 2407 83 discriminator 4
	ldr	r2, [r7, #4]
	cmp	r2, r3
	ite	eq
	moveq	r3, #1
	movne	r3, #0
	uxtb	r3, r3
	.loc 3 2408 1 discriminator 4
	mov	r0, r3
	adds	r7, r7, #8
.LCFI214:
	.cfi_def_cfa_offset 8
	mov	sp, r7
.LCFI215:
	.cfi_def_cfa_register 13
	@ sp needed
	pop	{r7, pc}
.L382:
	.align	2
.L381:
	.word	1392771072
	.word	1375993856
	.word	1076232192
	.cfi_endproc
.LFE207:
	.size	Cy_SysPm_SystemIsMinRegulatorCurrentSet, .-Cy_SysPm_SystemIsMinRegulatorCurrentSet
	.section	.text.Cy_SysPm_BuckIsEnabled,"ax",%progbits
	.align	1
	.global	Cy_SysPm_BuckIsEnabled
	.syntax unified
	.thumb
	.thumb_func
	.type	Cy_SysPm_BuckIsEnabled, %function
Cy_SysPm_BuckIsEnabled:
.LFB208:
	.loc 3 2412 1
	.cfi_startproc
	@ args = 0, pretend = 0, frame = 0
	@ frame_needed = 1, uses_anonymous_args = 0
	@ link register save eliminated.
	push	{r7}
.LCFI216:
	.cfi_def_cfa_offset 4
	.cfi_offset 7, -4
	add	r7, sp, #0
.LCFI217:
	.cfi_def_cfa_register 7
	.loc 3 2413 79
	ldr	r3, .L385
	ldr	r3, [r3, #20]
	.loc 3 2413 16
	and	r3, r3, #1073741824
	cmp	r3, #0
	ite	ne
	movne	r3, #1
	moveq	r3, #0
	uxtb	r3, r3
	.loc 3 2414 1
	mov	r0, r3
	mov	sp, r7
.LCFI218:
	.cfi_def_cfa_register 13
	@ sp needed
	ldr	r7, [sp], #4
.LCFI219:
	.cfi_restore 7
	.cfi_def_cfa_offset 0
	bx	lr
.L386:
	.align	2
.L385:
	.word	1076232192
	.cfi_endproc
.LFE208:
	.size	Cy_SysPm_BuckIsEnabled, .-Cy_SysPm_BuckIsEnabled
	.section	.text.Cy_SysPm_BuckGetVoltage1,"ax",%progbits
	.align	1
	.global	Cy_SysPm_BuckGetVoltage1
	.syntax unified
	.thumb
	.thumb_func
	.type	Cy_SysPm_BuckGetVoltage1, %function
Cy_SysPm_BuckGetVoltage1:
.LFB209:
	.loc 3 2418 1
	.cfi_startproc
	@ args = 0, pretend = 0, frame = 8
	@ frame_needed = 1, uses_anonymous_args = 0
	@ link register save eliminated.
	push	{r7}
.LCFI220:
	.cfi_def_cfa_offset 4
	.cfi_offset 7, -4
	sub	sp, sp, #12
.LCFI221:
	.cfi_def_cfa_offset 16
	add	r7, sp, #0
.LCFI222:
	.cfi_def_cfa_register 7
	.loc 3 2420 74
	ldr	r3, .L389
	ldr	r3, [r3, #20]
	.loc 3 2420 12
	and	r3, r3, #7
	str	r3, [r7, #4]
	.loc 3 2422 13
	ldr	r3, [r7, #4]
	uxtb	r3, r3
	.loc 3 2423 1
	mov	r0, r3
	adds	r7, r7, #12
.LCFI223:
	.cfi_def_cfa_offset 4
	mov	sp, r7
.LCFI224:
	.cfi_def_cfa_register 13
	@ sp needed
	ldr	r7, [sp], #4
.LCFI225:
	.cfi_restore 7
	.cfi_def_cfa_offset 0
	bx	lr
.L390:
	.align	2
.L389:
	.word	1076232192
	.cfi_endproc
.LFE209:
	.size	Cy_SysPm_BuckGetVoltage1, .-Cy_SysPm_BuckGetVoltage1
	.section	.text.Cy_SysPm_BuckGetVoltage2,"ax",%progbits
	.align	1
	.global	Cy_SysPm_BuckGetVoltage2
	.syntax unified
	.thumb
	.thumb_func
	.type	Cy_SysPm_BuckGetVoltage2, %function
Cy_SysPm_BuckGetVoltage2:
.LFB210:
	.loc 3 2427 1
	.cfi_startproc
	@ args = 0, pretend = 0, frame = 8
	@ frame_needed = 1, uses_anonymous_args = 0
	@ link register save eliminated.
	push	{r7}
.LCFI226:
	.cfi_def_cfa_offset 4
	.cfi_offset 7, -4
	sub	sp, sp, #12
.LCFI227:
	.cfi_def_cfa_offset 16
	add	r7, sp, #0
.LCFI228:
	.cfi_def_cfa_register 7
	.loc 3 2428 14
	movs	r3, #0
	str	r3, [r7, #4]
	.loc 3 2430 24
	ldr	r3, .L394
	ldr	r3, [r3]
	ldrb	r3, [r3, #71]	@ zero_extendqisi2
	.loc 3 2430 8
	cmp	r3, #0
	beq	.L392
	.loc 3 2432 78
	ldr	r3, .L394+4
	ldr	r3, [r3, #24]
	.loc 3 2432 16
	and	r3, r3, #7
	str	r3, [r7, #4]
.L392:
	.loc 3 2435 13
	ldr	r3, [r7, #4]
	uxtb	r3, r3
	.loc 3 2436 1
	mov	r0, r3
	adds	r7, r7, #12
.LCFI229:
	.cfi_def_cfa_offset 4
	mov	sp, r7
.LCFI230:
	.cfi_def_cfa_register 13
	@ sp needed
	ldr	r7, [sp], #4
.LCFI231:
	.cfi_restore 7
	.cfi_def_cfa_offset 0
	bx	lr
.L395:
	.align	2
.L394:
	.word	cy_device
	.word	1076232192
	.cfi_endproc
.LFE210:
	.size	Cy_SysPm_BuckGetVoltage2, .-Cy_SysPm_BuckGetVoltage2
	.section	.text.Cy_SysPm_BuckDisableVoltage2,"ax",%progbits
	.align	1
	.global	Cy_SysPm_BuckDisableVoltage2
	.syntax unified
	.thumb
	.thumb_func
	.type	Cy_SysPm_BuckDisableVoltage2, %function
Cy_SysPm_BuckDisableVoltage2:
.LFB211:
	.loc 3 2440 1
	.cfi_startproc
	@ args = 0, pretend = 0, frame = 0
	@ frame_needed = 1, uses_anonymous_args = 0
	@ link register save eliminated.
	push	{r7}
.LCFI232:
	.cfi_def_cfa_offset 4
	.cfi_offset 7, -4
	add	r7, sp, #0
.LCFI233:
	.cfi_def_cfa_register 7
	.loc 3 2445 24
	ldr	r3, .L399
	ldr	r3, [r3]
	ldrb	r3, [r3, #71]	@ zero_extendqisi2
	.loc 3 2445 8
	cmp	r3, #0
	beq	.L398
	.loc 3 2448 73
	ldr	r3, .L399+4
	ldr	r3, [r3, #24]
	ldr	r2, .L399+4
	bic	r3, r3, #-2147483648
	str	r3, [r2, #24]
.L398:
	.loc 3 2451 1
	nop
	mov	sp, r7
.LCFI234:
	.cfi_def_cfa_register 13
	@ sp needed
	ldr	r7, [sp], #4
.LCFI235:
	.cfi_restore 7
	.cfi_def_cfa_offset 0
	bx	lr
.L400:
	.align	2
.L399:
	.word	cy_device
	.word	1076232192
	.cfi_endproc
.LFE211:
	.size	Cy_SysPm_BuckDisableVoltage2, .-Cy_SysPm_BuckDisableVoltage2
	.section	.text.Cy_SysPm_BuckSetVoltage2HwControl,"ax",%progbits
	.align	1
	.global	Cy_SysPm_BuckSetVoltage2HwControl
	.syntax unified
	.thumb
	.thumb_func
	.type	Cy_SysPm_BuckSetVoltage2HwControl, %function
Cy_SysPm_BuckSetVoltage2HwControl:
.LFB212:
	.loc 3 2455 1
	.cfi_startproc
	@ args = 0, pretend = 0, frame = 16
	@ frame_needed = 1, uses_anonymous_args = 0
	push	{r7, lr}
.LCFI236:
	.cfi_def_cfa_offset 8
	.cfi_offset 7, -8
	.cfi_offset 14, -4
	sub	sp, sp, #16
.LCFI237:
	.cfi_def_cfa_offset 24
	add	r7, sp, #0
.LCFI238:
	.cfi_def_cfa_register 7
	mov	r3, r0
	strb	r3, [r7, #7]
	.loc 3 2461 25
	bl	Cy_SysPm_BuckIsEnabled
	mov	r3, r0
	strb	r3, [r7, #15]
	.loc 3 2463 25
	ldr	r3, .L405
	ldr	r3, [r3]
	ldrb	r3, [r3, #71]	@ zero_extendqisi2
	.loc 3 2463 8
	cmp	r3, #0
	beq	.L404
	.loc 3 2463 45 discriminator 1
	ldrb	r3, [r7, #15]	@ zero_extendqisi2
	cmp	r3, #0
	beq	.L404
	.loc 3 2465 11
	ldrb	r3, [r7, #7]	@ zero_extendqisi2
	cmp	r3, #0
	beq	.L403
	.loc 3 2467 77
	ldr	r3, .L405+4
	ldr	r3, [r3, #24]
	ldr	r2, .L405+4
	orr	r3, r3, #1073741824
	str	r3, [r2, #24]
	.loc 3 2475 1
	b	.L404
.L403:
	.loc 3 2471 77
	ldr	r3, .L405+4
	ldr	r3, [r3, #24]
	ldr	r2, .L405+4
	bic	r3, r3, #1073741824
	str	r3, [r2, #24]
.L404:
	.loc 3 2475 1
	nop
	adds	r7, r7, #16
.LCFI239:
	.cfi_def_cfa_offset 8
	mov	sp, r7
.LCFI240:
	.cfi_def_cfa_register 13
	@ sp needed
	pop	{r7, pc}
.L406:
	.align	2
.L405:
	.word	cy_device
	.word	1076232192
	.cfi_endproc
.LFE212:
	.size	Cy_SysPm_BuckSetVoltage2HwControl, .-Cy_SysPm_BuckSetVoltage2HwControl
	.section	.text.Cy_SysPm_BuckIsVoltage2HwControlled,"ax",%progbits
	.align	1
	.global	Cy_SysPm_BuckIsVoltage2HwControlled
	.syntax unified
	.thumb
	.thumb_func
	.type	Cy_SysPm_BuckIsVoltage2HwControlled, %function
Cy_SysPm_BuckIsVoltage2HwControlled:
.LFB213:
	.loc 3 2479 1
	.cfi_startproc
	@ args = 0, pretend = 0, frame = 8
	@ frame_needed = 1, uses_anonymous_args = 0
	@ link register save eliminated.
	push	{r7}
.LCFI241:
	.cfi_def_cfa_offset 4
	.cfi_offset 7, -4
	sub	sp, sp, #12
.LCFI242:
	.cfi_def_cfa_offset 16
	add	r7, sp, #0
.LCFI243:
	.cfi_def_cfa_register 7
	.loc 3 2480 9
	movs	r3, #0
	strb	r3, [r7, #7]
	.loc 3 2482 24
	ldr	r3, .L410
	ldr	r3, [r3]
	ldrb	r3, [r3, #71]	@ zero_extendqisi2
	.loc 3 2482 8
	cmp	r3, #0
	beq	.L408
	.loc 3 2484 85
	ldr	r3, .L410+4
	ldr	r3, [r3, #24]
	.loc 3 2484 22
	and	r3, r3, #1073741824
	.loc 3 2484 16
	cmp	r3, #0
	ite	ne
	movne	r3, #1
	moveq	r3, #0
	strb	r3, [r7, #7]
.L408:
	.loc 3 2487 12
	ldrb	r3, [r7, #7]	@ zero_extendqisi2
	.loc 3 2488 1
	mov	r0, r3
	adds	r7, r7, #12
.LCFI244:
	.cfi_def_cfa_offset 4
	mov	sp, r7
.LCFI245:
	.cfi_def_cfa_register 13
	@ sp needed
	ldr	r7, [sp], #4
.LCFI246:
	.cfi_restore 7
	.cfi_def_cfa_offset 0
	bx	lr
.L411:
	.align	2
.L410:
	.word	cy_device
	.word	1076232192
	.cfi_endproc
.LFE213:
	.size	Cy_SysPm_BuckIsVoltage2HwControlled, .-Cy_SysPm_BuckIsVoltage2HwControlled
	.section	.text.Cy_SysPm_LdoGetVoltage,"ax",%progbits
	.align	1
	.global	Cy_SysPm_LdoGetVoltage
	.syntax unified
	.thumb
	.thumb_func
	.type	Cy_SysPm_LdoGetVoltage, %function
Cy_SysPm_LdoGetVoltage:
.LFB214:
	.loc 3 2492 1
	.cfi_startproc
	@ args = 0, pretend = 0, frame = 8
	@ frame_needed = 1, uses_anonymous_args = 0
	@ link register save eliminated.
	push	{r7}
.LCFI247:
	.cfi_def_cfa_offset 4
	.cfi_offset 7, -4
	sub	sp, sp, #12
.LCFI248:
	.cfi_def_cfa_offset 16
	add	r7, sp, #0
.LCFI249:
	.cfi_def_cfa_register 7
	.loc 3 2495 78
	ldr	r3, .L414
	add	r3, r3, #61440
	ldr	r3, [r3, #3868]
	.loc 3 2495 16
	and	r3, r3, #31
	str	r3, [r7, #4]
	.loc 3 2497 80
	mov	r3, #369098752
	ldrb	r3, [r3, #1856]
	uxtb	r3, r3
	mov	r2, r3
	.loc 3 2497 126
	ldr	r3, [r7, #4]
	cmp	r3, r2
	ite	ne
	movne	r3, #1
	moveq	r3, #0
	uxtb	r3, r3
	.loc 3 2498 1
	mov	r0, r3
	adds	r7, r7, #12
.LCFI250:
	.cfi_def_cfa_offset 4
	mov	sp, r7
.LCFI251:
	.cfi_def_cfa_register 13
	@ sp needed
	ldr	r7, [sp], #4
.LCFI252:
	.cfi_restore 7
	.cfi_def_cfa_offset 0
	bx	lr
.L415:
	.align	2
.L414:
	.word	1076232192
	.cfi_endproc
.LFE214:
	.size	Cy_SysPm_LdoGetVoltage, .-Cy_SysPm_LdoGetVoltage
	.section	.text.Cy_SysPm_LdoIsEnabled,"ax",%progbits
	.align	1
	.global	Cy_SysPm_LdoIsEnabled
	.syntax unified
	.thumb
	.thumb_func
	.type	Cy_SysPm_LdoIsEnabled, %function
Cy_SysPm_LdoIsEnabled:
.LFB215:
	.loc 3 2502 1
	.cfi_startproc
	@ args = 0, pretend = 0, frame = 0
	@ frame_needed = 1, uses_anonymous_args = 0
	@ link register save eliminated.
	push	{r7}
.LCFI253:
	.cfi_def_cfa_offset 4
	.cfi_offset 7, -4
	add	r7, sp, #0
.LCFI254:
	.cfi_def_cfa_register 7
	.loc 3 2503 80
	ldr	r3, .L418
	ldr	r3, [r3]
	.loc 3 2503 17
	and	r3, r3, #8388608
	.loc 3 2503 76
	cmp	r3, #0
	ite	eq
	moveq	r3, #1
	movne	r3, #0
	uxtb	r3, r3
	.loc 3 2504 1
	mov	r0, r3
	mov	sp, r7
.LCFI255:
	.cfi_def_cfa_register 13
	@ sp needed
	ldr	r7, [sp], #4
.LCFI256:
	.cfi_restore 7
	.cfi_def_cfa_offset 0
	bx	lr
.L419:
	.align	2
.L418:
	.word	1076232192
	.cfi_endproc
.LFE215:
	.size	Cy_SysPm_LdoIsEnabled, .-Cy_SysPm_LdoIsEnabled
	.section	.text.Cy_SysPm_IoIsFrozen,"ax",%progbits
	.align	1
	.global	Cy_SysPm_IoIsFrozen
	.syntax unified
	.thumb
	.thumb_func
	.type	Cy_SysPm_IoIsFrozen, %function
Cy_SysPm_IoIsFrozen:
.LFB216:
	.loc 3 2508 1
	.cfi_startproc
	@ args = 0, pretend = 0, frame = 0
	@ frame_needed = 1, uses_anonymous_args = 0
	@ link register save eliminated.
	push	{r7}
.LCFI257:
	.cfi_def_cfa_offset 4
	.cfi_offset 7, -4
	add	r7, sp, #0
.LCFI258:
	.cfi_def_cfa_register 7
	.loc 3 2509 79
	ldr	r3, .L422
	ldr	r3, [r3, #4]
	.loc 3 2509 16
	and	r3, r3, #131072
	cmp	r3, #0
	ite	ne
	movne	r3, #1
	moveq	r3, #0
	uxtb	r3, r3
	.loc 3 2510 1
	mov	r0, r3
	mov	sp, r7
.LCFI259:
	.cfi_def_cfa_register 13
	@ sp needed
	ldr	r7, [sp], #4
.LCFI260:
	.cfi_restore 7
	.cfi_def_cfa_offset 0
	bx	lr
.L423:
	.align	2
.L422:
	.word	1076232192
	.cfi_endproc
.LFE216:
	.size	Cy_SysPm_IoIsFrozen, .-Cy_SysPm_IoIsFrozen
	.section	.text.Cy_SysPm_PmicEnable,"ax",%progbits
	.align	1
	.global	Cy_SysPm_PmicEnable
	.syntax unified
	.thumb
	.thumb_func
	.type	Cy_SysPm_PmicEnable, %function
Cy_SysPm_PmicEnable:
.LFB217:
	.loc 3 2514 1
	.cfi_startproc
	@ args = 0, pretend = 0, frame = 0
	@ frame_needed = 1, uses_anonymous_args = 0
	@ link register save eliminated.
	push	{r7}
.LCFI261:
	.cfi_def_cfa_offset 4
	.cfi_offset 7, -4
	add	r7, sp, #0
.LCFI262:
	.cfi_def_cfa_register 7
	.loc 3 2515 84
	ldr	r3, .L427
	ldr	r3, [r3, #68]
	.loc 3 2515 109
	lsrs	r3, r3, #8
	uxtb	r3, r3
	.loc 3 2515 8
	cmp	r3, #58
	bne	.L426
	.loc 3 2517 60
	ldr	r3, .L427
	.loc 3 2517 72
	ldr	r2, .L427+4
	str	r2, [r3, #68]
.L426:
	.loc 3 2522 1
	nop
	mov	sp, r7
.LCFI263:
	.cfi_def_cfa_register 13
	@ sp needed
	ldr	r7, [sp], #4
.LCFI264:
	.cfi_restore 7
	.cfi_def_cfa_offset 0
	bx	lr
.L428:
	.align	2
.L427:
	.word	1076297728
	.word	-1610597888
	.cfi_endproc
.LFE217:
	.size	Cy_SysPm_PmicEnable, .-Cy_SysPm_PmicEnable
	.section	.text.Cy_SysPm_PmicDisable,"ax",%progbits
	.align	1
	.global	Cy_SysPm_PmicDisable
	.syntax unified
	.thumb
	.thumb_func
	.type	Cy_SysPm_PmicDisable, %function
Cy_SysPm_PmicDisable:
.LFB218:
	.loc 3 2526 1
	.cfi_startproc
	@ args = 0, pretend = 0, frame = 8
	@ frame_needed = 1, uses_anonymous_args = 0
	push	{r7, lr}
.LCFI265:
	.cfi_def_cfa_offset 8
	.cfi_offset 7, -8
	.cfi_offset 14, -4
	sub	sp, sp, #8
.LCFI266:
	.cfi_def_cfa_offset 16
	add	r7, sp, #0
.LCFI267:
	.cfi_def_cfa_register 7
	mov	r3, r0
	strb	r3, [r7, #7]
	.loc 3 2527 12
	ldrb	r3, [r7, #7]	@ zero_extendqisi2
	cmp	r3, #0
	beq	.L430
	.loc 3 2527 13 discriminator 1
	ldrb	r3, [r7, #7]	@ zero_extendqisi2
	cmp	r3, #1
	beq	.L430
	.loc 3 2527 111 discriminator 2
	bl	CY_HALT
.L430:
	.loc 3 2529 84
	ldr	r3, .L433
	ldr	r3, [r3, #68]
	.loc 3 2529 109
	lsrs	r3, r3, #8
	uxtb	r3, r3
	.loc 3 2529 8
	cmp	r3, #58
	bne	.L432
	.loc 3 2533 64
	ldr	r3, .L433
	ldr	r3, [r3, #68]
	.loc 3 2533 77
	bic	r2, r3, #65536
	.loc 3 2533 112
	ldrb	r3, [r7, #7]	@ zero_extendqisi2
	.loc 3 2533 144
	lsls	r3, r3, #16
	.loc 3 2533 153
	and	r3, r3, #65536
	.loc 3 2533 107
	orrs	r3, r3, r2
	.loc 3 2533 169
	bic	r3, r3, #-2147483648
	bic	r3, r3, #14848
	.loc 3 2531 60
	ldr	r2, .L433
	.loc 3 2533 169
	orr	r3, r3, #14848
	.loc 3 2531 72
	str	r3, [r2, #68]
.L432:
	.loc 3 2536 1
	nop
	adds	r7, r7, #8
.LCFI268:
	.cfi_def_cfa_offset 8
	mov	sp, r7
.LCFI269:
	.cfi_def_cfa_register 13
	@ sp needed
	pop	{r7, pc}
.L434:
	.align	2
.L433:
	.word	1076297728
	.cfi_endproc
.LFE218:
	.size	Cy_SysPm_PmicDisable, .-Cy_SysPm_PmicDisable
	.section	.text.Cy_SysPm_PmicAlwaysEnable,"ax",%progbits
	.align	1
	.global	Cy_SysPm_PmicAlwaysEnable
	.syntax unified
	.thumb
	.thumb_func
	.type	Cy_SysPm_PmicAlwaysEnable, %function
Cy_SysPm_PmicAlwaysEnable:
.LFB219:
	.loc 3 2540 1
	.cfi_startproc
	@ args = 0, pretend = 0, frame = 0
	@ frame_needed = 1, uses_anonymous_args = 0
	@ link register save eliminated.
	push	{r7}
.LCFI270:
	.cfi_def_cfa_offset 4
	.cfi_offset 7, -4
	add	r7, sp, #0
.LCFI271:
	.cfi_def_cfa_register 7
	.loc 3 2541 68
	ldr	r3, .L436
	ldr	r3, [r3, #68]
	ldr	r2, .L436
	orr	r3, r3, #1073741824
	str	r3, [r2, #68]
	.loc 3 2542 1
	nop
	mov	sp, r7
.LCFI272:
	.cfi_def_cfa_register 13
	@ sp needed
	ldr	r7, [sp], #4
.LCFI273:
	.cfi_restore 7
	.cfi_def_cfa_offset 0
	bx	lr
.L437:
	.align	2
.L436:
	.word	1076297728
	.cfi_endproc
.LFE219:
	.size	Cy_SysPm_PmicAlwaysEnable, .-Cy_SysPm_PmicAlwaysEnable
	.section	.text.Cy_SysPm_PmicEnableOutput,"ax",%progbits
	.align	1
	.global	Cy_SysPm_PmicEnableOutput
	.syntax unified
	.thumb
	.thumb_func
	.type	Cy_SysPm_PmicEnableOutput, %function
Cy_SysPm_PmicEnableOutput:
.LFB220:
	.loc 3 2546 1
	.cfi_startproc
	@ args = 0, pretend = 0, frame = 0
	@ frame_needed = 1, uses_anonymous_args = 0
	@ link register save eliminated.
	push	{r7}
.LCFI274:
	.cfi_def_cfa_offset 4
	.cfi_offset 7, -4
	add	r7, sp, #0
.LCFI275:
	.cfi_def_cfa_register 7
	.loc 3 2547 84
	ldr	r3, .L441
	ldr	r3, [r3, #68]
	.loc 3 2547 109
	lsrs	r3, r3, #8
	uxtb	r3, r3
	.loc 3 2547 8
	cmp	r3, #58
	bne	.L440
	.loc 3 2549 72
	ldr	r3, .L441
	ldr	r3, [r3, #68]
	ldr	r2, .L441
	orr	r3, r3, #536870912
	orr	r3, r3, #14848
	str	r3, [r2, #68]
.L440:
	.loc 3 2552 1
	nop
	mov	sp, r7
.LCFI276:
	.cfi_def_cfa_register 13
	@ sp needed
	ldr	r7, [sp], #4
.LCFI277:
	.cfi_restore 7
	.cfi_def_cfa_offset 0
	bx	lr
.L442:
	.align	2
.L441:
	.word	1076297728
	.cfi_endproc
.LFE220:
	.size	Cy_SysPm_PmicEnableOutput, .-Cy_SysPm_PmicEnableOutput
	.section	.text.Cy_SysPm_PmicDisableOutput,"ax",%progbits
	.align	1
	.global	Cy_SysPm_PmicDisableOutput
	.syntax unified
	.thumb
	.thumb_func
	.type	Cy_SysPm_PmicDisableOutput, %function
Cy_SysPm_PmicDisableOutput:
.LFB221:
	.loc 3 2556 1
	.cfi_startproc
	@ args = 0, pretend = 0, frame = 0
	@ frame_needed = 1, uses_anonymous_args = 0
	@ link register save eliminated.
	push	{r7}
.LCFI278:
	.cfi_def_cfa_offset 4
	.cfi_offset 7, -4
	add	r7, sp, #0
.LCFI279:
	.cfi_def_cfa_register 7
	.loc 3 2557 84
	ldr	r3, .L446
	ldr	r3, [r3, #68]
	.loc 3 2557 109
	lsrs	r3, r3, #8
	uxtb	r3, r3
	.loc 3 2557 8
	cmp	r3, #58
	bne	.L445
	.loc 3 2560 61
	ldr	r3, .L446
	ldr	r3, [r3, #68]
	.loc 3 2560 118
	bic	r3, r3, #536870912
	bic	r3, r3, #14848
	.loc 3 2559 60
	ldr	r2, .L446
	.loc 3 2560 118
	orr	r3, r3, #14848
	.loc 3 2559 72
	str	r3, [r2, #68]
.L445:
	.loc 3 2563 1
	nop
	mov	sp, r7
.LCFI280:
	.cfi_def_cfa_register 13
	@ sp needed
	ldr	r7, [sp], #4
.LCFI281:
	.cfi_restore 7
	.cfi_def_cfa_offset 0
	bx	lr
.L447:
	.align	2
.L446:
	.word	1076297728
	.cfi_endproc
.LFE221:
	.size	Cy_SysPm_PmicDisableOutput, .-Cy_SysPm_PmicDisableOutput
	.section	.text.Cy_SysPm_PmicLock,"ax",%progbits
	.align	1
	.global	Cy_SysPm_PmicLock
	.syntax unified
	.thumb
	.thumb_func
	.type	Cy_SysPm_PmicLock, %function
Cy_SysPm_PmicLock:
.LFB222:
	.loc 3 2567 1
	.cfi_startproc
	@ args = 0, pretend = 0, frame = 0
	@ frame_needed = 1, uses_anonymous_args = 0
	@ link register save eliminated.
	push	{r7}
.LCFI282:
	.cfi_def_cfa_offset 4
	.cfi_offset 7, -4
	add	r7, sp, #0
.LCFI283:
	.cfi_def_cfa_register 7
	.loc 3 2568 124
	ldr	r3, .L449
	ldr	r3, [r3, #68]
	.loc 3 2568 56
	ldr	r2, .L449
	.loc 3 2568 166
	bic	r3, r3, #65280
	.loc 3 2568 68
	str	r3, [r2, #68]
	.loc 3 2569 1
	nop
	mov	sp, r7
.LCFI284:
	.cfi_def_cfa_register 13
	@ sp needed
	ldr	r7, [sp], #4
.LCFI285:
	.cfi_restore 7
	.cfi_def_cfa_offset 0
	bx	lr
.L450:
	.align	2
.L449:
	.word	1076297728
	.cfi_endproc
.LFE222:
	.size	Cy_SysPm_PmicLock, .-Cy_SysPm_PmicLock
	.section	.text.Cy_SysPm_PmicUnlock,"ax",%progbits
	.align	1
	.global	Cy_SysPm_PmicUnlock
	.syntax unified
	.thumb
	.thumb_func
	.type	Cy_SysPm_PmicUnlock, %function
Cy_SysPm_PmicUnlock:
.LFB223:
	.loc 3 2573 1
	.cfi_startproc
	@ args = 0, pretend = 0, frame = 0
	@ frame_needed = 1, uses_anonymous_args = 0
	@ link register save eliminated.
	push	{r7}
.LCFI286:
	.cfi_def_cfa_offset 4
	.cfi_offset 7, -4
	add	r7, sp, #0
.LCFI287:
	.cfi_def_cfa_register 7
	.loc 3 2574 124
	ldr	r3, .L452
	ldr	r3, [r3, #68]
	.loc 3 2574 137
	bic	r3, r3, #65280
	.loc 3 2574 56
	ldr	r2, .L452
	.loc 3 2574 166
	orr	r3, r3, #14848
	.loc 3 2574 68
	str	r3, [r2, #68]
	.loc 3 2575 1
	nop
	mov	sp, r7
.LCFI288:
	.cfi_def_cfa_register 13
	@ sp needed
	ldr	r7, [sp], #4
.LCFI289:
	.cfi_restore 7
	.cfi_def_cfa_offset 0
	bx	lr
.L453:
	.align	2
.L452:
	.word	1076297728
	.cfi_endproc
.LFE223:
	.size	Cy_SysPm_PmicUnlock, .-Cy_SysPm_PmicUnlock
	.section	.text.Cy_SysPm_PmicIsEnabled,"ax",%progbits
	.align	1
	.global	Cy_SysPm_PmicIsEnabled
	.syntax unified
	.thumb
	.thumb_func
	.type	Cy_SysPm_PmicIsEnabled, %function
Cy_SysPm_PmicIsEnabled:
.LFB224:
	.loc 3 2579 1
	.cfi_startproc
	@ args = 0, pretend = 0, frame = 0
	@ frame_needed = 1, uses_anonymous_args = 0
	@ link register save eliminated.
	push	{r7}
.LCFI290:
	.cfi_def_cfa_offset 4
	.cfi_offset 7, -4
	add	r7, sp, #0
.LCFI291:
	.cfi_def_cfa_register 7
	.loc 3 2580 83
	ldr	r3, .L456
	ldr	r3, [r3, #68]
	.loc 3 2580 16
	lsrs	r3, r3, #31
	uxtb	r3, r3
	.loc 3 2581 1
	mov	r0, r3
	mov	sp, r7
.LCFI292:
	.cfi_def_cfa_register 13
	@ sp needed
	ldr	r7, [sp], #4
.LCFI293:
	.cfi_restore 7
	.cfi_def_cfa_offset 0
	bx	lr
.L457:
	.align	2
.L456:
	.word	1076297728
	.cfi_endproc
.LFE224:
	.size	Cy_SysPm_PmicIsEnabled, .-Cy_SysPm_PmicIsEnabled
	.section	.text.Cy_SysPm_PmicIsOutputEnabled,"ax",%progbits
	.align	1
	.global	Cy_SysPm_PmicIsOutputEnabled
	.syntax unified
	.thumb
	.thumb_func
	.type	Cy_SysPm_PmicIsOutputEnabled, %function
Cy_SysPm_PmicIsOutputEnabled:
.LFB225:
	.loc 3 2585 1
	.cfi_startproc
	@ args = 0, pretend = 0, frame = 0
	@ frame_needed = 1, uses_anonymous_args = 0
	@ link register save eliminated.
	push	{r7}
.LCFI294:
	.cfi_def_cfa_offset 4
	.cfi_offset 7, -4
	add	r7, sp, #0
.LCFI295:
	.cfi_def_cfa_register 7
	.loc 3 2586 83
	ldr	r3, .L460
	ldr	r3, [r3, #68]
	.loc 3 2586 16
	and	r3, r3, #536870912
	cmp	r3, #0
	ite	ne
	movne	r3, #1
	moveq	r3, #0
	uxtb	r3, r3
	.loc 3 2587 1
	mov	r0, r3
	mov	sp, r7
.LCFI296:
	.cfi_def_cfa_register 13
	@ sp needed
	ldr	r7, [sp], #4
.LCFI297:
	.cfi_restore 7
	.cfi_def_cfa_offset 0
	bx	lr
.L461:
	.align	2
.L460:
	.word	1076297728
	.cfi_endproc
.LFE225:
	.size	Cy_SysPm_PmicIsOutputEnabled, .-Cy_SysPm_PmicIsOutputEnabled
	.section	.text.Cy_SysPm_PmicIsLocked,"ax",%progbits
	.align	1
	.global	Cy_SysPm_PmicIsLocked
	.syntax unified
	.thumb
	.thumb_func
	.type	Cy_SysPm_PmicIsLocked, %function
Cy_SysPm_PmicIsLocked:
.LFB226:
	.loc 3 2591 1
	.cfi_startproc
	@ args = 0, pretend = 0, frame = 0
	@ frame_needed = 1, uses_anonymous_args = 0
	@ link register save eliminated.
	push	{r7}
.LCFI298:
	.cfi_def_cfa_offset 4
	.cfi_offset 7, -4
	add	r7, sp, #0
.LCFI299:
	.cfi_def_cfa_register 7
	.loc 3 2592 78
	ldr	r3, .L464
	ldr	r3, [r3, #68]
	.loc 3 2592 103
	lsrs	r3, r3, #8
	uxtb	r3, r3
	.loc 3 2592 100
	cmp	r3, #58
	ite	ne
	movne	r3, #1
	moveq	r3, #0
	uxtb	r3, r3
	.loc 3 2593 1
	mov	r0, r3
	mov	sp, r7
.LCFI300:
	.cfi_def_cfa_register 13
	@ sp needed
	ldr	r7, [sp], #4
.LCFI301:
	.cfi_restore 7
	.cfi_def_cfa_offset 0
	bx	lr
.L465:
	.align	2
.L464:
	.word	1076297728
	.cfi_endproc
.LFE226:
	.size	Cy_SysPm_PmicIsLocked, .-Cy_SysPm_PmicIsLocked
	.section	.text.Cy_SysPm_BackupSetSupply,"ax",%progbits
	.align	1
	.global	Cy_SysPm_BackupSetSupply
	.syntax unified
	.thumb
	.thumb_func
	.type	Cy_SysPm_BackupSetSupply, %function
Cy_SysPm_BackupSetSupply:
.LFB227:
	.loc 3 2597 1
	.cfi_startproc
	@ args = 0, pretend = 0, frame = 8
	@ frame_needed = 1, uses_anonymous_args = 0
	push	{r7, lr}
.LCFI302:
	.cfi_def_cfa_offset 8
	.cfi_offset 7, -8
	.cfi_offset 14, -4
	sub	sp, sp, #8
.LCFI303:
	.cfi_def_cfa_offset 16
	add	r7, sp, #0
.LCFI304:
	.cfi_def_cfa_register 7
	mov	r3, r0
	strb	r3, [r7, #7]
	.loc 3 2598 12
	ldrb	r3, [r7, #7]	@ zero_extendqisi2
	cmp	r3, #0
	beq	.L467
	.loc 3 2598 13 discriminator 1
	ldrb	r3, [r7, #7]	@ zero_extendqisi2
	cmp	r3, #2
	beq	.L467
	.loc 3 2598 122 discriminator 2
	bl	CY_HALT
.L467:
	.loc 3 2600 120
	ldr	r3, .L468
	ldr	r3, [r3]
	.loc 3 2600 129
	bic	r2, r3, #393216
	.loc 3 2600 164
	ldrb	r3, [r7, #7]	@ zero_extendqisi2
	.loc 3 2600 202
	lsls	r3, r3, #17
	.loc 3 2600 211
	and	r3, r3, #393216
	.loc 3 2600 56
	ldr	r1, .L468
	.loc 3 2600 159
	orrs	r3, r3, r2
	.loc 3 2600 63
	str	r3, [r1]
	.loc 3 2601 1
	nop
	adds	r7, r7, #8
.LCFI305:
	.cfi_def_cfa_offset 8
	mov	sp, r7
.LCFI306:
	.cfi_def_cfa_register 13
	@ sp needed
	pop	{r7, pc}
.L469:
	.align	2
.L468:
	.word	1076297728
	.cfi_endproc
.LFE227:
	.size	Cy_SysPm_BackupSetSupply, .-Cy_SysPm_BackupSetSupply
	.section	.text.Cy_SysPm_BackupGetSupply,"ax",%progbits
	.align	1
	.global	Cy_SysPm_BackupGetSupply
	.syntax unified
	.thumb
	.thumb_func
	.type	Cy_SysPm_BackupGetSupply, %function
Cy_SysPm_BackupGetSupply:
.LFB228:
	.loc 3 2605 1
	.cfi_startproc
	@ args = 0, pretend = 0, frame = 8
	@ frame_needed = 1, uses_anonymous_args = 0
	@ link register save eliminated.
	push	{r7}
.LCFI307:
	.cfi_def_cfa_offset 4
	.cfi_offset 7, -4
	sub	sp, sp, #12
.LCFI308:
	.cfi_def_cfa_offset 16
	add	r7, sp, #0
.LCFI309:
	.cfi_def_cfa_register 7
	.loc 3 2607 78
	ldr	r3, .L472
	ldr	r3, [r3]
	.loc 3 2607 99
	lsrs	r3, r3, #17
	.loc 3 2607 12
	and	r3, r3, #3
	str	r3, [r7, #4]
	.loc 3 2609 13
	ldr	r3, [r7, #4]
	uxtb	r3, r3
	.loc 3 2610 1
	mov	r0, r3
	adds	r7, r7, #12
.LCFI310:
	.cfi_def_cfa_offset 4
	mov	sp, r7
.LCFI311:
	.cfi_def_cfa_register 13
	@ sp needed
	ldr	r7, [sp], #4
.LCFI312:
	.cfi_restore 7
	.cfi_def_cfa_offset 0
	bx	lr
.L473:
	.align	2
.L472:
	.word	1076297728
	.cfi_endproc
.LFE228:
	.size	Cy_SysPm_BackupGetSupply, .-Cy_SysPm_BackupGetSupply
	.section	.text.Cy_SysPm_BackupEnableVoltageMeasurement,"ax",%progbits
	.align	1
	.global	Cy_SysPm_BackupEnableVoltageMeasurement
	.syntax unified
	.thumb
	.thumb_func
	.type	Cy_SysPm_BackupEnableVoltageMeasurement, %function
Cy_SysPm_BackupEnableVoltageMeasurement:
.LFB229:
	.loc 3 2614 1
	.cfi_startproc
	@ args = 0, pretend = 0, frame = 0
	@ frame_needed = 1, uses_anonymous_args = 0
	@ link register save eliminated.
	push	{r7}
.LCFI313:
	.cfi_def_cfa_offset 4
	.cfi_offset 7, -4
	add	r7, sp, #0
.LCFI314:
	.cfi_def_cfa_register 7
	.loc 3 2615 63
	ldr	r3, .L475
	ldr	r3, [r3]
	ldr	r2, .L475
	orr	r3, r3, #524288
	str	r3, [r2]
	.loc 3 2616 1
	nop
	mov	sp, r7
.LCFI315:
	.cfi_def_cfa_register 13
	@ sp needed
	ldr	r7, [sp], #4
.LCFI316:
	.cfi_restore 7
	.cfi_def_cfa_offset 0
	bx	lr
.L476:
	.align	2
.L475:
	.word	1076297728
	.cfi_endproc
.LFE229:
	.size	Cy_SysPm_BackupEnableVoltageMeasurement, .-Cy_SysPm_BackupEnableVoltageMeasurement
	.section	.text.Cy_SysPm_BackupDisableVoltageMeasurement,"ax",%progbits
	.align	1
	.global	Cy_SysPm_BackupDisableVoltageMeasurement
	.syntax unified
	.thumb
	.thumb_func
	.type	Cy_SysPm_BackupDisableVoltageMeasurement, %function
Cy_SysPm_BackupDisableVoltageMeasurement:
.LFB230:
	.loc 3 2620 1
	.cfi_startproc
	@ args = 0, pretend = 0, frame = 0
	@ frame_needed = 1, uses_anonymous_args = 0
	@ link register save eliminated.
	push	{r7}
.LCFI317:
	.cfi_def_cfa_offset 4
	.cfi_offset 7, -4
	add	r7, sp, #0
.LCFI318:
	.cfi_def_cfa_register 7
	.loc 3 2621 63
	ldr	r3, .L478
	ldr	r3, [r3]
	ldr	r2, .L478
	bic	r3, r3, #524288
	str	r3, [r2]
	.loc 3 2622 1
	nop
	mov	sp, r7
.LCFI319:
	.cfi_def_cfa_register 13
	@ sp needed
	ldr	r7, [sp], #4
.LCFI320:
	.cfi_restore 7
	.cfi_def_cfa_offset 0
	bx	lr
.L479:
	.align	2
.L478:
	.word	1076297728
	.cfi_endproc
.LFE230:
	.size	Cy_SysPm_BackupDisableVoltageMeasurement, .-Cy_SysPm_BackupDisableVoltageMeasurement
	.section	.text.Cy_SysPm_BackupSuperCapCharge,"ax",%progbits
	.align	1
	.global	Cy_SysPm_BackupSuperCapCharge
	.syntax unified
	.thumb
	.thumb_func
	.type	Cy_SysPm_BackupSuperCapCharge, %function
Cy_SysPm_BackupSuperCapCharge:
.LFB231:
	.loc 3 2626 1
	.cfi_startproc
	@ args = 0, pretend = 0, frame = 8
	@ frame_needed = 1, uses_anonymous_args = 0
	push	{r7, lr}
.LCFI321:
	.cfi_def_cfa_offset 8
	.cfi_offset 7, -8
	.cfi_offset 14, -4
	sub	sp, sp, #8
.LCFI322:
	.cfi_def_cfa_offset 16
	add	r7, sp, #0
.LCFI323:
	.cfi_def_cfa_register 7
	mov	r3, r0
	strb	r3, [r7, #7]
	.loc 3 2627 12
	ldrb	r3, [r7, #7]	@ zero_extendqisi2
	cmp	r3, #60
	beq	.L481
	.loc 3 2627 13 discriminator 1
	ldrb	r3, [r7, #7]	@ zero_extendqisi2
	cmp	r3, #0
	beq	.L481
	.loc 3 2627 99 discriminator 2
	bl	CY_HALT
.L481:
	.loc 3 2629 7
	ldrb	r3, [r7, #7]	@ zero_extendqisi2
	cmp	r3, #60
	bne	.L482
	.loc 3 2631 124
	ldr	r3, .L485
	ldr	r3, [r3]
	.loc 3 2631 133
	bic	r3, r3, #-16777216
	.loc 3 2631 60
	ldr	r2, .L485
	.loc 3 2631 166
	orr	r3, r3, #1006632960
	.loc 3 2631 67
	str	r3, [r2]
	.loc 3 2637 1
	b	.L484
.L482:
	.loc 3 2635 67
	ldr	r3, .L485
	ldr	r3, [r3]
	ldr	r2, .L485
	bic	r3, r3, #-16777216
	str	r3, [r2]
.L484:
	.loc 3 2637 1
	nop
	adds	r7, r7, #8
.LCFI324:
	.cfi_def_cfa_offset 8
	mov	sp, r7
.LCFI325:
	.cfi_def_cfa_register 13
	@ sp needed
	pop	{r7, pc}
.L486:
	.align	2
.L485:
	.word	1076297728
	.cfi_endproc
.LFE231:
	.size	Cy_SysPm_BackupSuperCapCharge, .-Cy_SysPm_BackupSuperCapCharge
	.section	.bss.bkpRegs.1,"aw",%nobits
	.align	2
	.type	bkpRegs.1, %object
	.size	bkpRegs.1, 40
bkpRegs.1:
	.space	40
	.section	.bss.lastExecutedCallback.0,"aw",%nobits
	.align	2
	.type	lastExecutedCallback.0, %object
	.size	lastExecutedCallback.0, 4
lastExecutedCallback.0:
	.space	4
	.text
.Letext0:
	.file 4 "d:\\llc\\softwares\\env-windows-v1.3.5\\tools\\gnu_gcc\\arm_gcc\\mingw\\arm-none-eabi\\include\\machine\\_default_types.h"
	.file 5 "d:\\llc\\softwares\\env-windows-v1.3.5\\tools\\gnu_gcc\\arm_gcc\\mingw\\arm-none-eabi\\include\\sys\\_stdint.h"
	.file 6 "libraries\\IFX_PSOC6_HAL\\mtb-pdl-cat1\\devices\\COMPONENT_CAT1A\\include/ip/cyip_flashc.h"
	.file 7 "libraries\\IFX_PSOC6_HAL\\mtb-pdl-cat1\\devices\\COMPONENT_CAT1A\\include/ip/cyip_sflash.h"
	.file 8 "libraries\\IFX_PSOC6_HAL\\mtb-pdl-cat1\\devices\\COMPONENT_CAT1A\\include/ip/cyip_srss.h"
	.file 9 "libraries\\IFX_PSOC6_HAL\\mtb-pdl-cat1\\devices\\COMPONENT_CAT1A\\include/ip/cyip_backup.h"
	.file 10 "libraries\\IFX_PSOC6_HAL\\mtb-pdl-cat1\\devices\\COMPONENT_CAT1A\\include/ip/cyip_peri.h"
	.file 11 "libraries\\IFX_PSOC6_HAL\\mtb-pdl-cat1\\devices\\COMPONENT_CAT1A\\include/ip/cyip_ipc_v2.h"
	.file 12 "libraries\\IFX_PSOC6_HAL\\mtb-pdl-cat1\\devices\\COMPONENT_CAT1A\\include/ip/cyip_udb.h"
	.file 13 "libraries\\IFX_PSOC6_HAL\\mtb-pdl-cat1\\cmsis\\include/core_cm4.h"
	.file 14 "libraries\\IFX_PSOC6_HAL\\mtb-pdl-cat1\\devices\\COMPONENT_CAT1A\\include/psoc6_02_config.h"
	.file 15 "libraries\\IFX_PSOC6_HAL\\mtb-pdl-cat1\\devices\\COMPONENT_CAT1A\\include/cy_device.h"
	.file 16 "libraries\\IFX_PSOC6_HAL\\core-lib\\include/cy_result.h"
	.file 17 "libraries\\IFX_PSOC6_HAL\\mtb-pdl-cat1\\drivers\\include/cy_syslib.h"
	.file 18 "libraries\\IFX_PSOC6_HAL\\mtb-pdl-cat1\\drivers\\include/cy_syspm.h"