	.cpu cortex-m4
	.arch armv7e-m
	.fpu fpv4-sp-d16
	.eabi_attribute 27, 1
	.eabi_attribute 28, 1
	.eabi_attribute 20, 1
	.eabi_attribute 21, 1
	.eabi_attribute 23, 3
	.eabi_attribute 24, 1
	.eabi_attribute 25, 1
	.eabi_attribute 26, 1
	.eabi_attribute 30, 6
	.eabi_attribute 34, 1
	.eabi_attribute 18, 4
	.file	"cy_scb_i2c.c"
	.text
.Ltext0:
	.cfi_sections	.debug_frame
	.section	.text.CY_HALT,"ax",%progbits
	.align	1
	.syntax unified
	.thumb
	.thumb_func
	.type	CY_HALT, %function
CY_HALT:
.LFB133:
	.file 1 "libraries\\IFX_PSOC6_HAL\\core-lib\\include/cy_utils.h"
	.loc 1 49 1
	.cfi_startproc
	@ args = 0, pretend = 0, frame = 0
	@ frame_needed = 1, uses_anonymous_args = 0
	@ link register save eliminated.
	push	{r7}
.LCFI0:
	.cfi_def_cfa_offset 4
	.cfi_offset 7, -4
	add	r7, sp, #0
.LCFI1:
	.cfi_def_cfa_register 7
	.loc 1 50 5
	.syntax unified
@ 50 "libraries\IFX_PSOC6_HAL\core-lib\include/cy_utils.h" 1
	    bkpt    1
@ 0 "" 2
	.loc 1 51 1
	.thumb
	.syntax unified
	nop
	mov	sp, r7
.LCFI2:
	.cfi_def_cfa_register 13
	@ sp needed
	ldr	r7, [sp], #4
.LCFI3:
	.cfi_restore 7
	.cfi_def_cfa_offset 0
	bx	lr
	.cfi_endproc
.LFE133:
	.size	CY_HALT, .-CY_HALT
	.section	.text.Cy_SCB_SetRxFifoLevel,"ax",%progbits
	.align	1
	.syntax unified
	.thumb
	.thumb_func
	.type	Cy_SCB_SetRxFifoLevel, %function
Cy_SCB_SetRxFifoLevel:
.LFB138:
	.file 2 "libraries\\IFX_PSOC6_HAL\\mtb-pdl-cat1\\drivers\\include/cy_scb_common.h"
	.loc 2 872 1
	.cfi_startproc
	@ args = 0, pretend = 0, frame = 8
	@ frame_needed = 1, uses_anonymous_args = 0
	push	{r7, lr}
.LCFI4:
	.cfi_def_cfa_offset 8
	.cfi_offset 7, -8
	.cfi_offset 14, -4
	sub	sp, sp, #8
.LCFI5:
	.cfi_def_cfa_offset 16
	add	r7, sp, #0
.LCFI6:
	.cfi_def_cfa_register 7
	str	r0, [r7, #4]
	str	r1, [r7]
	.loc 2 873 26
	ldr	r0, [r7, #4]
	bl	Cy_SCB_GetFifoSize
	mov	r2, r0
	.loc 2 873 12
	ldr	r3, [r7]
	cmp	r3, r2
	bcc	.L3
	.loc 2 873 56 discriminator 1
	bl	CY_HALT
.L3:
	.loc 2 875 82
	ldr	r3, [r7, #4]
	ldr	r3, [r3, #772]
	.loc 2 875 100
	bic	r2, r3, #255
	.loc 2 875 160
	ldr	r3, [r7]
	uxtb	r3, r3
	.loc 2 875 127
	orrs	r2, r2, r3
	.loc 2 875 50
	ldr	r3, [r7, #4]
	str	r2, [r3, #772]
	.loc 2 876 1
	nop
	adds	r7, r7, #8
.LCFI7:
	.cfi_def_cfa_offset 8
	mov	sp, r7
.LCFI8:
	.cfi_def_cfa_register 13
	@ sp needed
	pop	{r7, pc}
	.cfi_endproc
.LFE138:
	.size	Cy_SCB_SetRxFifoLevel, .-Cy_SCB_SetRxFifoLevel
	.section	.text.Cy_SCB_GetNumInRxFifo,"ax",%progbits
	.align	1
	.syntax unified
	.thumb
	.thumb_func
	.type	Cy_SCB_GetNumInRxFifo, %function
Cy_SCB_GetNumInRxFifo:
.LFB139:
	.loc 2 893 1
	.cfi_startproc
	@ args = 0, pretend = 0, frame = 8
	@ frame_needed = 1, uses_anonymous_args = 0
	@ link register save eliminated.
	push	{r7}
.LCFI9:
	.cfi_def_cfa_offset 4
	.cfi_offset 7, -4
	sub	sp, sp, #12
.LCFI10:
	.cfi_def_cfa_offset 16
	add	r7, sp, #0
.LCFI11:
	.cfi_def_cfa_register 7
	str	r0, [r7, #4]
	.loc 2 894 51
	ldr	r3, [r7, #4]
	ldr	r3, [r3, #776]
	.loc 2 894 81
	ubfx	r3, r3, #0, #9
	.loc 2 895 1
	mov	r0, r3
	adds	r7, r7, #12
.LCFI12:
	.cfi_def_cfa_offset 4
	mov	sp, r7
.LCFI13:
	.cfi_def_cfa_register 13
	@ sp needed
	ldr	r7, [sp], #4
.LCFI14:
	.cfi_restore 7
	.cfi_def_cfa_offset 0
	bx	lr
	.cfi_endproc
.LFE139:
	.size	Cy_SCB_GetNumInRxFifo, .-Cy_SCB_GetNumInRxFifo
	.section	.text.Cy_SCB_ClearRxFifo,"ax",%progbits
	.align	1
	.syntax unified
	.thumb
	.thumb_func
	.type	Cy_SCB_ClearRxFifo, %function
Cy_SCB_ClearRxFifo:
.LFB141:
	.loc 2 931 1
	.cfi_startproc
	@ args = 0, pretend = 0, frame = 8
	@ frame_needed = 1, uses_anonymous_args = 0
	@ link register save eliminated.
	push	{r7}
.LCFI15:
	.cfi_def_cfa_offset 4
	.cfi_offset 7, -4
	sub	sp, sp, #12
.LCFI16:
	.cfi_def_cfa_offset 16
	add	r7, sp, #0
.LCFI17:
	.cfi_def_cfa_register 7
	str	r0, [r7, #4]
	.loc 2 932 47
	ldr	r3, [r7, #4]
	ldr	r3, [r3, #772]
	orr	r2, r3, #65536
	ldr	r3, [r7, #4]
	str	r2, [r3, #772]
	.loc 2 933 47
	ldr	r3, [r7, #4]
	ldr	r3, [r3, #772]
	bic	r2, r3, #65536
	ldr	r3, [r7, #4]
	str	r2, [r3, #772]
	.loc 2 935 5
	ldr	r3, [r7, #4]
	ldr	r3, [r3, #772]
	.loc 2 936 1
	nop
	adds	r7, r7, #12
.LCFI18:
	.cfi_def_cfa_offset 4
	mov	sp, r7
.LCFI19:
	.cfi_def_cfa_register 13
	@ sp needed
	ldr	r7, [sp], #4
.LCFI20:
	.cfi_restore 7
	.cfi_def_cfa_offset 0
	bx	lr
	.cfi_endproc
.LFE141:
	.size	Cy_SCB_ClearRxFifo, .-Cy_SCB_ClearRxFifo
	.section	.text.Cy_SCB_SetTxFifoLevel,"ax",%progbits
	.align	1
	.syntax unified
	.thumb
	.thumb_func
	.type	Cy_SCB_SetTxFifoLevel, %function
Cy_SCB_SetTxFifoLevel:
.LFB143:
	.loc 2 976 1
	.cfi_startproc
	@ args = 0, pretend = 0, frame = 8
	@ frame_needed = 1, uses_anonymous_args = 0
	push	{r7, lr}
.LCFI21:
	.cfi_def_cfa_offset 8
	.cfi_offset 7, -8
	.cfi_offset 14, -4
	sub	sp, sp, #8
.LCFI22:
	.cfi_def_cfa_offset 16
	add	r7, sp, #0
.LCFI23:
	.cfi_def_cfa_register 7
	str	r0, [r7, #4]
	str	r1, [r7]
	.loc 2 977 26
	ldr	r0, [r7, #4]
	bl	Cy_SCB_GetFifoSize
	mov	r2, r0
	.loc 2 977 12
	ldr	r3, [r7]
	cmp	r3, r2
	bcc	.L8
	.loc 2 977 56 discriminator 1
	bl	CY_HALT
.L8:
	.loc 2 979 82
	ldr	r3, [r7, #4]
	ldr	r3, [r3, #516]
	.loc 2 979 100
	bic	r2, r3, #255
	.loc 2 979 160
	ldr	r3, [r7]
	uxtb	r3, r3
	.loc 2 979 127
	orrs	r2, r2, r3
	.loc 2 979 50
	ldr	r3, [r7, #4]
	str	r2, [r3, #516]
	.loc 2 980 1
	nop
	adds	r7, r7, #8
.LCFI24:
	.cfi_def_cfa_offset 8
	mov	sp, r7
.LCFI25:
	.cfi_def_cfa_register 13
	@ sp needed
	pop	{r7, pc}
	.cfi_endproc
.LFE143:
	.size	Cy_SCB_SetTxFifoLevel, .-Cy_SCB_SetTxFifoLevel
	.section	.text.Cy_SCB_GetNumInTxFifo,"ax",%progbits
	.align	1
	.syntax unified
	.thumb
	.thumb_func
	.type	Cy_SCB_GetNumInTxFifo, %function
Cy_SCB_GetNumInTxFifo:
.LFB144:
	.loc 2 997 1
	.cfi_startproc
	@ args = 0, pretend = 0, frame = 8
	@ frame_needed = 1, uses_anonymous_args = 0
	@ link register save eliminated.
	push	{r7}
.LCFI26:
	.cfi_def_cfa_offset 4
	.cfi_offset 7, -4
	sub	sp, sp, #12
.LCFI27:
	.cfi_def_cfa_offset 16
	add	r7, sp, #0
.LCFI28:
	.cfi_def_cfa_register 7
	str	r0, [r7, #4]
	.loc 2 998 51
	ldr	r3, [r7, #4]
	ldr	r3, [r3, #520]
	.loc 2 998 81
	ubfx	r3, r3, #0, #9
	.loc 2 999 1
	mov	r0, r3
	adds	r7, r7, #12
.LCFI29:
	.cfi_def_cfa_offset 4
	mov	sp, r7
.LCFI30:
	.cfi_def_cfa_register 13
	@ sp needed
	ldr	r7, [sp], #4
.LCFI31:
	.cfi_restore 7
	.cfi_def_cfa_offset 0
	bx	lr
	.cfi_endproc
.LFE144:
	.size	Cy_SCB_GetNumInTxFifo, .-Cy_SCB_GetNumInTxFifo
	.section	.text.Cy_SCB_GetTxSrValid,"ax",%progbits
	.align	1
	.syntax unified
	.thumb
	.thumb_func
	.type	Cy_SCB_GetTxSrValid, %function
Cy_SCB_GetTxSrValid:
.LFB145:
	.loc 2 1016 1
	.cfi_startproc
	@ args = 0, pretend = 0, frame = 8
	@ frame_needed = 1, uses_anonymous_args = 0
	@ link register save eliminated.
	push	{r7}
.LCFI32:
	.cfi_def_cfa_offset 4
	.cfi_offset 7, -4
	sub	sp, sp, #12
.LCFI33:
	.cfi_def_cfa_offset 16
	add	r7, sp, #0
.LCFI34:
	.cfi_def_cfa_register 7
	str	r0, [r7, #4]
	.loc 2 1017 51
	ldr	r3, [r7, #4]
	ldr	r3, [r3, #520]
	.loc 2 1017 82
	lsrs	r3, r3, #15
	and	r3, r3, #1
	.loc 2 1018 1
	mov	r0, r3
	adds	r7, r7, #12
.LCFI35:
	.cfi_def_cfa_offset 4
	mov	sp, r7
.LCFI36:
	.cfi_def_cfa_register 13
	@ sp needed
	ldr	r7, [sp], #4
.LCFI37:
	.cfi_restore 7
	.cfi_def_cfa_offset 0
	bx	lr
	.cfi_endproc
.LFE145:
	.size	Cy_SCB_GetTxSrValid, .-Cy_SCB_GetTxSrValid
	.section	.text.Cy_SCB_ClearTxFifo,"ax",%progbits
	.align	1
	.syntax unified
	.thumb
	.thumb_func
	.type	Cy_SCB_ClearTxFifo, %function
Cy_SCB_ClearTxFifo:
.LFB147:
	.loc 2 1056 1
	.cfi_startproc
	@ args = 0, pretend = 0, frame = 8
	@ frame_needed = 1, uses_anonymous_args = 0
	@ link register save eliminated.
	push	{r7}
.LCFI38:
	.cfi_def_cfa_offset 4
	.cfi_offset 7, -4
	sub	sp, sp, #12
.LCFI39:
	.cfi_def_cfa_offset 16
	add	r7, sp, #0
.LCFI40:
	.cfi_def_cfa_register 7
	str	r0, [r7, #4]
	.loc 2 1057 47
	ldr	r3, [r7, #4]
	ldr	r3, [r3, #516]
	orr	r2, r3, #65536
	ldr	r3, [r7, #4]
	str	r2, [r3, #516]
	.loc 2 1058 47
	ldr	r3, [r7, #4]
	ldr	r3, [r3, #516]
	bic	r2, r3, #65536
	ldr	r3, [r7, #4]
	str	r2, [r3, #516]
	.loc 2 1060 5
	ldr	r3, [r7, #4]
	ldr	r3, [r3, #516]
	.loc 2 1061 1
	nop
	adds	r7, r7, #12
.LCFI41:
	.cfi_def_cfa_offset 4
	mov	sp, r7
.LCFI42:
	.cfi_def_cfa_register 13
	@ sp needed
	ldr	r7, [sp], #4
.LCFI43:
	.cfi_restore 7
	.cfi_def_cfa_offset 0
	bx	lr
	.cfi_endproc
.LFE147:
	.size	Cy_SCB_ClearTxFifo, .-Cy_SCB_ClearTxFifo
	.section	.text.Cy_SCB_GetInterruptCause,"ax",%progbits
	.align	1
	.syntax unified
	.thumb
	.thumb_func
	.type	Cy_SCB_GetInterruptCause, %function
Cy_SCB_GetInterruptCause:
.LFB149:
	.loc 2 1152 1
	.cfi_startproc
	@ args = 0, pretend = 0, frame = 8
	@ frame_needed = 1, uses_anonymous_args = 0
	@ link register save eliminated.
	push	{r7}
.LCFI44:
	.cfi_def_cfa_offset 4
	.cfi_offset 7, -4
	sub	sp, sp, #12
.LCFI45:
	.cfi_def_cfa_offset 16
	add	r7, sp, #0
.LCFI46:
	.cfi_def_cfa_register 7
	str	r0, [r7, #4]
	.loc 2 1153 39
	ldr	r3, [r7, #4]
	ldr	r3, [r3, #3584]
	.loc 2 1154 1
	mov	r0, r3
	adds	r7, r7, #12
.LCFI47:
	.cfi_def_cfa_offset 4
	mov	sp, r7
.LCFI48:
	.cfi_def_cfa_register 13
	@ sp needed
	ldr	r7, [sp], #4
.LCFI49:
	.cfi_restore 7
	.cfi_def_cfa_offset 0
	bx	lr
	.cfi_endproc
.LFE149:
	.size	Cy_SCB_GetInterruptCause, .-Cy_SCB_GetInterruptCause
	.section	.text.Cy_SCB_GetRxInterruptStatus,"ax",%progbits
	.align	1
	.syntax unified
	.thumb
	.thumb_func
	.type	Cy_SCB_GetRxInterruptStatus, %function
Cy_SCB_GetRxInterruptStatus:
.LFB150:
	.loc 2 1175 1
	.cfi_startproc
	@ args = 0, pretend = 0, frame = 8
	@ frame_needed = 1, uses_anonymous_args = 0
	@ link register save eliminated.
	push	{r7}
.LCFI50:
	.cfi_def_cfa_offset 4
	.cfi_offset 7, -4
	sub	sp, sp, #12
.LCFI51:
	.cfi_def_cfa_offset 16
	add	r7, sp, #0
.LCFI52:
	.cfi_def_cfa_register 7
	str	r0, [r7, #4]
	.loc 2 1176 39
	ldr	r3, [r7, #4]
	ldr	r2, [r3, #4032]
	.loc 2 1176 50
	movw	r3, #2925
	ands	r3, r3, r2
	.loc 2 1177 1
	mov	r0, r3
	adds	r7, r7, #12
.LCFI53:
	.cfi_def_cfa_offset 4
	mov	sp, r7
.LCFI54:
	.cfi_def_cfa_register 13
	@ sp needed
	ldr	r7, [sp], #4
.LCFI55:
	.cfi_restore 7
	.cfi_def_cfa_offset 0
	bx	lr
	.cfi_endproc
.LFE150:
	.size	Cy_SCB_GetRxInterruptStatus, .-Cy_SCB_GetRxInterruptStatus
	.section	.text.Cy_SCB_SetRxInterruptMask,"ax",%progbits
	.align	1
	.syntax unified
	.thumb
	.thumb_func
	.type	Cy_SCB_SetRxInterruptMask, %function
Cy_SCB_SetRxInterruptMask:
.LFB151:
	.loc 2 1196 1
	.cfi_startproc
	@ args = 0, pretend = 0, frame = 8
	@ frame_needed = 1, uses_anonymous_args = 0
	push	{r7, lr}
.LCFI56:
	.cfi_def_cfa_offset 8
	.cfi_offset 7, -8
	.cfi_offset 14, -4
	sub	sp, sp, #8
.LCFI57:
	.cfi_def_cfa_offset 16
	add	r7, sp, #0
.LCFI58:
	.cfi_def_cfa_register 7
	str	r0, [r7, #4]
	str	r1, [r7]
	.loc 2 1197 41
	ldr	r3, [r7]
	bic	r3, r3, #2912
	bic	r3, r3, #13
	.loc 2 1197 12
	cmp	r3, #0
	beq	.L19
	.loc 2 1197 138 discriminator 1
	bl	CY_HALT
.L19:
	.loc 2 1199 47
	ldr	r3, [r7, #4]
	ldr	r2, [r7]
	str	r2, [r3, #4040]
	.loc 2 1200 1
	nop
	adds	r7, r7, #8
.LCFI59:
	.cfi_def_cfa_offset 8
	mov	sp, r7
.LCFI60:
	.cfi_def_cfa_register 13
	@ sp needed
	pop	{r7, pc}
	.cfi_endproc
.LFE151:
	.size	Cy_SCB_SetRxInterruptMask, .-Cy_SCB_SetRxInterruptMask
	.section	.text.Cy_SCB_GetRxInterruptStatusMasked,"ax",%progbits
	.align	1
	.syntax unified
	.thumb
	.thumb_func
	.type	Cy_SCB_GetRxInterruptStatusMasked, %function
Cy_SCB_GetRxInterruptStatusMasked:
.LFB153:
	.loc 2 1243 1
	.cfi_startproc
	@ args = 0, pretend = 0, frame = 8
	@ frame_needed = 1, uses_anonymous_args = 0
	@ link register save eliminated.
	push	{r7}
.LCFI61:
	.cfi_def_cfa_offset 4
	.cfi_offset 7, -4
	sub	sp, sp, #12
.LCFI62:
	.cfi_def_cfa_offset 16
	add	r7, sp, #0
.LCFI63:
	.cfi_def_cfa_register 7
	str	r0, [r7, #4]
	.loc 2 1244 39
	ldr	r3, [r7, #4]
	ldr	r3, [r3, #4044]
	.loc 2 1245 1
	mov	r0, r3
	adds	r7, r7, #12
.LCFI64:
	.cfi_def_cfa_offset 4
	mov	sp, r7
.LCFI65:
	.cfi_def_cfa_register 13
	@ sp needed
	ldr	r7, [sp], #4
.LCFI66:
	.cfi_restore 7
	.cfi_def_cfa_offset 0
	bx	lr
	.cfi_endproc
.LFE153:
	.size	Cy_SCB_GetRxInterruptStatusMasked, .-Cy_SCB_GetRxInterruptStatusMasked
	.section	.text.Cy_SCB_ClearRxInterrupt,"ax",%progbits
	.align	1
	.syntax unified
	.thumb
	.thumb_func
	.type	Cy_SCB_ClearRxInterrupt, %function
Cy_SCB_ClearRxInterrupt:
.LFB154:
	.loc 2 1271 1
	.cfi_startproc
	@ args = 0, pretend = 0, frame = 8
	@ frame_needed = 1, uses_anonymous_args = 0
	push	{r7, lr}
.LCFI67:
	.cfi_def_cfa_offset 8
	.cfi_offset 7, -8
	.cfi_offset 14, -4
	sub	sp, sp, #8
.LCFI68:
	.cfi_def_cfa_offset 16
	add	r7, sp, #0
.LCFI69:
	.cfi_def_cfa_register 7
	str	r0, [r7, #4]
	str	r1, [r7]
	.loc 2 1272 41
	ldr	r3, [r7]
	bic	r3, r3, #2912
	bic	r3, r3, #13
	.loc 2 1272 12
	cmp	r3, #0
	beq	.L23
	.loc 2 1272 138 discriminator 1
	bl	CY_HALT
.L23:
	.loc 2 1274 42
	ldr	r3, [r7, #4]
	ldr	r2, [r7]
	str	r2, [r3, #4032]
	.loc 2 1275 5
	ldr	r3, [r7, #4]
	ldr	r3, [r3, #4032]
	.loc 2 1276 1
	nop
	adds	r7, r7, #8
.LCFI70:
	.cfi_def_cfa_offset 8
	mov	sp, r7
.LCFI71:
	.cfi_def_cfa_register 13
	@ sp needed
	pop	{r7, pc}
	.cfi_endproc
.LFE154:
	.size	Cy_SCB_ClearRxInterrupt, .-Cy_SCB_ClearRxInterrupt
	.section	.text.Cy_SCB_SetRxInterrupt,"ax",%progbits
	.align	1
	.syntax unified
	.thumb
	.thumb_func
	.type	Cy_SCB_SetRxInterrupt, %function
Cy_SCB_SetRxInterrupt:
.LFB155:
	.loc 2 1294 1
	.cfi_startproc
	@ args = 0, pretend = 0, frame = 8
	@ frame_needed = 1, uses_anonymous_args = 0
	push	{r7, lr}
.LCFI72:
	.cfi_def_cfa_offset 8
	.cfi_offset 7, -8
	.cfi_offset 14, -4
	sub	sp, sp, #8
.LCFI73:
	.cfi_def_cfa_offset 16
	add	r7, sp, #0
.LCFI74:
	.cfi_def_cfa_register 7
	str	r0, [r7, #4]
	str	r1, [r7]
	.loc 2 1295 41
	ldr	r3, [r7]
	bic	r3, r3, #2912
	bic	r3, r3, #13
	.loc 2 1295 12
	cmp	r3, #0
	beq	.L25
	.loc 2 1295 138 discriminator 1
	bl	CY_HALT
.L25:
	.loc 2 1297 46
	ldr	r3, [r7, #4]
	ldr	r2, [r7]
	str	r2, [r3, #4036]
	.loc 2 1298 1
	nop
	adds	r7, r7, #8
.LCFI75:
	.cfi_def_cfa_offset 8
	mov	sp, r7
.LCFI76:
	.cfi_def_cfa_register 13
	@ sp needed
	pop	{r7, pc}
	.cfi_endproc
.LFE155:
	.size	Cy_SCB_SetRxInterrupt, .-Cy_SCB_SetRxInterrupt
	.section	.text.Cy_SCB_SetTxInterruptMask,"ax",%progbits
	.align	1
	.syntax unified
	.thumb
	.thumb_func
	.type	Cy_SCB_SetTxInterruptMask, %function
Cy_SCB_SetTxInterruptMask:
.LFB157:
	.loc 2 1340 1
	.cfi_startproc
	@ args = 0, pretend = 0, frame = 8
	@ frame_needed = 1, uses_anonymous_args = 0
	push	{r7, lr}
.LCFI77:
	.cfi_def_cfa_offset 8
	.cfi_offset 7, -8
	.cfi_offset 14, -4
	sub	sp, sp, #8
.LCFI78:
	.cfi_def_cfa_offset 16
	add	r7, sp, #0
.LCFI79:
	.cfi_def_cfa_register 7
	str	r0, [r7, #4]
	str	r1, [r7]
	.loc 2 1341 41
	ldr	r3, [r7]
	bic	r3, r3, #1904
	bic	r3, r3, #3
	.loc 2 1341 12
	cmp	r3, #0
	beq	.L27
	.loc 2 1341 139 discriminator 1
	bl	CY_HALT
.L27:
	.loc 2 1343 47
	ldr	r3, [r7, #4]
	ldr	r2, [r7]
	str	r2, [r3, #3976]
	.loc 2 1344 1
	nop
	adds	r7, r7, #8
.LCFI80:
	.cfi_def_cfa_offset 8
	mov	sp, r7
.LCFI81:
	.cfi_def_cfa_register 13
	@ sp needed
	pop	{r7, pc}
	.cfi_endproc
.LFE157:
	.size	Cy_SCB_SetTxInterruptMask, .-Cy_SCB_SetTxInterruptMask
	.section	.text.Cy_SCB_GetTxInterruptStatusMasked,"ax",%progbits
	.align	1
	.syntax unified
	.thumb
	.thumb_func
	.type	Cy_SCB_GetTxInterruptStatusMasked, %function
Cy_SCB_GetTxInterruptStatusMasked:
.LFB159:
	.loc 2 1387 1
	.cfi_startproc
	@ args = 0, pretend = 0, frame = 8
	@ frame_needed = 1, uses_anonymous_args = 0
	@ link register save eliminated.
	push	{r7}
.LCFI82:
	.cfi_def_cfa_offset 4
	.cfi_offset 7, -4
	sub	sp, sp, #12
.LCFI83:
	.cfi_def_cfa_offset 16
	add	r7, sp, #0
.LCFI84:
	.cfi_def_cfa_register 7
	str	r0, [r7, #4]
	.loc 2 1388 39
	ldr	r3, [r7, #4]
	ldr	r3, [r3, #3980]
	.loc 2 1389 1
	mov	r0, r3
	adds	r7, r7, #12
.LCFI85:
	.cfi_def_cfa_offset 4
	mov	sp, r7
.LCFI86:
	.cfi_def_cfa_register 13
	@ sp needed
	ldr	r7, [sp], #4
.LCFI87:
	.cfi_restore 7
	.cfi_def_cfa_offset 0
	bx	lr
	.cfi_endproc
.LFE159:
	.size	Cy_SCB_GetTxInterruptStatusMasked, .-Cy_SCB_GetTxInterruptStatusMasked
	.section	.text.Cy_SCB_ClearTxInterrupt,"ax",%progbits
	.align	1
	.syntax unified
	.thumb
	.thumb_func
	.type	Cy_SCB_ClearTxInterrupt, %function
Cy_SCB_ClearTxInterrupt:
.LFB160:
	.loc 2 1417 1
	.cfi_startproc
	@ args = 0, pretend = 0, frame = 8
	@ frame_needed = 1, uses_anonymous_args = 0
	push	{r7, lr}
.LCFI88:
	.cfi_def_cfa_offset 8
	.cfi_offset 7, -8
	.cfi_offset 14, -4
	sub	sp, sp, #8
.LCFI89:
	.cfi_def_cfa_offset 16
	add	r7, sp, #0
.LCFI90:
	.cfi_def_cfa_register 7
	str	r0, [r7, #4]
	str	r1, [r7]
	.loc 2 1418 41
	ldr	r3, [r7]
	bic	r3, r3, #1904
	bic	r3, r3, #3
	.loc 2 1418 12
	cmp	r3, #0
	beq	.L31
	.loc 2 1418 139 discriminator 1
	bl	CY_HALT
.L31:
	.loc 2 1420 42
	ldr	r3, [r7, #4]
	ldr	r2, [r7]
	str	r2, [r3, #3968]
	.loc 2 1421 5
	ldr	r3, [r7, #4]
	ldr	r3, [r3, #3968]
	.loc 2 1422 1
	nop
	adds	r7, r7, #8
.LCFI91:
	.cfi_def_cfa_offset 8
	mov	sp, r7
.LCFI92:
	.cfi_def_cfa_register 13
	@ sp needed
	pop	{r7, pc}
	.cfi_endproc
.LFE160:
	.size	Cy_SCB_ClearTxInterrupt, .-Cy_SCB_ClearTxInterrupt
	.section	.text.Cy_SCB_GetMasterInterruptStatus,"ax",%progbits
	.align	1
	.syntax unified
	.thumb
	.thumb_func
	.type	Cy_SCB_GetMasterInterruptStatus, %function
Cy_SCB_GetMasterInterruptStatus:
.LFB162:
	.loc 2 1465 1
	.cfi_startproc
	@ args = 0, pretend = 0, frame = 8
	@ frame_needed = 1, uses_anonymous_args = 0
	@ link register save eliminated.
	push	{r7}
.LCFI93:
	.cfi_def_cfa_offset 4
	.cfi_offset 7, -4
	sub	sp, sp, #12
.LCFI94:
	.cfi_def_cfa_offset 16
	add	r7, sp, #0
.LCFI95:
	.cfi_def_cfa_register 7
	str	r0, [r7, #4]
	.loc 2 1466 39
	ldr	r3, [r7, #4]
	ldr	r2, [r3, #3840]
	.loc 2 1466 49
	movw	r3, #791
	ands	r3, r3, r2
	.loc 2 1467 1
	mov	r0, r3
	adds	r7, r7, #12
.LCFI96:
	.cfi_def_cfa_offset 4
	mov	sp, r7
.LCFI97:
	.cfi_def_cfa_register 13
	@ sp needed
	ldr	r7, [sp], #4
.LCFI98:
	.cfi_restore 7
	.cfi_def_cfa_offset 0
	bx	lr
	.cfi_endproc
.LFE162:
	.size	Cy_SCB_GetMasterInterruptStatus, .-Cy_SCB_GetMasterInterruptStatus
	.section	.text.Cy_SCB_SetMasterInterruptMask,"ax",%progbits
	.align	1
	.syntax unified
	.thumb
	.thumb_func
	.type	Cy_SCB_SetMasterInterruptMask, %function
Cy_SCB_SetMasterInterruptMask:
.LFB163:
	.loc 2 1486 1
	.cfi_startproc
	@ args = 0, pretend = 0, frame = 8
	@ frame_needed = 1, uses_anonymous_args = 0
	push	{r7, lr}
.LCFI99:
	.cfi_def_cfa_offset 8
	.cfi_offset 7, -8
	.cfi_offset 14, -4
	sub	sp, sp, #8
.LCFI100:
	.cfi_def_cfa_offset 16
	add	r7, sp, #0
.LCFI101:
	.cfi_def_cfa_register 7
	str	r0, [r7, #4]
	str	r1, [r7]
	.loc 2 1487 41
	ldr	r3, [r7]
	bic	r3, r3, #788
	bic	r3, r3, #3
	.loc 2 1487 12
	cmp	r3, #0
	beq	.L35
	.loc 2 1487 119 discriminator 1
	bl	CY_HALT
.L35:
	.loc 2 1489 46
	ldr	r3, [r7, #4]
	ldr	r2, [r7]
	str	r2, [r3, #3848]
	.loc 2 1490 1
	nop
	adds	r7, r7, #8
.LCFI102:
	.cfi_def_cfa_offset 8
	mov	sp, r7
.LCFI103:
	.cfi_def_cfa_register 13
	@ sp needed
	pop	{r7, pc}
	.cfi_endproc
.LFE163:
	.size	Cy_SCB_SetMasterInterruptMask, .-Cy_SCB_SetMasterInterruptMask
	.section	.text.Cy_SCB_GetMasterInterruptStatusMasked,"ax",%progbits
	.align	1
	.syntax unified
	.thumb
	.thumb_func
	.type	Cy_SCB_GetMasterInterruptStatusMasked, %function
Cy_SCB_GetMasterInterruptStatusMasked:
.LFB165:
	.loc 2 1534 1
	.cfi_startproc
	@ args = 0, pretend = 0, frame = 8
	@ frame_needed = 1, uses_anonymous_args = 0
	@ link register save eliminated.
	push	{r7}
.LCFI104:
	.cfi_def_cfa_offset 4
	.cfi_offset 7, -4
	sub	sp, sp, #12
.LCFI105:
	.cfi_def_cfa_offset 16
	add	r7, sp, #0
.LCFI106:
	.cfi_def_cfa_register 7
	str	r0, [r7, #4]
	.loc 2 1535 39
	ldr	r3, [r7, #4]
	ldr	r3, [r3, #3852]
	.loc 2 1536 1
	mov	r0, r3
	adds	r7, r7, #12
.LCFI107:
	.cfi_def_cfa_offset 4
	mov	sp, r7
.LCFI108:
	.cfi_def_cfa_register 13
	@ sp needed
	ldr	r7, [sp], #4
.LCFI109:
	.cfi_restore 7
	.cfi_def_cfa_offset 0
	bx	lr
	.cfi_endproc
.LFE165:
	.size	Cy_SCB_GetMasterInterruptStatusMasked, .-Cy_SCB_GetMasterInterruptStatusMasked
	.section	.text.Cy_SCB_ClearMasterInterrupt,"ax",%progbits
	.align	1
	.syntax unified
	.thumb
	.thumb_func
	.type	Cy_SCB_ClearMasterInterrupt, %function
Cy_SCB_ClearMasterInterrupt:
.LFB166:
	.loc 2 1554 1
	.cfi_startproc
	@ args = 0, pretend = 0, frame = 8
	@ frame_needed = 1, uses_anonymous_args = 0
	push	{r7, lr}
.LCFI110:
	.cfi_def_cfa_offset 8
	.cfi_offset 7, -8
	.cfi_offset 14, -4
	sub	sp, sp, #8
.LCFI111:
	.cfi_def_cfa_offset 16
	add	r7, sp, #0
.LCFI112:
	.cfi_def_cfa_register 7
	str	r0, [r7, #4]
	str	r1, [r7]
	.loc 2 1555 41
	ldr	r3, [r7]
	bic	r3, r3, #788
	bic	r3, r3, #3
	.loc 2 1555 12
	cmp	r3, #0
	beq	.L39
	.loc 2 1555 119 discriminator 1
	bl	CY_HALT
.L39:
	.loc 2 1557 41
	ldr	r3, [r7, #4]
	ldr	r2, [r7]
	str	r2, [r3, #3840]
	.loc 2 1558 5
	ldr	r3, [r7, #4]
	ldr	r3, [r3, #3840]
	.loc 2 1559 1
	nop
	adds	r7, r7, #8
.LCFI113:
	.cfi_def_cfa_offset 8
	mov	sp, r7
.LCFI114:
	.cfi_def_cfa_register 13
	@ sp needed
	pop	{r7, pc}
	.cfi_endproc
.LFE166:
	.size	Cy_SCB_ClearMasterInterrupt, .-Cy_SCB_ClearMasterInterrupt
	.section	.text.Cy_SCB_GetSlaveInterruptStatus,"ax",%progbits
	.align	1
	.syntax unified
	.thumb
	.thumb_func
	.type	Cy_SCB_GetSlaveInterruptStatus, %function
Cy_SCB_GetSlaveInterruptStatus:
.LFB168:
	.loc 2 1602 1
	.cfi_startproc
	@ args = 0, pretend = 0, frame = 8
	@ frame_needed = 1, uses_anonymous_args = 0
	@ link register save eliminated.
	push	{r7}
.LCFI115:
	.cfi_def_cfa_offset 4
	.cfi_offset 7, -4
	sub	sp, sp, #12
.LCFI116:
	.cfi_def_cfa_offset 16
	add	r7, sp, #0
.LCFI117:
	.cfi_def_cfa_register 7
	str	r0, [r7, #4]
	.loc 2 1603 39
	ldr	r3, [r7, #4]
	ldr	r2, [r3, #3904]
	.loc 2 1603 49
	movw	r3, #2559
	ands	r3, r3, r2
	.loc 2 1604 1
	mov	r0, r3
	adds	r7, r7, #12
.LCFI118:
	.cfi_def_cfa_offset 4
	mov	sp, r7
.LCFI119:
	.cfi_def_cfa_register 13
	@ sp needed
	ldr	r7, [sp], #4
.LCFI120:
	.cfi_restore 7
	.cfi_def_cfa_offset 0
	bx	lr
	.cfi_endproc
.LFE168:
	.size	Cy_SCB_GetSlaveInterruptStatus, .-Cy_SCB_GetSlaveInterruptStatus
	.section	.text.Cy_SCB_SetSlaveInterruptMask,"ax",%progbits
	.align	1
	.syntax unified
	.thumb
	.thumb_func
	.type	Cy_SCB_SetSlaveInterruptMask, %function
Cy_SCB_SetSlaveInterruptMask:
.LFB169:
	.loc 2 1624 1
	.cfi_startproc
	@ args = 0, pretend = 0, frame = 8
	@ frame_needed = 1, uses_anonymous_args = 0
	push	{r7, lr}
.LCFI121:
	.cfi_def_cfa_offset 8
	.cfi_offset 7, -8
	.cfi_offset 14, -4
	sub	sp, sp, #8
.LCFI122:
	.cfi_def_cfa_offset 16
	add	r7, sp, #0
.LCFI123:
	.cfi_def_cfa_register 7
	str	r0, [r7, #4]
	str	r1, [r7]
	.loc 2 1625 41
	ldr	r3, [r7]
	bic	r3, r3, #2544
	bic	r3, r3, #15
	.loc 2 1625 12
	cmp	r3, #0
	beq	.L43
	.loc 2 1625 154 discriminator 1
	bl	CY_HALT
.L43:
	.loc 2 1627 46
	ldr	r3, [r7, #4]
	ldr	r2, [r7]
	str	r2, [r3, #3912]
	.loc 2 1628 1
	nop
	adds	r7, r7, #8
.LCFI124:
	.cfi_def_cfa_offset 8
	mov	sp, r7
.LCFI125:
	.cfi_def_cfa_register 13
	@ sp needed
	pop	{r7, pc}
	.cfi_endproc
.LFE169:
	.size	Cy_SCB_SetSlaveInterruptMask, .-Cy_SCB_SetSlaveInterruptMask
	.section	.text.Cy_SCB_GetSlaveInterruptStatusMasked,"ax",%progbits
	.align	1
	.syntax unified
	.thumb
	.thumb_func
	.type	Cy_SCB_GetSlaveInterruptStatusMasked, %function
Cy_SCB_GetSlaveInterruptStatusMasked:
.LFB171:
	.loc 2 1673 1
	.cfi_startproc
	@ args = 0, pretend = 0, frame = 8
	@ frame_needed = 1, uses_anonymous_args = 0
	@ link register save eliminated.
	push	{r7}
.LCFI126:
	.cfi_def_cfa_offset 4
	.cfi_offset 7, -4
	sub	sp, sp, #12
.LCFI127:
	.cfi_def_cfa_offset 16
	add	r7, sp, #0
.LCFI128:
	.cfi_def_cfa_register 7
	str	r0, [r7, #4]
	.loc 2 1674 39
	ldr	r3, [r7, #4]
	ldr	r3, [r3, #3916]
	.loc 2 1675 1
	mov	r0, r3
	adds	r7, r7, #12
.LCFI129:
	.cfi_def_cfa_offset 4
	mov	sp, r7
.LCFI130:
	.cfi_def_cfa_register 13
	@ sp needed
	ldr	r7, [sp], #4
.LCFI131:
	.cfi_restore 7
	.cfi_def_cfa_offset 0
	bx	lr
	.cfi_endproc
.LFE171:
	.size	Cy_SCB_GetSlaveInterruptStatusMasked, .-Cy_SCB_GetSlaveInterruptStatusMasked
	.section	.text.Cy_SCB_ClearSlaveInterrupt,"ax",%progbits
	.align	1
	.syntax unified
	.thumb
	.thumb_func
	.type	Cy_SCB_ClearSlaveInterrupt, %function
Cy_SCB_ClearSlaveInterrupt:
.LFB172:
	.loc 2 1693 1
	.cfi_startproc
	@ args = 0, pretend = 0, frame = 8
	@ frame_needed = 1, uses_anonymous_args = 0
	push	{r7, lr}
.LCFI132:
	.cfi_def_cfa_offset 8
	.cfi_offset 7, -8
	.cfi_offset 14, -4
	sub	sp, sp, #8
.LCFI133:
	.cfi_def_cfa_offset 16
	add	r7, sp, #0
.LCFI134:
	.cfi_def_cfa_register 7
	str	r0, [r7, #4]
	str	r1, [r7]
	.loc 2 1694 41
	ldr	r3, [r7]
	bic	r3, r3, #2544
	bic	r3, r3, #15
	.loc 2 1694 12
	cmp	r3, #0
	beq	.L47
	.loc 2 1694 154 discriminator 1
	bl	CY_HALT
.L47:
	.loc 2 1696 41
	ldr	r3, [r7, #4]
	ldr	r2, [r7]
	str	r2, [r3, #3904]
	.loc 2 1697 5
	ldr	r3, [r7, #4]
	ldr	r3, [r3, #3904]
	.loc 2 1698 1
	nop
	adds	r7, r7, #8
.LCFI135:
	.cfi_def_cfa_offset 8
	mov	sp, r7
.LCFI136:
	.cfi_def_cfa_register 13
	@ sp needed
	pop	{r7, pc}
	.cfi_endproc
.LFE172:
	.size	Cy_SCB_ClearSlaveInterrupt, .-Cy_SCB_ClearSlaveInterrupt
	.section	.text.Cy_SCB_SetI2CInterruptMask,"ax",%progbits
	.align	1
	.syntax unified
	.thumb
	.thumb_func
	.type	Cy_SCB_SetI2CInterruptMask, %function
Cy_SCB_SetI2CInterruptMask:
.LFB175:
	.loc 2 1762 1
	.cfi_startproc
	@ args = 0, pretend = 0, frame = 8
	@ frame_needed = 1, uses_anonymous_args = 0
	push	{r7, lr}
.LCFI137:
	.cfi_def_cfa_offset 8
	.cfi_offset 7, -8
	.cfi_offset 14, -4
	sub	sp, sp, #8
.LCFI138:
	.cfi_def_cfa_offset 16
	add	r7, sp, #0
.LCFI139:
	.cfi_def_cfa_register 7
	str	r0, [r7, #4]
	str	r1, [r7]
	.loc 2 1763 41
	ldr	r3, [r7]
	bic	r3, r3, #1
	.loc 2 1763 12
	cmp	r3, #0
	beq	.L49
	.loc 2 1763 72 discriminator 1
	bl	CY_HALT
.L49:
	.loc 2 1765 51
	ldr	r3, [r7, #4]
	ldr	r2, [r7]
	str	r2, [r3, #3720]
	.loc 2 1766 1
	nop
	adds	r7, r7, #8
.LCFI140:
	.cfi_def_cfa_offset 8
	mov	sp, r7
.LCFI141:
	.cfi_def_cfa_register 13
	@ sp needed
	pop	{r7, pc}
	.cfi_endproc
.LFE175:
	.size	Cy_SCB_SetI2CInterruptMask, .-Cy_SCB_SetI2CInterruptMask
	.section	.text.Cy_SCB_GetI2CInterruptStatusMasked,"ax",%progbits
	.align	1
	.syntax unified
	.thumb
	.thumb_func
	.type	Cy_SCB_GetI2CInterruptStatusMasked, %function
Cy_SCB_GetI2CInterruptStatusMasked:
.LFB177:
	.loc 2 1809 1
	.cfi_startproc
	@ args = 0, pretend = 0, frame = 8
	@ frame_needed = 1, uses_anonymous_args = 0
	@ link register save eliminated.
	push	{r7}
.LCFI142:
	.cfi_def_cfa_offset 4
	.cfi_offset 7, -4
	sub	sp, sp, #12
.LCFI143:
	.cfi_def_cfa_offset 16
	add	r7, sp, #0
.LCFI144:
	.cfi_def_cfa_register 7
	str	r0, [r7, #4]
	.loc 2 1810 39
	ldr	r3, [r7, #4]
	ldr	r3, [r3, #3724]
	.loc 2 1811 1
	mov	r0, r3
	adds	r7, r7, #12
.LCFI145:
	.cfi_def_cfa_offset 4
	mov	sp, r7
.LCFI146:
	.cfi_def_cfa_register 13
	@ sp needed
	ldr	r7, [sp], #4
.LCFI147:
	.cfi_restore 7
	.cfi_def_cfa_offset 0
	bx	lr
	.cfi_endproc
.LFE177:
	.size	Cy_SCB_GetI2CInterruptStatusMasked, .-Cy_SCB_GetI2CInterruptStatusMasked
	.section	.text.Cy_SCB_ClearI2CInterrupt,"ax",%progbits
	.align	1
	.syntax unified
	.thumb
	.thumb_func
	.type	Cy_SCB_ClearI2CInterrupt, %function
Cy_SCB_ClearI2CInterrupt:
.LFB178:
	.loc 2 1829 1
	.cfi_startproc
	@ args = 0, pretend = 0, frame = 8
	@ frame_needed = 1, uses_anonymous_args = 0
	push	{r7, lr}
.LCFI148:
	.cfi_def_cfa_offset 8
	.cfi_offset 7, -8
	.cfi_offset 14, -4
	sub	sp, sp, #8
.LCFI149:
	.cfi_def_cfa_offset 16
	add	r7, sp, #0
.LCFI150:
	.cfi_def_cfa_register 7
	str	r0, [r7, #4]
	str	r1, [r7]
	.loc 2 1830 41
	ldr	r3, [r7]
	bic	r3, r3, #1
	.loc 2 1830 12
	cmp	r3, #0
	beq	.L53
	.loc 2 1830 72 discriminator 1
	bl	CY_HALT
.L53:
	.loc 2 1832 46
	ldr	r3, [r7, #4]
	ldr	r2, [r7]
	str	r2, [r3, #3712]
	.loc 2 1833 5
	ldr	r3, [r7, #4]
	ldr	r3, [r3, #3712]
	.loc 2 1834 1
	nop
	adds	r7, r7, #8
.LCFI151:
	.cfi_def_cfa_offset 8
	mov	sp, r7
.LCFI152:
	.cfi_def_cfa_register 13
	@ sp needed
	pop	{r7, pc}
	.cfi_endproc
.LFE178:
	.size	Cy_SCB_ClearI2CInterrupt, .-Cy_SCB_ClearI2CInterrupt
	.section	.text.Cy_SCB_GetFifoSize,"ax",%progbits
	.align	1
	.syntax unified
	.thumb
	.thumb_func
	.type	Cy_SCB_GetFifoSize, %function
Cy_SCB_GetFifoSize:
.LFB184:
	.loc 2 1964 1
	.cfi_startproc
	@ args = 0, pretend = 0, frame = 8
	@ frame_needed = 1, uses_anonymous_args = 0
	@ link register save eliminated.
	push	{r7}
.LCFI153:
	.cfi_def_cfa_offset 4
	.cfi_offset 7, -4
	sub	sp, sp, #12
.LCFI154:
	.cfi_def_cfa_offset 16
	add	r7, sp, #0
.LCFI155:
	.cfi_def_cfa_register 7
	str	r0, [r7, #4]
	.loc 2 1968 43
	ldr	r3, [r7, #4]
	ldr	r3, [r3]
	.loc 2 1968 52
	and	r3, r3, #2048
	.loc 2 1968 85
	cmp	r3, #0
	beq	.L55
	.loc 2 1968 85 is_stmt 0 discriminator 1
	movs	r3, #128
	b	.L57
.L55:
	.loc 2 1968 85 discriminator 2
	movs	r3, #64
.L57:
	.loc 2 1973 1 is_stmt 1 discriminator 5
	mov	r0, r3
	adds	r7, r7, #12
.LCFI156:
	.cfi_def_cfa_offset 4
	mov	sp, r7
.LCFI157:
	.cfi_def_cfa_register 13
	@ sp needed
	ldr	r7, [sp], #4
.LCFI158:
	.cfi_restore 7
	.cfi_def_cfa_offset 0
	bx	lr
	.cfi_endproc
.LFE184:
	.size	Cy_SCB_GetFifoSize, .-Cy_SCB_GetFifoSize
	.section	.text.Cy_SCB_FwBlockReset,"ax",%progbits
	.align	1
	.syntax unified
	.thumb
	.thumb_func
	.type	Cy_SCB_FwBlockReset, %function
Cy_SCB_FwBlockReset:
.LFB187:
	.loc 2 2076 1
	.cfi_startproc
	@ args = 0, pretend = 0, frame = 8
	@ frame_needed = 1, uses_anonymous_args = 0
	@ link register save eliminated.
	push	{r7}
.LCFI159:
	.cfi_def_cfa_offset 4
	.cfi_offset 7, -4
	sub	sp, sp, #12
.LCFI160:
	.cfi_def_cfa_offset 16
	add	r7, sp, #0
.LCFI161:
	.cfi_def_cfa_register 7
	str	r0, [r7, #4]
	.loc 2 2077 39
	ldr	r3, [r7, #4]
	ldr	r3, [r3]
	bic	r2, r3, #-2147483648
	ldr	r3, [r7, #4]
	str	r2, [r3]
	.loc 2 2080 44
	ldr	r3, [r7, #4]
	movs	r2, #0
	str	r2, [r3, #104]
	.loc 2 2081 44
	ldr	r3, [r7, #4]
	movs	r2, #0
	str	r2, [r3, #108]
	.loc 2 2083 39
	ldr	r3, [r7, #4]
	ldr	r3, [r3]
	orr	r2, r3, #-2147483648
	ldr	r3, [r7, #4]
	str	r2, [r3]
	.loc 2 2085 5
	ldr	r3, [r7, #4]
	ldr	r3, [r3]
	.loc 2 2086 1
	nop
	adds	r7, r7, #12
.LCFI162:
	.cfi_def_cfa_offset 4
	mov	sp, r7
.LCFI163:
	.cfi_def_cfa_register 13
	@ sp needed
	ldr	r7, [sp], #4
.LCFI164:
	.cfi_restore 7
	.cfi_def_cfa_offset 0
	bx	lr
	.cfi_endproc
.LFE187:
	.size	Cy_SCB_FwBlockReset, .-Cy_SCB_FwBlockReset
	.section	.text.Cy_SCB_GetRxFifoLevel,"ax",%progbits
	.align	1
	.syntax unified
	.thumb
	.thumb_func
	.type	Cy_SCB_GetRxFifoLevel, %function
Cy_SCB_GetRxFifoLevel:
.LFB188:
	.loc 2 2104 1
	.cfi_startproc
	@ args = 0, pretend = 0, frame = 8
	@ frame_needed = 1, uses_anonymous_args = 0
	@ link register save eliminated.
	push	{r7}
.LCFI165:
	.cfi_def_cfa_offset 4
	.cfi_offset 7, -4
	sub	sp, sp, #12
.LCFI166:
	.cfi_def_cfa_offset 16
	add	r7, sp, #0
.LCFI167:
	.cfi_def_cfa_register 7
	str	r0, [r7, #4]
	.loc 2 2105 51
	ldr	r3, [r7, #4]
	ldr	r3, [r3, #772]
	.loc 2 2105 78
	uxtb	r3, r3
	.loc 2 2106 1
	mov	r0, r3
	adds	r7, r7, #12
.LCFI168:
	.cfi_def_cfa_offset 4
	mov	sp, r7
.LCFI169:
	.cfi_def_cfa_register 13
	@ sp needed
	ldr	r7, [sp], #4
.LCFI170:
	.cfi_restore 7
	.cfi_def_cfa_offset 0
	bx	lr
	.cfi_endproc
.LFE188:
	.size	Cy_SCB_GetRxFifoLevel, .-Cy_SCB_GetRxFifoLevel
	.section	.text.Cy_SCB_I2C_Enable,"ax",%progbits
	.align	1
	.syntax unified
	.thumb
	.thumb_func
	.type	Cy_SCB_I2C_Enable, %function
Cy_SCB_I2C_Enable:
.LFB189:
	.file 3 "libraries\\IFX_PSOC6_HAL\\mtb-pdl-cat1\\drivers\\include/cy_scb_i2c.h"
	.loc 3 1144 1
	.cfi_startproc
	@ args = 0, pretend = 0, frame = 8
	@ frame_needed = 1, uses_anonymous_args = 0
	@ link register save eliminated.
	push	{r7}
.LCFI171:
	.cfi_def_cfa_offset 4
	.cfi_offset 7, -4
	sub	sp, sp, #12
.LCFI172:
	.cfi_def_cfa_offset 16
	add	r7, sp, #0
.LCFI173:
	.cfi_def_cfa_register 7
	str	r0, [r7, #4]
	.loc 3 1145 39
	ldr	r3, [r7, #4]
	ldr	r3, [r3]
	orr	r2, r3, #-2147483648
	ldr	r3, [r7, #4]
	str	r2, [r3]
	.loc 3 1146 1
	nop
	adds	r7, r7, #12
.LCFI174:
	.cfi_def_cfa_offset 4
	mov	sp, r7
.LCFI175:
	.cfi_def_cfa_register 13
	@ sp needed
	ldr	r7, [sp], #4
.LCFI176:
	.cfi_restore 7
	.cfi_def_cfa_offset 0
	bx	lr
	.cfi_endproc
.LFE189:
	.size	Cy_SCB_I2C_Enable, .-Cy_SCB_I2C_Enable
	.section	.text.Cy_SCB_I2C_MasterSetLowPhaseDutyCycle,"ax",%progbits
	.align	1
	.syntax unified
	.thumb
	.thumb_func
	.type	Cy_SCB_I2C_MasterSetLowPhaseDutyCycle, %function
Cy_SCB_I2C_MasterSetLowPhaseDutyCycle:
.LFB195:
	.loc 3 1281 1
	.cfi_startproc
	@ args = 0, pretend = 0, frame = 8
	@ frame_needed = 1, uses_anonymous_args = 0
	push	{r7, lr}
.LCFI177:
	.cfi_def_cfa_offset 8
	.cfi_offset 7, -8
	.cfi_offset 14, -4
	sub	sp, sp, #8
.LCFI178:
	.cfi_def_cfa_offset 16
	add	r7, sp, #0
.LCFI179:
	.cfi_def_cfa_register 7
	str	r0, [r7, #4]
	str	r1, [r7]
	.loc 3 1282 12
	ldr	r3, [r7]
	cmp	r3, #6
	bls	.L63
	.loc 3 1282 13 discriminator 2
	ldr	r3, [r7]
	cmp	r3, #16
	bls	.L64
.L63:
	.loc 3 1282 73 discriminator 3
	bl	CY_HALT
.L64:
	.loc 3 1284 78
	ldr	r3, [r7, #4]
	ldr	r3, [r3, #96]
	.loc 3 1284 92
	bic	r2, r3, #240
	.loc 3 1284 124
	ldr	r3, [r7]
	subs	r3, r3, #1
	.loc 3 1284 158
	lsls	r3, r3, #4
	.loc 3 1284 166
	uxtb	r3, r3
	.loc 3 1284 119
	orrs	r2, r2, r3
	.loc 3 1284 46
	ldr	r3, [r7, #4]
	str	r2, [r3, #96]
	.loc 3 1285 1
	nop
	adds	r7, r7, #8
.LCFI180:
	.cfi_def_cfa_offset 8
	mov	sp, r7
.LCFI181:
	.cfi_def_cfa_register 13
	@ sp needed
	pop	{r7, pc}
	.cfi_endproc
.LFE195:
	.size	Cy_SCB_I2C_MasterSetLowPhaseDutyCycle, .-Cy_SCB_I2C_MasterSetLowPhaseDutyCycle
	.section	.text.Cy_SCB_I2C_MasterSetHighPhaseDutyCycle,"ax",%progbits
	.align	1
	.syntax unified
	.thumb
	.thumb_func
	.type	Cy_SCB_I2C_MasterSetHighPhaseDutyCycle, %function
Cy_SCB_I2C_MasterSetHighPhaseDutyCycle:
.LFB196:
	.loc 3 1310 1
	.cfi_startproc
	@ args = 0, pretend = 0, frame = 8
	@ frame_needed = 1, uses_anonymous_args = 0
	push	{r7, lr}
.LCFI182:
	.cfi_def_cfa_offset 8
	.cfi_offset 7, -8
	.cfi_offset 14, -4
	sub	sp, sp, #8
.LCFI183:
	.cfi_def_cfa_offset 16
	add	r7, sp, #0
.LCFI184:
	.cfi_def_cfa_register 7
	str	r0, [r7, #4]
	str	r1, [r7]
	.loc 3 1311 12
	ldr	r3, [r7]
	cmp	r3, #4
	bls	.L66
	.loc 3 1311 13 discriminator 2
	ldr	r3, [r7]
	cmp	r3, #16
	bls	.L67
.L66:
	.loc 3 1311 73 discriminator 3
	bl	CY_HALT
.L67:
	.loc 3 1313 78
	ldr	r3, [r7, #4]
	ldr	r3, [r3, #96]
	.loc 3 1313 92
	bic	r2, r3, #15
	.loc 3 1313 157
	ldr	r3, [r7]
	subs	r3, r3, #1
	.loc 3 1313 165
	and	r3, r3, #15
	.loc 3 1313 118
	orrs	r2, r2, r3
	.loc 3 1313 46
	ldr	r3, [r7, #4]
	str	r2, [r3, #96]
	.loc 3 1314 1
	nop
	adds	r7, r7, #8
.LCFI185:
	.cfi_def_cfa_offset 8
	mov	sp, r7
.LCFI186:
	.cfi_def_cfa_register 13
	@ sp needed
	pop	{r7, pc}
	.cfi_endproc
.LFE196:
	.size	Cy_SCB_I2C_MasterSetHighPhaseDutyCycle, .-Cy_SCB_I2C_MasterSetHighPhaseDutyCycle
	.section	.text.Cy_SCB_I2C_Init,"ax",%progbits
	.align	1
	.global	Cy_SCB_I2C_Init
	.syntax unified
	.thumb
	.thumb_func
	.type	Cy_SCB_I2C_Init, %function
Cy_SCB_I2C_Init:
.LFB199:
	.file 4 "libraries\\IFX_PSOC6_HAL\\mtb-pdl-cat1\\drivers\\source\\cy_scb_i2c.c"
	.loc 4 81 1
	.cfi_startproc
	@ args = 0, pretend = 0, frame = 24
	@ frame_needed = 1, uses_anonymous_args = 0
	push	{r7, lr}
.LCFI187:
	.cfi_def_cfa_offset 8
	.cfi_offset 7, -8
	.cfi_offset 14, -4
	sub	sp, sp, #24
.LCFI188:
	.cfi_def_cfa_offset 32
	add	r7, sp, #0
.LCFI189:
	.cfi_def_cfa_register 7
	str	r0, [r7, #12]
	str	r1, [r7, #8]
	str	r2, [r7, #4]
	.loc 4 83 8
	ldr	r3, [r7, #12]
	cmp	r3, #0
	beq	.L69
	.loc 4 83 23 discriminator 1
	ldr	r3, [r7, #8]
	cmp	r3, #0
	beq	.L69
	.loc 4 83 43 discriminator 2
	ldr	r3, [r7, #4]
	cmp	r3, #0
	bne	.L70
.L69:
	.loc 4 85 16
	ldr	r3, .L96
	b	.L71
.L70:
	.loc 4 88 45
	ldr	r3, [r7, #8]
	ldrb	r3, [r3]	@ zero_extendqisi2
	.loc 4 88 12
	cmp	r3, #1
	beq	.L72
	.loc 4 88 89 discriminator 1
	ldr	r3, [r7, #8]
	ldrb	r3, [r3]	@ zero_extendqisi2
	.loc 4 88 57 discriminator 1
	cmp	r3, #2
	beq	.L72
	.loc 4 88 139 discriminator 2
	ldr	r3, [r7, #8]
	ldrb	r3, [r3]	@ zero_extendqisi2
	.loc 4 88 13 discriminator 2
	cmp	r3, #3
	beq	.L72
	.loc 4 88 157 discriminator 3
	bl	CY_HALT
.L72:
	.loc 4 89 22
	ldr	r3, [r7, #8]
	ldrb	r3, [r3, #1]	@ zero_extendqisi2
	.loc 4 89 12
	cmp	r3, #0
	beq	.L73
	.loc 4 89 45 discriminator 1
	ldr	r3, [r7, #8]
	ldrb	r3, [r3, #5]	@ zero_extendqisi2
	.loc 4 89 13 discriminator 1
	cmp	r3, #0
	beq	.L73
	.loc 4 89 9 discriminator 2
	bl	CY_HALT
.L73:
	.loc 4 90 32
	ldr	r3, [r7, #8]
	ldrb	r3, [r3, #3]	@ zero_extendqisi2
	.loc 4 90 13
	sxtb	r3, r3
	.loc 4 90 12
	cmp	r3, #0
	bge	.L74
	.loc 4 90 64 discriminator 1
	bl	CY_HALT
.L74:
	.loc 4 91 32
	ldr	r3, [r7, #8]
	ldrb	r3, [r3, #4]	@ zero_extendqisi2
	.loc 4 91 52
	and	r3, r3, #1
	.loc 4 91 12
	cmp	r3, #0
	beq	.L75
	.loc 4 91 68 discriminator 1
	bl	CY_HALT
.L75:
	.loc 4 92 23
	ldr	r3, [r7, #8]
	ldr	r3, [r3, #16]
	.loc 4 92 12
	cmp	r3, #16
	bls	.L76
	.loc 4 92 57 discriminator 1
	bl	CY_HALT
.L76:
	.loc 4 93 23
	ldr	r3, [r7, #8]
	ldr	r3, [r3, #12]
	.loc 4 93 12
	cmp	r3, #16
	bls	.L77
	.loc 4 93 56 discriminator 1
	bl	CY_HALT
.L77:
	.loc 4 96 50
	ldr	r3, [r7, #8]
	ldrb	r3, [r3, #5]	@ zero_extendqisi2
	.loc 4 96 37
	cmp	r3, #0
	beq	.L78
	.loc 4 96 37 is_stmt 0 discriminator 1
	mov	r2, #65536
	b	.L79
.L78:
	.loc 4 96 37 discriminator 2
	movs	r2, #0
.L79:
	.loc 4 97 31 is_stmt 1
	ldr	r3, [r7, #8]
	ldrb	r3, [r3, #7]	@ zero_extendqisi2
	.loc 4 97 35
	cmp	r3, #0
	beq	.L80
	.loc 4 97 35 is_stmt 0 discriminator 1
	mov	r3, #256
	b	.L81
.L80:
	.loc 4 97 35 discriminator 2
	movs	r3, #0
.L81:
	.loc 4 96 44 is_stmt 1
	orrs	r2, r2, r3
	.loc 4 96 39
	ldr	r3, [r7, #12]
	str	r2, [r3]
	.loc 4 99 39
	ldr	r3, [r7, #12]
	ldr	r3, [r3]
	orr	r2, r3, #2048
	ldr	r3, [r7, #12]
	str	r2, [r3]
	.loc 4 102 55
	ldr	r3, [r7, #8]
	ldrb	r3, [r3, #6]	@ zero_extendqisi2
	.loc 4 102 73
	eor	r3, r3, #1
	uxtb	r3, r3
	.loc 4 102 39
	cmp	r3, #0
	beq	.L82
	.loc 4 102 39 is_stmt 0 discriminator 1
	mov	r2, #2048
	b	.L83
.L82:
	.loc 4 102 39 discriminator 2
	movs	r2, #0
.L83:
	.loc 4 103 46 is_stmt 1
	ldr	r3, [r7, #8]
	ldr	r3, [r3, #16]
	.loc 4 103 74
	subs	r3, r3, #1
	.loc 4 103 82
	and	r3, r3, #15
	.loc 4 102 46
	orrs	r2, r2, r3
	.loc 4 104 46
	ldr	r3, [r7, #8]
	ldr	r3, [r3, #12]
	.loc 4 104 28
	subs	r3, r3, #1
	.loc 4 104 73
	lsls	r3, r3, #4
	.loc 4 104 81
	uxtb	r3, r3
	.loc 4 103 91
	orrs	r2, r2, r3
	.loc 4 105 56
	ldr	r3, [r7, #8]
	ldrb	r3, [r3]	@ zero_extendqisi2
	.loc 4 105 76
	lsls	r3, r3, #30
	.loc 4 104 91
	orrs	r2, r2, r3
	.loc 4 102 43
	ldr	r3, [r7, #12]
	str	r2, [r3, #96]
.LBB44:
	.loc 4 109 58
	ldr	r3, [r7, #8]
	ldrb	r3, [r3]	@ zero_extendqisi2
	.loc 4 109 69
	cmp	r3, #1
	beq	.L84
	.loc 4 109 79 discriminator 1
	ldr	r3, [r7, #8]
	ldrb	r3, [r3, #8]	@ zero_extendqisi2
	.loc 4 109 69 discriminator 1
	cmp	r3, #0
	beq	.L84
	.loc 4 109 69 is_stmt 0 discriminator 3
	movs	r3, #1
	b	.L85
.L84:
	.loc 4 109 69 discriminator 4
	movs	r3, #0
.L85:
	.loc 4 109 13 is_stmt 1 discriminator 6
	strb	r3, [r7, #23]
	ldrb	r3, [r7, #23]
	and	r3, r3, #1
	strb	r3, [r7, #23]
	.loc 4 112 54 discriminator 6
	ldrb	r3, [r7, #23]	@ zero_extendqisi2
	cmp	r3, #0
	beq	.L86
	.loc 4 112 54 is_stmt 0 discriminator 1
	movw	r2, #775
	b	.L87
.L86:
	.loc 4 112 54 discriminator 2
	movw	r2, #263
.L87:
	.loc 4 112 46 is_stmt 1 discriminator 4
	ldr	r3, [r7, #12]
	str	r2, [r3, #768]
	.loc 4 116 347 discriminator 4
	ldrb	r3, [r7, #23]	@ zero_extendqisi2
	cmp	r3, #0
	beq	.L88
	.loc 4 116 347 is_stmt 0 discriminator 1
	ldr	r2, .L96+4
	b	.L89
.L88:
	.loc 4 116 347 discriminator 2
	ldr	r2, .L96+8
.L89:
	.loc 4 116 46 is_stmt 1 discriminator 4
	ldr	r3, [r7, #12]
	str	r2, [r3, #112]
.LBE44:
	.loc 4 119 56 discriminator 4
	ldr	r3, [r7, #8]
	ldrb	r3, [r3, #1]	@ zero_extendqisi2
	.loc 4 119 86 discriminator 4
	cmp	r3, #0
	beq	.L90
	.loc 4 119 86 is_stmt 0 discriminator 1
	movs	r2, #127
	b	.L91
.L90:
	.loc 4 119 86 discriminator 2
	movs	r2, #0
.L91:
	.loc 4 119 47 is_stmt 1 discriminator 4
	ldr	r3, [r7, #12]
	str	r2, [r3, #772]
	.loc 4 122 76 discriminator 4
	ldr	r3, [r7, #8]
	ldrb	r3, [r3, #3]	@ zero_extendqisi2
	.loc 4 122 100 discriminator 4
	lsls	r3, r3, #1
	.loc 4 122 108 discriminator 4
	uxtb	r2, r3
	.loc 4 123 56 discriminator 4
	ldr	r3, [r7, #8]
	ldrb	r3, [r3, #4]	@ zero_extendqisi2
	.loc 4 123 76 discriminator 4
	lsls	r3, r3, #16
	.loc 4 123 85 discriminator 4
	and	r3, r3, #16711680
	.loc 4 122 118 discriminator 4
	orrs	r2, r2, r3
	.loc 4 122 43 discriminator 4
	ldr	r3, [r7, #12]
	str	r2, [r3, #784]
	.loc 4 126 42 discriminator 4
	ldr	r3, [r7, #12]
	ldr	r2, .L96+12
	str	r2, [r3, #512]
	.loc 4 127 56 discriminator 4
	ldr	r3, [r7, #8]
	ldrb	r3, [r3, #2]	@ zero_extendqisi2
	.loc 4 127 86 discriminator 4
	cmp	r3, #0
	beq	.L92
	.loc 4 127 86 is_stmt 0 discriminator 1
	movs	r2, #64
	b	.L93
.L92:
	.loc 4 127 86 discriminator 2
	movs	r2, #1
.L93:
	.loc 4 127 47 is_stmt 1 discriminator 4
	ldr	r3, [r7, #12]
	str	r2, [r3, #516]
	.loc 4 130 51 discriminator 4
	ldr	r3, [r7, #12]
	movs	r2, #0
	str	r2, [r3, #3784]
	.loc 4 131 51 discriminator 4
	ldr	r3, [r7, #12]
	movs	r2, #0
	str	r2, [r3, #3720]
	.loc 4 132 47 discriminator 4
	ldr	r3, [r7, #12]
	movs	r2, #0
	str	r2, [r3, #4040]
	.loc 4 133 47 discriminator 4
	ldr	r3, [r7, #12]
	movs	r2, #0
	str	r2, [r3, #3976]
	.loc 4 134 46 discriminator 4
	ldr	r3, [r7, #12]
	movs	r2, #0
	str	r2, [r3, #3848]
	.loc 4 136 76 discriminator 4
	ldr	r3, [r7, #8]
	ldrb	r3, [r3]	@ zero_extendqisi2
	.loc 4 136 134 discriminator 4
	cmp	r3, #2
	beq	.L94
	.loc 4 136 134 is_stmt 0 discriminator 1
	movw	r2, #465
	b	.L95
.L94:
	.loc 4 136 134 discriminator 2
	movs	r2, #0
.L95:
	.loc 4 136 46 is_stmt 1 discriminator 4
	ldr	r3, [r7, #12]
	str	r2, [r3, #3912]
	.loc 4 139 32 discriminator 4
	ldr	r3, [r7, #8]
	ldrb	r2, [r3, #1]	@ zero_extendqisi2
	.loc 4 139 24 discriminator 4
	ldr	r3, [r7, #4]
	strb	r2, [r3]
	.loc 4 140 32 discriminator 4
	ldr	r3, [r7, #8]
	ldrb	r2, [r3, #2]	@ zero_extendqisi2
	.loc 4 140 24 discriminator 4
	ldr	r3, [r7, #4]
	strb	r2, [r3, #1]
	.loc 4 142 20 discriminator 4
	ldr	r3, [r7, #4]
	mov	r2, #268435456
	str	r2, [r3, #4]
	.loc 4 145 27 discriminator 4
	ldr	r3, [r7, #4]
	movs	r2, #0
	str	r2, [r3, #8]
	.loc 4 146 30 discriminator 4
	ldr	r3, [r7, #4]
	movs	r2, #0
	str	r2, [r3, #24]
	.loc 4 149 26 discriminator 4
	ldr	r3, [r7, #4]
	movs	r2, #0
	str	r2, [r3, #32]
	.loc 4 151 31 discriminator 4
	ldr	r3, [r7, #4]
	movs	r2, #0
	str	r2, [r3, #64]
	.loc 4 152 32 discriminator 4
	ldr	r3, [r7, #4]
	movs	r2, #0
	str	r2, [r3, #60]
	.loc 4 154 31 discriminator 4
	ldr	r3, [r7, #4]
	movs	r2, #0
	str	r2, [r3, #48]
	.loc 4 155 32 discriminator 4
	ldr	r3, [r7, #4]
	movs	r2, #0
	str	r2, [r3, #44]
	.loc 4 158 23 discriminator 4
	ldr	r3, [r7, #4]
	movs	r2, #0
	str	r2, [r3, #68]
	.loc 4 159 21 discriminator 4
	ldr	r3, [r7, #4]
	movs	r2, #0
	str	r2, [r3, #72]
	.loc 4 161 12 discriminator 4
	movs	r3, #0
.L71:
	.loc 4 162 1
	mov	r0, r3
	adds	r7, r7, #24
.LCFI190:
	.cfi_def_cfa_offset 8
	mov	sp, r7
.LCFI191:
	.cfi_def_cfa_register 13
	@ sp needed
	pop	{r7, pc}
.L97:
	.align	2
.L96:
	.word	11149313
	.word	2752515
	.word	2756627
	.word	65799
	.cfi_endproc
.LFE199:
	.size	Cy_SCB_I2C_Init, .-Cy_SCB_I2C_Init
	.section	.text.Cy_SCB_I2C_DeInit,"ax",%progbits
	.align	1
	.global	Cy_SCB_I2C_DeInit
	.syntax unified
	.thumb
	.thumb_func
	.type	Cy_SCB_I2C_DeInit, %function
Cy_SCB_I2C_DeInit:
.LFB200:
	.loc 4 179 1
	.cfi_startproc
	@ args = 0, pretend = 0, frame = 8
	@ frame_needed = 1, uses_anonymous_args = 0
	@ link register save eliminated.
	push	{r7}
.LCFI192:
	.cfi_def_cfa_offset 4
	.cfi_offset 7, -4
	sub	sp, sp, #12
.LCFI193:
	.cfi_def_cfa_offset 16
	add	r7, sp, #0
.LCFI194:
	.cfi_def_cfa_register 7
	str	r0, [r7, #4]
	.loc 4 181 39
	ldr	r3, [r7, #4]
	ldr	r2, .L99
	str	r2, [r3]
	.loc 4 182 43
	ldr	r3, [r7, #4]
	movw	r2, #64264
	str	r2, [r3, #96]
	.loc 4 183 42
	ldr	r3, [r7, #4]
	ldr	r2, .L99+4
	str	r2, [r3, #112]
	.loc 4 185 42
	ldr	r3, [r7, #4]
	movw	r2, #263
	str	r2, [r3, #768]
	.loc 4 186 47
	ldr	r3, [r7, #4]
	movs	r2, #0
	str	r2, [r3, #772]
	.loc 4 187 43
	ldr	r3, [r7, #4]
	movs	r2, #0
	str	r2, [r3, #784]
	.loc 4 189 42
	ldr	r3, [r7, #4]
	movw	r2, #263
	str	r2, [r3, #512]
	.loc 4 190 47
	ldr	r3, [r7, #4]
	movs	r2, #0
	str	r2, [r3, #516]
	.loc 4 192 51
	ldr	r3, [r7, #4]
	movs	r2, #0
	str	r2, [r3, #3784]
	.loc 4 193 51
	ldr	r3, [r7, #4]
	movs	r2, #0
	str	r2, [r3, #3720]
	.loc 4 194 47
	ldr	r3, [r7, #4]
	movs	r2, #0
	str	r2, [r3, #4040]
	.loc 4 195 47
	ldr	r3, [r7, #4]
	movs	r2, #0
	str	r2, [r3, #3976]
	.loc 4 196 46
	ldr	r3, [r7, #4]
	movs	r2, #0
	str	r2, [r3, #3848]
	.loc 4 197 46
	ldr	r3, [r7, #4]
	movs	r2, #0
	str	r2, [r3, #3912]
	.loc 4 198 1
	nop
	adds	r7, r7, #12
.LCFI195:
	.cfi_def_cfa_offset 4
	mov	sp, r7
.LCFI196:
	.cfi_def_cfa_register 13
	@ sp needed
	ldr	r7, [sp], #4
.LCFI197:
	.cfi_restore 7
	.cfi_def_cfa_offset 0
	bx	lr
.L100:
	.align	2
.L99:
	.word	50331663
	.word	2756627
	.cfi_endproc
.LFE200:
	.size	Cy_SCB_I2C_DeInit, .-Cy_SCB_I2C_DeInit
	.section	.text.Cy_SCB_I2C_Disable,"ax",%progbits
	.align	1
	.global	Cy_SCB_I2C_Disable
	.syntax unified
	.thumb
	.thumb_func
	.type	Cy_SCB_I2C_Disable, %function
Cy_SCB_I2C_Disable:
.LFB201:
	.loc 4 227 1
	.cfi_startproc
	@ args = 0, pretend = 0, frame = 8
	@ frame_needed = 1, uses_anonymous_args = 0
	@ link register save eliminated.
	push	{r7}
.LCFI198:
	.cfi_def_cfa_offset 4
	.cfi_offset 7, -4
	sub	sp, sp, #12
.LCFI199:
	.cfi_def_cfa_offset 16
	add	r7, sp, #0
.LCFI200:
	.cfi_def_cfa_register 7
	str	r0, [r7, #4]
	str	r1, [r7]
	.loc 4 228 39
	ldr	r3, [r7, #4]
	ldr	r3, [r3]
	bic	r2, r3, #-2147483648
	ldr	r3, [r7, #4]
	str	r2, [r3]
	.loc 4 231 20
	ldr	r3, [r7]
	mov	r2, #268435456
	str	r2, [r3, #4]
	.loc 4 232 27
	ldr	r3, [r7]
	movs	r2, #0
	str	r2, [r3, #8]
	.loc 4 233 26
	ldr	r3, [r7]
	movs	r2, #0
	str	r2, [r3, #32]
	.loc 4 234 1
	nop
	adds	r7, r7, #12
.LCFI201:
	.cfi_def_cfa_offset 4
	mov	sp, r7
.LCFI202:
	.cfi_def_cfa_register 13
	@ sp needed
	ldr	r7, [sp], #4
.LCFI203:
	.cfi_restore 7
	.cfi_def_cfa_offset 0
	bx	lr
	.cfi_endproc
.LFE201:
	.size	Cy_SCB_I2C_Disable, .-Cy_SCB_I2C_Disable
	.section	.text.Cy_SCB_I2C_DeepSleepCallback,"ax",%progbits
	.align	1
	.global	Cy_SCB_I2C_DeepSleepCallback
	.syntax unified
	.thumb
	.thumb_func
	.type	Cy_SCB_I2C_DeepSleepCallback, %function
Cy_SCB_I2C_DeepSleepCallback:
.LFB202:
	.loc 4 282 1
	.cfi_startproc
	@ args = 0, pretend = 0, frame = 24
	@ frame_needed = 1, uses_anonymous_args = 0
	push	{r7, lr}
.LCFI204:
	.cfi_def_cfa_offset 8
	.cfi_offset 7, -8
	.cfi_offset 14, -4
	sub	sp, sp, #24
.LCFI205:
	.cfi_def_cfa_offset 32
	add	r7, sp, #0
.LCFI206:
	.cfi_def_cfa_register 7
	str	r0, [r7, #4]
	mov	r3, r1
	strb	r3, [r7, #3]
	.loc 4 283 17
	ldr	r3, [r7, #4]
	ldr	r3, [r3]
	str	r3, [r7, #16]
	.loc 4 284 31
	ldr	r3, [r7, #4]
	ldr	r3, [r3, #4]
	str	r3, [r7, #12]
	.loc 4 286 26
	ldr	r3, .L121
	str	r3, [r7, #20]
	.loc 4 288 5
	ldrb	r3, [r7, #3]	@ zero_extendqisi2
	subs	r3, r3, #1
	cmp	r3, #7
	bhi	.L120
	adr	r2, .L105
	ldr	pc, [r2, r3, lsl #2]
	.p2align 2
.L105:
	.word	.L108+1
	.word	.L107+1
	.word	.L120+1
	.word	.L106+1
	.word	.L120+1
	.word	.L120+1
	.word	.L120+1
	.word	.L104+1
	.p2align 1
.L108:
	.loc 4 293 13
	movs	r1, #0
	ldr	r0, [r7, #16]
	bl	Cy_SCB_SetSlaveInterruptMask
	.loc 4 299 45
	ldr	r3, [r7, #12]
	ldr	r3, [r3, #4]
	.loc 4 299 16
	cmp	r3, #268435456
	bne	.L109
	.loc 4 301 53
	ldr	r3, [r7, #16]
	ldr	r3, [r3]
	.loc 4 301 62
	and	r3, r3, #256
	.loc 4 301 20
	cmp	r3, #0
	beq	.L110
	.loc 4 309 21
	movw	r1, #273
	ldr	r0, [r7, #16]
	bl	Cy_SCB_SetSlaveInterruptMask
	b	.L111
.L110:
	.loc 4 319 21
	ldr	r1, [r7, #12]
	ldr	r0, [r7, #16]
	bl	Cy_SCB_I2C_Disable
	.loc 4 320 21
	movw	r1, #465
	ldr	r0, [r7, #16]
	bl	Cy_SCB_SetSlaveInterruptMask
.L111:
	.loc 4 323 27
	movs	r3, #0
	str	r3, [r7, #20]
	.loc 4 331 9
	b	.L113
.L109:
	.loc 4 328 17
	movw	r1, #465
	ldr	r0, [r7, #16]
	bl	Cy_SCB_SetSlaveInterruptMask
	.loc 4 331 9
	b	.L113
.L107:
	.loc 4 339 49
	ldr	r3, [r7, #16]
	ldr	r3, [r3]
	.loc 4 339 58
	and	r3, r3, #256
	.loc 4 339 16
	cmp	r3, #0
	beq	.L114
	.loc 4 342 17
	movw	r1, #465
	ldr	r0, [r7, #16]
	bl	Cy_SCB_SetSlaveInterruptMask
	b	.L115
.L114:
	.loc 4 347 17
	ldr	r0, [r7, #16]
	bl	Cy_SCB_I2C_Enable
.L115:
	.loc 4 350 23
	movs	r3, #0
	str	r3, [r7, #20]
	.loc 4 352 9
	b	.L113
.L106:
	.loc 4 363 49
	ldr	r3, [r7, #16]
	ldr	r3, [r3]
	.loc 4 363 58
	and	r3, r3, #256
	.loc 4 363 16
	cmp	r3, #0
	beq	.L116
	.loc 4 371 17
	movs	r1, #1
	ldr	r0, [r7, #16]
	bl	Cy_SCB_SetI2CInterruptMask
	.loc 4 374 57
	ldr	r3, [r7, #16]
	ldr	r3, [r3, #112]
	bic	r2, r3, #2
	ldr	r3, [r7, #16]
	str	r2, [r3, #112]
.L116:
	.loc 4 383 23
	movs	r3, #0
	str	r3, [r7, #20]
	.loc 4 385 9
	b	.L113
.L104:
	.loc 4 389 49
	ldr	r3, [r7, #16]
	ldr	r3, [r3]
	.loc 4 389 58
	and	r3, r3, #256
	.loc 4 389 16
	cmp	r3, #0
	beq	.L117
	.loc 4 392 57
	ldr	r3, [r7, #16]
	ldr	r3, [r3, #112]
	orr	r2, r3, #2
	ldr	r3, [r7, #16]
	str	r2, [r3, #112]
	.loc 4 403 17
	movs	r1, #0
	ldr	r0, [r7, #16]
	bl	Cy_SCB_SetI2CInterruptMask
	.loc 4 404 17
	movw	r1, #465
	ldr	r0, [r7, #16]
	bl	Cy_SCB_SetSlaveInterruptMask
	b	.L118
.L117:
	.loc 4 409 17
	ldr	r0, [r7, #16]
	bl	Cy_SCB_I2C_Enable
.L118:
	.loc 4 412 23
	movs	r3, #0
	str	r3, [r7, #20]
	.loc 4 414 9
	b	.L113
.L120:
	.loc 4 418 13
	nop
.L113:
	.loc 4 421 12
	ldr	r3, [r7, #20]
	.loc 4 422 1
	mov	r0, r3
	adds	r7, r7, #24
.LCFI207:
	.cfi_def_cfa_offset 8
	mov	sp, r7
.LCFI208:
	.cfi_def_cfa_register 13
	@ sp needed
	pop	{r7, pc}
.L122:
	.align	2
.L121:
	.word	4325631
	.cfi_endproc
.LFE202:
	.size	Cy_SCB_I2C_DeepSleepCallback, .-Cy_SCB_I2C_DeepSleepCallback
	.section	.text.Cy_SCB_I2C_HibernateCallback,"ax",%progbits
	.align	1
	.global	Cy_SCB_I2C_HibernateCallback
	.syntax unified
	.thumb
	.thumb_func
	.type	Cy_SCB_I2C_HibernateCallback, %function
Cy_SCB_I2C_HibernateCallback:
.LFB203:
	.loc 4 454 1
	.cfi_startproc
	@ args = 0, pretend = 0, frame = 24
	@ frame_needed = 1, uses_anonymous_args = 0
	push	{r7, lr}
.LCFI209:
	.cfi_def_cfa_offset 8
	.cfi_offset 7, -8
	.cfi_offset 14, -4
	sub	sp, sp, #24
.LCFI210:
	.cfi_def_cfa_offset 32
	add	r7, sp, #0
.LCFI211:
	.cfi_def_cfa_register 7
	str	r0, [r7, #4]
	mov	r3, r1
	strb	r3, [r7, #3]
	.loc 4 455 17
	ldr	r3, [r7, #4]
	ldr	r3, [r3]
	str	r3, [r7, #16]
	.loc 4 456 31
	ldr	r3, [r7, #4]
	ldr	r3, [r3, #4]
	str	r3, [r7, #12]
	.loc 4 458 26
	ldr	r3, .L133
	str	r3, [r7, #20]
	.loc 4 460 5
	ldrb	r3, [r7, #3]	@ zero_extendqisi2
	subs	r3, r3, #1
	cmp	r3, #7
	bhi	.L132
	adr	r2, .L126
	ldr	pc, [r2, r3, lsl #2]
	.p2align 2
.L126:
	.word	.L128+1
	.word	.L127+1
	.word	.L132+1
	.word	.L125+1
	.word	.L132+1
	.word	.L132+1
	.word	.L132+1
	.word	.L125+1
	.p2align 1
.L128:
	.loc 4 465 13
	movs	r1, #0
	ldr	r0, [r7, #16]
	bl	Cy_SCB_SetSlaveInterruptMask
	.loc 4 471 45
	ldr	r3, [r7, #12]
	ldr	r3, [r3, #4]
	.loc 4 471 16
	cmp	r3, #268435456
	bne	.L129
	.loc 4 477 17
	ldr	r1, [r7, #12]
	ldr	r0, [r7, #16]
	bl	Cy_SCB_I2C_Disable
	.loc 4 479 27
	movs	r3, #0
	str	r3, [r7, #20]
.L129:
	.loc 4 483 13
	movw	r1, #465
	ldr	r0, [r7, #16]
	bl	Cy_SCB_SetSlaveInterruptMask
	.loc 4 485 9
	b	.L130
.L127:
	.loc 4 494 13
	ldr	r0, [r7, #16]
	bl	Cy_SCB_I2C_Enable
	.loc 4 496 23
	movs	r3, #0
	str	r3, [r7, #20]
	.loc 4 498 9
	b	.L130
.L125:
	.loc 4 504 23
	movs	r3, #0
	str	r3, [r7, #20]
	.loc 4 506 9
	b	.L130
.L132:
	.loc 4 510 13
	nop
.L130:
	.loc 4 513 12
	ldr	r3, [r7, #20]
	.loc 4 514 1
	mov	r0, r3
	adds	r7, r7, #24
.LCFI212:
	.cfi_def_cfa_offset 8
	mov	sp, r7
.LCFI213:
	.cfi_def_cfa_register 13
	@ sp needed
	pop	{r7, pc}
.L134:
	.align	2
.L133:
	.word	4325631
	.cfi_endproc
.LFE203:
	.size	Cy_SCB_I2C_HibernateCallback, .-Cy_SCB_I2C_HibernateCallback
	.section	.text.Cy_SCB_I2C_SetDataRate,"ax",%progbits
	.align	1
	.global	Cy_SCB_I2C_SetDataRate
	.syntax unified
	.thumb
	.thumb_func
	.type	Cy_SCB_I2C_SetDataRate, %function
Cy_SCB_I2C_SetDataRate:
.LFB204:
	.loc 4 547 1
	.cfi_startproc
	@ args = 0, pretend = 0, frame = 48
	@ frame_needed = 1, uses_anonymous_args = 0
	push	{r7, lr}
.LCFI214:
	.cfi_def_cfa_offset 8
	.cfi_offset 7, -8
	.cfi_offset 14, -4
	sub	sp, sp, #48
.LCFI215:
	.cfi_def_cfa_offset 56
	add	r7, sp, #0
.LCFI216:
	.cfi_def_cfa_register 7
	str	r0, [r7, #12]
	str	r1, [r7, #8]
	str	r2, [r7, #4]
	.loc 4 548 12
	ldr	r3, [r7, #4]
	cmp	r3, #0
	bne	.L136
	.loc 4 548 36 discriminator 1
	bl	CY_HALT
.L136:
	.loc 4 549 12
	ldr	r3, [r7, #8]
	cmp	r3, #0
	beq	.L137
	.loc 4 549 13 discriminator 2
	ldr	r3, [r7, #8]
	ldr	r2, .L158
	cmp	r3, r2
	bls	.L138
.L137:
	.loc 4 549 76 discriminator 3
	bl	CY_HALT
.L138:
	.loc 4 551 14
	movs	r3, #0
	str	r3, [r7, #44]
	.loc 4 553 81
	ldr	r3, [r7, #12]
	ldr	r3, [r3, #96]
	.loc 4 553 127
	lsrs	r3, r3, #30
	and	r3, r3, #3
	.loc 4 553 8
	cmp	r3, #1
	bne	.L139
	.loc 4 555 28
	ldr	r1, [r7, #4]
	ldr	r0, [r7, #12]
	bl	Cy_SCB_I2C_GetDataRate
	str	r0, [r7, #44]
	.loc 4 558 46
	ldr	r3, [r7, #12]
	ldr	r3, [r3, #768]
	bic	r2, r3, #512
	ldr	r3, [r7, #12]
	str	r2, [r3, #768]
	.loc 4 559 46
	ldr	r3, [r7, #12]
	ldr	r2, .L158+4
	str	r2, [r3, #112]
	b	.L140
.L139:
.LBB45:
	.loc 4 563 13
	movs	r3, #1
	strb	r3, [r7, #43]
	.loc 4 567 18
	movs	r3, #8
	str	r3, [r7, #28]
	.loc 4 568 18
	movs	r3, #8
	str	r3, [r7, #24]
	.loc 4 569 13
	movs	r3, #0
	strb	r3, [r7, #23]
	.loc 4 572 12
	ldr	r3, [r7, #8]
	cmp	r3, #0
	beq	.L141
	.loc 4 572 32 discriminator 1
	ldr	r3, [r7, #8]
	ldr	r2, .L158
	cmp	r3, r2
	bls	.L142
.L141:
	.loc 4 574 24
	movs	r3, #1
	strb	r3, [r7, #43]
	b	.L143
.L142:
	.loc 4 576 17
	ldr	r3, [r7, #8]
	ldr	r2, .L158+8
	cmp	r3, r2
	bhi	.L144
	.loc 4 579 16
	ldr	r3, [r7, #4]
	ldr	r2, .L158+12
	cmp	r3, r2
	bls	.L143
	.loc 4 579 44 discriminator 1
	ldr	r3, [r7, #4]
	ldr	r2, .L158+16
	cmp	r3, r2
	bhi	.L143
	.loc 4 581 24
	movw	r3, #5000
	str	r3, [r7, #36]
	.loc 4 582 25
	movw	r3, #5000
	str	r3, [r7, #32]
	.loc 4 583 30
	movs	r3, #0
	strb	r3, [r7, #23]
	.loc 4 585 28
	movs	r3, #0
	strb	r3, [r7, #43]
	b	.L143
.L144:
	.loc 4 588 17
	ldr	r3, [r7, #8]
	ldr	r2, .L158+20
	cmp	r3, r2
	bhi	.L145
	.loc 4 591 16
	ldr	r3, [r7, #4]
	ldr	r2, .L158+24
	cmp	r3, r2
	bls	.L143
	.loc 4 591 44 discriminator 1
	ldr	r3, [r7, #4]
	ldr	r2, .L158+28
	cmp	r3, r2
	bhi	.L143
	.loc 4 593 24
	mov	r3, #1600
	str	r3, [r7, #36]
	.loc 4 594 25
	mov	r3, #900
	str	r3, [r7, #32]
	.loc 4 595 30
	movs	r3, #0
	strb	r3, [r7, #23]
	.loc 4 597 28
	movs	r3, #0
	strb	r3, [r7, #43]
	b	.L143
.L145:
	.loc 4 603 16
	ldr	r3, [r7, #4]
	ldr	r2, .L158+32
	cmp	r3, r2
	bcc	.L143
	.loc 4 603 45 discriminator 1
	ldr	r3, [r7, #4]
	ldr	r2, .L158+36
	cmp	r3, r2
	bhi	.L143
	.loc 4 606 24
	mov	r3, #620
	str	r3, [r7, #36]
	.loc 4 607 25
	mov	r3, #380
	str	r3, [r7, #32]
	.loc 4 608 30
	movs	r3, #1
	strb	r3, [r7, #23]
	.loc 4 610 28
	movs	r3, #0
	strb	r3, [r7, #43]
.L143:
	.loc 4 615 13
	ldrb	r3, [r7, #43]
	eor	r3, r3, #1
	uxtb	r3, r3
	.loc 4 615 12
	cmp	r3, #0
	beq	.L140
.LBB46:
	.loc 4 620 22
	ldr	r2, .L158+40
	ldr	r3, [r7, #4]
	udiv	r3, r2, r3
	str	r3, [r7, #16]
	.loc 4 623 22
	ldr	r2, [r7, #36]
	ldr	r3, [r7, #16]
	udiv	r3, r2, r3
	str	r3, [r7, #28]
	.loc 4 625 25
	ldr	r3, [r7, #16]
	ldr	r2, [r7, #28]
	mul	r3, r2, r3
	.loc 4 625 16
	ldr	r2, [r7, #36]
	cmp	r2, r3
	bls	.L146
	.loc 4 627 17
	ldr	r3, [r7, #28]
	adds	r3, r3, #1
	str	r3, [r7, #28]
.L146:
	.loc 4 630 16
	ldr	r3, [r7, #28]
	cmp	r3, #16
	bls	.L147
	.loc 4 632 26
	movs	r3, #16
	str	r3, [r7, #28]
.L147:
	.loc 4 636 28
	ldr	r3, [r7, #28]
	cmp	r3, #15
	ite	ls
	movls	r3, #1
	movhi	r3, #0
	strb	r3, [r7, #22]
	.loc 4 639 23
	ldr	r2, [r7, #32]
	ldr	r3, [r7, #16]
	udiv	r3, r2, r3
	str	r3, [r7, #24]
	.loc 4 641 25
	ldr	r3, [r7, #16]
	ldr	r2, [r7, #24]
	mul	r3, r2, r3
	.loc 4 641 16
	ldr	r2, [r7, #32]
	cmp	r2, r3
	bls	.L148
	.loc 4 643 17
	ldr	r3, [r7, #24]
	adds	r3, r3, #1
	str	r3, [r7, #24]
.L148:
	.loc 4 646 16
	ldr	r3, [r7, #24]
	cmp	r3, #16
	bls	.L149
	.loc 4 648 27
	movs	r3, #16
	str	r3, [r7, #24]
.L149:
	.loc 4 652 55
	ldr	r2, [r7, #28]
	ldr	r3, [r7, #24]
	add	r3, r3, r2
	.loc 4 652 30
	ldr	r2, [r7, #4]
	udiv	r3, r2, r3
	str	r3, [r7, #44]
	.loc 4 655 19
	b	.L150
.L154:
	.loc 4 658 20
	ldrb	r3, [r7, #22]	@ zero_extendqisi2
	cmp	r3, #0
	beq	.L151
	.loc 4 660 24
	ldr	r3, [r7, #28]
	cmp	r3, #15
	bhi	.L152
	.loc 4 663 33
	ldr	r3, [r7, #28]
	adds	r3, r3, #1
	str	r3, [r7, #28]
	.loc 4 664 40
	movs	r3, #0
	strb	r3, [r7, #22]
	b	.L152
.L151:
	.loc 4 669 24
	ldr	r3, [r7, #24]
	cmp	r3, #15
	bhi	.L152
	.loc 4 672 34
	ldr	r3, [r7, #24]
	adds	r3, r3, #1
	str	r3, [r7, #24]
	.loc 4 673 40
	ldr	r3, [r7, #28]
	cmp	r3, #15
	ite	ls
	movls	r3, #1
	movhi	r3, #0
	strb	r3, [r7, #22]
.L152:
	.loc 4 678 59
	ldr	r2, [r7, #28]
	ldr	r3, [r7, #24]
	add	r3, r3, r2
	.loc 4 678 34
	ldr	r2, [r7, #4]
	udiv	r3, r2, r3
	str	r3, [r7, #44]
.L150:
	.loc 4 655 19
	ldr	r2, [r7, #44]
	ldr	r3, [r7, #8]
	cmp	r2, r3
	bls	.L153
	.loc 4 655 66 discriminator 1
	ldr	r2, [r7, #28]
	ldr	r3, [r7, #24]
	add	r3, r3, r2
	.loc 4 655 52 discriminator 1
	cmp	r3, #31
	bls	.L154
.L153:
	.loc 4 682 16
	ldrb	r3, [r7, #23]	@ zero_extendqisi2
	cmp	r3, #0
	beq	.L155
	.loc 4 685 54
	ldr	r3, [r7, #12]
	ldr	r3, [r3, #768]
	orr	r2, r3, #512
	ldr	r3, [r7, #12]
	str	r2, [r3, #768]
	.loc 4 686 54
	ldr	r3, [r7, #12]
	ldr	r2, .L158+44
	str	r2, [r3, #112]
	b	.L156
.L155:
	.loc 4 691 54
	ldr	r3, [r7, #12]
	ldr	r3, [r3, #768]
	bic	r2, r3, #512
	ldr	r3, [r7, #12]
	str	r2, [r3, #768]
	.loc 4 692 54
	ldr	r3, [r7, #12]
	ldr	r2, .L158+4
	str	r2, [r3, #112]
.L156:
	.loc 4 696 13
	ldr	r1, [r7, #28]
	ldr	r0, [r7, #12]
	bl	Cy_SCB_I2C_MasterSetLowPhaseDutyCycle
	.loc 4 697 13
	ldr	r1, [r7, #24]
	ldr	r0, [r7, #12]
	bl	Cy_SCB_I2C_MasterSetHighPhaseDutyCycle
.L140:
.LBE46:
.LBE45:
	.loc 4 701 12
	ldr	r3, [r7, #44]
	.loc 4 702 1
	mov	r0, r3
	adds	r7, r7, #48
.LCFI217:
	.cfi_def_cfa_offset 8
	mov	sp, r7
.LCFI218:
	.cfi_def_cfa_register 13
	@ sp needed
	pop	{r7, pc}
.L159:
	.align	2
.L158:
	.word	1000000
	.word	2756627
	.word	100000
	.word	1549999
	.word	3200000
	.word	400000
	.word	7819999
	.word	10000000
	.word	14320000
	.word	25800000
	.word	1000000000
	.word	2752515
	.cfi_endproc
.LFE204:
	.size	Cy_SCB_I2C_SetDataRate, .-Cy_SCB_I2C_SetDataRate
	.section	.text.Cy_SCB_I2C_GetDataRate,"ax",%progbits
	.align	1
	.global	Cy_SCB_I2C_GetDataRate
	.syntax unified
	.thumb
	.thumb_func
	.type	Cy_SCB_I2C_GetDataRate, %function
Cy_SCB_I2C_GetDataRate:
.LFB205:
	.loc 4 724 1
	.cfi_startproc
	@ args = 0, pretend = 0, frame = 16
	@ frame_needed = 1, uses_anonymous_args = 0
	push	{r7, lr}
.LCFI219:
	.cfi_def_cfa_offset 8
	.cfi_offset 7, -8
	.cfi_offset 14, -4
	sub	sp, sp, #16
.LCFI220:
	.cfi_def_cfa_offset 24
	add	r7, sp, #0
.LCFI221:
	.cfi_def_cfa_register 7
	str	r0, [r7, #4]
	str	r1, [r7]
	.loc 4 725 12
	ldr	r3, [r7]
	cmp	r3, #0
	bne	.L161
	.loc 4 725 36 discriminator 1
	bl	CY_HALT
.L161:
	.loc 4 727 14
	movs	r3, #0
	str	r3, [r7, #12]
	.loc 4 729 81
	ldr	r3, [r7, #4]
	ldr	r3, [r3, #96]
	.loc 4 729 127
	lsrs	r3, r3, #30
	and	r3, r3, #3
	.loc 4 729 8
	cmp	r3, #1
	bne	.L162
	.loc 4 732 12
	ldr	r3, [r7]
	ldr	r2, .L169
	cmp	r3, r2
	bls	.L163
	.loc 4 732 40 discriminator 1
	ldr	r3, [r7]
	ldr	r2, .L169+4
	cmp	r3, r2
	bhi	.L163
	.loc 4 734 28
	ldr	r3, .L169+8
	str	r3, [r7, #12]
	b	.L167
.L163:
	.loc 4 736 17
	ldr	r3, [r7]
	ldr	r2, .L169+12
	cmp	r3, r2
	bls	.L165
	.loc 4 736 45 discriminator 1
	ldr	r3, [r7]
	ldr	r2, .L169+16
	cmp	r3, r2
	bhi	.L165
	.loc 4 738 28
	ldr	r3, .L169+20
	str	r3, [r7, #12]
	b	.L167
.L165:
	.loc 4 740 17
	ldr	r3, [r7]
	ldr	r2, .L169+24
	cmp	r3, r2
	bcc	.L166
	.loc 4 740 46 discriminator 1
	ldr	r3, [r7]
	ldr	r2, .L169+28
	cmp	r3, r2
	bhi	.L166
	.loc 4 742 28
	ldr	r3, .L169+32
	str	r3, [r7, #12]
	b	.L167
.L166:
	.loc 4 749 28
	movs	r3, #0
	str	r3, [r7, #12]
	b	.L167
.L162:
	.loc 4 754 12
	ldr	r3, [r7]
	cmp	r3, #0
	beq	.L167
.LBB47:
	.loc 4 759 64
	ldr	r3, [r7, #4]
	ldr	r3, [r3, #96]
	.loc 4 759 87
	lsrs	r3, r3, #4
	and	r2, r3, #15
	.loc 4 760 64
	ldr	r3, [r7, #4]
	ldr	r3, [r3, #96]
	.loc 4 760 86
	and	r3, r3, #15
	.loc 4 759 95
	add	r3, r3, r2
	.loc 4 759 23
	adds	r3, r3, #2
	str	r3, [r7, #8]
	.loc 4 764 28
	ldr	r2, [r7]
	ldr	r3, [r7, #8]
	udiv	r3, r2, r3
	str	r3, [r7, #12]
.L167:
.LBE47:
	.loc 4 768 12
	ldr	r3, [r7, #12]
	.loc 4 769 1
	mov	r0, r3
	adds	r7, r7, #16
.LCFI222:
	.cfi_def_cfa_offset 8
	mov	sp, r7
.LCFI223:
	.cfi_def_cfa_register 13
	@ sp needed
	pop	{r7, pc}
.L170:
	.align	2
.L169:
	.word	7819999
	.word	15380000
	.word	400000
	.word	1549999
	.word	12800000
	.word	100000
	.word	15840000
	.word	89000000
	.word	1000000
	.cfi_endproc
.LFE205:
	.size	Cy_SCB_I2C_GetDataRate, .-Cy_SCB_I2C_GetDataRate
	.section	.text.Cy_SCB_I2C_SlaveGetStatus,"ax",%progbits
	.align	1
	.global	Cy_SCB_I2C_SlaveGetStatus
	.syntax unified
	.thumb
	.thumb_func
	.type	Cy_SCB_I2C_SlaveGetStatus, %function
Cy_SCB_I2C_SlaveGetStatus:
.LFB206:
	.loc 4 797 1
	.cfi_startproc
	@ args = 0, pretend = 0, frame = 8
	@ frame_needed = 1, uses_anonymous_args = 0
	@ link register save eliminated.
	push	{r7}
.LCFI224:
	.cfi_def_cfa_offset 4
	.cfi_offset 7, -4
	sub	sp, sp, #12
.LCFI225:
	.cfi_def_cfa_offset 16
	add	r7, sp, #0
.LCFI226:
	.cfi_def_cfa_register 7
	str	r0, [r7, #4]
	str	r1, [r7]
	.loc 4 801 20
	ldr	r3, [r7]
	ldr	r3, [r3, #32]
	.loc 4 802 1
	mov	r0, r3
	adds	r7, r7, #12
.LCFI227:
	.cfi_def_cfa_offset 4
	mov	sp, r7
.LCFI228:
	.cfi_def_cfa_register 13
	@ sp needed
	ldr	r7, [sp], #4
.LCFI229:
	.cfi_restore 7
	.cfi_def_cfa_offset 0
	bx	lr
	.cfi_endproc
.LFE206:
	.size	Cy_SCB_I2C_SlaveGetStatus, .-Cy_SCB_I2C_SlaveGetStatus
	.section	.text.Cy_SCB_I2C_SlaveConfigReadBuf,"ax",%progbits
	.align	1
	.global	Cy_SCB_I2C_SlaveConfigReadBuf
	.syntax unified
	.thumb
	.thumb_func
	.type	Cy_SCB_I2C_SlaveConfigReadBuf, %function
Cy_SCB_I2C_SlaveConfigReadBuf:
.LFB207:
	.loc 4 847 1
	.cfi_startproc
	@ args = 0, pretend = 0, frame = 16
	@ frame_needed = 1, uses_anonymous_args = 0
	push	{r7, lr}
.LCFI230:
	.cfi_def_cfa_offset 8
	.cfi_offset 7, -8
	.cfi_offset 14, -4
	sub	sp, sp, #16
.LCFI231:
	.cfi_def_cfa_offset 24
	add	r7, sp, #0
.LCFI232:
	.cfi_def_cfa_register 7
	str	r0, [r7, #12]
	str	r1, [r7, #8]
	str	r2, [r7, #4]
	str	r3, [r7]
	.loc 4 848 12
	ldr	r3, [r7, #4]
	cmp	r3, #0
	beq	.L174
	.loc 4 848 13 discriminator 1
	ldr	r3, [r7, #8]
	cmp	r3, #0
	bne	.L174
	.loc 4 848 23 discriminator 2
	bl	CY_HALT
.L174:
	.loc 4 853 28
	ldr	r3, [r7]
	ldr	r2, [r7, #8]
	str	r2, [r3, #40]
	.loc 4 854 32
	ldr	r3, [r7]
	ldr	r2, [r7, #4]
	str	r2, [r3, #44]
	.loc 4 855 31
	ldr	r3, [r7]
	movs	r2, #0
	str	r2, [r3, #48]
	.loc 4 856 31
	ldr	r3, [r7]
	movs	r2, #0
	str	r2, [r3, #52]
	.loc 4 857 1
	nop
	adds	r7, r7, #16
.LCFI233:
	.cfi_def_cfa_offset 8
	mov	sp, r7
.LCFI234:
	.cfi_def_cfa_register 13
	@ sp needed
	pop	{r7, pc}
	.cfi_endproc
.LFE207:
	.size	Cy_SCB_I2C_SlaveConfigReadBuf, .-Cy_SCB_I2C_SlaveConfigReadBuf
	.section	.text.Cy_SCB_I2C_SlaveAbortRead,"ax",%progbits
	.align	1
	.global	Cy_SCB_I2C_SlaveAbortRead
	.syntax unified
	.thumb
	.thumb_func
	.type	Cy_SCB_I2C_SlaveAbortRead, %function
Cy_SCB_I2C_SlaveAbortRead:
.LFB208:
	.loc 4 888 1
	.cfi_startproc
	@ args = 0, pretend = 0, frame = 16
	@ frame_needed = 1, uses_anonymous_args = 0
	push	{r7, lr}
.LCFI235:
	.cfi_def_cfa_offset 8
	.cfi_offset 7, -8
	.cfi_offset 14, -4
	sub	sp, sp, #16
.LCFI236:
	.cfi_def_cfa_offset 24
	add	r7, sp, #0
.LCFI237:
	.cfi_def_cfa_register 7
	str	r0, [r7, #4]
	str	r1, [r7]
	.loc 4 894 17
	bl	Cy_SysLib_EnterCriticalSection
	str	r0, [r7, #12]
	.loc 4 897 32
	ldr	r3, [r7]
	movs	r2, #0
	str	r2, [r3, #44]
	.loc 4 899 17
	ldr	r3, [r7]
	ldrb	r3, [r3, #1]	@ zero_extendqisi2
	.loc 4 899 8
	cmp	r3, #0
	beq	.L176
	.loc 4 900 42 discriminator 1
	ldr	r3, [r7]
	ldr	r3, [r3, #32]
	.loc 4 900 33 discriminator 1
	and	r3, r3, #1
	.loc 4 899 30 discriminator 1
	cmp	r3, #0
	beq	.L176
	.loc 4 903 9
	ldr	r0, [r7, #4]
	bl	Cy_SCB_ClearTxFifo
.L176:
	.loc 4 906 5
	ldr	r0, [r7, #12]
	bl	Cy_SysLib_ExitCriticalSection
	.loc 4 907 1
	nop
	adds	r7, r7, #16
.LCFI238:
	.cfi_def_cfa_offset 8
	mov	sp, r7
.LCFI239:
	.cfi_def_cfa_register 13
	@ sp needed
	pop	{r7, pc}
	.cfi_endproc
.LFE208:
	.size	Cy_SCB_I2C_SlaveAbortRead, .-Cy_SCB_I2C_SlaveAbortRead
	.section	.text.Cy_SCB_I2C_SlaveGetReadTransferCount,"ax",%progbits
	.align	1
	.global	Cy_SCB_I2C_SlaveGetReadTransferCount
	.syntax unified
	.thumb
	.thumb_func
	.type	Cy_SCB_I2C_SlaveGetReadTransferCount, %function
Cy_SCB_I2C_SlaveGetReadTransferCount:
.LFB209:
	.loc 4 938 1
	.cfi_startproc
	@ args = 0, pretend = 0, frame = 8
	@ frame_needed = 1, uses_anonymous_args = 0
	@ link register save eliminated.
	push	{r7}
.LCFI240:
	.cfi_def_cfa_offset 4
	.cfi_offset 7, -4
	sub	sp, sp, #12
.LCFI241:
	.cfi_def_cfa_offset 16
	add	r7, sp, #0
.LCFI242:
	.cfi_def_cfa_register 7
	str	r0, [r7, #4]
	str	r1, [r7]
	.loc 4 942 20
	ldr	r3, [r7]
	ldr	r3, [r3, #52]
	.loc 4 943 1
	mov	r0, r3
	adds	r7, r7, #12
.LCFI243:
	.cfi_def_cfa_offset 4
	mov	sp, r7
.LCFI244:
	.cfi_def_cfa_register 13
	@ sp needed
	ldr	r7, [sp], #4
.LCFI245:
	.cfi_restore 7
	.cfi_def_cfa_offset 0
	bx	lr
	.cfi_endproc
.LFE209:
	.size	Cy_SCB_I2C_SlaveGetReadTransferCount, .-Cy_SCB_I2C_SlaveGetReadTransferCount
	.section	.text.Cy_SCB_I2C_SlaveClearReadStatus,"ax",%progbits
	.align	1
	.global	Cy_SCB_I2C_SlaveClearReadStatus
	.syntax unified
	.thumb
	.thumb_func
	.type	Cy_SCB_I2C_SlaveClearReadStatus, %function
Cy_SCB_I2C_SlaveClearReadStatus:
.LFB210:
	.loc 4 969 1
	.cfi_startproc
	@ args = 0, pretend = 0, frame = 16
	@ frame_needed = 1, uses_anonymous_args = 0
	@ link register save eliminated.
	push	{r7}
.LCFI246:
	.cfi_def_cfa_offset 4
	.cfi_offset 7, -4
	sub	sp, sp, #20
.LCFI247:
	.cfi_def_cfa_offset 24
	add	r7, sp, #0
.LCFI248:
	.cfi_def_cfa_register 7
	str	r0, [r7, #4]
	str	r1, [r7]
	.loc 4 975 25
	ldr	r3, [r7]
	ldr	r3, [r3, #32]
	.loc 4 975 15
	and	r3, r3, #398
	str	r3, [r7, #12]
	.loc 4 976 26
	ldr	r3, [r7]
	ldr	r3, [r3, #32]
	bic	r2, r3, #398
	ldr	r3, [r7]
	str	r2, [r3, #32]
	.loc 4 978 12
	ldr	r3, [r7, #12]
	.loc 4 979 1
	mov	r0, r3
	adds	r7, r7, #20
.LCFI249:
	.cfi_def_cfa_offset 4
	mov	sp, r7
.LCFI250:
	.cfi_def_cfa_register 13
	@ sp needed
	ldr	r7, [sp], #4
.LCFI251:
	.cfi_restore 7
	.cfi_def_cfa_offset 0
	bx	lr
	.cfi_endproc
.LFE210:
	.size	Cy_SCB_I2C_SlaveClearReadStatus, .-Cy_SCB_I2C_SlaveClearReadStatus
	.section	.text.Cy_SCB_I2C_SlaveConfigWriteBuf,"ax",%progbits
	.align	1
	.global	Cy_SCB_I2C_SlaveConfigWriteBuf
	.syntax unified
	.thumb
	.thumb_func
	.type	Cy_SCB_I2C_SlaveConfigWriteBuf, %function
Cy_SCB_I2C_SlaveConfigWriteBuf:
.LFB211:
	.loc 4 1026 1
	.cfi_startproc
	@ args = 0, pretend = 0, frame = 16
	@ frame_needed = 1, uses_anonymous_args = 0
	push	{r7, lr}
.LCFI252:
	.cfi_def_cfa_offset 8
	.cfi_offset 7, -8
	.cfi_offset 14, -4
	sub	sp, sp, #16
.LCFI253:
	.cfi_def_cfa_offset 24
	add	r7, sp, #0
.LCFI254:
	.cfi_def_cfa_register 7
	str	r0, [r7, #12]
	str	r1, [r7, #8]
	str	r2, [r7, #4]
	str	r3, [r7]
	.loc 4 1027 12
	ldr	r3, [r7, #4]
	cmp	r3, #0
	beq	.L182
	.loc 4 1027 13 discriminator 1
	ldr	r3, [r7, #8]
	cmp	r3, #0
	bne	.L182
	.loc 4 1027 23 discriminator 2
	bl	CY_HALT
.L182:
	.loc 4 1032 28
	ldr	r3, [r7]
	ldr	r2, [r7, #8]
	str	r2, [r3, #56]
	.loc 4 1033 32
	ldr	r3, [r7]
	ldr	r2, [r7, #4]
	str	r2, [r3, #60]
	.loc 4 1034 31
	ldr	r3, [r7]
	movs	r2, #0
	str	r2, [r3, #64]
	.loc 4 1035 1
	nop
	adds	r7, r7, #16
.LCFI255:
	.cfi_def_cfa_offset 8
	mov	sp, r7
.LCFI256:
	.cfi_def_cfa_register 13
	@ sp needed
	pop	{r7, pc}
	.cfi_endproc
.LFE211:
	.size	Cy_SCB_I2C_SlaveConfigWriteBuf, .-Cy_SCB_I2C_SlaveConfigWriteBuf
	.section	.text.Cy_SCB_I2C_SlaveAbortWrite,"ax",%progbits
	.align	1
	.global	Cy_SCB_I2C_SlaveAbortWrite
	.syntax unified
	.thumb
	.thumb_func
	.type	Cy_SCB_I2C_SlaveAbortWrite, %function
Cy_SCB_I2C_SlaveAbortWrite:
.LFB212:
	.loc 4 1061 1
	.cfi_startproc
	@ args = 0, pretend = 0, frame = 16
	@ frame_needed = 1, uses_anonymous_args = 0
	push	{r7, lr}
.LCFI257:
	.cfi_def_cfa_offset 8
	.cfi_offset 7, -8
	.cfi_offset 14, -4
	sub	sp, sp, #16
.LCFI258:
	.cfi_def_cfa_offset 24
	add	r7, sp, #0
.LCFI259:
	.cfi_def_cfa_register 7
	str	r0, [r7, #4]
	str	r1, [r7]
	.loc 4 1067 17
	bl	Cy_SysLib_EnterCriticalSection
	str	r0, [r7, #12]
	.loc 4 1070 32
	ldr	r3, [r7]
	movs	r2, #0
	str	r2, [r3, #60]
	.loc 4 1072 17
	ldr	r3, [r7]
	ldrb	r3, [r3]	@ zero_extendqisi2
	.loc 4 1072 8
	cmp	r3, #0
	beq	.L184
	.loc 4 1073 42 discriminator 1
	ldr	r3, [r7]
	ldr	r3, [r3, #32]
	.loc 4 1073 33 discriminator 1
	and	r3, r3, #16
	.loc 4 1072 30 discriminator 1
	cmp	r3, #0
	beq	.L184
	.loc 4 1078 47
	ldr	r3, [r7, #4]
	ldr	r3, [r3, #96]
	orr	r2, r3, #32768
	ldr	r3, [r7, #4]
	str	r2, [r3, #96]
	.loc 4 1079 9
	movs	r1, #0
	ldr	r0, [r7, #4]
	bl	Cy_SCB_SetRxInterruptMask
.L184:
	.loc 4 1082 5
	ldr	r0, [r7, #12]
	bl	Cy_SysLib_ExitCriticalSection
	.loc 4 1083 1
	nop
	adds	r7, r7, #16
.LCFI260:
	.cfi_def_cfa_offset 8
	mov	sp, r7
.LCFI261:
	.cfi_def_cfa_register 13
	@ sp needed
	pop	{r7, pc}
	.cfi_endproc
.LFE212:
	.size	Cy_SCB_I2C_SlaveAbortWrite, .-Cy_SCB_I2C_SlaveAbortWrite
	.section	.text.Cy_SCB_I2C_SlaveGetWriteTransferCount,"ax",%progbits
	.align	1
	.global	Cy_SCB_I2C_SlaveGetWriteTransferCount
	.syntax unified
	.thumb
	.thumb_func
	.type	Cy_SCB_I2C_SlaveGetWriteTransferCount, %function
Cy_SCB_I2C_SlaveGetWriteTransferCount:
.LFB213:
	.loc 4 1114 1
	.cfi_startproc
	@ args = 0, pretend = 0, frame = 8
	@ frame_needed = 1, uses_anonymous_args = 0
	@ link register save eliminated.
	push	{r7}
.LCFI262:
	.cfi_def_cfa_offset 4
	.cfi_offset 7, -4
	sub	sp, sp, #12
.LCFI263:
	.cfi_def_cfa_offset 16
	add	r7, sp, #0
.LCFI264:
	.cfi_def_cfa_register 7
	str	r0, [r7, #4]
	str	r1, [r7]
	.loc 4 1118 20
	ldr	r3, [r7]
	ldr	r3, [r3, #64]
	.loc 4 1119 1
	mov	r0, r3
	adds	r7, r7, #12
.LCFI265:
	.cfi_def_cfa_offset 4
	mov	sp, r7
.LCFI266:
	.cfi_def_cfa_register 13
	@ sp needed
	ldr	r7, [sp], #4
.LCFI267:
	.cfi_restore 7
	.cfi_def_cfa_offset 0
	bx	lr
	.cfi_endproc
.LFE213:
	.size	Cy_SCB_I2C_SlaveGetWriteTransferCount, .-Cy_SCB_I2C_SlaveGetWriteTransferCount
	.section	.text.Cy_SCB_I2C_SlaveClearWriteStatus,"ax",%progbits
	.align	1
	.global	Cy_SCB_I2C_SlaveClearWriteStatus
	.syntax unified
	.thumb
	.thumb_func
	.type	Cy_SCB_I2C_SlaveClearWriteStatus, %function
Cy_SCB_I2C_SlaveClearWriteStatus:
.LFB214:
	.loc 4 1146 1
	.cfi_startproc
	@ args = 0, pretend = 0, frame = 16
	@ frame_needed = 1, uses_anonymous_args = 0
	@ link register save eliminated.
	push	{r7}
.LCFI268:
	.cfi_def_cfa_offset 4
	.cfi_offset 7, -4
	sub	sp, sp, #20
.LCFI269:
	.cfi_def_cfa_offset 24
	add	r7, sp, #0
.LCFI270:
	.cfi_def_cfa_register 7
	str	r0, [r7, #4]
	str	r1, [r7]
	.loc 4 1152 25
	ldr	r3, [r7]
	ldr	r3, [r3, #32]
	.loc 4 1152 15
	and	r3, r3, #480
	str	r3, [r7, #12]
	.loc 4 1153 26
	ldr	r3, [r7]
	ldr	r3, [r3, #32]
	bic	r2, r3, #480
	ldr	r3, [r7]
	str	r2, [r3, #32]
	.loc 4 1155 12
	ldr	r3, [r7, #12]
	.loc 4 1156 1
	mov	r0, r3
	adds	r7, r7, #20
.LCFI271:
	.cfi_def_cfa_offset 4
	mov	sp, r7
.LCFI272:
	.cfi_def_cfa_register 13
	@ sp needed
	ldr	r7, [sp], #4
.LCFI273:
	.cfi_restore 7
	.cfi_def_cfa_offset 0
	bx	lr
	.cfi_endproc
.LFE214:
	.size	Cy_SCB_I2C_SlaveClearWriteStatus, .-Cy_SCB_I2C_SlaveClearWriteStatus
	.section	.text.Cy_SCB_I2C_MasterGetStatus,"ax",%progbits
	.align	1
	.global	Cy_SCB_I2C_MasterGetStatus
	.syntax unified
	.thumb
	.thumb_func
	.type	Cy_SCB_I2C_MasterGetStatus, %function
Cy_SCB_I2C_MasterGetStatus:
.LFB215:
	.loc 4 1190 1
	.cfi_startproc
	@ args = 0, pretend = 0, frame = 8
	@ frame_needed = 1, uses_anonymous_args = 0
	@ link register save eliminated.
	push	{r7}
.LCFI274:
	.cfi_def_cfa_offset 4
	.cfi_offset 7, -4
	sub	sp, sp, #12
.LCFI275:
	.cfi_def_cfa_offset 16
	add	r7, sp, #0
.LCFI276:
	.cfi_def_cfa_register 7
	str	r0, [r7, #4]
	str	r1, [r7]
	.loc 4 1194 20
	ldr	r3, [r7]
	ldr	r3, [r3, #8]
	.loc 4 1195 1
	mov	r0, r3
	adds	r7, r7, #12
.LCFI277:
	.cfi_def_cfa_offset 4
	mov	sp, r7
.LCFI278:
	.cfi_def_cfa_register 13
	@ sp needed
	ldr	r7, [sp], #4
.LCFI279:
	.cfi_restore 7
	.cfi_def_cfa_offset 0
	bx	lr
	.cfi_endproc
.LFE215:
	.size	Cy_SCB_I2C_MasterGetStatus, .-Cy_SCB_I2C_MasterGetStatus
	.section	.text.Cy_SCB_I2C_MasterRead,"ax",%progbits
	.align	1
	.global	Cy_SCB_I2C_MasterRead
	.syntax unified
	.thumb
	.thumb_func
	.type	Cy_SCB_I2C_MasterRead, %function
Cy_SCB_I2C_MasterRead:
.LFB216:
	.loc 4 1252 1
	.cfi_startproc
	@ args = 0, pretend = 0, frame = 48
	@ frame_needed = 1, uses_anonymous_args = 0
	push	{r7, lr}
.LCFI280:
	.cfi_def_cfa_offset 8
	.cfi_offset 7, -8
	.cfi_offset 14, -4
	sub	sp, sp, #48
.LCFI281:
	.cfi_def_cfa_offset 56
	add	r7, sp, #0
.LCFI282:
	.cfi_def_cfa_register 7
	str	r0, [r7, #12]
	str	r1, [r7, #8]
	str	r2, [r7, #4]
	.loc 4 1253 12
	ldr	r3, [r7, #8]
	cmp	r3, #0
	bne	.L192
	.loc 4 1253 9 discriminator 1
	bl	CY_HALT
.L192:
	.loc 4 1254 18
	ldr	r3, [r7, #8]
	ldr	r3, [r3, #4]
	.loc 4 1254 12
	cmp	r3, #0
	beq	.L193
	.loc 4 1254 44 discriminator 2
	ldr	r3, [r7, #8]
	ldr	r3, [r3, #8]
	.loc 4 1254 13 discriminator 2
	cmp	r3, #0
	bne	.L194
.L193:
	.loc 4 1254 71 discriminator 3
	bl	CY_HALT
.L194:
	.loc 4 1255 36
	ldr	r3, [r7, #8]
	ldrb	r3, [r3]	@ zero_extendqisi2
	.loc 4 1255 13
	sxtb	r3, r3
	.loc 4 1255 12
	cmp	r3, #0
	bge	.L195
	.loc 4 1255 68 discriminator 1
	bl	CY_HALT
.L195:
	.loc 4 1257 28
	ldr	r3, .L206
	str	r3, [r7, #44]
	.loc 4 1260 5
	movs	r1, #0
	ldr	r0, [r7, #12]
	bl	Cy_SCB_SetSlaveInterruptMask
	.loc 4 1262 41
	ldr	r3, [r7, #4]
	ldr	r3, [r3, #4]
	.loc 4 1262 32
	and	r3, r3, #268435456
	.loc 4 1262 8
	cmp	r3, #0
	beq	.L196
.LBB48:
	.loc 4 1267 51
	ldr	r3, [r7, #8]
	ldrb	r3, [r3]	@ zero_extendqisi2
	.loc 4 1267 67
	lsls	r3, r3, #1
	.loc 4 1267 77
	uxtb	r3, r3
	.loc 4 1267 18
	orr	r3, r3, #1
	str	r3, [r7, #40]
	.loc 4 1271 31
	ldr	r3, [r7, #4]
	mov	r2, #65536
	str	r2, [r3, #8]
	.loc 4 1273 43
	ldr	r3, [r7, #8]
	ldr	r2, [r3, #4]
	.loc 4 1273 31
	ldr	r3, [r7, #4]
	str	r2, [r3, #16]
	.loc 4 1274 47
	ldr	r3, [r7, #8]
	ldr	r2, [r3, #8]
	.loc 4 1274 35
	ldr	r3, [r7, #4]
	str	r2, [r3, #20]
	.loc 4 1275 34
	ldr	r3, [r7, #4]
	movs	r2, #0
	str	r2, [r3, #24]
	.loc 4 1276 33
	ldr	r3, [r7, #4]
	movs	r2, #0
	str	r2, [r3, #28]
	.loc 4 1277 42
	ldr	r3, [r7, #8]
	ldrb	r2, [r3, #12]	@ zero_extendqisi2
	.loc 4 1277 30
	ldr	r3, [r7, #4]
	strb	r2, [r3, #12]
	.loc 4 1278 30
	ldr	r3, [r7, #4]
	movs	r2, #1
	strb	r2, [r3, #13]
	.loc 4 1281 9
	movw	r1, #279
	ldr	r0, [r7, #12]
	bl	Cy_SCB_ClearMasterInterrupt
	.loc 4 1282 9
	ldr	r0, [r7, #12]
	bl	Cy_SCB_ClearTxFifo
	.loc 4 1284 38
	ldr	r3, [r7, #4]
	ldr	r3, [r3, #4]
	.loc 4 1284 12
	cmp	r3, #268435456
	bne	.L197
	ldr	r3, [r7, #12]
	str	r3, [r7, #28]
	ldr	r3, [r7, #40]
	str	r3, [r7, #24]
.LBB49:
.LBB50:
	.loc 2 956 45
	ldr	r3, [r7, #28]
	ldr	r2, [r7, #24]
	str	r2, [r3, #576]
	.loc 2 957 1
	nop
.LBE50:
.LBE49:
	.loc 4 1291 52
	ldr	r3, [r7, #12]
	movs	r2, #2
	str	r2, [r3, #104]
	b	.L198
.L197:
	.loc 4 1299 93
	ldr	r3, [r7, #12]
	ldr	r3, [r3, #100]
	.loc 4 1299 108
	and	r3, r3, #32
	.loc 4 1299 61
	cmp	r3, #0
	beq	.L199
	.loc 4 1299 61 is_stmt 0 discriminator 1
	movs	r2, #9
	b	.L200
.L199:
	.loc 4 1299 61 discriminator 2
	movs	r2, #1
.L200:
	.loc 4 1299 52 is_stmt 1 discriminator 4
	ldr	r3, [r7, #12]
	str	r2, [r3, #104]
	ldr	r3, [r7, #12]
	str	r3, [r7, #20]
	ldr	r3, [r7, #40]
	str	r3, [r7, #16]
.LBB51:
.LBB52:
	.loc 2 956 45 discriminator 4
	ldr	r3, [r7, #20]
	ldr	r2, [r7, #16]
	str	r2, [r3, #576]
	.loc 2 957 1 discriminator 4
	nop
.L198:
.LBE52:
.LBE51:
	.loc 4 1307 21
	ldr	r3, [r7, #4]
	ldrb	r3, [r3]	@ zero_extendqisi2
	.loc 4 1307 12
	cmp	r3, #0
	beq	.L201
	.loc 4 1307 46 discriminator 1
	ldr	r3, [r7, #4]
	ldrb	r3, [r3, #12]	@ zero_extendqisi2
	.loc 4 1307 38 discriminator 1
	eor	r3, r3, #1
	uxtb	r3, r3
	.loc 4 1307 34 discriminator 1
	cmp	r3, #0
	beq	.L201
	.loc 4 1307 72 discriminator 2
	ldr	r3, [r7, #4]
	ldr	r3, [r3, #20]
	.loc 4 1307 61 discriminator 2
	cmp	r3, #1
	bls	.L201
.LBB53:
	.loc 4 1309 22
	movs	r3, #128
	str	r3, [r7, #36]
	.loc 4 1312 51
	ldr	r3, [r7, #12]
	ldr	r3, [r3, #96]
	orr	r2, r3, #256
	ldr	r3, [r7, #12]
	str	r2, [r3, #96]
	.loc 4 1315 49
	ldr	r3, [r7, #4]
	ldr	r3, [r3, #20]
	.loc 4 1315 13
	ldr	r2, [r7, #36]
	cmp	r2, r3
	bcc	.L202
	.loc 4 1316 49 discriminator 1
	ldr	r3, [r7, #4]
	ldr	r3, [r3, #20]
	.loc 4 1315 13 discriminator 1
	subs	r3, r3, #2
	b	.L203
.L202:
	.loc 4 1316 88 discriminator 2
	ldr	r3, [r7, #36]
	lsrs	r3, r3, #1
	.loc 4 1315 13 discriminator 2
	subs	r3, r3, #1
.L203:
	.loc 4 1315 13 is_stmt 0 discriminator 4
	mov	r1, r3
	ldr	r0, [r7, #12]
	bl	Cy_SCB_SetRxFifoLevel
	.loc 4 1318 28 is_stmt 1 discriminator 4
	ldr	r3, [r7, #4]
	mov	r2, #1179648
	str	r2, [r3, #4]
.LBE53:
	.loc 4 1308 9 discriminator 4
	b	.L204
.L201:
	.loc 4 1323 13
	movs	r1, #0
	ldr	r0, [r7, #12]
	bl	Cy_SCB_SetRxFifoLevel
	.loc 4 1325 28
	ldr	r3, [r7, #4]
	mov	r2, #1114112
	str	r2, [r3, #4]
.L204:
	.loc 4 1332 21
	bl	Cy_SysLib_EnterCriticalSection
	str	r0, [r7, #32]
	.loc 4 1333 9
	movs	r1, #1
	ldr	r0, [r7, #12]
	bl	Cy_SCB_SetRxInterruptMask
	.loc 4 1334 9
	movw	r1, #275
	ldr	r0, [r7, #12]
	bl	Cy_SCB_SetMasterInterruptMask
	.loc 4 1335 9
	ldr	r0, [r7, #32]
	bl	Cy_SysLib_ExitCriticalSection
	.loc 4 1337 19
	movs	r3, #0
	str	r3, [r7, #44]
.L196:
.LBE48:
	.loc 4 1341 5
	movw	r1, #465
	ldr	r0, [r7, #12]
	bl	Cy_SCB_SetSlaveInterruptMask
	.loc 4 1343 12
	ldr	r3, [r7, #44]
	.loc 4 1344 1
	mov	r0, r3
	adds	r7, r7, #48
.LCFI283:
	.cfi_def_cfa_offset 8
	mov	sp, r7
.LCFI284:
	.cfi_def_cfa_register 13
	@ sp needed
	pop	{r7, pc}
.L207:
	.align	2
.L206:
	.word	11149314
	.cfi_endproc
.LFE216:
	.size	Cy_SCB_I2C_MasterRead, .-Cy_SCB_I2C_MasterRead
	.section	.text.Cy_SCB_I2C_MasterAbortRead,"ax",%progbits
	.align	1
	.global	Cy_SCB_I2C_MasterAbortRead
	.syntax unified
	.thumb
	.thumb_func
	.type	Cy_SCB_I2C_MasterAbortRead, %function
Cy_SCB_I2C_MasterAbortRead:
.LFB217:
	.loc 4 1367 1
	.cfi_startproc
	@ args = 0, pretend = 0, frame = 16
	@ frame_needed = 1, uses_anonymous_args = 0
	push	{r7, lr}
.LCFI285:
	.cfi_def_cfa_offset 8
	.cfi_offset 7, -8
	.cfi_offset 14, -4
	sub	sp, sp, #16
.LCFI286:
	.cfi_def_cfa_offset 24
	add	r7, sp, #0
.LCFI287:
	.cfi_def_cfa_register 7
	str	r0, [r7, #4]
	str	r1, [r7]
	.loc 4 1370 17
	bl	Cy_SysLib_EnterCriticalSection
	str	r0, [r7, #12]
	.loc 4 1372 41
	ldr	r3, [r7]
	ldr	r3, [r3, #8]
	.loc 4 1372 32
	and	r3, r3, #65536
	.loc 4 1372 8
	cmp	r3, #0
	beq	.L209
	.loc 4 1375 39
	ldr	r3, [r7]
	ldr	r3, [r3, #4]
	.loc 4 1375 12
	cmp	r3, #1114112
	beq	.L210
	.loc 4 1375 77 discriminator 1
	ldr	r3, [r7]
	ldr	r3, [r3, #4]
	.loc 4 1375 48 discriminator 1
	cmp	r3, #1179648
	bne	.L211
.L210:
	.loc 4 1377 24
	ldr	r3, [r7]
	ldrb	r3, [r3]	@ zero_extendqisi2
	.loc 4 1377 16
	cmp	r3, #0
	beq	.L212
	.loc 4 1380 17
	movs	r1, #0
	ldr	r0, [r7, #4]
	bl	Cy_SCB_SetRxInterruptMask
	.loc 4 1383 32
	ldr	r3, [r7]
	mov	r2, #1441792
	str	r2, [r3, #4]
	.loc 4 1386 17
	movw	r1, #279
	ldr	r0, [r7, #4]
	bl	Cy_SCB_SetMasterInterruptMask
	b	.L213
.L212:
	.loc 4 1391 43
	ldr	r3, [r7]
	movs	r2, #1
	str	r2, [r3, #20]
.L213:
	.loc 4 1395 34
	ldr	r3, [r7]
	movs	r2, #0
	strb	r2, [r3, #12]
	b	.L211
.L209:
	.loc 4 1404 38
	ldr	r3, [r7]
	ldr	r3, [r3, #4]
	.loc 4 1404 12
	ldr	r2, .L214
	cmp	r3, r2
	bne	.L211
	.loc 4 1411 35
	ldr	r3, [r7]
	mov	r2, #65536
	str	r2, [r3, #8]
	.loc 4 1412 37
	ldr	r3, [r7]
	movs	r2, #0
	str	r2, [r3, #28]
	.loc 4 1413 34
	ldr	r3, [r7]
	movs	r2, #0
	strb	r2, [r3, #12]
	.loc 4 1416 13
	movw	r1, #275
	ldr	r0, [r7, #4]
	bl	Cy_SCB_SetMasterInterruptMask
	.loc 4 1419 52
	ldr	r3, [r7, #4]
	movs	r2, #24
	str	r2, [r3, #104]
	.loc 4 1420 28
	ldr	r3, [r7]
	mov	r2, #1507328
	str	r2, [r3, #4]
.L211:
	.loc 4 1424 5
	ldr	r0, [r7, #12]
	bl	Cy_SysLib_ExitCriticalSection
	.loc 4 1425 1
	nop
	adds	r7, r7, #16
.LCFI288:
	.cfi_def_cfa_offset 8
	mov	sp, r7
.LCFI289:
	.cfi_def_cfa_register 13
	@ sp needed
	pop	{r7, pc}
.L215:
	.align	2
.L214:
	.word	269484032
	.cfi_endproc
.LFE217:
	.size	Cy_SCB_I2C_MasterAbortRead, .-Cy_SCB_I2C_MasterAbortRead
	.section	.text.Cy_SCB_I2C_MasterWrite,"ax",%progbits
	.align	1
	.global	Cy_SCB_I2C_MasterWrite
	.syntax unified
	.thumb
	.thumb_func
	.type	Cy_SCB_I2C_MasterWrite, %function
Cy_SCB_I2C_MasterWrite:
.LFB218:
	.loc 4 1480 1
	.cfi_startproc
	@ args = 0, pretend = 0, frame = 56
	@ frame_needed = 1, uses_anonymous_args = 0
	push	{r7, lr}
.LCFI290:
	.cfi_def_cfa_offset 8
	.cfi_offset 7, -8
	.cfi_offset 14, -4
	sub	sp, sp, #56
.LCFI291:
	.cfi_def_cfa_offset 64
	add	r7, sp, #0
.LCFI292:
	.cfi_def_cfa_register 7
	str	r0, [r7, #12]
	str	r1, [r7, #8]
	str	r2, [r7, #4]
	.loc 4 1481 12
	ldr	r3, [r7, #8]
	cmp	r3, #0
	bne	.L217
	.loc 4 1481 9 discriminator 1
	bl	CY_HALT
.L217:
	.loc 4 1482 36
	ldr	r3, [r7, #8]
	ldr	r3, [r3, #8]
	.loc 4 1482 12
	cmp	r3, #0
	beq	.L218
	.loc 4 1482 18 discriminator 1
	ldr	r3, [r7, #8]
	ldr	r3, [r3, #4]
	.loc 4 1482 13 discriminator 1
	cmp	r3, #0
	bne	.L218
	.loc 4 1482 35 discriminator 2
	bl	CY_HALT
.L218:
	.loc 4 1483 36
	ldr	r3, [r7, #8]
	ldrb	r3, [r3]	@ zero_extendqisi2
	.loc 4 1483 13
	sxtb	r3, r3
	.loc 4 1483 12
	cmp	r3, #0
	bge	.L219
	.loc 4 1483 68 discriminator 1
	bl	CY_HALT
.L219:
	.loc 4 1485 28
	ldr	r3, .L229
	str	r3, [r7, #52]
	.loc 4 1488 5
	movs	r1, #0
	ldr	r0, [r7, #12]
	bl	Cy_SCB_SetSlaveInterruptMask
	.loc 4 1490 41
	ldr	r3, [r7, #4]
	ldr	r3, [r3, #4]
	.loc 4 1490 32
	and	r3, r3, #268435456
	.loc 4 1490 8
	cmp	r3, #0
	beq	.L220
.LBB54:
	.loc 4 1495 51
	ldr	r3, [r7, #8]
	ldrb	r3, [r3]	@ zero_extendqisi2
	.loc 4 1495 67
	lsls	r3, r3, #1
	.loc 4 1495 18
	uxtb	r3, r3
	str	r3, [r7, #48]
	.loc 4 1498 31
	ldr	r3, [r7, #4]
	mov	r2, #65536
	str	r2, [r3, #8]
	.loc 4 1500 43
	ldr	r3, [r7, #8]
	ldr	r2, [r3, #4]
	.loc 4 1500 31
	ldr	r3, [r7, #4]
	str	r2, [r3, #16]
	.loc 4 1501 47
	ldr	r3, [r7, #8]
	ldr	r2, [r3, #8]
	.loc 4 1501 35
	ldr	r3, [r7, #4]
	str	r2, [r3, #20]
	.loc 4 1502 34
	ldr	r3, [r7, #4]
	movs	r2, #0
	str	r2, [r3, #24]
	.loc 4 1503 33
	ldr	r3, [r7, #4]
	movs	r2, #0
	str	r2, [r3, #28]
	.loc 4 1504 42
	ldr	r3, [r7, #8]
	ldrb	r2, [r3, #12]	@ zero_extendqisi2
	.loc 4 1504 30
	ldr	r3, [r7, #4]
	strb	r2, [r3, #12]
	.loc 4 1505 30
	ldr	r3, [r7, #4]
	movs	r2, #0
	strb	r2, [r3, #13]
	.loc 4 1508 9
	movw	r1, #279
	ldr	r0, [r7, #12]
	bl	Cy_SCB_ClearMasterInterrupt
	.loc 4 1509 9
	ldr	r0, [r7, #12]
	bl	Cy_SCB_ClearTxFifo
	.loc 4 1511 38
	ldr	r3, [r7, #4]
	ldr	r3, [r3, #4]
	.loc 4 1511 12
	cmp	r3, #268435456
	bne	.L221
	ldr	r3, [r7, #12]
	str	r3, [r7, #40]
	ldr	r3, [r7, #48]
	str	r3, [r7, #36]
.LBB55:
.LBB56:
	.loc 2 956 45
	ldr	r3, [r7, #40]
	ldr	r2, [r7, #36]
	str	r2, [r3, #576]
	.loc 2 957 1
	nop
.LBE56:
.LBE55:
	.loc 4 1518 13
	movs	r1, #64
	ldr	r0, [r7, #12]
	bl	Cy_SCB_ClearTxInterrupt
	.loc 4 1519 52
	ldr	r3, [r7, #12]
	movs	r2, #2
	str	r2, [r3, #104]
	b	.L222
.L221:
	.loc 4 1527 93
	ldr	r3, [r7, #12]
	ldr	r3, [r3, #100]
	.loc 4 1527 108
	and	r3, r3, #32
	.loc 4 1527 61
	cmp	r3, #0
	beq	.L223
	.loc 4 1527 61 is_stmt 0 discriminator 1
	movs	r2, #9
	b	.L224
.L223:
	.loc 4 1527 61 discriminator 2
	movs	r2, #1
.L224:
	.loc 4 1527 52 is_stmt 1 discriminator 4
	ldr	r3, [r7, #12]
	str	r2, [r3, #104]
	.loc 4 1530 30 discriminator 4
	ldr	r3, [r7, #4]
	ldr	r3, [r3, #20]
	.loc 4 1530 16 discriminator 4
	cmp	r3, #0
	bne	.L225
	.loc 4 1538 29
	bl	Cy_SysLib_EnterCriticalSection
	str	r0, [r7, #44]
	ldr	r3, [r7, #12]
	str	r3, [r7, #32]
	ldr	r3, [r7, #48]
	str	r3, [r7, #28]
.LBB57:
.LBB58:
	.loc 2 956 45
	ldr	r3, [r7, #32]
	ldr	r2, [r7, #28]
	str	r2, [r3, #576]
	.loc 2 957 1
	nop
.LBE58:
.LBE57:
	.loc 4 1542 17
	movs	r1, #64
	ldr	r0, [r7, #12]
	bl	Cy_SCB_ClearTxInterrupt
	.loc 4 1544 17
	ldr	r0, [r7, #44]
	bl	Cy_SysLib_ExitCriticalSection
	b	.L222
.L225:
	ldr	r3, [r7, #12]
	str	r3, [r7, #24]
	ldr	r3, [r7, #48]
	str	r3, [r7, #20]
.LBB59:
.LBB60:
	.loc 2 956 45
	ldr	r3, [r7, #24]
	ldr	r2, [r7, #20]
	str	r2, [r3, #576]
	.loc 2 957 1
	nop
.L222:
.LBE60:
.LBE59:
	.loc 4 1553 24
	ldr	r3, [r7, #4]
	mov	r2, #1310720
	str	r2, [r3, #4]
	.loc 4 1556 45
	ldr	r3, [r7, #4]
	ldrb	r3, [r3, #1]	@ zero_extendqisi2
	.loc 4 1556 9
	cmp	r3, #0
	beq	.L226
	.loc 4 1556 9 is_stmt 0 discriminator 1
	movs	r3, #64
	b	.L227
.L226:
	.loc 4 1556 9 discriminator 2
	movs	r3, #1
.L227:
	.loc 4 1556 9 discriminator 4
	mov	r1, r3
	ldr	r0, [r7, #12]
	bl	Cy_SCB_SetTxFifoLevel
	.loc 4 1562 21 is_stmt 1 discriminator 4
	bl	Cy_SysLib_EnterCriticalSection
	str	r0, [r7, #44]
	.loc 4 1563 9 discriminator 4
	movs	r1, #1
	ldr	r0, [r7, #12]
	bl	Cy_SCB_SetTxInterruptMask
	.loc 4 1564 9 discriminator 4
	movw	r1, #275
	ldr	r0, [r7, #12]
	bl	Cy_SCB_SetMasterInterruptMask
	.loc 4 1565 9 discriminator 4
	ldr	r0, [r7, #44]
	bl	Cy_SysLib_ExitCriticalSection
	.loc 4 1567 19 discriminator 4
	movs	r3, #0
	str	r3, [r7, #52]
.L220:
.LBE54:
	.loc 4 1571 5
	movw	r1, #465
	ldr	r0, [r7, #12]
	bl	Cy_SCB_SetSlaveInterruptMask
	.loc 4 1573 12
	ldr	r3, [r7, #52]
	.loc 4 1574 1
	mov	r0, r3
	adds	r7, r7, #56
.LCFI293:
	.cfi_def_cfa_offset 8
	mov	sp, r7
.LCFI294:
	.cfi_def_cfa_register 13
	@ sp needed
	pop	{r7, pc}
.L230:
	.align	2
.L229:
	.word	11149314
	.cfi_endproc
.LFE218:
	.size	Cy_SCB_I2C_MasterWrite, .-Cy_SCB_I2C_MasterWrite
	.section	.text.Cy_SCB_I2C_MasterAbortWrite,"ax",%progbits
	.align	1
	.global	Cy_SCB_I2C_MasterAbortWrite
	.syntax unified
	.thumb
	.thumb_func
	.type	Cy_SCB_I2C_MasterAbortWrite, %function
Cy_SCB_I2C_MasterAbortWrite:
.LFB219:
	.loc 4 1607 1
	.cfi_startproc
	@ args = 0, pretend = 0, frame = 16
	@ frame_needed = 1, uses_anonymous_args = 0
	push	{r7, lr}
.LCFI295:
	.cfi_def_cfa_offset 8
	.cfi_offset 7, -8
	.cfi_offset 14, -4
	sub	sp, sp, #16
.LCFI296:
	.cfi_def_cfa_offset 24
	add	r7, sp, #0
.LCFI297:
	.cfi_def_cfa_register 7
	str	r0, [r7, #4]
	str	r1, [r7]
	.loc 4 1610 17
	bl	Cy_SysLib_EnterCriticalSection
	str	r0, [r7, #12]
	.loc 4 1612 41
	ldr	r3, [r7]
	ldr	r3, [r3, #8]
	.loc 4 1612 32
	and	r3, r3, #65536
	.loc 4 1612 8
	cmp	r3, #0
	beq	.L232
	.loc 4 1615 9
	movs	r1, #0
	ldr	r0, [r7, #4]
	bl	Cy_SCB_SetTxInterruptMask
	.loc 4 1617 20
	ldr	r3, [r7]
	ldrb	r3, [r3, #1]	@ zero_extendqisi2
	.loc 4 1617 12
	cmp	r3, #0
	beq	.L233
	.loc 4 1620 13
	ldr	r0, [r7, #4]
	bl	Cy_SCB_ClearTxFifo
.L233:
	.loc 4 1623 39
	ldr	r3, [r7]
	ldr	r3, [r3, #4]
	.loc 4 1623 12
	cmp	r3, #1310720
	beq	.L234
	.loc 4 1623 77 discriminator 1
	ldr	r3, [r7]
	ldr	r3, [r3, #4]
	.loc 4 1623 48 discriminator 1
	cmp	r3, #1376256
	bne	.L235
.L234:
	.loc 4 1626 28
	ldr	r3, [r7]
	mov	r2, #1441792
	str	r2, [r3, #4]
	.loc 4 1629 13
	movw	r1, #279
	ldr	r0, [r7, #4]
	bl	Cy_SCB_SetMasterInterruptMask
.L235:
	.loc 4 1633 30
	ldr	r3, [r7]
	movs	r2, #0
	strb	r2, [r3, #12]
	b	.L236
.L232:
	.loc 4 1641 38
	ldr	r3, [r7]
	ldr	r3, [r3, #4]
	.loc 4 1641 12
	ldr	r2, .L237
	cmp	r3, r2
	bne	.L236
	.loc 4 1648 35
	ldr	r3, [r7]
	mov	r2, #65536
	str	r2, [r3, #8]
	.loc 4 1649 37
	ldr	r3, [r7]
	movs	r2, #0
	str	r2, [r3, #28]
	.loc 4 1650 34
	ldr	r3, [r7]
	movs	r2, #0
	strb	r2, [r3, #12]
	.loc 4 1653 13
	movw	r1, #275
	ldr	r0, [r7, #4]
	bl	Cy_SCB_SetMasterInterruptMask
	.loc 4 1656 52
	ldr	r3, [r7, #4]
	movs	r2, #24
	str	r2, [r3, #104]
	.loc 4 1657 28
	ldr	r3, [r7]
	mov	r2, #1507328
	str	r2, [r3, #4]
.L236:
	.loc 4 1661 5
	ldr	r0, [r7, #12]
	bl	Cy_SysLib_ExitCriticalSection
	.loc 4 1662 1
	nop
	adds	r7, r7, #16
.LCFI298:
	.cfi_def_cfa_offset 8
	mov	sp, r7
.LCFI299:
	.cfi_def_cfa_register 13
	@ sp needed
	pop	{r7, pc}
.L238:
	.align	2
.L237:
	.word	269484032
	.cfi_endproc
.LFE219:
	.size	Cy_SCB_I2C_MasterAbortWrite, .-Cy_SCB_I2C_MasterAbortWrite
	.section	.text.Cy_SCB_I2C_MasterGetTransferCount,"ax",%progbits
	.align	1
	.global	Cy_SCB_I2C_MasterGetTransferCount
	.syntax unified
	.thumb
	.thumb_func
	.type	Cy_SCB_I2C_MasterGetTransferCount, %function
Cy_SCB_I2C_MasterGetTransferCount:
.LFB220:
	.loc 4 1695 1
	.cfi_startproc
	@ args = 0, pretend = 0, frame = 8
	@ frame_needed = 1, uses_anonymous_args = 0
	@ link register save eliminated.
	push	{r7}
.LCFI300:
	.cfi_def_cfa_offset 4
	.cfi_offset 7, -4
	sub	sp, sp, #12
.LCFI301:
	.cfi_def_cfa_offset 16
	add	r7, sp, #0
.LCFI302:
	.cfi_def_cfa_register 7
	str	r0, [r7, #4]
	str	r1, [r7]
	.loc 4 1699 20
	ldr	r3, [r7]
	ldr	r3, [r3, #28]
	.loc 4 1700 1
	mov	r0, r3
	adds	r7, r7, #12
.LCFI303:
	.cfi_def_cfa_offset 4
	mov	sp, r7
.LCFI304:
	.cfi_def_cfa_register 13
	@ sp needed
	ldr	r7, [sp], #4
.LCFI305:
	.cfi_restore 7
	.cfi_def_cfa_offset 0
	bx	lr
	.cfi_endproc
.LFE220:
	.size	Cy_SCB_I2C_MasterGetTransferCount, .-Cy_SCB_I2C_MasterGetTransferCount
	.section	.text.Cy_SCB_I2C_MasterSendStart,"ax",%progbits
	.align	1
	.global	Cy_SCB_I2C_MasterSendStart
	.syntax unified
	.thumb
	.thumb_func
	.type	Cy_SCB_I2C_MasterSendStart, %function
Cy_SCB_I2C_MasterSendStart:
.LFB221:
	.loc 4 1753 1
	.cfi_startproc
	@ args = 4, pretend = 0, frame = 40
	@ frame_needed = 1, uses_anonymous_args = 0
	push	{r7, lr}
.LCFI306:
	.cfi_def_cfa_offset 8
	.cfi_offset 7, -8
	.cfi_offset 14, -4
	sub	sp, sp, #40
.LCFI307:
	.cfi_def_cfa_offset 48
	add	r7, sp, #0
.LCFI308:
	.cfi_def_cfa_register 7
	str	r0, [r7, #12]
	str	r1, [r7, #8]
	str	r3, [r7]
	mov	r3, r2
	strb	r3, [r7, #7]
	.loc 4 1754 35
	ldr	r3, [r7, #8]
	and	r3, r3, #128
	.loc 4 1754 12
	cmp	r3, #0
	beq	.L242
	.loc 4 1754 51 discriminator 1
	bl	CY_HALT
.L242:
	.loc 4 1755 12
	ldr	r3, [r7]
	ldr	r2, .L248
	cmp	r3, r2
	bls	.L243
	.loc 4 1755 62 discriminator 1
	bl	CY_HALT
.L243:
	.loc 4 1756 12
	ldrb	r3, [r7, #7]	@ zero_extendqisi2
	cmp	r3, #0
	beq	.L244
	.loc 4 1756 13 discriminator 1
	ldrb	r3, [r7, #7]	@ zero_extendqisi2
	cmp	r3, #1
	beq	.L244
	.loc 4 1756 97 discriminator 2
	bl	CY_HALT
.L244:
	.loc 4 1758 28
	ldr	r3, .L248+4
	str	r3, [r7, #36]
	.loc 4 1761 5
	movs	r1, #0
	ldr	r0, [r7, #12]
	bl	Cy_SCB_SetSlaveInterruptMask
	.loc 4 1763 34
	ldr	r3, [r7, #48]
	ldr	r3, [r3, #4]
	.loc 4 1763 8
	cmp	r3, #268435456
	bne	.L245
.LBB61:
	.loc 4 1766 41
	ldr	r3, [r7]
	mov	r2, #1000
	mul	r3, r2, r3
	.loc 4 1766 18
	str	r3, [r7, #20]
	.loc 4 1769 24
	ldr	r3, [r7, #48]
	ldr	r2, .L248+8
	str	r2, [r3, #4]
	.loc 4 1770 54
	ldrb	r3, [r7, #7]	@ zero_extendqisi2
	cmp	r3, #1
	ite	eq
	moveq	r3, #1
	movne	r3, #0
	uxtb	r2, r3
	.loc 4 1770 30
	ldr	r3, [r7, #48]
	strb	r2, [r3, #13]
	.loc 4 1773 9
	movw	r1, #279
	ldr	r0, [r7, #12]
	bl	Cy_SCB_ClearMasterInterrupt
	.loc 4 1774 9
	movs	r1, #4
	ldr	r0, [r7, #12]
	bl	Cy_SCB_ClearRxInterrupt
	.loc 4 1775 9
	ldr	r0, [r7, #12]
	bl	Cy_SCB_ClearTxFifo
	.loc 4 1778 57
	ldr	r3, [r7, #8]
	lsls	r3, r3, #1
	.loc 4 1778 67
	uxtb	r2, r3
	.loc 4 1778 81
	ldrb	r3, [r7, #7]	@ zero_extendqisi2
	.loc 4 1778 9
	orrs	r3, r3, r2
	ldr	r2, [r7, #12]
	str	r2, [r7, #28]
	str	r3, [r7, #24]
.LBB62:
.LBB63:
	.loc 2 956 45
	ldr	r3, [r7, #28]
	ldr	r2, [r7, #24]
	str	r2, [r3, #576]
	.loc 2 957 1
	nop
.LBE63:
.LBE62:
	.loc 4 1779 48
	ldr	r3, [r7, #12]
	movs	r2, #2
	str	r2, [r3, #104]
.L246:
	.loc 4 1784 62 discriminator 1
	ldr	r0, [r7, #12]
	bl	Cy_SCB_GetMasterInterruptStatus
	mov	r2, r0
	.loc 4 1784 23 discriminator 1
	movw	r3, #263
	ands	r3, r3, r2
	str	r3, [r7, #32]
	.loc 4 1785 49 discriminator 1
	ldr	r0, [r7, #12]
	bl	Cy_SCB_GetSlaveInterruptStatus
	mov	r3, r0
	.loc 4 1785 47 discriminator 1
	and	r3, r3, #192
	.loc 4 1785 23 discriminator 1
	ldr	r2, [r7, #32]
	orrs	r3, r3, r2
	str	r3, [r7, #32]
	.loc 4 1786 26 discriminator 1
	add	r3, r7, #20
	mov	r0, r3
	bl	WaitOneUnit
	mov	r2, r0
	.loc 4 1786 23 discriminator 1
	ldr	r3, [r7, #32]
	orrs	r3, r3, r2
	str	r3, [r7, #32]
	.loc 4 1788 9 discriminator 1
	ldr	r3, [r7, #32]
	cmp	r3, #0
	beq	.L246
	.loc 4 1791 21
	ldr	r2, [r7, #48]
	ldr	r1, [r7, #32]
	ldr	r0, [r7, #12]
	bl	HandleStatus
	str	r0, [r7, #36]
.L245:
.LBE61:
	.loc 4 1795 5
	movw	r1, #465
	ldr	r0, [r7, #12]
	bl	Cy_SCB_SetSlaveInterruptMask
	.loc 4 1797 12
	ldr	r3, [r7, #36]
	.loc 4 1798 1
	mov	r0, r3
	adds	r7, r7, #40
.LCFI309:
	.cfi_def_cfa_offset 8
	mov	sp, r7
.LCFI310:
	.cfi_def_cfa_register 13
	@ sp needed
	pop	{r7, pc}
.L249:
	.align	2
.L248:
	.word	4294967
	.word	11149314
	.word	269680640
	.cfi_endproc
.LFE221:
	.size	Cy_SCB_I2C_MasterSendStart, .-Cy_SCB_I2C_MasterSendStart
	.section	.text.Cy_SCB_I2C_MasterSendReStart,"ax",%progbits
	.align	1
	.global	Cy_SCB_I2C_MasterSendReStart
	.syntax unified
	.thumb
	.thumb_func
	.type	Cy_SCB_I2C_MasterSendReStart, %function
Cy_SCB_I2C_MasterSendReStart:
.LFB222:
	.loc 4 1850 1
	.cfi_startproc
	@ args = 4, pretend = 0, frame = 40
	@ frame_needed = 1, uses_anonymous_args = 0
	push	{r7, lr}
.LCFI311:
	.cfi_def_cfa_offset 8
	.cfi_offset 7, -8
	.cfi_offset 14, -4
	sub	sp, sp, #40
.LCFI312:
	.cfi_def_cfa_offset 48
	add	r7, sp, #0
.LCFI313:
	.cfi_def_cfa_register 7
	str	r0, [r7, #12]
	str	r1, [r7, #8]
	str	r3, [r7]
	mov	r3, r2
	strb	r3, [r7, #7]
	.loc 4 1851 35
	ldr	r3, [r7, #8]
	and	r3, r3, #128
	.loc 4 1851 12
	cmp	r3, #0
	beq	.L251
	.loc 4 1851 51 discriminator 1
	bl	CY_HALT
.L251:
	.loc 4 1852 12
	ldr	r3, [r7]
	ldr	r2, .L263
	cmp	r3, r2
	bls	.L252
	.loc 4 1852 62 discriminator 1
	bl	CY_HALT
.L252:
	.loc 4 1853 12
	ldrb	r3, [r7, #7]	@ zero_extendqisi2
	cmp	r3, #0
	beq	.L253
	.loc 4 1853 13 discriminator 1
	ldrb	r3, [r7, #7]	@ zero_extendqisi2
	cmp	r3, #1
	beq	.L253
	.loc 4 1853 97 discriminator 2
	bl	CY_HALT
.L253:
	.loc 4 1855 28
	ldr	r3, .L263+4
	str	r3, [r7, #36]
	.loc 4 1857 41
	ldr	r3, [r7, #48]
	ldr	r3, [r3, #4]
	.loc 4 1857 32
	and	r3, r3, #1048576
	.loc 4 1857 8
	cmp	r3, #0
	beq	.L254
.LBB64:
	.loc 4 1859 18
	movs	r3, #0
	str	r3, [r7, #32]
	.loc 4 1860 41
	ldr	r3, [r7]
	mov	r2, #1000
	mul	r3, r2, r3
	.loc 4 1860 18
	str	r3, [r7, #20]
	.loc 4 1863 24
	ldr	r3, [r7, #48]
	ldr	r2, .L263+8
	str	r2, [r3, #4]
	.loc 4 1864 54
	ldrb	r3, [r7, #7]	@ zero_extendqisi2
	cmp	r3, #1
	ite	eq
	moveq	r3, #1
	movne	r3, #0
	uxtb	r2, r3
	.loc 4 1864 30
	ldr	r3, [r7, #48]
	strb	r2, [r3, #13]
	.loc 4 1870 88
	ldr	r3, [r7, #12]
	ldr	r3, [r3, #100]
	.loc 4 1870 103
	and	r3, r3, #32
	.loc 4 1870 56
	cmp	r3, #0
	beq	.L255
	.loc 4 1870 56 is_stmt 0 discriminator 1
	movs	r2, #9
	b	.L256
.L255:
	.loc 4 1870 56 discriminator 2
	movs	r2, #1
.L256:
	.loc 4 1870 48 is_stmt 1 discriminator 4
	ldr	r3, [r7, #12]
	str	r2, [r3, #104]
	.loc 4 1874 50 discriminator 4
	ldr	r3, [r7, #12]
	ldr	r3, [r3, #100]
	.loc 4 1874 65 discriminator 4
	and	r3, r3, #32
	.loc 4 1874 12 discriminator 4
	cmp	r3, #0
	bne	.L257
	.loc 4 1881 19
	b	.L258
.L259:
	.loc 4 1884 29
	add	r3, r7, #20
	mov	r0, r3
	bl	WaitOneUnit
	str	r0, [r7, #32]
.L258:
	.loc 4 1881 19
	ldr	r3, [r7, #32]
	cmp	r3, #0
	bne	.L257
	.loc 4 1882 62 discriminator 1
	ldr	r3, [r7, #12]
	ldr	r3, [r3, #104]
	.loc 4 1882 34 discriminator 1
	and	r3, r3, #1
	.loc 4 1881 38 discriminator 1
	cmp	r3, #0
	bne	.L259
.L257:
	.loc 4 1889 12
	ldr	r3, [r7, #32]
	cmp	r3, #0
	bne	.L260
	.loc 4 1892 61
	ldr	r3, [r7, #8]
	lsls	r3, r3, #1
	.loc 4 1892 71
	uxtb	r2, r3
	.loc 4 1892 85
	ldrb	r3, [r7, #7]	@ zero_extendqisi2
	.loc 4 1892 13
	orrs	r3, r3, r2
	ldr	r2, [r7, #12]
	str	r2, [r7, #28]
	str	r3, [r7, #24]
.LBB65:
.LBB66:
	.loc 2 956 45
	ldr	r3, [r7, #28]
	ldr	r2, [r7, #24]
	str	r2, [r3, #576]
	.loc 2 957 1
	nop
.L261:
.LBE66:
.LBE65:
	.loc 4 1897 66 discriminator 1
	ldr	r0, [r7, #12]
	bl	Cy_SCB_GetMasterInterruptStatus
	mov	r2, r0
	.loc 4 1897 27 discriminator 1
	movw	r3, #263
	ands	r3, r3, r2
	str	r3, [r7, #32]
	.loc 4 1898 30 discriminator 1
	add	r3, r7, #20
	mov	r0, r3
	bl	WaitOneUnit
	mov	r2, r0
	.loc 4 1898 27 discriminator 1
	ldr	r3, [r7, #32]
	orrs	r3, r3, r2
	str	r3, [r7, #32]
	.loc 4 1900 13 discriminator 1
	ldr	r3, [r7, #32]
	cmp	r3, #0
	beq	.L261
.L260:
	.loc 4 1904 21
	ldr	r2, [r7, #48]
	ldr	r1, [r7, #32]
	ldr	r0, [r7, #12]
	bl	HandleStatus
	str	r0, [r7, #36]
.L254:
.LBE64:
	.loc 4 1907 12
	ldr	r3, [r7, #36]
	.loc 4 1908 1
	mov	r0, r3
	adds	r7, r7, #40
.LCFI314:
	.cfi_def_cfa_offset 8
	mov	sp, r7
.LCFI315:
	.cfi_def_cfa_register 13
	@ sp needed
	pop	{r7, pc}
.L264:
	.align	2
.L263:
	.word	4294967
	.word	11149314
	.word	269680640
	.cfi_endproc
.LFE222:
	.size	Cy_SCB_I2C_MasterSendReStart, .-Cy_SCB_I2C_MasterSendReStart
	.section	.text.Cy_SCB_I2C_MasterSendStop,"ax",%progbits
	.align	1
	.global	Cy_SCB_I2C_MasterSendStop
	.syntax unified
	.thumb
	.thumb_func
	.type	Cy_SCB_I2C_MasterSendStop, %function
Cy_SCB_I2C_MasterSendStop:
.LFB223:
	.loc 4 1949 1
	.cfi_startproc
	@ args = 0, pretend = 0, frame = 32
	@ frame_needed = 1, uses_anonymous_args = 0
	push	{r7, lr}
.LCFI316:
	.cfi_def_cfa_offset 8
	.cfi_offset 7, -8
	.cfi_offset 14, -4
	sub	sp, sp, #32
.LCFI317:
	.cfi_def_cfa_offset 40
	add	r7, sp, #0
.LCFI318:
	.cfi_def_cfa_register 7
	str	r0, [r7, #12]
	str	r1, [r7, #8]
	str	r2, [r7, #4]
	.loc 4 1950 12
	ldr	r3, [r7, #8]
	ldr	r2, .L270
	cmp	r3, r2
	bls	.L266
	.loc 4 1950 62 discriminator 1
	bl	CY_HALT
.L266:
	.loc 4 1952 28
	ldr	r3, .L270+4
	str	r3, [r7, #28]
	.loc 4 1954 41
	ldr	r3, [r7, #4]
	ldr	r3, [r3, #4]
	.loc 4 1954 32
	and	r3, r3, #1048576
	.loc 4 1954 8
	cmp	r3, #0
	beq	.L267
.LBB67:
	.loc 4 1957 41
	ldr	r3, [r7, #8]
	mov	r2, #1000
	mul	r3, r2, r3
	.loc 4 1957 18
	str	r3, [r7, #20]
	.loc 4 1960 48
	ldr	r3, [r7, #12]
	movs	r2, #24
	str	r2, [r3, #104]
.L268:
	.loc 4 1965 55 discriminator 1
	ldr	r0, [r7, #12]
	bl	Cy_SCB_GetMasterInterruptStatus
	mov	r2, r0
	.loc 4 1965 23 discriminator 1
	movw	r3, #273
	ands	r3, r3, r2
	str	r3, [r7, #24]
	.loc 4 1966 26 discriminator 1
	add	r3, r7, #20
	mov	r0, r3
	bl	WaitOneUnit
	mov	r2, r0
	.loc 4 1966 23 discriminator 1
	ldr	r3, [r7, #24]
	orrs	r3, r3, r2
	str	r3, [r7, #24]
	.loc 4 1968 9 discriminator 1
	ldr	r3, [r7, #24]
	cmp	r3, #0
	beq	.L268
	.loc 4 1971 21
	ldr	r2, [r7, #4]
	ldr	r1, [r7, #24]
	ldr	r0, [r7, #12]
	bl	HandleStatus
	str	r0, [r7, #28]
.L267:
.LBE67:
	.loc 4 1974 12
	ldr	r3, [r7, #28]
	.loc 4 1975 1
	mov	r0, r3
	adds	r7, r7, #32
.LCFI319:
	.cfi_def_cfa_offset 8
	mov	sp, r7
.LCFI320:
	.cfi_def_cfa_register 13
	@ sp needed
	pop	{r7, pc}
.L271:
	.align	2
.L270:
	.word	4294967
	.word	11149314
	.cfi_endproc
.LFE223:
	.size	Cy_SCB_I2C_MasterSendStop, .-Cy_SCB_I2C_MasterSendStop
	.section	.text.Cy_SCB_I2C_MasterReadByte,"ax",%progbits
	.align	1
	.global	Cy_SCB_I2C_MasterReadByte
	.syntax unified
	.thumb
	.thumb_func
	.type	Cy_SCB_I2C_MasterReadByte, %function
Cy_SCB_I2C_MasterReadByte:
.LFB224:
	.loc 4 2025 1
	.cfi_startproc
	@ args = 4, pretend = 0, frame = 40
	@ frame_needed = 1, uses_anonymous_args = 0
	push	{r7, lr}
.LCFI321:
	.cfi_def_cfa_offset 8
	.cfi_offset 7, -8
	.cfi_offset 14, -4
	sub	sp, sp, #40
.LCFI322:
	.cfi_def_cfa_offset 48
	add	r7, sp, #0
.LCFI323:
	.cfi_def_cfa_register 7
	str	r0, [r7, #12]
	str	r2, [r7, #4]
	str	r3, [r7]
	mov	r3, r1
	strb	r3, [r7, #11]
	.loc 4 2026 12
	ldr	r3, [r7, #4]
	cmp	r3, #0
	bne	.L273
	.loc 4 2026 38 discriminator 1
	bl	CY_HALT
.L273:
	.loc 4 2027 12
	ldr	r3, [r7]
	ldr	r2, .L283
	cmp	r3, r2
	bls	.L274
	.loc 4 2027 62 discriminator 1
	bl	CY_HALT
.L274:
	.loc 4 2028 12
	ldrb	r3, [r7, #11]	@ zero_extendqisi2
	cmp	r3, #0
	beq	.L275
	.loc 4 2028 13 discriminator 1
	ldrb	r3, [r7, #11]	@ zero_extendqisi2
	cmp	r3, #1
	beq	.L275
	.loc 4 2028 86 discriminator 2
	bl	CY_HALT
.L275:
	.loc 4 2030 28
	ldr	r3, .L283+4
	str	r3, [r7, #36]
	.loc 4 2032 34
	ldr	r3, [r7, #48]
	ldr	r3, [r3, #4]
	.loc 4 2032 8
	cmp	r3, #1114112
	bne	.L276
.LBB68:
	.loc 4 2036 41
	ldr	r3, [r7]
	mov	r2, #1000
	mul	r3, r2, r3
	.loc 4 2036 18
	str	r3, [r7, #20]
.L278:
	.loc 4 2041 43 discriminator 2
	ldr	r0, [r7, #12]
	bl	Cy_SCB_GetRxInterruptStatus
	mov	r3, r0
	.loc 4 2041 41 discriminator 2
	and	r3, r3, #4
	.loc 4 2041 24 discriminator 2
	cmp	r3, #0
	ite	ne
	movne	r3, #1
	moveq	r3, #0
	strb	r3, [r7, #35]
	.loc 4 2042 46 discriminator 2
	ldr	r0, [r7, #12]
	bl	Cy_SCB_GetMasterInterruptStatus
	mov	r2, r0
	.loc 4 2042 23 discriminator 2
	movw	r3, #257
	ands	r3, r3, r2
	str	r3, [r7, #28]
	.loc 4 2043 26 discriminator 2
	add	r3, r7, #20
	mov	r0, r3
	bl	WaitOneUnit
	mov	r2, r0
	.loc 4 2043 23 discriminator 2
	ldr	r3, [r7, #28]
	orrs	r3, r3, r2
	str	r3, [r7, #28]
	.loc 4 2045 19 discriminator 2
	ldrb	r3, [r7, #35]
	eor	r3, r3, #1
	uxtb	r3, r3
	.loc 4 2045 9 discriminator 2
	cmp	r3, #0
	beq	.L277
	.loc 4 2045 32 discriminator 1
	ldr	r3, [r7, #28]
	cmp	r3, #0
	beq	.L278
.L277:
	.loc 4 2048 12
	ldrb	r3, [r7, #35]	@ zero_extendqisi2
	cmp	r3, #0
	beq	.L279
	ldr	r3, [r7, #12]
	str	r3, [r7, #24]
.LBB69:
.LBB70:
	.loc 2 853 39
	ldr	r3, [r7, #24]
	ldr	r3, [r3, #832]
.LBE70:
.LBE69:
	.loc 4 2051 21
	uxtb	r2, r3
	.loc 4 2051 19
	ldr	r3, [r7, #4]
	strb	r2, [r3]
	.loc 4 2053 13
	movs	r1, #5
	ldr	r0, [r7, #12]
	bl	Cy_SCB_ClearRxInterrupt
.L279:
	.loc 4 2057 21
	ldr	r2, [r7, #48]
	ldr	r1, [r7, #28]
	ldr	r0, [r7, #12]
	bl	HandleStatus
	str	r0, [r7, #36]
	.loc 4 2059 12
	ldr	r3, [r7, #36]
	cmp	r3, #0
	bne	.L276
	.loc 4 2061 16
	ldrb	r3, [r7, #11]	@ zero_extendqisi2
	cmp	r3, #0
	bne	.L276
	.loc 4 2064 56
	ldr	r3, [r7, #12]
	movs	r2, #4
	str	r2, [r3, #104]
.L276:
.LBE68:
	.loc 4 2073 12
	ldr	r3, [r7, #36]
	.loc 4 2074 1
	mov	r0, r3
	adds	r7, r7, #40
.LCFI324:
	.cfi_def_cfa_offset 8
	mov	sp, r7
.LCFI325:
	.cfi_def_cfa_register 13
	@ sp needed
	pop	{r7, pc}
.L284:
	.align	2
.L283:
	.word	4294967
	.word	11149314
	.cfi_endproc
.LFE224:
	.size	Cy_SCB_I2C_MasterReadByte, .-Cy_SCB_I2C_MasterReadByte
	.section	.text.Cy_SCB_I2C_MasterWriteByte,"ax",%progbits
	.align	1
	.global	Cy_SCB_I2C_MasterWriteByte
	.syntax unified
	.thumb
	.thumb_func
	.type	Cy_SCB_I2C_MasterWriteByte, %function
Cy_SCB_I2C_MasterWriteByte:
.LFB225:
	.loc 4 2115 1
	.cfi_startproc
	@ args = 0, pretend = 0, frame = 40
	@ frame_needed = 1, uses_anonymous_args = 0
	push	{r7, lr}
.LCFI326:
	.cfi_def_cfa_offset 8
	.cfi_offset 7, -8
	.cfi_offset 14, -4
	sub	sp, sp, #40
.LCFI327:
	.cfi_def_cfa_offset 48
	add	r7, sp, #0
.LCFI328:
	.cfi_def_cfa_register 7
	str	r0, [r7, #12]
	str	r2, [r7, #4]
	str	r3, [r7]
	mov	r3, r1
	strb	r3, [r7, #11]
	.loc 4 2116 12
	ldr	r3, [r7, #4]
	ldr	r2, .L290
	cmp	r3, r2
	bls	.L286
	.loc 4 2116 62 discriminator 1
	bl	CY_HALT
.L286:
	.loc 4 2118 28
	ldr	r3, .L290+4
	str	r3, [r7, #36]
	.loc 4 2120 34
	ldr	r3, [r7]
	ldr	r3, [r3, #4]
	.loc 4 2120 8
	cmp	r3, #1310720
	bne	.L287
.LBB71:
	.loc 4 2123 41
	ldr	r3, [r7, #4]
	mov	r2, #1000
	mul	r3, r2, r3
	.loc 4 2123 18
	str	r3, [r7, #20]
	.loc 4 2126 9
	ldrb	r3, [r7, #11]	@ zero_extendqisi2
	ldr	r2, [r7, #12]
	str	r2, [r7, #28]
	str	r3, [r7, #24]
.LBB72:
.LBB73:
	.loc 2 956 45
	ldr	r3, [r7, #28]
	ldr	r2, [r7, #24]
	str	r2, [r3, #576]
	.loc 2 957 1
	nop
.L288:
.LBE73:
.LBE72:
	.loc 4 2131 62 discriminator 1
	ldr	r0, [r7, #12]
	bl	Cy_SCB_GetMasterInterruptStatus
	mov	r2, r0
	.loc 4 2131 23 discriminator 1
	movw	r3, #263
	ands	r3, r3, r2
	str	r3, [r7, #32]
	.loc 4 2132 26 discriminator 1
	add	r3, r7, #20
	mov	r0, r3
	bl	WaitOneUnit
	mov	r2, r0
	.loc 4 2132 23 discriminator 1
	ldr	r3, [r7, #32]
	orrs	r3, r3, r2
	str	r3, [r7, #32]
	.loc 4 2134 9 discriminator 1
	ldr	r3, [r7, #32]
	cmp	r3, #0
	beq	.L288
	.loc 4 2137 21
	ldr	r2, [r7]
	ldr	r1, [r7, #32]
	ldr	r0, [r7, #12]
	bl	HandleStatus
	str	r0, [r7, #36]
.L287:
.LBE71:
	.loc 4 2140 12
	ldr	r3, [r7, #36]
	.loc 4 2141 1
	mov	r0, r3
	adds	r7, r7, #40
.LCFI329:
	.cfi_def_cfa_offset 8
	mov	sp, r7
.LCFI330:
	.cfi_def_cfa_register 13
	@ sp needed
	pop	{r7, pc}
.L291:
	.align	2
.L290:
	.word	4294967
	.word	11149314
	.cfi_endproc
.LFE225:
	.size	Cy_SCB_I2C_MasterWriteByte, .-Cy_SCB_I2C_MasterWriteByte
	.section	.text.Cy_SCB_I2C_Interrupt,"ax",%progbits
	.align	1
	.global	Cy_SCB_I2C_Interrupt
	.syntax unified
	.thumb
	.thumb_func
	.type	Cy_SCB_I2C_Interrupt, %function
Cy_SCB_I2C_Interrupt:
.LFB226:
	.loc 4 2167 1
	.cfi_startproc
	@ args = 0, pretend = 0, frame = 8
	@ frame_needed = 1, uses_anonymous_args = 0
	push	{r7, lr}
.LCFI331:
	.cfi_def_cfa_offset 8
	.cfi_offset 7, -8
	.cfi_offset 14, -4
	sub	sp, sp, #8
.LCFI332:
	.cfi_def_cfa_offset 16
	add	r7, sp, #0
.LCFI333:
	.cfi_def_cfa_register 7
	str	r0, [r7, #4]
	str	r1, [r7]
	.loc 4 2168 41
	ldr	r3, [r7]
	ldr	r3, [r3, #4]
	.loc 4 2168 32
	and	r3, r3, #1048576
	.loc 4 2168 8
	cmp	r3, #0
	beq	.L293
	.loc 4 2171 9
	ldr	r1, [r7]
	ldr	r0, [r7, #4]
	bl	Cy_SCB_I2C_MasterInterrupt
	.loc 4 2178 1
	b	.L295
.L293:
	.loc 4 2176 9
	ldr	r1, [r7]
	ldr	r0, [r7, #4]
	bl	Cy_SCB_I2C_SlaveInterrupt
.L295:
	.loc 4 2178 1
	nop
	adds	r7, r7, #8
.LCFI334:
	.cfi_def_cfa_offset 8
	mov	sp, r7
.LCFI335:
	.cfi_def_cfa_register 13
	@ sp needed
	pop	{r7, pc}
	.cfi_endproc
.LFE226:
	.size	Cy_SCB_I2C_Interrupt, .-Cy_SCB_I2C_Interrupt
	.section	.text.Cy_SCB_I2C_SlaveInterrupt,"ax",%progbits
	.align	1
	.global	Cy_SCB_I2C_SlaveInterrupt
	.syntax unified
	.thumb
	.thumb_func
	.type	Cy_SCB_I2C_SlaveInterrupt, %function
Cy_SCB_I2C_SlaveInterrupt:
.LFB227:
	.loc 4 2200 1
	.cfi_startproc
	@ args = 0, pretend = 0, frame = 16
	@ frame_needed = 1, uses_anonymous_args = 0
	push	{r7, lr}
.LCFI336:
	.cfi_def_cfa_offset 8
	.cfi_offset 7, -8
	.cfi_offset 14, -4
	sub	sp, sp, #16
.LCFI337:
	.cfi_def_cfa_offset 24
	add	r7, sp, #0
.LCFI338:
	.cfi_def_cfa_register 7
	str	r0, [r7, #4]
	str	r1, [r7]
	.loc 4 2204 25
	ldr	r0, [r7, #4]
	bl	Cy_SCB_GetI2CInterruptStatusMasked
	mov	r3, r0
	.loc 4 2204 23
	and	r3, r3, #1
	.loc 4 2204 8
	cmp	r3, #0
	beq	.L297
	.loc 4 2209 24
	ldr	r3, [r7]
	mov	r2, #4096
	str	r2, [r3, #4]
	.loc 4 2211 9
	movs	r1, #1
	ldr	r0, [r7, #4]
	bl	Cy_SCB_ClearI2CInterrupt
.L297:
	.loc 4 2215 23
	ldr	r0, [r7, #4]
	bl	Cy_SCB_GetSlaveInterruptStatusMasked
	str	r0, [r7, #12]
	.loc 4 2218 35
	ldr	r2, [r7, #12]
	movw	r3, #257
	ands	r3, r3, r2
	.loc 4 2218 8
	cmp	r3, #0
	beq	.L298
	.loc 4 2221 30
	ldr	r3, [r7]
	ldr	r3, [r3, #32]
	.loc 4 2221 50
	ldr	r2, [r7, #12]
	and	r2, r2, #256
	.loc 4 2222 60
	cmp	r2, #0
	beq	.L299
	.loc 4 2222 60 is_stmt 0 discriminator 1
	mov	r2, #256
	b	.L300
.L299:
	.loc 4 2222 60 discriminator 2
	movs	r2, #128
.L300:
	.loc 4 2221 30 is_stmt 1
	orrs	r2, r2, r3
	ldr	r3, [r7]
	str	r2, [r3, #32]
	.loc 4 2225 9
	movs	r1, #0
	ldr	r0, [r7, #4]
	bl	Cy_SCB_SetRxInterruptMask
	.loc 4 2228 25
	ldr	r3, [r7, #12]
	orr	r3, r3, #16
	str	r3, [r7, #12]
	b	.L301
.L298:
	.loc 4 2232 28
	ldr	r3, [r7, #12]
	and	r3, r3, #16
	.loc 4 2232 12
	cmp	r3, #0
	beq	.L301
	.loc 4 2237 18
	ldr	r0, [r7, #4]
	bl	Cy_SCB_GetNumInRxFifo
	mov	r3, r0
	.loc 4 2237 16
	cmp	r3, #0
	beq	.L301
	.loc 4 2237 64 discriminator 1
	ldr	r3, [r7]
	ldr	r3, [r3, #60]
	.loc 4 2237 53 discriminator 1
	cmp	r3, #0
	beq	.L301
	.loc 4 2239 17
	movs	r1, #1
	ldr	r0, [r7, #4]
	bl	Cy_SCB_SetRxInterrupt
	.loc 4 2240 17
	movs	r1, #1
	ldr	r0, [r7, #4]
	bl	Cy_SCB_SetRxInterruptMask
.L301:
	.loc 4 2246 25
	ldr	r0, [r7, #4]
	bl	Cy_SCB_GetRxInterruptStatusMasked
	mov	r3, r0
	.loc 4 2246 23
	and	r3, r3, #1
	.loc 4 2246 8
	cmp	r3, #0
	beq	.L302
	.loc 4 2248 9
	ldr	r1, [r7]
	ldr	r0, [r7, #4]
	bl	SlaveHandleDataReceive
	.loc 4 2250 9
	movs	r1, #1
	ldr	r0, [r7, #4]
	bl	Cy_SCB_ClearRxInterrupt
.L302:
	.loc 4 2254 24
	ldr	r3, [r7, #12]
	and	r3, r3, #16
	.loc 4 2254 8
	cmp	r3, #0
	beq	.L303
	.loc 4 2256 9
	ldr	r1, [r7]
	ldr	r0, [r7, #4]
	bl	SlaveHandleStop
	.loc 4 2258 9
	movs	r1, #16
	ldr	r0, [r7, #4]
	bl	Cy_SCB_ClearSlaveInterrupt
	.loc 4 2261 27
	ldr	r0, [r7, #4]
	bl	Cy_SCB_GetSlaveInterruptStatusMasked
	str	r0, [r7, #12]
.L303:
	.loc 4 2265 35
	ldr	r3, [r7, #12]
	and	r3, r3, #192
	.loc 4 2265 8
	cmp	r3, #0
	beq	.L304
	.loc 4 2267 9
	ldr	r1, [r7]
	ldr	r0, [r7, #4]
	bl	SlaveHandleAddress
	.loc 4 2269 9
	movs	r1, #1
	ldr	r0, [r7, #4]
	bl	Cy_SCB_ClearI2CInterrupt
	.loc 4 2270 9
	movs	r1, #192
	ldr	r0, [r7, #4]
	bl	Cy_SCB_ClearSlaveInterrupt
.L304:
	.loc 4 2274 36
	ldr	r0, [r7, #4]
	bl	Cy_SCB_GetTxInterruptStatusMasked
	mov	r3, r0
	.loc 4 2274 34
	and	r3, r3, #65
	.loc 4 2274 8
	cmp	r3, #0
	beq	.L306
	.loc 4 2276 9
	ldr	r1, [r7]
	ldr	r0, [r7, #4]
	bl	SlaveHandleDataTransmit
	.loc 4 2278 9
	movs	r1, #1
	ldr	r0, [r7, #4]
	bl	Cy_SCB_ClearTxInterrupt
.L306:
	.loc 4 2280 1
	nop
	adds	r7, r7, #16
.LCFI339:
	.cfi_def_cfa_offset 8
	mov	sp, r7
.LCFI340:
	.cfi_def_cfa_register 13
	@ sp needed
	pop	{r7, pc}
	.cfi_endproc
.LFE227:
	.size	Cy_SCB_I2C_SlaveInterrupt, .-Cy_SCB_I2C_SlaveInterrupt
	.section	.text.SlaveHandleAddress,"ax",%progbits
	.align	1
	.syntax unified
	.thumb
	.thumb_func
	.type	SlaveHandleAddress, %function
SlaveHandleAddress:
.LFB228:
	.loc 4 2422 1
	.cfi_startproc
	@ args = 0, pretend = 0, frame = 32
	@ frame_needed = 1, uses_anonymous_args = 0
	push	{r7, lr}
.LCFI341:
	.cfi_def_cfa_offset 8
	.cfi_offset 7, -8
	.cfi_offset 14, -4
	sub	sp, sp, #32
.LCFI342:
	.cfi_def_cfa_offset 40
	add	r7, sp, #0
.LCFI343:
	.cfi_def_cfa_register 7
	str	r0, [r7, #4]
	str	r1, [r7]
	.loc 4 2424 29
	movs	r3, #0
	strb	r3, [r7, #31]
	.loc 4 2427 23
	ldr	r3, [r7]
	ldr	r3, [r3, #72]
	.loc 4 2427 8
	cmp	r3, #0
	beq	.L308
.LBB74:
	.loc 4 2429 18
	movs	r3, #0
	str	r3, [r7, #24]
	.loc 4 2432 42
	ldr	r3, [r7, #4]
	ldr	r3, [r3]
	.loc 4 2432 51
	and	r3, r3, #65536
	.loc 4 2432 12
	cmp	r3, #0
	beq	.L309
	.loc 4 2434 40
	ldr	r0, [r7, #4]
	bl	Cy_SCB_GetSlaveInterruptStatusMasked
	mov	r3, r0
	.loc 4 2434 38
	and	r3, r3, #64
	.loc 4 2435 40
	cmp	r3, #0
	beq	.L310
	.loc 4 2435 40 is_stmt 0 discriminator 1
	movs	r3, #2
	b	.L311
.L310:
	.loc 4 2435 40 discriminator 2
	movs	r3, #0
.L311:
	.loc 4 2434 20 is_stmt 1
	str	r3, [r7, #24]
.L309:
	.loc 4 2439 43
	ldr	r3, [r7, #4]
	ldr	r3, [r3, #96]
	.loc 4 2439 56
	and	r3, r3, #2048
	.loc 4 2439 12
	cmp	r3, #0
	bne	.L312
	.loc 4 2441 41
	ldr	r0, [r7, #4]
	bl	Cy_SCB_GetSlaveInterruptStatusMasked
	mov	r3, r0
	.loc 4 2441 39
	and	r3, r3, #128
	.loc 4 2442 41
	cmp	r3, #0
	beq	.L313
	.loc 4 2442 41 is_stmt 0 discriminator 1
	movs	r3, #1
	b	.L314
.L313:
	.loc 4 2442 41 discriminator 2
	movs	r3, #0
.L314:
	.loc 4 2441 20 is_stmt 1 discriminator 4
	ldr	r2, [r7, #24]
	orrs	r3, r3, r2
	str	r3, [r7, #24]
.L312:
	.loc 4 2446 12
	ldr	r3, [r7, #24]
	cmp	r3, #0
	beq	.L308
	.loc 4 2449 26
	ldr	r3, [r7]
	ldr	r3, [r3, #72]
	.loc 4 2449 19
	ldr	r0, [r7, #24]
	blx	r3
.LVL0:
	mov	r3, r0
	strb	r3, [r7, #31]
	.loc 4 2452 13
	movs	r1, #1
	ldr	r0, [r7, #4]
	bl	Cy_SCB_ClearRxInterrupt
	.loc 4 2454 16
	ldrb	r3, [r7, #31]	@ zero_extendqisi2
	cmp	r3, #0
	bne	.L315
	.loc 4 2457 17
	movs	r1, #16
	ldr	r0, [r7, #4]
	bl	Cy_SCB_ClearSlaveInterrupt
	.loc 4 2458 17
	movw	r1, #465
	ldr	r0, [r7, #4]
	bl	Cy_SCB_SetSlaveInterruptMask
	b	.L308
.L315:
	.loc 4 2463 17
	movw	r1, #449
	ldr	r0, [r7, #4]
	bl	Cy_SCB_SetSlaveInterruptMask
.L308:
.LBE74:
	.loc 4 2469 5
	ldr	r0, [r7, #4]
	bl	Cy_SCB_ClearTxFifo
	.loc 4 2472 78
	ldrb	r3, [r7, #31]	@ zero_extendqisi2
	cmp	r3, #0
	bne	.L316
	.loc 4 2472 78 is_stmt 0 discriminator 1
	movs	r2, #1
	b	.L317
.L316:
	.loc 4 2472 78 discriminator 2
	movs	r2, #2
.L317:
	.loc 4 2472 44 is_stmt 1 discriminator 4
	ldr	r3, [r7, #4]
	str	r2, [r3, #108]
	.loc 4 2474 8 discriminator 4
	ldrb	r3, [r7, #31]	@ zero_extendqisi2
	cmp	r3, #0
	bne	.L327
.LBB75:
	.loc 4 2476 58
	ldr	r3, [r7, #4]
	ldr	r3, [r3, #100]
	.loc 4 2476 73
	and	r3, r3, #16
	.loc 4 2476 13
	cmp	r3, #0
	ite	ne
	movne	r3, #1
	moveq	r3, #0
	strb	r3, [r7, #19]
	.loc 4 2479 27
	ldr	r3, [r7]
	ldr	r3, [r3, #68]
	.loc 4 2479 12
	cmp	r3, #0
	beq	.L319
	.loc 4 2481 20
	ldr	r3, [r7]
	ldr	r3, [r3, #68]
	.loc 4 2481 13
	ldrb	r2, [r7, #19]	@ zero_extendqisi2
	cmp	r2, #0
	beq	.L320
	.loc 4 2481 13 is_stmt 0 discriminator 1
	movs	r2, #1
	b	.L321
.L320:
	.loc 4 2481 13 discriminator 2
	movs	r2, #2
.L321:
	.loc 4 2481 13 discriminator 4
	mov	r0, r2
	blx	r3
.LVL1:
.L319:
	.loc 4 2485 12 is_stmt 1
	ldrb	r3, [r7, #19]	@ zero_extendqisi2
	cmp	r3, #0
	beq	.L322
	.loc 4 2487 28
	ldr	r3, [r7]
	movw	r2, #4098
	str	r2, [r3, #4]
	.loc 4 2488 34
	ldr	r3, [r7]
	ldr	r3, [r3, #32]
	orr	r2, r3, #1
	ldr	r3, [r7]
	str	r2, [r3, #32]
	.loc 4 2491 48
	ldr	r3, [r7]
	ldr	r2, [r3, #52]
	.loc 4 2491 39
	ldr	r3, [r7]
	str	r2, [r3, #48]
	.loc 4 2492 38
	ldr	r3, [r7]
	movs	r2, #0
	strb	r2, [r3, #36]
	.loc 4 2493 13
	movs	r1, #1
	ldr	r0, [r7, #4]
	bl	Cy_SCB_SetTxInterruptMask
.LBE75:
	.loc 4 2537 1
	b	.L327
.L322:
.LBB78:
.LBB76:
	.loc 4 2497 22
	movs	r3, #0
	str	r3, [r7, #20]
	.loc 4 2499 28
	ldr	r3, [r7]
	movw	r2, #4097
	str	r2, [r3, #4]
	.loc 4 2500 34
	ldr	r3, [r7]
	ldr	r3, [r3, #32]
	orr	r2, r3, #16
	ldr	r3, [r7]
	str	r2, [r3, #32]
	.loc 4 2503 13
	movs	r1, #1
	ldr	r0, [r7, #4]
	bl	Cy_SCB_SetRxInterruptMask
	.loc 4 2505 24
	ldr	r3, [r7]
	ldrb	r3, [r3]	@ zero_extendqisi2
	.loc 4 2505 16
	cmp	r3, #0
	beq	.L323
	.loc 4 2507 28
	ldr	r3, [r7]
	ldr	r3, [r3, #60]
	.loc 4 2507 20
	cmp	r3, #0
	beq	.L323
.LBB77:
	.loc 4 2509 30
	movs	r3, #128
	str	r3, [r7, #12]
	.loc 4 2512 59
	ldr	r3, [r7, #4]
	ldr	r3, [r3, #96]
	orr	r2, r3, #8192
	ldr	r3, [r7, #4]
	str	r2, [r3, #96]
	.loc 4 2514 32
	ldr	r3, [r7]
	ldr	r3, [r3, #60]
	.loc 4 2514 24
	ldr	r2, [r7, #12]
	cmp	r2, r3
	bcs	.L324
	.loc 4 2517 41
	ldr	r3, [r7]
	ldr	r2, [r3, #60]
	.loc 4 2517 31
	ldr	r3, [r7, #12]
	subs	r3, r2, r3
	str	r3, [r7, #20]
	.loc 4 2518 81
	ldr	r2, [r7, #20]
	ldr	r3, [r7, #12]
	cmp	r2, r3
	bls	.L325
	.loc 4 2518 65 discriminator 1
	ldr	r3, [r7, #12]
	lsrs	r3, r3, #1
	.loc 4 2518 81 discriminator 1
	subs	r3, r3, #1
	b	.L326
.L325:
	.loc 4 2518 81 is_stmt 0 discriminator 2
	ldr	r3, [r7, #20]
	subs	r3, r3, #1
.L326:
	.loc 4 2518 31 is_stmt 1 discriminator 4
	str	r3, [r7, #20]
	b	.L323
.L324:
	.loc 4 2523 41
	ldr	r3, [r7]
	ldr	r3, [r3, #60]
	.loc 4 2523 31
	subs	r3, r3, #1
	str	r3, [r7, #20]
	.loc 4 2526 63
	ldr	r3, [r7, #4]
	ldr	r3, [r3, #96]
	orr	r2, r3, #32768
	ldr	r3, [r7, #4]
	str	r2, [r3, #96]
	.loc 4 2529 25
	movs	r1, #0
	ldr	r0, [r7, #4]
	bl	Cy_SCB_SetRxInterruptMask
.L323:
.LBE77:
	.loc 4 2534 13
	ldr	r1, [r7, #20]
	ldr	r0, [r7, #4]
	bl	Cy_SCB_SetRxFifoLevel
.L327:
.LBE76:
.LBE78:
	.loc 4 2537 1
	nop
	adds	r7, r7, #32
.LCFI344:
	.cfi_def_cfa_offset 8
	mov	sp, r7
.LCFI345:
	.cfi_def_cfa_register 13
	@ sp needed
	pop	{r7, pc}
	.cfi_endproc
.LFE228:
	.size	SlaveHandleAddress, .-SlaveHandleAddress
	.section	.text.SlaveHandleDataReceive,"ax",%progbits
	.align	1
	.syntax unified
	.thumb
	.thumb_func
	.type	SlaveHandleDataReceive, %function
SlaveHandleDataReceive:
.LFB229:
	.loc 4 2558 1
	.cfi_startproc
	@ args = 0, pretend = 0, frame = 24
	@ frame_needed = 1, uses_anonymous_args = 0
	push	{r7, lr}
.LCFI346:
	.cfi_def_cfa_offset 8
	.cfi_offset 7, -8
	.cfi_offset 14, -4
	sub	sp, sp, #24
.LCFI347:
	.cfi_def_cfa_offset 32
	add	r7, sp, #0
.LCFI348:
	.cfi_def_cfa_register 7
	str	r0, [r7, #4]
	str	r1, [r7]
	.loc 4 2560 16
	ldr	r3, [r7]
	ldr	r3, [r3, #60]
	.loc 4 2560 8
	cmp	r3, #0
	beq	.L329
	.loc 4 2562 20
	ldr	r3, [r7]
	ldrb	r3, [r3]	@ zero_extendqisi2
	.loc 4 2562 12
	cmp	r3, #0
	beq	.L330
.LBB79:
	.loc 4 2565 22
	movs	r3, #128
	str	r3, [r7, #16]
	.loc 4 2568 34
	ldr	r0, [r7, #4]
	bl	Cy_SCB_GetRxFifoLevel
	mov	r3, r0
	.loc 4 2568 22
	adds	r3, r3, #1
	str	r3, [r7, #12]
	.loc 4 2571 55
	ldr	r3, [r7]
	ldr	r3, [r3, #56]
	.loc 4 2571 25
	ldr	r2, [r7, #12]
	mov	r1, r3
	ldr	r0, [r7, #4]
	bl	Cy_SCB_ReadArray
	str	r0, [r7, #12]
	.loc 4 2572 39
	ldr	r3, [r7]
	ldr	r2, [r3, #64]
	ldr	r3, [r7, #12]
	add	r2, r2, r3
	ldr	r3, [r7]
	str	r2, [r3, #64]
	.loc 4 2573 40
	ldr	r3, [r7]
	ldr	r2, [r3, #60]
	ldr	r3, [r7, #12]
	subs	r2, r2, r3
	ldr	r3, [r7]
	str	r2, [r3, #60]
	.loc 4 2574 46
	ldr	r3, [r7]
	ldr	r2, [r3, #56]
	.loc 4 2574 38
	ldr	r3, [r7, #12]
	add	r2, r2, r3
	.loc 4 2574 36
	ldr	r3, [r7]
	str	r2, [r3, #56]
	.loc 4 2577 24
	ldr	r3, [r7]
	ldr	r3, [r3, #60]
	.loc 4 2577 16
	ldr	r2, [r7, #16]
	cmp	r2, r3
	bcs	.L331
	.loc 4 2579 32
	ldr	r3, [r7]
	ldr	r2, [r3, #60]
	.loc 4 2579 23
	ldr	r3, [r7, #16]
	subs	r3, r2, r3
	str	r3, [r7, #20]
	.loc 4 2580 73
	ldr	r2, [r7, #20]
	ldr	r3, [r7, #16]
	cmp	r2, r3
	bls	.L332
	.loc 4 2580 57 discriminator 1
	ldr	r3, [r7, #16]
	lsrs	r3, r3, #1
	.loc 4 2580 73 discriminator 1
	subs	r3, r3, #1
	b	.L333
.L332:
	.loc 4 2580 73 is_stmt 0 discriminator 2
	ldr	r3, [r7, #20]
	subs	r3, r3, #1
.L333:
	.loc 4 2580 23 is_stmt 1 discriminator 4
	str	r3, [r7, #20]
	b	.L334
.L331:
	.loc 4 2584 55
	ldr	r3, [r7, #4]
	ldr	r3, [r3, #96]
	orr	r2, r3, #32768
	ldr	r3, [r7, #4]
	str	r2, [r3, #96]
	.loc 4 2586 33
	ldr	r3, [r7]
	ldr	r3, [r3, #60]
	.loc 4 2586 69
	cmp	r3, #0
	beq	.L335
	.loc 4 2586 79 discriminator 1
	ldr	r3, [r7]
	ldr	r3, [r3, #60]
	.loc 4 2586 69 discriminator 1
	subs	r3, r3, #1
	b	.L336
.L335:
	.loc 4 2586 69 is_stmt 0 discriminator 2
	movs	r3, #0
.L336:
	.loc 4 2586 23 is_stmt 1 discriminator 4
	str	r3, [r7, #20]
	.loc 4 2587 17 discriminator 4
	movs	r1, #0
	ldr	r0, [r7, #4]
	bl	Cy_SCB_SetRxInterruptMask
.L334:
	.loc 4 2591 13
	ldr	r1, [r7, #20]
	ldr	r0, [r7, #4]
	bl	Cy_SCB_SetRxFifoLevel
.LBE79:
	.loc 4 2610 1
	b	.L339
.L330:
	.loc 4 2596 52
	ldr	r3, [r7, #4]
	movs	r2, #1
	str	r2, [r3, #108]
	ldr	r3, [r7, #4]
	str	r3, [r7, #8]
.LBB80:
.LBB81:
	.loc 2 853 39
	ldr	r3, [r7, #8]
	ldr	r1, [r3, #832]
.LBE81:
.LBE80:
	.loc 4 2599 20
	ldr	r3, [r7]
	ldr	r2, [r3, #56]
	.loc 4 2599 43
	ldr	r3, [r7]
	ldr	r3, [r3, #64]
	.loc 4 2599 35
	add	r3, r3, r2
	.loc 4 2599 65
	uxtb	r2, r1
	.loc 4 2599 63
	strb	r2, [r3]
	.loc 4 2600 22
	ldr	r3, [r7]
	ldr	r3, [r3, #64]
	.loc 4 2600 13
	adds	r2, r3, #1
	ldr	r3, [r7]
	str	r2, [r3, #64]
	.loc 4 2601 22
	ldr	r3, [r7]
	ldr	r3, [r3, #60]
	.loc 4 2601 13
	subs	r2, r3, #1
	ldr	r3, [r7]
	str	r2, [r3, #60]
	.loc 4 2610 1
	b	.L339
.L329:
	.loc 4 2607 48
	ldr	r3, [r7, #4]
	movs	r2, #2
	str	r2, [r3, #108]
	.loc 4 2608 9
	movs	r1, #0
	ldr	r0, [r7, #4]
	bl	Cy_SCB_SetRxInterruptMask
.L339:
	.loc 4 2610 1
	nop
	adds	r7, r7, #24
.LCFI349:
	.cfi_def_cfa_offset 8
	mov	sp, r7
.LCFI350:
	.cfi_def_cfa_register 13
	@ sp needed
	pop	{r7, pc}
	.cfi_endproc
.LFE229:
	.size	SlaveHandleDataReceive, .-SlaveHandleDataReceive
	.section	.text.SlaveHandleDataTransmit,"ax",%progbits
	.align	1
	.syntax unified
	.thumb
	.thumb_func
	.type	SlaveHandleDataTransmit, %function
SlaveHandleDataTransmit:
.LFB230:
	.loc 4 2630 1
	.cfi_startproc
	@ args = 0, pretend = 0, frame = 24
	@ frame_needed = 1, uses_anonymous_args = 0
	push	{r7, lr}
.LCFI351:
	.cfi_def_cfa_offset 8
	.cfi_offset 7, -8
	.cfi_offset 14, -4
	sub	sp, sp, #24
.LCFI352:
	.cfi_def_cfa_offset 32
	add	r7, sp, #0
.LCFI353:
	.cfi_def_cfa_register 7
	str	r0, [r7, #4]
	str	r1, [r7]
	.loc 4 2636 18
	ldr	r3, [r7]
	ldrb	r3, [r3, #36]
	uxtb	r3, r3
	.loc 4 2636 10
	eor	r3, r3, #1
	uxtb	r3, r3
	.loc 4 2636 8
	cmp	r3, #0
	beq	.L341
	.loc 4 2636 55 discriminator 1
	ldr	r3, [r7]
	ldr	r3, [r3, #44]
	.loc 4 2636 37 discriminator 1
	cmp	r3, #0
	bne	.L341
	.loc 4 2639 27
	ldr	r3, [r7]
	ldr	r3, [r3, #68]
	.loc 4 2639 12
	cmp	r3, #0
	beq	.L342
	.loc 4 2641 20
	ldr	r3, [r7]
	ldr	r3, [r3, #68]
	.loc 4 2641 13
	movs	r0, #8
	blx	r3
.LVL2:
.L342:
	.loc 4 2645 51
	ldr	r3, [r7]
	ldr	r3, [r3, #44]
	.loc 4 2645 41
	cmp	r3, #0
	ite	eq
	moveq	r3, #1
	movne	r3, #0
	uxtb	r2, r3
	.loc 4 2645 34
	ldr	r3, [r7]
	strb	r2, [r3, #36]
	.loc 4 2648 9
	movs	r1, #1
	ldr	r0, [r7, #4]
	bl	Cy_SCB_SetTxInterruptMask
.L341:
	.loc 4 2652 16
	ldr	r3, [r7]
	ldrb	r3, [r3, #36]
	uxtb	r3, r3
	.loc 4 2652 8
	cmp	r3, #0
	beq	.L343
	.loc 4 2655 29
	ldr	r3, [r7]
	ldrb	r3, [r3, #1]	@ zero_extendqisi2
	.loc 4 2655 69
	cmp	r3, #0
	beq	.L344
	.loc 4 2655 44 discriminator 1
	ldr	r0, [r7, #4]
	bl	Cy_SCB_GetFifoSize
	mov	r3, r0
	b	.L345
.L344:
	.loc 4 2655 69 discriminator 2
	movs	r3, #1
.L345:
	.loc 4 2655 19 discriminator 4
	str	r3, [r7, #20]
	.loc 4 2657 21 discriminator 4
	ldr	r2, [r7, #20]
	movs	r1, #255
	ldr	r0, [r7, #4]
	bl	Cy_SCB_WriteDefaultArray
	str	r0, [r7, #20]
	.loc 4 2658 35 discriminator 4
	ldr	r3, [r7]
	ldr	r2, [r3, #48]
	ldr	r3, [r7, #20]
	add	r2, r2, r3
	ldr	r3, [r7]
	str	r2, [r3, #48]
	.loc 4 2660 30 discriminator 4
	ldr	r3, [r7]
	ldr	r3, [r3, #32]
	orr	r2, r3, #8
	ldr	r3, [r7]
	str	r2, [r3, #32]
	.loc 4 2714 1 discriminator 4
	b	.L350
.L343:
	.loc 4 2664 20
	ldr	r3, [r7]
	ldr	r3, [r3, #44]
	.loc 4 2664 12
	cmp	r3, #1
	bls	.L347
	.loc 4 2667 33
	ldr	r3, [r7]
	ldrb	r3, [r3, #1]	@ zero_extendqisi2
	.loc 4 2667 83
	cmp	r3, #0
	beq	.L348
	.loc 4 2667 56 discriminator 1
	ldr	r3, [r7]
	ldr	r3, [r3, #44]
	.loc 4 2667 83 discriminator 1
	subs	r3, r3, #1
	b	.L349
.L348:
	.loc 4 2667 83 is_stmt 0 discriminator 2
	movs	r3, #1
.L349:
	.loc 4 2667 23 is_stmt 1 discriminator 4
	str	r3, [r7, #20]
	.loc 4 2670 56 discriminator 4
	ldr	r3, [r7]
	ldr	r3, [r3, #40]
	.loc 4 2670 25 discriminator 4
	ldr	r2, [r7, #20]
	mov	r1, r3
	ldr	r0, [r7, #4]
	bl	Cy_SCB_WriteArray
	str	r0, [r7, #20]
	.loc 4 2671 39 discriminator 4
	ldr	r3, [r7]
	ldr	r2, [r3, #48]
	ldr	r3, [r7, #20]
	add	r2, r2, r3
	ldr	r3, [r7]
	str	r2, [r3, #48]
	.loc 4 2672 40 discriminator 4
	ldr	r3, [r7]
	ldr	r2, [r3, #44]
	ldr	r3, [r7, #20]
	subs	r2, r2, r3
	ldr	r3, [r7]
	str	r2, [r3, #44]
	.loc 4 2673 46 discriminator 4
	ldr	r3, [r7]
	ldr	r2, [r3, #40]
	.loc 4 2673 38 discriminator 4
	ldr	r3, [r7, #20]
	add	r2, r2, r3
	.loc 4 2673 36 discriminator 4
	ldr	r3, [r7]
	str	r2, [r3, #40]
.L347:
	.loc 4 2677 25
	ldr	r0, [r7, #4]
	bl	Cy_SCB_GetNumInTxFifo
	mov	r3, r0
	.loc 4 2677 12
	cmp	r3, #128
	beq	.L350
	.loc 4 2677 72 discriminator 1
	ldr	r3, [r7]
	ldr	r3, [r3, #44]
	.loc 4 2677 54 discriminator 1
	cmp	r3, #1
	bne	.L350
.LBB82:
	.loc 4 2686 26
	bl	Cy_SysLib_EnterCriticalSection
	str	r0, [r7, #16]
	.loc 4 2688 57
	ldr	r3, [r7]
	ldr	r3, [r3, #40]
	.loc 4 2688 72
	ldrb	r3, [r3]	@ zero_extendqisi2
	.loc 4 2688 13
	mov	r2, r3
	ldr	r3, [r7, #4]
	str	r3, [r7, #12]
	str	r2, [r7, #8]
.LBB83:
.LBB84:
	.loc 2 956 45
	ldr	r3, [r7, #12]
	ldr	r2, [r7, #8]
	str	r2, [r3, #576]
	.loc 2 957 1
	nop
.LBE84:
.LBE83:
	.loc 4 2689 13
	movs	r1, #64
	ldr	r0, [r7, #4]
	bl	Cy_SCB_ClearTxInterrupt
	.loc 4 2691 13
	ldr	r0, [r7, #16]
	bl	Cy_SysLib_ExitCriticalSection
	.loc 4 2694 22
	ldr	r3, [r7]
	ldr	r3, [r3, #48]
	.loc 4 2694 13
	adds	r2, r3, #1
	ldr	r3, [r7]
	str	r2, [r3, #48]
	.loc 4 2695 40
	ldr	r3, [r7]
	movs	r2, #0
	str	r2, [r3, #44]
	.loc 4 2696 46
	ldr	r3, [r7]
	ldr	r3, [r3, #40]
	.loc 4 2696 38
	adds	r2, r3, #1
	.loc 4 2696 36
	ldr	r3, [r7]
	str	r2, [r3, #40]
	.loc 4 2699 13
	movs	r1, #64
	ldr	r0, [r7, #4]
	bl	Cy_SCB_SetTxInterruptMask
	.loc 4 2701 24
	ldr	r3, [r7]
	ldrb	r3, [r3, #1]	@ zero_extendqisi2
	.loc 4 2701 16
	cmp	r3, #0
	beq	.L350
	.loc 4 2704 38
	ldr	r3, [r7]
	ldr	r3, [r3, #32]
	orr	r2, r3, #2
	ldr	r3, [r7]
	str	r2, [r3, #32]
	.loc 4 2707 35
	ldr	r3, [r7]
	ldr	r3, [r3, #68]
	.loc 4 2707 20
	cmp	r3, #0
	beq	.L350
	.loc 4 2709 28
	ldr	r3, [r7]
	ldr	r3, [r3, #68]
	.loc 4 2709 21
	movs	r0, #4
	blx	r3
.LVL3:
.L350:
.LBE82:
	.loc 4 2714 1
	nop
	adds	r7, r7, #24
.LCFI354:
	.cfi_def_cfa_offset 8
	mov	sp, r7
.LCFI355:
	.cfi_def_cfa_register 13
	@ sp needed
	pop	{r7, pc}
	.cfi_endproc
.LFE230:
	.size	SlaveHandleDataTransmit, .-SlaveHandleDataTransmit
	.section	.text.SlaveHandleStop,"ax",%progbits
	.align	1
	.syntax unified
	.thumb
	.thumb_func
	.type	SlaveHandleStop, %function
SlaveHandleStop:
.LFB231:
	.loc 4 2735 1
	.cfi_startproc
	@ args = 0, pretend = 0, frame = 24
	@ frame_needed = 1, uses_anonymous_args = 0
	push	{r4, r7, lr}
.LCFI356:
	.cfi_def_cfa_offset 12
	.cfi_offset 4, -12
	.cfi_offset 7, -8
	.cfi_offset 14, -4
	sub	sp, sp, #28
.LCFI357:
	.cfi_def_cfa_offset 40
	add	r7, sp, #0
.LCFI358:
	.cfi_def_cfa_register 7
	str	r0, [r7, #4]
	str	r1, [r7]
	.loc 4 2738 34
	ldr	r3, [r7]
	ldr	r3, [r3, #4]
	.loc 4 2738 8
	movw	r2, #4097
	cmp	r3, r2
	bne	.L352
	.loc 4 2741 13
	ldr	r0, [r7, #4]
	bl	Cy_SCB_GetNumInRxFifo
	mov	r3, r0
	.loc 4 2741 12
	cmp	r3, #0
	beq	.L353
	.loc 4 2743 34
	ldr	r3, [r7]
	ldr	r3, [r3, #32]
	orr	r2, r3, #64
	ldr	r3, [r7]
	str	r2, [r3, #32]
	.loc 4 2745 24
	ldr	r3, [r7]
	ldrb	r3, [r3]	@ zero_extendqisi2
	.loc 4 2745 16
	cmp	r3, #0
	beq	.L354
	.loc 4 2747 17
	ldr	r0, [r7, #4]
	bl	Cy_SCB_ClearRxFifo
	b	.L353
.L354:
	ldr	r3, [r7, #4]
	str	r3, [r7, #12]
.LBB85:
.LBB86:
	.loc 2 853 39
	ldr	r3, [r7, #12]
	ldr	r3, [r3, #832]
.L353:
.LBE86:
.LBE85:
	.loc 4 2755 19
	movs	r3, #32
	str	r3, [r7, #20]
	.loc 4 2756 30
	ldr	r3, [r7]
	ldr	r3, [r3, #32]
	orr	r2, r3, #32
	ldr	r3, [r7]
	str	r2, [r3, #32]
	.loc 4 2757 30
	ldr	r3, [r7]
	ldr	r3, [r3, #32]
	bic	r2, r3, #16
	ldr	r3, [r7]
	str	r2, [r3, #32]
	.loc 4 2760 47
	ldr	r3, [r7, #4]
	ldr	r3, [r3, #96]
	bic	r2, r3, #40960
	ldr	r3, [r7, #4]
	str	r2, [r3, #96]
	.loc 4 2763 9
	movs	r1, #0
	ldr	r0, [r7, #4]
	bl	Cy_SCB_SetRxInterruptMask
	.loc 4 2764 9
	movs	r1, #1
	ldr	r0, [r7, #4]
	bl	Cy_SCB_ClearRxInterrupt
	b	.L356
.L352:
.LBB87:
	.loc 4 2769 25
	ldr	r0, [r7, #4]
	bl	Cy_SCB_GetNumInTxFifo
	mov	r4, r0
	.loc 4 2769 55
	ldr	r0, [r7, #4]
	bl	Cy_SCB_GetTxSrValid
	mov	r3, r0
	.loc 4 2769 18
	add	r3, r3, r4
	str	r3, [r7, #16]
	.loc 4 2772 45
	ldr	r3, [r7]
	ldr	r2, [r3, #48]
	.loc 4 2772 64
	ldr	r3, [r7, #16]
	subs	r2, r2, r3
	.loc 4 2772 35
	ldr	r3, [r7]
	str	r2, [r3, #52]
	.loc 4 2775 45
	ldr	r3, [r7]
	ldr	r3, [r3, #32]
	.loc 4 2775 36
	and	r3, r3, #8
	.loc 4 2775 12
	cmp	r3, #0
	bne	.L357
	.loc 4 2777 40
	ldr	r3, [r7]
	ldr	r2, [r3, #44]
	ldr	r3, [r7, #16]
	add	r2, r2, r3
	ldr	r3, [r7]
	str	r2, [r3, #44]
	.loc 4 2778 36
	ldr	r3, [r7]
	ldr	r2, [r3, #40]
	ldr	r3, [r7, #16]
	rsbs	r3, r3, #0
	add	r2, r2, r3
	ldr	r3, [r7]
	str	r2, [r3, #40]
.L357:
	.loc 4 2781 19
	movs	r3, #16
	str	r3, [r7, #20]
	.loc 4 2782 30
	ldr	r3, [r7]
	ldr	r3, [r3, #32]
	orr	r2, r3, #4
	ldr	r3, [r7]
	str	r2, [r3, #32]
	.loc 4 2783 30
	ldr	r3, [r7]
	ldr	r3, [r3, #32]
	bic	r2, r3, #1
	ldr	r3, [r7]
	str	r2, [r3, #32]
	.loc 4 2786 9
	movs	r1, #0
	ldr	r0, [r7, #4]
	bl	Cy_SCB_SetTxInterruptMask
.L356:
.LBE87:
	.loc 4 2790 37
	ldr	r0, [r7, #4]
	bl	Cy_SCB_GetSlaveInterruptStatusMasked
	mov	r2, r0
	.loc 4 2790 35
	movw	r3, #257
	ands	r3, r3, r2
	.loc 4 2790 8
	cmp	r3, #0
	beq	.L358
	.loc 4 2793 9
	ldr	r0, [r7, #4]
	bl	Cy_SCB_FwBlockReset
	.loc 4 2795 19
	ldr	r3, [r7, #20]
	orr	r3, r3, #64
	str	r3, [r7, #20]
.L358:
	.loc 4 2799 20
	ldr	r3, [r7]
	mov	r2, #268435456
	str	r2, [r3, #4]
	.loc 4 2802 23
	ldr	r3, [r7]
	ldr	r3, [r3, #68]
	.loc 4 2802 8
	cmp	r3, #0
	beq	.L360
	.loc 4 2804 16
	ldr	r3, [r7]
	ldr	r3, [r3, #68]
	.loc 4 2804 9
	ldr	r0, [r7, #20]
	blx	r3
.LVL4:
.L360:
	.loc 4 2806 1
	nop
	adds	r7, r7, #28
.LCFI359:
	.cfi_def_cfa_offset 12
	mov	sp, r7
.LCFI360:
	.cfi_def_cfa_register 13
	@ sp needed
	pop	{r4, r7, pc}
	.cfi_endproc
.LFE231:
	.size	SlaveHandleStop, .-SlaveHandleStop
	.section	.text.Cy_SCB_I2C_MasterInterrupt,"ax",%progbits
	.align	1
	.global	Cy_SCB_I2C_MasterInterrupt
	.syntax unified
	.thumb
	.thumb_func
	.type	Cy_SCB_I2C_MasterInterrupt, %function
Cy_SCB_I2C_MasterInterrupt:
.LFB232:
	.loc 4 2829 1
	.cfi_startproc
	@ args = 0, pretend = 0, frame = 16
	@ frame_needed = 1, uses_anonymous_args = 0
	push	{r7, lr}
.LCFI361:
	.cfi_def_cfa_offset 8
	.cfi_offset 7, -8
	.cfi_offset 14, -4
	sub	sp, sp, #16
.LCFI362:
	.cfi_def_cfa_offset 24
	add	r7, sp, #0
.LCFI363:
	.cfi_def_cfa_register 7
	str	r0, [r7, #4]
	str	r1, [r7]
	.loc 4 2830 26
	ldr	r0, [r7, #4]
	bl	Cy_SCB_GetInterruptCause
	str	r0, [r7, #12]
	.loc 4 2833 23
	ldr	r3, [r7, #12]
	and	r3, r3, #2
	.loc 4 2833 8
	cmp	r3, #0
	beq	.L362
	.loc 4 2836 46
	ldr	r3, [r7, #4]
	ldr	r3, [r3, #104]
	.loc 4 2836 12
	cmp	r3, #0
	beq	.L363
	.loc 4 2838 52
	ldr	r3, [r7, #4]
	movs	r2, #0
	str	r2, [r3, #104]
	.loc 4 2840 35
	ldr	r3, [r7]
	ldr	r3, [r3, #8]
	orr	r2, r3, #16777216
	ldr	r3, [r7]
	str	r2, [r3, #8]
.L363:
	.loc 4 2843 24
	ldr	r3, [r7]
	mov	r2, #1572864
	str	r2, [r3, #4]
.L362:
	.loc 4 2847 23
	ldr	r3, [r7, #12]
	and	r3, r3, #1
	.loc 4 2847 8
	cmp	r3, #0
	beq	.L364
	.loc 4 2849 9
	ldr	r1, [r7]
	ldr	r0, [r7, #4]
	bl	MasterHandleEvents
	.loc 4 2852 19
	ldr	r3, [r7, #12]
	bic	r3, r3, #4
	str	r3, [r7, #12]
.L364:
	.loc 4 2855 23
	ldr	r3, [r7, #12]
	and	r3, r3, #8
	.loc 4 2855 8
	cmp	r3, #0
	beq	.L365
	.loc 4 2857 9
	ldr	r1, [r7]
	ldr	r0, [r7, #4]
	bl	MasterHandleDataReceive
	.loc 4 2859 9
	movs	r1, #1
	ldr	r0, [r7, #4]
	bl	Cy_SCB_ClearRxInterrupt
.L365:
	.loc 4 2862 23
	ldr	r3, [r7, #12]
	and	r3, r3, #4
	.loc 4 2862 8
	cmp	r3, #0
	beq	.L366
	.loc 4 2864 9
	ldr	r1, [r7]
	ldr	r0, [r7, #4]
	bl	MasterHandleDataTransmit
	.loc 4 2866 9
	movs	r1, #1
	ldr	r0, [r7, #4]
	bl	Cy_SCB_ClearTxInterrupt
.L366:
	.loc 4 2870 34
	ldr	r3, [r7]
	ldr	r3, [r3, #4]
	.loc 4 2870 8
	cmp	r3, #1572864
	bne	.L367
	.loc 4 2872 9
	ldr	r1, [r7]
	ldr	r0, [r7, #4]
	bl	MasterHandleComplete
.L367:
	.loc 4 2876 34
	ldr	r3, [r7]
	ldr	r3, [r3, #4]
	.loc 4 2876 8
	cmp	r3, #1441792
	bne	.L369
	.loc 4 2878 9
	ldr	r1, [r7]
	ldr	r0, [r7, #4]
	bl	MasterHandleStop
.L369:
	.loc 4 2880 1
	nop
	adds	r7, r7, #16
.LCFI364:
	.cfi_def_cfa_offset 8
	mov	sp, r7
.LCFI365:
	.cfi_def_cfa_register 13
	@ sp needed
	pop	{r7, pc}
	.cfi_endproc
.LFE232:
	.size	Cy_SCB_I2C_MasterInterrupt, .-Cy_SCB_I2C_MasterInterrupt
	.section	.text.MasterHandleEvents,"ax",%progbits
	.align	1
	.syntax unified
	.thumb
	.thumb_func
	.type	MasterHandleEvents, %function
MasterHandleEvents:
.LFB233:
	.loc 4 2904 1
	.cfi_startproc
	@ args = 0, pretend = 0, frame = 16
	@ frame_needed = 1, uses_anonymous_args = 0
	push	{r7, lr}
.LCFI366:
	.cfi_def_cfa_offset 8
	.cfi_offset 7, -8
	.cfi_offset 14, -4
	sub	sp, sp, #16
.LCFI367:
	.cfi_def_cfa_offset 24
	add	r7, sp, #0
.LCFI368:
	.cfi_def_cfa_register 7
	str	r0, [r7, #4]
	str	r1, [r7]
	.loc 4 2905 33
	ldr	r0, [r7, #4]
	bl	Cy_SCB_GetMasterInterruptStatusMasked
	str	r0, [r7, #12]
	.loc 4 2908 23
	ldr	r3, [r7, #12]
	and	r3, r3, #2
	.loc 4 2908 8
	cmp	r3, #0
	beq	.L371
	.loc 4 2911 9
	movs	r1, #2
	ldr	r0, [r7, #4]
	bl	Cy_SCB_ClearMasterInterrupt
	.loc 4 2914 51
	ldr	r0, [r7, #4]
	bl	Cy_SCB_GetMasterInterruptStatus
	mov	r3, r0
	.loc 4 2914 49
	and	r3, r3, #4
	.loc 4 2915 60
	cmp	r3, #0
	beq	.L372
	.loc 4 2915 60 is_stmt 0 discriminator 1
	mov	r2, #2097152
	b	.L373
.L372:
	.loc 4 2915 60 discriminator 2
	mov	r2, #1048576
.L373:
	.loc 4 2914 31 is_stmt 1 discriminator 4
	ldr	r3, [r7]
	ldr	r3, [r3, #8]
	orrs	r2, r2, r3
	ldr	r3, [r7]
	str	r2, [r3, #8]
	.loc 4 2918 38 discriminator 4
	ldr	r3, [r7]
	ldr	r3, [r3, #4]
	.loc 4 2918 12 discriminator 4
	cmp	r3, #1507328
	beq	.L371
	.loc 4 2920 38
	ldr	r3, [r7]
	ldrb	r3, [r3, #12]	@ zero_extendqisi2
	.loc 4 2920 70
	cmp	r3, #0
	beq	.L374
	.loc 4 2920 70 is_stmt 0 discriminator 1
	mov	r2, #1572864
	b	.L375
.L374:
	.loc 4 2920 70 discriminator 2
	mov	r2, #1441792
.L375:
	.loc 4 2920 28 is_stmt 1 discriminator 4
	ldr	r3, [r7]
	str	r2, [r3, #4]
.L371:
	.loc 4 2925 25
	ldr	r3, [r7, #12]
	and	r3, r3, #256
	.loc 4 2925 8
	cmp	r3, #0
	beq	.L376
	.loc 4 2927 31
	ldr	r3, [r7]
	ldr	r3, [r3, #8]
	orr	r2, r3, #8388608
	ldr	r3, [r7]
	str	r2, [r3, #8]
.L376:
	.loc 4 2931 23
	ldr	r3, [r7, #12]
	and	r3, r3, #1
	.loc 4 2931 8
	cmp	r3, #0
	beq	.L377
	.loc 4 2933 31
	ldr	r3, [r7]
	ldr	r3, [r3, #8]
	orr	r2, r3, #4194304
	ldr	r3, [r7]
	str	r2, [r3, #8]
.L377:
	.loc 4 2937 46
	ldr	r2, [r7, #12]
	movw	r3, #273
	ands	r3, r3, r2
	.loc 4 2937 8
	cmp	r3, #0
	beq	.L379
	.loc 4 2939 24
	ldr	r3, [r7]
	mov	r2, #1572864
	str	r2, [r3, #4]
.L379:
	.loc 4 2941 1
	nop
	adds	r7, r7, #16
.LCFI369:
	.cfi_def_cfa_offset 8
	mov	sp, r7
.LCFI370:
	.cfi_def_cfa_register 13
	@ sp needed
	pop	{r7, pc}
	.cfi_endproc
.LFE233:
	.size	MasterHandleEvents, .-MasterHandleEvents
	.section	.text.MasterHandleDataReceive,"ax",%progbits
	.align	1
	.syntax unified
	.thumb
	.thumb_func
	.type	MasterHandleDataReceive, %function
MasterHandleDataReceive:
.LFB234:
	.loc 4 2961 1
	.cfi_startproc
	@ args = 0, pretend = 0, frame = 24
	@ frame_needed = 1, uses_anonymous_args = 0
	push	{r7, lr}
.LCFI371:
	.cfi_def_cfa_offset 8
	.cfi_offset 7, -8
	.cfi_offset 14, -4
	sub	sp, sp, #24
.LCFI372:
	.cfi_def_cfa_offset 32
	add	r7, sp, #0
.LCFI373:
	.cfi_def_cfa_register 7
	str	r0, [r7, #4]
	str	r1, [r7]
	.loc 4 2962 20
	ldr	r3, [r7]
	ldr	r3, [r3, #4]
	.loc 4 2962 5
	cmp	r3, #1114112
	beq	.L381
	cmp	r3, #1179648
	beq	.L382
	.loc 4 3029 9
	b	.L389
.L381:
	ldr	r3, [r7, #4]
	str	r3, [r7, #12]
.LBB88:
.LBB89:
	.loc 2 853 39
	ldr	r3, [r7, #12]
	ldr	r2, [r3, #832]
.LBE89:
.LBE88:
	.loc 4 2967 20
	ldr	r3, [r7]
	ldr	r3, [r3, #16]
	.loc 4 2967 42
	uxtb	r2, r2
	.loc 4 2967 40
	strb	r2, [r3]
	.loc 4 2969 22
	ldr	r3, [r7]
	ldr	r3, [r3, #24]
	.loc 4 2969 13
	adds	r2, r3, #1
	ldr	r3, [r7]
	str	r2, [r3, #24]
	.loc 4 2970 22
	ldr	r3, [r7]
	ldr	r3, [r3, #20]
	.loc 4 2970 13
	subs	r2, r3, #1
	ldr	r3, [r7]
	str	r2, [r3, #20]
	.loc 4 2972 24
	ldr	r3, [r7]
	ldr	r3, [r3, #20]
	.loc 4 2972 16
	cmp	r3, #0
	beq	.L385
	.loc 4 2975 49
	ldr	r3, [r7]
	ldr	r3, [r3, #16]
	.loc 4 2975 41
	adds	r2, r3, #1
	.loc 4 2975 39
	ldr	r3, [r7]
	str	r2, [r3, #16]
	.loc 4 2976 56
	ldr	r3, [r7, #4]
	movs	r2, #4
	str	r2, [r3, #104]
	.loc 4 2984 9
	b	.L389
.L385:
	.loc 4 2981 42
	ldr	r3, [r7]
	ldrb	r3, [r3, #12]	@ zero_extendqisi2
	.loc 4 2981 74
	cmp	r3, #0
	beq	.L387
	.loc 4 2981 74 is_stmt 0 discriminator 1
	mov	r2, #1572864
	b	.L388
.L387:
	.loc 4 2981 74 discriminator 2
	mov	r2, #1441792
.L388:
	.loc 4 2981 32 is_stmt 1 discriminator 4
	ldr	r3, [r7]
	str	r2, [r3, #4]
	.loc 4 2984 9 discriminator 4
	b	.L389
.L382:
.LBB90:
	.loc 4 2991 57
	ldr	r3, [r7]
	ldr	r1, [r3, #16]
	.loc 4 2991 27
	ldr	r3, [r7]
	ldr	r3, [r3, #20]
	mov	r2, r3
	ldr	r0, [r7, #4]
	bl	Cy_SCB_ReadArray
	str	r0, [r7, #20]
	.loc 4 2992 38
	ldr	r3, [r7]
	ldr	r2, [r3, #24]
	ldr	r3, [r7, #20]
	add	r2, r2, r3
	ldr	r3, [r7]
	str	r2, [r3, #24]
	.loc 4 2993 39
	ldr	r3, [r7]
	ldr	r2, [r3, #20]
	ldr	r3, [r7, #20]
	subs	r2, r2, r3
	ldr	r3, [r7]
	str	r2, [r3, #20]
	.loc 4 2994 45
	ldr	r3, [r7]
	ldr	r2, [r3, #16]
	.loc 4 2994 37
	ldr	r3, [r7, #20]
	add	r2, r2, r3
	.loc 4 2994 35
	ldr	r3, [r7]
	str	r2, [r3, #16]
	.loc 4 2996 24
	ldr	r3, [r7]
	ldr	r3, [r3, #20]
	.loc 4 2996 16
	cmp	r3, #1
	bhi	.L390
	.loc 4 2999 55
	ldr	r3, [r7, #4]
	ldr	r3, [r3, #96]
	bic	r2, r3, #256
	ldr	r3, [r7, #4]
	str	r2, [r3, #96]
	.loc 4 3001 35
	ldr	r3, [r7]
	ldr	r3, [r3, #20]
	.loc 4 3001 20
	cmp	r3, #1
	bne	.L391
	.loc 4 3004 21
	movs	r1, #0
	ldr	r0, [r7, #4]
	bl	Cy_SCB_SetRxFifoLevel
	.loc 4 3006 36
	ldr	r3, [r7]
	mov	r2, #1114112
	str	r2, [r3, #4]
.LBE90:
	.loc 4 3025 9
	b	.L395
.L391:
.LBB92:
	.loc 4 3011 21
	movs	r1, #0
	ldr	r0, [r7, #4]
	bl	Cy_SCB_SetRxInterruptMask
	.loc 4 3013 36
	ldr	r3, [r7]
	mov	r2, #1441792
	str	r2, [r3, #4]
.LBE92:
	.loc 4 3025 9
	b	.L395
.L390:
.LBB93:
.LBB91:
	.loc 4 3018 26
	movs	r3, #64
	str	r3, [r7, #16]
	.loc 4 3021 53
	ldr	r3, [r7]
	ldr	r3, [r3, #20]
	.loc 4 3021 17
	ldr	r2, [r7, #16]
	cmp	r2, r3
	bcc	.L393
	.loc 4 3022 53 discriminator 1
	ldr	r3, [r7]
	ldr	r3, [r3, #20]
	.loc 4 3021 17 discriminator 1
	subs	r3, r3, #2
	b	.L394
.L393:
	.loc 4 3021 17 is_stmt 0 discriminator 2
	ldr	r3, [r7, #16]
	subs	r3, r3, #1
.L394:
	.loc 4 3021 17 discriminator 4
	mov	r1, r3
	ldr	r0, [r7, #4]
	bl	Cy_SCB_SetRxFifoLevel
.L395:
.LBE91:
.LBE93:
	.loc 4 3025 9 is_stmt 1
	nop
.L389:
	.loc 4 3031 1
	nop
	adds	r7, r7, #24
.LCFI374:
	.cfi_def_cfa_offset 8
	mov	sp, r7
.LCFI375:
	.cfi_def_cfa_register 13
	@ sp needed
	pop	{r7, pc}
	.cfi_endproc
.LFE234:
	.size	MasterHandleDataReceive, .-MasterHandleDataReceive
	.section	.text.MasterHandleDataTransmit,"ax",%progbits
	.align	1
	.syntax unified
	.thumb
	.thumb_func
	.type	MasterHandleDataTransmit, %function
MasterHandleDataTransmit:
.LFB235:
	.loc 4 3051 1
	.cfi_startproc
	@ args = 0, pretend = 0, frame = 24
	@ frame_needed = 1, uses_anonymous_args = 0
	push	{r7, lr}
.LCFI376:
	.cfi_def_cfa_offset 8
	.cfi_offset 7, -8
	.cfi_offset 14, -4
	sub	sp, sp, #24
.LCFI377:
	.cfi_def_cfa_offset 32
	add	r7, sp, #0
.LCFI378:
	.cfi_def_cfa_register 7
	str	r0, [r7, #4]
	str	r1, [r7]
	.loc 4 3052 34
	ldr	r3, [r7]
	ldr	r3, [r3, #4]
	.loc 4 3052 8
	cmp	r3, #1376256
	bne	.L397
	.loc 4 3054 24
	ldr	r3, [r7]
	mov	r2, #1572864
	str	r2, [r3, #4]
	.loc 4 3126 1
	b	.L405
.L397:
	.loc 4 3056 39
	ldr	r3, [r7]
	ldr	r3, [r3, #4]
	.loc 4 3056 13
	cmp	r3, #1310720
	bne	.L405
	.loc 4 3058 20
	ldr	r3, [r7]
	ldr	r3, [r3, #20]
	.loc 4 3058 12
	cmp	r3, #1
	bls	.L399
.LBB94:
	.loc 4 3061 42
	ldr	r3, [r7]
	ldrb	r3, [r3, #1]	@ zero_extendqisi2
	.loc 4 3061 91
	cmp	r3, #0
	beq	.L400
	.loc 4 3061 65 discriminator 1
	ldr	r3, [r7]
	ldr	r3, [r3, #20]
	.loc 4 3061 91 discriminator 1
	subs	r3, r3, #1
	b	.L401
.L400:
	.loc 4 3061 91 is_stmt 0 discriminator 2
	movs	r3, #1
.L401:
	.loc 4 3061 22 is_stmt 1 discriminator 4
	str	r3, [r7, #20]
	.loc 4 3064 56 discriminator 4
	ldr	r3, [r7]
	ldr	r3, [r3, #16]
	.loc 4 3064 25 discriminator 4
	ldr	r2, [r7, #20]
	mov	r1, r3
	ldr	r0, [r7, #4]
	bl	Cy_SCB_WriteArray
	str	r0, [r7, #20]
	.loc 4 3065 38 discriminator 4
	ldr	r3, [r7]
	ldr	r2, [r3, #24]
	ldr	r3, [r7, #20]
	add	r2, r2, r3
	ldr	r3, [r7]
	str	r2, [r3, #24]
	.loc 4 3066 39 discriminator 4
	ldr	r3, [r7]
	ldr	r2, [r3, #20]
	ldr	r3, [r7, #20]
	subs	r2, r2, r3
	ldr	r3, [r7]
	str	r2, [r3, #20]
	.loc 4 3067 45 discriminator 4
	ldr	r3, [r7]
	ldr	r2, [r3, #16]
	.loc 4 3067 37 discriminator 4
	ldr	r3, [r7, #20]
	add	r2, r2, r3
	.loc 4 3067 35 discriminator 4
	ldr	r3, [r7]
	str	r2, [r3, #16]
.L399:
.LBE94:
	.loc 4 3071 25
	ldr	r0, [r7, #4]
	bl	Cy_SCB_GetNumInTxFifo
	mov	r3, r0
	.loc 4 3071 12
	cmp	r3, #128
	beq	.L402
	.loc 4 3071 72 discriminator 1
	ldr	r3, [r7]
	ldr	r3, [r3, #20]
	.loc 4 3071 54 discriminator 1
	cmp	r3, #1
	bne	.L402
.LBB95:
	.loc 4 3080 26
	bl	Cy_SysLib_EnterCriticalSection
	str	r0, [r7, #16]
	.loc 4 3082 57
	ldr	r3, [r7]
	ldr	r3, [r3, #16]
	.loc 4 3082 71
	ldrb	r3, [r3]	@ zero_extendqisi2
	.loc 4 3082 13
	mov	r2, r3
	ldr	r3, [r7, #4]
	str	r3, [r7, #12]
	str	r2, [r7, #8]
.LBB96:
.LBB97:
	.loc 2 956 45
	ldr	r3, [r7, #12]
	ldr	r2, [r7, #8]
	str	r2, [r3, #576]
	.loc 2 957 1
	nop
.LBE97:
.LBE96:
	.loc 4 3083 13
	movs	r1, #64
	ldr	r0, [r7, #4]
	bl	Cy_SCB_ClearTxInterrupt
	.loc 4 3085 13
	ldr	r0, [r7, #16]
	bl	Cy_SysLib_ExitCriticalSection
	.loc 4 3087 22
	ldr	r3, [r7]
	ldr	r3, [r3, #24]
	.loc 4 3087 13
	adds	r2, r3, #1
	ldr	r3, [r7]
	str	r2, [r3, #24]
	.loc 4 3088 39
	ldr	r3, [r7]
	movs	r2, #0
	str	r2, [r3, #20]
.L402:
.LBE95:
	.loc 4 3092 27
	ldr	r3, [r7]
	ldr	r3, [r3, #20]
	.loc 4 3092 12
	cmp	r3, #0
	bne	.L405
	.loc 4 3094 24
	ldr	r3, [r7]
	ldrb	r3, [r3, #12]	@ zero_extendqisi2
	.loc 4 3094 16
	cmp	r3, #0
	beq	.L403
	.loc 4 3097 17
	movs	r1, #64
	ldr	r0, [r7, #4]
	bl	Cy_SCB_SetTxInterruptMask
	.loc 4 3099 32
	ldr	r3, [r7]
	mov	r2, #1376256
	str	r2, [r3, #4]
	b	.L404
.L403:
	.loc 4 3104 17
	movs	r1, #0
	ldr	r0, [r7, #4]
	bl	Cy_SCB_SetTxInterruptMask
	.loc 4 3107 32
	ldr	r3, [r7]
	mov	r2, #1441792
	str	r2, [r3, #4]
.L404:
	.loc 4 3110 24
	ldr	r3, [r7]
	ldrb	r3, [r3, #1]	@ zero_extendqisi2
	.loc 4 3110 16
	cmp	r3, #0
	beq	.L405
	.loc 4 3113 39
	ldr	r3, [r7]
	ldr	r3, [r3, #8]
	orr	r2, r3, #131072
	ldr	r3, [r7]
	str	r2, [r3, #8]
	.loc 4 3115 35
	ldr	r3, [r7]
	ldr	r3, [r3, #68]
	.loc 4 3115 20
	cmp	r3, #0
	beq	.L405
	.loc 4 3117 28
	ldr	r3, [r7]
	ldr	r3, [r3, #68]
	.loc 4 3117 21
	mov	r0, #65536
	blx	r3
.LVL5:
.L405:
	.loc 4 3126 1
	nop
	adds	r7, r7, #24
.LCFI379:
	.cfi_def_cfa_offset 8
	mov	sp, r7
.LCFI380:
	.cfi_def_cfa_register 13
	@ sp needed
	pop	{r7, pc}
	.cfi_endproc
.LFE235:
	.size	MasterHandleDataTransmit, .-MasterHandleDataTransmit
	.section	.text.MasterHandleStop,"ax",%progbits
	.align	1
	.syntax unified
	.thumb
	.thumb_func
	.type	MasterHandleStop, %function
MasterHandleStop:
.LFB236:
	.loc 4 3146 1
	.cfi_startproc
	@ args = 0, pretend = 0, frame = 8
	@ frame_needed = 1, uses_anonymous_args = 0
	push	{r7, lr}
.LCFI381:
	.cfi_def_cfa_offset 8
	.cfi_offset 7, -8
	.cfi_offset 14, -4
	sub	sp, sp, #8
.LCFI382:
	.cfi_def_cfa_offset 16
	add	r7, sp, #0
.LCFI383:
	.cfi_def_cfa_register 7
	str	r0, [r7, #4]
	str	r1, [r7]
	.loc 4 3148 5
	movs	r1, #0
	ldr	r0, [r7, #4]
	bl	Cy_SCB_SetRxInterruptMask
	.loc 4 3149 5
	movs	r1, #0
	ldr	r0, [r7, #4]
	bl	Cy_SCB_SetTxInterruptMask
	.loc 4 3151 42
	ldr	r3, [r7, #4]
	ldr	r3, [r3, #104]
	.loc 4 3151 8
	cmp	r3, #0
	beq	.L407
	.loc 4 3156 9
	movw	r1, #279
	ldr	r0, [r7, #4]
	bl	Cy_SCB_SetMasterInterruptMask
	.loc 4 3167 1
	b	.L409
.L407:
	.loc 4 3161 9
	movw	r1, #275
	ldr	r0, [r7, #4]
	bl	Cy_SCB_SetMasterInterruptMask
	.loc 4 3164 48
	ldr	r3, [r7, #4]
	movs	r2, #24
	str	r2, [r3, #104]
	.loc 4 3165 24
	ldr	r3, [r7]
	mov	r2, #1507328
	str	r2, [r3, #4]
.L409:
	.loc 4 3167 1
	nop
	adds	r7, r7, #8
.LCFI384:
	.cfi_def_cfa_offset 8
	mov	sp, r7
.LCFI385:
	.cfi_def_cfa_register 13
	@ sp needed
	pop	{r7, pc}
	.cfi_endproc
.LFE236:
	.size	MasterHandleStop, .-MasterHandleStop
	.section	.text.MasterHandleComplete,"ax",%progbits
	.align	1
	.syntax unified
	.thumb
	.thumb_func
	.type	MasterHandleComplete, %function
MasterHandleComplete:
.LFB237:
	.loc 4 3188 1
	.cfi_startproc
	@ args = 0, pretend = 0, frame = 24
	@ frame_needed = 1, uses_anonymous_args = 0
	push	{r4, r5, r7, lr}
.LCFI386:
	.cfi_def_cfa_offset 16
	.cfi_offset 4, -16
	.cfi_offset 5, -12
	.cfi_offset 7, -8
	.cfi_offset 14, -4
	sub	sp, sp, #24
.LCFI387:
	.cfi_def_cfa_offset 40
	add	r7, sp, #0
.LCFI388:
	.cfi_def_cfa_register 7
	str	r0, [r7, #4]
	str	r1, [r7]
	.loc 4 3189 33
	ldr	r0, [r7, #4]
	bl	Cy_SCB_GetMasterInterruptStatusMasked
	str	r0, [r7, #16]
	.loc 4 3194 43
	ldr	r3, [r7, #4]
	ldr	r3, [r3, #96]
	bic	r2, r3, #256
	ldr	r3, [r7, #4]
	str	r2, [r3, #96]
	.loc 4 3197 5
	movs	r1, #0
	ldr	r0, [r7, #4]
	bl	Cy_SCB_SetRxInterruptMask
	.loc 4 3198 5
	movs	r1, #0
	ldr	r0, [r7, #4]
	bl	Cy_SCB_SetTxInterruptMask
	.loc 4 3199 5
	movs	r1, #0
	ldr	r0, [r7, #4]
	bl	Cy_SCB_SetMasterInterruptMask
	.loc 4 3201 5
	movw	r1, #279
	ldr	r0, [r7, #4]
	bl	Cy_SCB_ClearMasterInterrupt
	.loc 4 3204 27
	ldr	r3, [r7]
	ldr	r3, [r3, #8]
	bic	r2, r3, #65536
	ldr	r3, [r7]
	str	r2, [r3, #8]
	.loc 4 3207 16
	ldr	r3, [r7]
	ldrb	r3, [r3, #13]	@ zero_extendqisi2
	.loc 4 3207 8
	cmp	r3, #0
	beq	.L411
	.loc 4 3209 42
	ldr	r3, [r7]
	ldr	r2, [r3, #24]
	.loc 4 3209 33
	ldr	r3, [r7]
	str	r2, [r3, #28]
	b	.L412
.L411:
	.loc 4 3213 42
	ldr	r3, [r7]
	ldr	r4, [r3, #24]
	.loc 4 3214 22
	ldr	r0, [r7, #4]
	bl	Cy_SCB_GetNumInTxFifo
	mov	r5, r0
	.loc 4 3214 52
	ldr	r0, [r7, #4]
	bl	Cy_SCB_GetTxSrValid
	mov	r3, r0
	.loc 4 3214 50
	add	r3, r3, r5
	.loc 4 3213 60
	subs	r2, r4, r3
	.loc 4 3213 33
	ldr	r3, [r7]
	str	r2, [r3, #28]
.L412:
	.loc 4 3218 35
	ldr	r2, [r7, #16]
	movw	r3, #257
	ands	r3, r3, r2
	.loc 4 3218 8
	cmp	r3, #0
	beq	.L413
.LBB98:
	.loc 4 3227 13
	movs	r3, #1
	strb	r3, [r7, #23]
	.loc 4 3230 92
	ldr	r3, [r7, #4]
	ldr	r3, [r3, #96]
	.loc 4 3230 138
	lsrs	r3, r3, #30
	and	r3, r3, #3
	.loc 4 3230 12
	cmp	r3, #3
	bne	.L414
	.loc 4 3232 39
	ldr	r3, [r7, #16]
	and	r3, r3, #4
	.loc 4 3232 87
	cmp	r3, #0
	bne	.L415
	.loc 4 3233 99 discriminator 2
	ldr	r3, [r7, #16]
	lsrs	r3, r3, #8
	and	r3, r3, #1
	.loc 4 3232 87 discriminator 2
	cmp	r3, #0
	beq	.L416
.L415:
	.loc 4 3232 87 is_stmt 0 discriminator 3
	movs	r3, #1
	b	.L417
.L416:
	.loc 4 3232 87 discriminator 4
	movs	r3, #0
.L417:
	.loc 4 3232 21 is_stmt 1 discriminator 6
	strb	r3, [r7, #23]
.L414:
	.loc 4 3236 12
	ldrb	r3, [r7, #23]	@ zero_extendqisi2
	cmp	r3, #0
	beq	.L418
	.loc 4 3239 13
	ldr	r0, [r7, #4]
	bl	Cy_SCB_FwBlockReset
.L418:
	.loc 4 3243 24
	ldr	r3, [r7]
	mov	r2, #268435456
	str	r2, [r3, #4]
.LBE98:
	b	.L419
.L413:
	.loc 4 3247 20
	ldr	r3, [r7]
	ldrb	r3, [r3]	@ zero_extendqisi2
	.loc 4 3247 12
	cmp	r3, #0
	beq	.L420
	.loc 4 3250 13
	ldr	r0, [r7, #4]
	bl	Cy_SCB_ClearRxFifo
	.loc 4 3251 13
	movs	r1, #1
	ldr	r0, [r7, #4]
	bl	Cy_SCB_ClearRxInterrupt
.L420:
	.loc 4 3254 34
	ldr	r3, [r7]
	ldrb	r3, [r3, #12]	@ zero_extendqisi2
	.loc 4 3254 66
	cmp	r3, #0
	beq	.L421
	.loc 4 3254 66 is_stmt 0 discriminator 1
	ldr	r2, .L429
	b	.L422
.L421:
	.loc 4 3254 66 discriminator 2
	mov	r2, #268435456
.L422:
	.loc 4 3254 24 is_stmt 1 discriminator 4
	ldr	r3, [r7]
	str	r2, [r3, #4]
.L419:
	.loc 4 3258 23
	ldr	r3, [r7]
	ldr	r3, [r3, #68]
	.loc 4 3258 8
	cmp	r3, #0
	beq	.L428
.LBB99:
	.loc 4 3261 37
	ldr	r3, [r7]
	ldrb	r3, [r3, #13]	@ zero_extendqisi2
	.loc 4 3261 68
	cmp	r3, #0
	beq	.L424
	.loc 4 3261 68 is_stmt 0 discriminator 1
	mov	r3, #262144
	b	.L425
.L424:
	.loc 4 3261 68 discriminator 2
	mov	r3, #131072
.L425:
	.loc 4 3261 18 is_stmt 1 discriminator 4
	str	r3, [r7, #12]
	.loc 4 3264 125 discriminator 4
	ldr	r3, [r7]
	ldr	r3, [r3, #8]
	.loc 4 3264 116 discriminator 4
	and	r3, r3, #32505856
	.loc 4 3264 159 discriminator 4
	cmp	r3, #0
	beq	.L426
	.loc 4 3264 159 is_stmt 0 discriminator 1
	mov	r3, #524288
	b	.L427
.L426:
	.loc 4 3264 159 discriminator 2
	movs	r3, #0
.L427:
	.loc 4 3264 19 is_stmt 1 discriminator 4
	ldr	r2, [r7, #12]
	orrs	r3, r3, r2
	str	r3, [r7, #12]
	.loc 4 3266 16 discriminator 4
	ldr	r3, [r7]
	ldr	r3, [r3, #68]
	.loc 4 3266 9 discriminator 4
	ldr	r0, [r7, #12]
	blx	r3
.LVL6:
.L428:
.LBE99:
	.loc 4 3268 1
	nop
	adds	r7, r7, #24
.LCFI389:
	.cfi_def_cfa_offset 16
	mov	sp, r7
.LCFI390:
	.cfi_def_cfa_register 13
	@ sp needed
	pop	{r4, r5, r7, pc}
.L430:
	.align	2
.L429:
	.word	269484032
	.cfi_endproc
.LFE237:
	.size	MasterHandleComplete, .-MasterHandleComplete
	.section	.text.WaitOneUnit,"ax",%progbits
	.align	1
	.syntax unified
	.thumb
	.thumb_func
	.type	WaitOneUnit, %function
WaitOneUnit:
.LFB238:
	.loc 4 3287 1
	.cfi_startproc
	@ args = 0, pretend = 0, frame = 16
	@ frame_needed = 1, uses_anonymous_args = 0
	push	{r7, lr}
.LCFI391:
	.cfi_def_cfa_offset 8
	.cfi_offset 7, -8
	.cfi_offset 14, -4
	sub	sp, sp, #16
.LCFI392:
	.cfi_def_cfa_offset 24
	add	r7, sp, #0
.LCFI393:
	.cfi_def_cfa_register 7
	str	r0, [r7, #4]
	.loc 4 3288 14
	movs	r3, #0
	str	r3, [r7, #12]
	.loc 4 3291 9
	ldr	r3, [r7, #4]
	ldr	r3, [r3]
	.loc 4 3291 8
	cmp	r3, #0
	beq	.L432
	.loc 4 3293 9
	movs	r0, #1
	bl	Cy_SysLib_DelayUs
	.loc 4 3294 12
	ldr	r3, [r7, #4]
	ldr	r3, [r3]
	.loc 4 3294 9
	subs	r2, r3, #1
	ldr	r3, [r7, #4]
	str	r2, [r3]
	.loc 4 3296 20
	ldr	r3, [r7, #4]
	ldr	r3, [r3]
	.loc 4 3296 12
	cmp	r3, #0
	bne	.L432
	.loc 4 3298 20
	mov	r3, #-2147483648
	str	r3, [r7, #12]
.L432:
	.loc 4 3302 12
	ldr	r3, [r7, #12]
	.loc 4 3303 1
	mov	r0, r3
	adds	r7, r7, #16
.LCFI394:
	.cfi_def_cfa_offset 8
	mov	sp, r7
.LCFI395:
	.cfi_def_cfa_register 13
	@ sp needed
	pop	{r7, pc}
	.cfi_endproc
.LFE238:
	.size	WaitOneUnit, .-WaitOneUnit
	.section	.text.HandleStatus,"ax",%progbits
	.align	1
	.syntax unified
	.thumb
	.thumb_func
	.type	HandleStatus, %function
HandleStatus:
.LFB239:
	.loc 4 3329 1
	.cfi_startproc
	@ args = 0, pretend = 0, frame = 24
	@ frame_needed = 1, uses_anonymous_args = 0
	push	{r7, lr}
.LCFI396:
	.cfi_def_cfa_offset 8
	.cfi_offset 7, -8
	.cfi_offset 14, -4
	sub	sp, sp, #24
.LCFI397:
	.cfi_def_cfa_offset 32
	add	r7, sp, #0
.LCFI398:
	.cfi_def_cfa_register 7
	str	r0, [r7, #12]
	str	r1, [r7, #8]
	str	r2, [r7, #4]
	.loc 4 3331 9
	movs	r3, #0
	strb	r3, [r7, #19]
	.loc 4 3334 13
	ldr	r3, [r7, #8]
	.loc 4 3334 8
	cmp	r3, #0
	bge	.L435
	.loc 4 3336 19
	ldr	r3, .L450
	str	r3, [r7, #20]
	.loc 4 3337 20
	movs	r3, #1
	strb	r3, [r7, #19]
	b	.L436
.L435:
	.loc 4 3339 42
	ldr	r3, [r7, #8]
	and	r3, r3, #192
	.loc 4 3339 13
	cmp	r3, #0
	beq	.L437
	.loc 4 3342 19
	ldr	r3, .L450+4
	str	r3, [r7, #20]
	.loc 4 3344 48
	ldr	r3, [r7, #12]
	movs	r2, #0
	str	r2, [r3, #104]
	.loc 4 3345 24
	ldr	r3, [r7, #4]
	mov	r2, #268435456
	str	r2, [r3, #4]
	b	.L436
.L437:
	.loc 4 3347 30
	ldr	r3, [r7, #8]
	and	r3, r3, #256
	.loc 4 3347 13
	cmp	r3, #0
	beq	.L438
	.loc 4 3349 19
	ldr	r3, .L450+8
	str	r3, [r7, #20]
	.loc 4 3350 20
	movs	r3, #1
	strb	r3, [r7, #19]
	b	.L436
.L438:
	.loc 4 3352 28
	ldr	r3, [r7, #8]
	and	r3, r3, #1
	.loc 4 3352 13
	cmp	r3, #0
	beq	.L439
	.loc 4 3354 19
	ldr	r3, .L450+12
	str	r3, [r7, #20]
	.loc 4 3356 38
	ldr	r3, [r7, #4]
	ldr	r3, [r3, #4]
	.loc 4 3356 12
	ldr	r2, .L450+16
	cmp	r3, r2
	bne	.L440
	.loc 4 3364 56
	ldr	r3, [r7, #12]
	ldr	r3, [r3, #96]
	.loc 4 3364 69
	and	r3, r3, #1073741824
	.loc 4 3364 24
	cmp	r3, #0
	ite	eq
	moveq	r3, #1
	movne	r3, #0
	strb	r3, [r7, #19]
	.loc 4 3366 28
	ldr	r3, [r7, #4]
	mov	r2, #268435456
	str	r2, [r3, #4]
	b	.L436
.L440:
	.loc 4 3370 24
	movs	r3, #1
	strb	r3, [r7, #19]
	b	.L436
.L439:
	.loc 4 3373 28
	ldr	r3, [r7, #8]
	and	r3, r3, #2
	.loc 4 3373 13
	cmp	r3, #0
	beq	.L441
	.loc 4 3376 47
	ldr	r3, [r7, #4]
	ldr	r3, [r3, #4]
	.loc 4 3377 56
	ldr	r2, .L450+16
	cmp	r3, r2
	bne	.L442
	.loc 4 3377 56 is_stmt 0 discriminator 1
	ldr	r3, .L450+20
	b	.L443
.L442:
	.loc 4 3377 56 discriminator 2
	ldr	r3, .L450+24
.L443:
	.loc 4 3376 19 is_stmt 1
	str	r3, [r7, #20]
	b	.L436
.L441:
	.loc 4 3381 19
	movs	r3, #0
	str	r3, [r7, #20]
	.loc 4 3383 28
	ldr	r3, [r7, #8]
	and	r3, r3, #16
	.loc 4 3383 12
	cmp	r3, #0
	beq	.L444
	.loc 4 3386 28
	ldr	r3, [r7, #4]
	mov	r2, #268435456
	str	r2, [r3, #4]
	b	.L436
.L444:
	.loc 4 3391 42
	ldr	r3, [r7, #4]
	ldr	r3, [r3, #4]
	.loc 4 3391 16
	ldr	r2, .L450+16
	cmp	r3, r2
	bne	.L436
	.loc 4 3394 42
	ldr	r3, [r7, #4]
	ldrb	r3, [r3, #13]	@ zero_extendqisi2
	.loc 4 3395 52
	cmp	r3, #0
	beq	.L445
	.loc 4 3395 52 is_stmt 0 discriminator 1
	mov	r2, #1114112
	b	.L446
.L445:
	.loc 4 3395 52 discriminator 2
	mov	r2, #1310720
.L446:
	.loc 4 3394 32 is_stmt 1
	ldr	r3, [r7, #4]
	str	r2, [r3, #4]
.L436:
	.loc 4 3400 8
	ldrb	r3, [r7, #19]	@ zero_extendqisi2
	cmp	r3, #0
	beq	.L447
	.loc 4 3403 9
	ldr	r0, [r7, #12]
	bl	Cy_SCB_FwBlockReset
	.loc 4 3405 24
	ldr	r3, [r7, #4]
	mov	r2, #268435456
	str	r2, [r3, #4]
	b	.L448
.L447:
	.loc 4 3409 9
	movw	r1, #279
	ldr	r0, [r7, #12]
	bl	Cy_SCB_ClearMasterInterrupt
.L448:
	.loc 4 3412 12
	ldr	r3, [r7, #20]
	.loc 4 3413 1
	mov	r0, r3
	adds	r7, r7, #24
.LCFI399:
	.cfi_def_cfa_offset 8
	mov	sp, r7
.LCFI400:
	.cfi_def_cfa_register 13
	@ sp needed
	pop	{r7, pc}
.L451:
	.align	2
.L450:
	.word	11149315
	.word	11149320
	.word	11149319
	.word	11149318
	.word	269680640
	.word	11149316
	.word	11149317
	.cfi_endproc
.LFE239:
	.size	HandleStatus, .-HandleStatus
	.text
.Letext0:
	.file 5 "d:\\llc\\softwares\\env-windows-v1.3.5\\tools\\gnu_gcc\\arm_gcc\\mingw\\arm-none-eabi\\include\\machine\\_default_types.h"
	.file 6 "d:\\llc\\softwares\\env-windows-v1.3.5\\tools\\gnu_gcc\\arm_gcc\\mingw\\arm-none-eabi\\include\\sys\\_stdint.h"
	.file 7 "libraries\\IFX_PSOC6_HAL\\mtb-pdl-cat1\\devices\\COMPONENT_CAT1A\\include/ip/cyip_scb.h"
	.file 8 "libraries\\IFX_PSOC6_HAL\\mtb-pdl-cat1\\devices\\COMPONENT_CAT1A\\include/psoc6_02_config.h"
	.file 9 "libraries\\IFX_PSOC6_HAL\\mtb-pdl-cat1\\drivers\\include/cy_syspm.h"