	.cpu cortex-m4
	.arch armv7e-m
	.fpu fpv4-sp-d16
	.eabi_attribute 27, 1
	.eabi_attribute 28, 1
	.eabi_attribute 20, 1
	.eabi_attribute 21, 1
	.eabi_attribute 23, 3
	.eabi_attribute 24, 1
	.eabi_attribute 25, 1
	.eabi_attribute 26, 1
	.eabi_attribute 30, 6
	.eabi_attribute 34, 1
	.eabi_attribute 18, 4
	.file	"cy_syslib.c"
	.text
.Ltext0:
	.cfi_sections	.debug_frame
	.section	.text.CY_HALT,"ax",%progbits
	.align	1
	.syntax unified
	.thumb
	.thumb_func
	.type	CY_HALT, %function
CY_HALT:
.LFB133:
	.file 1 "libraries\\IFX_PSOC6_HAL\\core-lib\\include/cy_utils.h"
	.loc 1 49 1
	.cfi_startproc
	@ args = 0, pretend = 0, frame = 0
	@ frame_needed = 1, uses_anonymous_args = 0
	@ link register save eliminated.
	push	{r7}
.LCFI0:
	.cfi_def_cfa_offset 4
	.cfi_offset 7, -4
	add	r7, sp, #0
.LCFI1:
	.cfi_def_cfa_register 7
	.loc 1 50 5
	.syntax unified
@ 50 "libraries\IFX_PSOC6_HAL\core-lib\include/cy_utils.h" 1
	    bkpt    1
@ 0 "" 2
	.loc 1 51 1
	.thumb
	.syntax unified
	nop
	mov	sp, r7
.LCFI2:
	.cfi_def_cfa_register 13
	@ sp needed
	ldr	r7, [sp], #4
.LCFI3:
	.cfi_restore 7
	.cfi_def_cfa_offset 0
	bx	lr
	.cfi_endproc
.LFE133:
	.size	CY_HALT, .-CY_HALT
	.global	cy_assertFileName
	.section	.noinit,"aw"
	.align	2
	.type	cy_assertFileName, %object
	.size	cy_assertFileName, 24
cy_assertFileName:
	.space	24
	.global	cy_assertLine
	.align	2
	.type	cy_assertLine, %object
	.size	cy_assertLine, 4
cy_assertLine:
	.space	4
	.global	cy_faultFrame
	.align	2
	.type	cy_faultFrame, %object
	.size	cy_faultFrame, 120
cy_faultFrame:
	.space	120
	.section	.text.Cy_SysLib_GetResetStatus,"ax",%progbits
	.align	1
	.syntax unified
	.thumb
	.thumb_func
	.type	Cy_SysLib_GetResetStatus, %function
Cy_SysLib_GetResetStatus:
.LFB134:
	.file 2 "libraries\\IFX_PSOC6_HAL\\mtb-pdl-cat1\\drivers\\include/cy_syslib.h"
	.loc 2 1249 1
	.cfi_startproc
	@ args = 0, pretend = 0, frame = 0
	@ frame_needed = 1, uses_anonymous_args = 0
	@ link register save eliminated.
	push	{r7}
.LCFI4:
	.cfi_def_cfa_offset 4
	.cfi_offset 7, -4
	add	r7, sp, #0
.LCFI5:
	.cfi_def_cfa_register 7
	.loc 2 1250 73
	ldr	r3, .L6
	ldr	r3, [r3, #72]
	.loc 2 1250 119
	cmp	r3, #0
	blt	.L3
	.loc 2 1250 119 is_stmt 0 discriminator 1
	movs	r3, #0
	b	.L5
.L3:
	.loc 2 1250 119 discriminator 2
	ldr	r3, .L6+4
.L5:
	.loc 2 1251 1 is_stmt 1 discriminator 5
	mov	r0, r3
	mov	sp, r7
.LCFI6:
	.cfi_def_cfa_register 13
	@ sp needed
	ldr	r7, [sp], #4
.LCFI7:
	.cfi_restore 7
	.cfi_def_cfa_offset 0
	bx	lr
.L7:
	.align	2
.L6:
	.word	1076297728
	.word	4587523
	.cfi_endproc
.LFE134:
	.size	Cy_SysLib_GetResetStatus, .-Cy_SysLib_GetResetStatus
	.section	.text.Cy_SysLib_Delay,"ax",%progbits
	.align	1
	.global	Cy_SysLib_Delay
	.syntax unified
	.thumb
	.thumb_func
	.type	Cy_SysLib_Delay, %function
Cy_SysLib_Delay:
.LFB160:
	.file 3 "libraries\\IFX_PSOC6_HAL\\mtb-pdl-cat1\\drivers\\source\\cy_syslib.c"
	.loc 3 115 1
	.cfi_startproc
	@ args = 0, pretend = 0, frame = 16
	@ frame_needed = 1, uses_anonymous_args = 0
	push	{r7, lr}
.LCFI8:
	.cfi_def_cfa_offset 8
	.cfi_offset 7, -8
	.cfi_offset 14, -4
	sub	sp, sp, #16
.LCFI9:
	.cfi_def_cfa_offset 24
	add	r7, sp, #0
.LCFI10:
	.cfi_def_cfa_register 7
	str	r0, [r7, #4]
	.loc 3 116 60
	ldr	r3, .L11
	ldr	r3, [r3]
	.loc 3 116 14
	mov	r2, #-1
	udiv	r3, r2, r3
	str	r3, [r7, #12]
	.loc 3 118 10
	b	.L9
.L10:
	.loc 3 121 9
	ldr	r3, .L11
	ldr	r3, [r3]
	.loc 3 121 44
	ldr	r2, [r7, #12]
	mul	r3, r2, r3
	.loc 3 121 9
	mov	r0, r3
	bl	Cy_SysLib_DelayCycles
	.loc 3 122 22
	ldr	r2, [r7, #4]
	ldr	r3, [r7, #12]
	subs	r3, r2, r3
	str	r3, [r7, #4]
.L9:
	.loc 3 118 10
	ldr	r2, [r7, #4]
	ldr	r3, [r7, #12]
	cmp	r2, r3
	bhi	.L10
	.loc 3 125 5
	ldr	r3, .L11
	ldr	r3, [r3]
	.loc 3 125 40
	ldr	r2, [r7, #4]
	mul	r3, r2, r3
	.loc 3 125 5
	mov	r0, r3
	bl	Cy_SysLib_DelayCycles
	.loc 3 126 1
	nop
	adds	r7, r7, #16
.LCFI11:
	.cfi_def_cfa_offset 8
	mov	sp, r7
.LCFI12:
	.cfi_def_cfa_register 13
	@ sp needed
	pop	{r7, pc}
.L12:
	.align	2
.L11:
	.word	cy_delayFreqKhz
	.cfi_endproc
.LFE160:
	.size	Cy_SysLib_Delay, .-Cy_SysLib_Delay
	.section	.text.Cy_SysLib_DelayUs,"ax",%progbits
	.align	1
	.global	Cy_SysLib_DelayUs
	.syntax unified
	.thumb
	.thumb_func
	.type	Cy_SysLib_DelayUs, %function
Cy_SysLib_DelayUs:
.LFB161:
	.loc 3 130 1
	.cfi_startproc
	@ args = 0, pretend = 0, frame = 8
	@ frame_needed = 1, uses_anonymous_args = 0
	push	{r7, lr}
.LCFI13:
	.cfi_def_cfa_offset 8
	.cfi_offset 7, -8
	.cfi_offset 14, -4
	sub	sp, sp, #8
.LCFI14:
	.cfi_def_cfa_offset 16
	add	r7, sp, #0
.LCFI15:
	.cfi_def_cfa_register 7
	mov	r3, r0
	strh	r3, [r7, #6]	@ movhi
	.loc 3 131 27
	ldrh	r3, [r7, #6]
	.loc 3 131 5
	ldr	r2, .L14
	ldrb	r2, [r2]	@ zero_extendqisi2
	mul	r3, r2, r3
	mov	r0, r3
	bl	Cy_SysLib_DelayCycles
	.loc 3 132 1
	nop
	adds	r7, r7, #8
.LCFI16:
	.cfi_def_cfa_offset 8
	mov	sp, r7
.LCFI17:
	.cfi_def_cfa_register 13
	@ sp needed
	pop	{r7, pc}
.L15:
	.align	2
.L14:
	.word	cy_delayFreqMhz
	.cfi_endproc
.LFE161:
	.size	Cy_SysLib_DelayUs, .-Cy_SysLib_DelayUs
	.section	.text.Cy_SysLib_Rtos_Delay,"ax",%progbits
	.align	1
	.weak	Cy_SysLib_Rtos_Delay
	.syntax unified
	.thumb
	.thumb_func
	.type	Cy_SysLib_Rtos_Delay, %function
Cy_SysLib_Rtos_Delay:
.LFB162:
	.loc 3 135 1
	.cfi_startproc
	@ args = 0, pretend = 0, frame = 8
	@ frame_needed = 1, uses_anonymous_args = 0
	push	{r7, lr}
.LCFI18:
	.cfi_def_cfa_offset 8
	.cfi_offset 7, -8
	.cfi_offset 14, -4
	sub	sp, sp, #8
.LCFI19:
	.cfi_def_cfa_offset 16
	add	r7, sp, #0
.LCFI20:
	.cfi_def_cfa_register 7
	str	r0, [r7, #4]
	.loc 3 136 5
	ldr	r0, [r7, #4]
	bl	Cy_SysLib_Delay
	.loc 3 137 1
	nop
	adds	r7, r7, #8
.LCFI21:
	.cfi_def_cfa_offset 8
	mov	sp, r7
.LCFI22:
	.cfi_def_cfa_register 13
	@ sp needed
	pop	{r7, pc}
	.cfi_endproc
.LFE162:
	.size	Cy_SysLib_Rtos_Delay, .-Cy_SysLib_Rtos_Delay
	.section	.text.Cy_SysLib_Rtos_DelayUs,"ax",%progbits
	.align	1
	.weak	Cy_SysLib_Rtos_DelayUs
	.syntax unified
	.thumb
	.thumb_func
	.type	Cy_SysLib_Rtos_DelayUs, %function
Cy_SysLib_Rtos_DelayUs:
.LFB163:
	.loc 3 140 1
	.cfi_startproc
	@ args = 0, pretend = 0, frame = 8
	@ frame_needed = 1, uses_anonymous_args = 0
	push	{r7, lr}
.LCFI23:
	.cfi_def_cfa_offset 8
	.cfi_offset 7, -8
	.cfi_offset 14, -4
	sub	sp, sp, #8
.LCFI24:
	.cfi_def_cfa_offset 16
	add	r7, sp, #0
.LCFI25:
	.cfi_def_cfa_register 7
	mov	r3, r0
	strh	r3, [r7, #6]	@ movhi
	.loc 3 141 5
	ldrh	r3, [r7, #6]
	mov	r0, r3
	bl	Cy_SysLib_DelayUs
	.loc 3 142 1
	nop
	adds	r7, r7, #8
.LCFI26:
	.cfi_def_cfa_offset 8
	mov	sp, r7
.LCFI27:
	.cfi_def_cfa_register 13
	@ sp needed
	pop	{r7, pc}
	.cfi_endproc
.LFE163:
	.size	Cy_SysLib_Rtos_DelayUs, .-Cy_SysLib_Rtos_DelayUs
	.section	.text.Cy_SysLib_Halt,"ax",%progbits
	.align	1
	.global	Cy_SysLib_Halt
	.syntax unified
	.thumb
	.thumb_func
	.type	Cy_SysLib_Halt, %function
Cy_SysLib_Halt:
.LFB164:
	.loc 3 145 1
	.cfi_startproc
	@ args = 0, pretend = 0, frame = 8
	@ frame_needed = 1, uses_anonymous_args = 0
	push	{r7, lr}
.LCFI28:
	.cfi_def_cfa_offset 8
	.cfi_offset 7, -8
	.cfi_offset 14, -4
	sub	sp, sp, #8
.LCFI29:
	.cfi_def_cfa_offset 16
	add	r7, sp, #0
.LCFI30:
	.cfi_def_cfa_register 7
	str	r0, [r7, #4]
	.loc 3 154 9
	bl	CY_HALT
.L19:
	.loc 3 161 10 discriminator 1
	b	.L19
	.cfi_endproc
.LFE164:
	.size	Cy_SysLib_Halt, .-Cy_SysLib_Halt
	.section	.text.Cy_SysLib_AssertFailed,"ax",%progbits
	.align	1
	.weak	Cy_SysLib_AssertFailed
	.syntax unified
	.thumb
	.thumb_func
	.type	Cy_SysLib_AssertFailed, %function
Cy_SysLib_AssertFailed:
.LFB165:
	.loc 3 166 1
	.cfi_startproc
	@ args = 0, pretend = 0, frame = 8
	@ frame_needed = 1, uses_anonymous_args = 0
	push	{r7, lr}
.LCFI31:
	.cfi_def_cfa_offset 8
	.cfi_offset 7, -8
	.cfi_offset 14, -4
	sub	sp, sp, #8
.LCFI32:
	.cfi_def_cfa_offset 16
	add	r7, sp, #0
.LCFI33:
	.cfi_def_cfa_register 7
	str	r0, [r7, #4]
	str	r1, [r7]
	.loc 3 168 12
	movs	r2, #24
	ldr	r1, [r7, #4]
	ldr	r0, .L21
	bl	strncpy
	.loc 3 169 19
	ldr	r2, .L21+4
	ldr	r3, [r7]
	str	r3, [r2]
	.loc 3 170 5
	movs	r0, #0
	bl	Cy_SysLib_Halt
.L22:
	.align	2
.L21:
	.word	cy_assertFileName
	.word	cy_assertLine
	.cfi_endproc
.LFE165:
	.size	Cy_SysLib_AssertFailed, .-Cy_SysLib_AssertFailed
	.section	.text.Cy_SysLib_ClearFlashCacheAndBuffer,"ax",%progbits
	.align	1
	.global	Cy_SysLib_ClearFlashCacheAndBuffer
	.syntax unified
	.thumb
	.thumb_func
	.type	Cy_SysLib_ClearFlashCacheAndBuffer, %function
Cy_SysLib_ClearFlashCacheAndBuffer:
.LFB166:
	.loc 3 181 1
	.cfi_startproc
	@ args = 0, pretend = 0, frame = 0
	@ frame_needed = 1, uses_anonymous_args = 0
	@ link register save eliminated.
	push	{r7}
.LCFI34:
	.cfi_def_cfa_offset 4
	.cfi_offset 7, -4
	add	r7, sp, #0
.LCFI35:
	.cfi_def_cfa_register 7
	.loc 3 185 39
	ldr	r3, .L24
	ldr	r3, [r3]
	ldr	r3, [r3, #4]
	.loc 3 185 11
	mov	r2, r3
	.loc 3 185 65
	movs	r3, #1
	str	r3, [r2, #8]
	.loc 3 187 1
	nop
	mov	sp, r7
.LCFI36:
	.cfi_def_cfa_register 13
	@ sp needed
	ldr	r7, [sp], #4
.LCFI37:
	.cfi_restore 7
	.cfi_def_cfa_offset 0
	bx	lr
.L25:
	.align	2
.L24:
	.word	cy_device
	.cfi_endproc
.LFE166:
	.size	Cy_SysLib_ClearFlashCacheAndBuffer, .-Cy_SysLib_ClearFlashCacheAndBuffer
	.section	.text.Cy_SysLib_ResetBackupDomain,"ax",%progbits
	.align	1
	.global	Cy_SysLib_ResetBackupDomain
	.syntax unified
	.thumb
	.thumb_func
	.type	Cy_SysLib_ResetBackupDomain, %function
Cy_SysLib_ResetBackupDomain:
.LFB167:
	.loc 3 192 1
	.cfi_startproc
	@ args = 0, pretend = 0, frame = 0
	@ frame_needed = 1, uses_anonymous_args = 0
	push	{r7, lr}
.LCFI38:
	.cfi_def_cfa_offset 8
	.cfi_offset 7, -8
	.cfi_offset 14, -4
	add	r7, sp, #0
.LCFI39:
	.cfi_def_cfa_register 7
	.loc 3 193 56
	ldr	r3, .L28
	.loc 3 193 65
	mov	r2, #-2147483648
	str	r2, [r3, #72]
	.loc 3 194 13
	bl	Cy_SysLib_GetResetStatus
	mov	r3, r0
	.loc 3 195 1
	mov	r0, r3
	pop	{r7, pc}
.L29:
	.align	2
.L28:
	.word	1076297728
	.cfi_endproc
.LFE167:
	.size	Cy_SysLib_ResetBackupDomain, .-Cy_SysLib_ResetBackupDomain
	.section	.text.Cy_SysLib_GetResetReason,"ax",%progbits
	.align	1
	.global	Cy_SysLib_GetResetReason
	.syntax unified
	.thumb
	.thumb_func
	.type	Cy_SysLib_GetResetReason, %function
Cy_SysLib_GetResetReason:
.LFB168:
	.loc 3 199 1
	.cfi_startproc
	@ args = 0, pretend = 0, frame = 8
	@ frame_needed = 1, uses_anonymous_args = 0
	@ link register save eliminated.
	push	{r7}
.LCFI40:
	.cfi_def_cfa_offset 4
	.cfi_offset 7, -4
	sub	sp, sp, #12
.LCFI41:
	.cfi_def_cfa_offset 16
	add	r7, sp, #0
.LCFI42:
	.cfi_def_cfa_register 7
	.loc 3 200 70
	ldr	r3, .L35
	.loc 3 200 14
	ldr	r3, [r3, #2048]
	str	r3, [r7, #4]
	.loc 3 202 74
	ldr	r3, .L35
	ldr	r3, [r3, #4]
	.loc 3 202 102
	uxtb	r3, r3
	.loc 3 202 7
	cmp	r3, #0
	beq	.L31
	.loc 3 204 16
	ldr	r3, [r7, #4]
	orr	r3, r3, #-2147483648
	str	r3, [r7, #4]
.L31:
	.loc 3 208 74
	ldr	r3, .L35
	ldr	r3, [r3, #2052]
	.loc 3 208 103
	uxth	r3, r3
	.loc 3 208 7
	cmp	r3, #0
	beq	.L32
	.loc 3 210 16
	ldr	r3, [r7, #4]
	orr	r3, r3, #65536
	str	r3, [r7, #4]
.L32:
	.loc 3 213 74
	ldr	r3, .L35
	ldr	r3, [r3, #2052]
	.loc 3 213 107
	lsrs	r3, r3, #16
	uxth	r3, r3
	.loc 3 213 7
	cmp	r3, #0
	beq	.L33
	.loc 3 215 16
	ldr	r3, [r7, #4]
	orr	r3, r3, #131072
	str	r3, [r7, #4]
.L33:
	.loc 3 218 12
	ldr	r3, [r7, #4]
	.loc 3 219 1
	mov	r0, r3
	adds	r7, r7, #12
.LCFI43:
	.cfi_def_cfa_offset 4
	mov	sp, r7
.LCFI44:
	.cfi_def_cfa_register 13
	@ sp needed
	ldr	r7, [sp], #4
.LCFI45:
	.cfi_restore 7
	.cfi_def_cfa_offset 0
	bx	lr
.L36:
	.align	2
.L35:
	.word	1076232192
	.cfi_endproc
.LFE168:
	.size	Cy_SysLib_GetResetReason, .-Cy_SysLib_GetResetReason
	.section	.text.Cy_SysLib_ClearResetReason,"ax",%progbits
	.align	1
	.global	Cy_SysLib_ClearResetReason
	.syntax unified
	.thumb
	.thumb_func
	.type	Cy_SysLib_ClearResetReason, %function
Cy_SysLib_ClearResetReason:
.LFB169:
	.loc 3 223 1
	.cfi_startproc
	@ args = 0, pretend = 0, frame = 0
	@ frame_needed = 1, uses_anonymous_args = 0
	@ link register save eliminated.
	push	{r7}
.LCFI46:
	.cfi_def_cfa_offset 4
	.cfi_offset 7, -4
	add	r7, sp, #0
.LCFI47:
	.cfi_def_cfa_register 7
	.loc 3 227 52
	ldr	r3, .L40
	.loc 3 227 65
	mov	r2, #-1
	str	r2, [r3, #2048]
	.loc 3 228 52
	ldr	r3, .L40
	.loc 3 228 66
	mov	r2, #-1
	str	r2, [r3, #2052]
	.loc 3 230 74
	ldr	r3, .L40
	ldr	r3, [r3, #4]
	.loc 3 230 102
	uxtb	r3, r3
	.loc 3 230 7
	cmp	r3, #0
	beq	.L39
	.loc 3 236 73
	ldr	r3, .L40
	ldr	r3, [r3, #4]
	ldr	r2, .L40
	bic	r3, r3, #255
	str	r3, [r2, #4]
.L39:
	.loc 3 239 1
	nop
	mov	sp, r7
.LCFI48:
	.cfi_def_cfa_register 13
	@ sp needed
	ldr	r7, [sp], #4
.LCFI49:
	.cfi_restore 7
	.cfi_def_cfa_offset 0
	bx	lr
.L41:
	.align	2
.L40:
	.word	1076232192
	.cfi_endproc
.LFE169:
	.size	Cy_SysLib_ClearResetReason, .-Cy_SysLib_ClearResetReason
	.section	.text.Cy_SysLib_GetUniqueId,"ax",%progbits
	.align	1
	.global	Cy_SysLib_GetUniqueId
	.syntax unified
	.thumb
	.thumb_func
	.type	Cy_SysLib_GetUniqueId, %function
Cy_SysLib_GetUniqueId:
.LFB170:
	.loc 3 273 1
	.cfi_startproc
	@ args = 0, pretend = 0, frame = 8
	@ frame_needed = 1, uses_anonymous_args = 0
	@ link register save eliminated.
	push	{r4, r5, r6, r7, r8, r9}
.LCFI50:
	.cfi_def_cfa_offset 24
	.cfi_offset 4, -24
	.cfi_offset 5, -20
	.cfi_offset 6, -16
	.cfi_offset 7, -12
	.cfi_offset 8, -8
	.cfi_offset 9, -4
	sub	sp, sp, #8
.LCFI51:
	.cfi_def_cfa_offset 32
	add	r7, sp, #0
.LCFI52:
	.cfi_def_cfa_register 7
	.loc 3 277 81
	mov	r3, #369098752
	ldrb	r3, [r3, #1546]
	uxtb	r3, r3
	.loc 3 277 93
	lsls	r2, r3, #25
	.loc 3 278 81
	mov	r3, #369098752
	ldrb	r3, [r3, #1543]
	uxtb	r3, r3
	.loc 3 278 100
	lsls	r3, r3, #24
	and	r3, r3, #16777216
	.loc 3 277 113
	orrs	r2, r2, r3
	.loc 3 279 81
	mov	r3, #369098752
	ldrb	r3, [r3, #1542]
	uxtb	r3, r3
	.loc 3 279 93
	lsls	r3, r3, #16
	.loc 3 278 120
	orrs	r2, r2, r3
	.loc 3 280 81
	mov	r3, #369098752
	ldrb	r3, [r3, #1541]
	uxtb	r3, r3
	.loc 3 280 90
	lsls	r3, r3, #8
	.loc 3 279 113
	orrs	r3, r3, r2
	.loc 3 281 81
	mov	r2, #369098752
	ldrb	r2, [r2, #1540]
	uxtb	r2, r2
	.loc 3 277 16
	orrs	r3, r3, r2
	str	r3, [r7, #4]
	.loc 3 283 81
	mov	r3, #369098752
	ldrb	r3, [r3, #1539]
	uxtb	r3, r3
	.loc 3 283 94
	lsls	r2, r3, #24
	.loc 3 284 81
	mov	r3, #369098752
	.loc 3 284 90
	ldrb	r3, [r3, #1538]
	uxtb	r3, r3
	.loc 3 284 98
	lsls	r3, r3, #16
	.loc 3 283 104
	orrs	r2, r2, r3
	.loc 3 285 81
	mov	r3, #369098752
	.loc 3 285 90
	ldrb	r3, [r3, #1537]
	uxtb	r3, r3
	.loc 3 285 98
	lsls	r3, r3, #8
	.loc 3 284 108
	orrs	r3, r3, r2
	.loc 3 286 81
	mov	r2, #369098752
	.loc 3 286 90
	ldrb	r2, [r2, #1536]
	uxtb	r2, r2
	.loc 3 283 16
	orrs	r3, r3, r2
	str	r3, [r7]
	.loc 3 288 14
	ldr	r3, [r7, #4]
	movs	r2, #0
	mov	r8, r3
	mov	r9, r2
	.loc 3 288 36
	mov	r2, #0
	mov	r3, #0
	mov	r3, r8
	movs	r2, #0
	.loc 3 288 46
	ldr	r6, [r7]
	mov	ip, #0
	mov	r0, r6
	mov	r1, ip
	orr	r4, r2, r0
	orr	r5, r3, r1
	mov	r2, r4
	mov	r3, r5
	.loc 3 289 1
	mov	r0, r2
	mov	r1, r3
	adds	r7, r7, #8
.LCFI53:
	.cfi_def_cfa_offset 24
	mov	sp, r7
.LCFI54:
	.cfi_def_cfa_register 13
	@ sp needed
	pop	{r4, r5, r6, r7, r8, r9}
.LCFI55:
	.cfi_restore 9
	.cfi_restore 8
	.cfi_restore 7
	.cfi_restore 6
	.cfi_restore 5
	.cfi_restore 4
	.cfi_def_cfa_offset 0
	bx	lr
	.cfi_endproc
.LFE170:
	.size	Cy_SysLib_GetUniqueId, .-Cy_SysLib_GetUniqueId
	.section	.text.Cy_SysLib_FaultHandler,"ax",%progbits
	.align	1
	.global	Cy_SysLib_FaultHandler
	.syntax unified
	.thumb
	.thumb_func
	.type	Cy_SysLib_FaultHandler, %function
Cy_SysLib_FaultHandler:
.LFB171:
	.loc 3 337 1
	.cfi_startproc
	@ args = 0, pretend = 0, frame = 8
	@ frame_needed = 1, uses_anonymous_args = 0
	push	{r7, lr}
.LCFI56:
	.cfi_def_cfa_offset 8
	.cfi_offset 7, -8
	.cfi_offset 14, -4
	sub	sp, sp, #8
.LCFI57:
	.cfi_def_cfa_offset 16
	add	r7, sp, #0
.LCFI58:
	.cfi_def_cfa_register 7
	str	r0, [r7, #4]
	.loc 3 339 38
	ldr	r3, [r7, #4]
	ldr	r3, [r3]
	.loc 3 339 22
	ldr	r2, .L47
	str	r3, [r2]
	.loc 3 340 22
	ldr	r3, [r7, #4]
	ldr	r3, [r3, #4]
	ldr	r2, .L47
	str	r3, [r2, #4]
	.loc 3 341 22
	ldr	r3, [r7, #4]
	ldr	r3, [r3, #8]
	ldr	r2, .L47
	str	r3, [r2, #8]
	.loc 3 342 22
	ldr	r3, [r7, #4]
	ldr	r3, [r3, #12]
	ldr	r2, .L47
	str	r3, [r2, #12]
	.loc 3 343 23
	ldr	r3, [r7, #4]
	ldr	r3, [r3, #16]
	ldr	r2, .L47
	str	r3, [r2, #16]
	.loc 3 344 22
	ldr	r3, [r7, #4]
	ldr	r3, [r3, #20]
	ldr	r2, .L47
	str	r3, [r2, #20]
	.loc 3 345 22
	ldr	r3, [r7, #4]
	ldr	r3, [r3, #24]
	ldr	r2, .L47
	str	r3, [r2, #24]
	.loc 3 346 23
	ldr	r3, [r7, #4]
	ldr	r3, [r3, #28]
	ldr	r2, .L47
	str	r3, [r2, #28]
	.loc 3 351 77
	ldr	r3, .L47+4
	ldr	r3, [r3, #40]
	.loc 3 351 32
	ldr	r2, .L47
	str	r3, [r2, #32]
	.loc 3 353 77
	ldr	r3, .L47+4
	ldr	r3, [r3, #44]
	.loc 3 353 32
	ldr	r2, .L47
	str	r3, [r2, #36]
	.loc 3 355 79
	ldr	r3, .L47+4
	ldr	r3, [r3, #36]
	.loc 3 355 34
	ldr	r2, .L47
	str	r3, [r2, #40]
	.loc 3 357 70
	ldr	r3, .L47+4
	ldr	r3, [r3, #52]
	.loc 3 357 25
	ldr	r2, .L47
	str	r3, [r2, #44]
	.loc 3 359 69
	ldr	r3, .L47+4
	ldr	r3, [r3, #56]
	.loc 3 359 24
	ldr	r2, .L47
	str	r3, [r2, #48]
.LBB4:
.LBB5:
	.file 4 "libraries\\IFX_PSOC6_HAL\\mtb-pdl-cat1\\cmsis\\include/cmsis_gcc.h"
	.loc 4 841 10
	mrc	p10, 7, r3, cr1, cr0, 0	 @GET_FPSCR
.LBE5:
.LBE4:
	.loc 3 364 29
	and	r3, r3, #144
	.loc 3 364 7
	cmp	r3, #0
	beq	.L46
	.loc 3 366 26
	ldr	r3, [r7, #4]
	ldr	r3, [r3, #32]
	ldr	r2, .L47
	str	r3, [r2, #52]
	.loc 3 367 26
	ldr	r3, [r7, #4]
	ldr	r3, [r3, #36]
	ldr	r2, .L47
	str	r3, [r2, #56]
	.loc 3 368 26
	ldr	r3, [r7, #4]
	ldr	r3, [r3, #40]
	ldr	r2, .L47
	str	r3, [r2, #60]
	.loc 3 369 26
	ldr	r3, [r7, #4]
	ldr	r3, [r3, #44]
	ldr	r2, .L47
	str	r3, [r2, #64]
	.loc 3 370 26
	ldr	r3, [r7, #4]
	ldr	r3, [r3, #48]
	ldr	r2, .L47
	str	r3, [r2, #68]
	.loc 3 371 26
	ldr	r3, [r7, #4]
	ldr	r3, [r3, #52]
	ldr	r2, .L47
	str	r3, [r2, #72]
	.loc 3 372 26
	ldr	r3, [r7, #4]
	ldr	r3, [r3, #56]
	ldr	r2, .L47
	str	r3, [r2, #76]
	.loc 3 373 26
	ldr	r3, [r7, #4]
	ldr	r3, [r3, #60]
	ldr	r2, .L47
	str	r3, [r2, #80]
	.loc 3 374 26
	ldr	r3, [r7, #4]
	ldr	r3, [r3, #64]
	ldr	r2, .L47
	str	r3, [r2, #84]
	.loc 3 375 26
	ldr	r3, [r7, #4]
	ldr	r3, [r3, #68]
	ldr	r2, .L47
	str	r3, [r2, #88]
	.loc 3 376 27
	ldr	r3, [r7, #4]
	ldr	r3, [r3, #72]
	ldr	r2, .L47
	str	r3, [r2, #92]
	.loc 3 377 27
	ldr	r3, [r7, #4]
	ldr	r3, [r3, #76]
	ldr	r2, .L47
	str	r3, [r2, #96]
	.loc 3 378 27
	ldr	r3, [r7, #4]
	ldr	r3, [r3, #80]
	ldr	r2, .L47
	str	r3, [r2, #100]
	.loc 3 379 27
	ldr	r3, [r7, #4]
	ldr	r3, [r3, #84]
	ldr	r2, .L47
	str	r3, [r2, #104]
	.loc 3 380 27
	ldr	r3, [r7, #4]
	ldr	r3, [r3, #88]
	ldr	r2, .L47
	str	r3, [r2, #108]
	.loc 3 381 27
	ldr	r3, [r7, #4]
	ldr	r3, [r3, #92]
	ldr	r2, .L47
	str	r3, [r2, #112]
	.loc 3 382 29
	ldr	r3, [r7, #4]
	ldr	r3, [r3, #96]
	ldr	r2, .L47
	str	r3, [r2, #116]
.L46:
	.loc 3 387 5
	bl	Cy_SysLib_ProcessingFault
	.loc 3 388 1
	nop
	adds	r7, r7, #8
.LCFI59:
	.cfi_def_cfa_offset 8
	mov	sp, r7
.LCFI60:
	.cfi_def_cfa_register 13
	@ sp needed
	pop	{r7, pc}
.L48:
	.align	2
.L47:
	.word	cy_faultFrame
	.word	-536810240
	.cfi_endproc
.LFE171:
	.size	Cy_SysLib_FaultHandler, .-Cy_SysLib_FaultHandler
	.section	.text.Cy_SysLib_ProcessingFault,"ax",%progbits
	.align	1
	.weak	Cy_SysLib_ProcessingFault
	.syntax unified
	.thumb
	.thumb_func
	.type	Cy_SysLib_ProcessingFault, %function
Cy_SysLib_ProcessingFault:
.LFB172:
	.loc 3 392 1
	.cfi_startproc
	@ args = 0, pretend = 0, frame = 0
	@ frame_needed = 1, uses_anonymous_args = 0
	@ link register save eliminated.
	push	{r7}
.LCFI61:
	.cfi_def_cfa_offset 4
	.cfi_offset 7, -4
	add	r7, sp, #0
.LCFI62:
	.cfi_def_cfa_register 7
.L50:
	.loc 3 401 14 discriminator 1
	b	.L50
	.cfi_endproc
.LFE172:
	.size	Cy_SysLib_ProcessingFault, .-Cy_SysLib_ProcessingFault
	.section	.text.Cy_SysLib_SetWaitStates,"ax",%progbits
	.align	1
	.global	Cy_SysLib_SetWaitStates
	.syntax unified
	.thumb
	.thumb_func
	.type	Cy_SysLib_SetWaitStates, %function
Cy_SysLib_SetWaitStates:
.LFB173:
	.loc 3 411 1
	.cfi_startproc
	@ args = 0, pretend = 0, frame = 16
	@ frame_needed = 1, uses_anonymous_args = 0
	@ link register save eliminated.
	push	{r7}
.LCFI63:
	.cfi_def_cfa_offset 4
	.cfi_offset 7, -4
	sub	sp, sp, #20
.LCFI64:
	.cfi_def_cfa_offset 24
	add	r7, sp, #0
.LCFI65:
	.cfi_def_cfa_register 7
	mov	r3, r0
	str	r1, [r7]
	strb	r3, [r7, #7]
	.loc 3 417 33
	ldrb	r3, [r7, #7]	@ zero_extendqisi2
	cmp	r3, #0
	beq	.L52
	.loc 3 417 33 is_stmt 0 discriminator 1
	movs	r3, #25
	b	.L53
.L52:
	.loc 3 417 33 discriminator 2
	movs	r3, #100
.L53:
	.loc 3 417 13 is_stmt 1 discriminator 4
	str	r3, [r7, #8]
	.loc 3 418 46 discriminator 4
	ldr	r2, [r7]
	ldr	r3, [r7, #8]
	cmp	r2, r3
	ite	hi
	movhi	r3, #1
	movls	r3, #0
	uxtb	r3, r3
	.loc 3 418 16 discriminator 4
	str	r3, [r7, #12]
	.loc 3 421 117 discriminator 4
	ldr	r3, .L70
	ldr	r3, [r3]
	ldr	r3, [r3]
	.loc 3 421 140 discriminator 4
	ldr	r2, .L70
	ldr	r2, [r2]
	ldrh	r2, [r2, #172]
	.loc 3 421 129 discriminator 4
	add	r3, r3, r2
	.loc 3 421 84 discriminator 4
	ldr	r3, [r3]
	.loc 3 421 157 discriminator 4
	bic	r2, r3, #3
	.loc 3 421 219 discriminator 4
	ldr	r3, [r7, #12]
	and	r3, r3, #3
	.loc 3 421 39 discriminator 4
	ldr	r1, .L70
	ldr	r1, [r1]
	ldr	r1, [r1]
	.loc 3 421 62 discriminator 4
	ldr	r0, .L70
	ldr	r0, [r0]
	ldrh	r0, [r0, #172]
	.loc 3 421 51 discriminator 4
	add	r1, r1, r0
	.loc 3 421 183 discriminator 4
	orrs	r3, r3, r2
	.loc 3 421 78 discriminator 4
	str	r3, [r1]
	.loc 3 422 117 discriminator 4
	ldr	r3, .L70
	ldr	r3, [r3]
	ldr	r3, [r3]
	.loc 3 422 140 discriminator 4
	ldr	r2, .L70
	ldr	r2, [r2]
	ldrh	r2, [r2, #172]
	.loc 3 422 129 discriminator 4
	add	r3, r3, r2
	.loc 3 422 84 discriminator 4
	ldr	r3, [r3]
	.loc 3 422 39 discriminator 4
	ldr	r2, .L70
	ldr	r2, [r2]
	ldr	r2, [r2]
	.loc 3 422 62 discriminator 4
	ldr	r1, .L70
	ldr	r1, [r1]
	ldrh	r1, [r1, #172]
	.loc 3 422 51 discriminator 4
	add	r2, r2, r1
	.loc 3 422 185 discriminator 4
	bic	r3, r3, #768
	.loc 3 422 78 discriminator 4
	str	r3, [r2]
	.loc 3 425 119 discriminator 4
	ldr	r3, .L70
	ldr	r3, [r3]
	ldr	r3, [r3]
	.loc 3 425 142 discriminator 4
	ldr	r2, .L70
	ldr	r2, [r2]
	ldrh	r2, [r2, #174]
	.loc 3 425 131 discriminator 4
	add	r3, r3, r2
	.loc 3 425 86 discriminator 4
	ldr	r3, [r3]
	.loc 3 425 161 discriminator 4
	bic	r2, r3, #3
	.loc 3 425 223 discriminator 4
	ldr	r3, [r7, #12]
	and	r3, r3, #3
	.loc 3 425 39 discriminator 4
	ldr	r1, .L70
	ldr	r1, [r1]
	ldr	r1, [r1]
	.loc 3 425 62 discriminator 4
	ldr	r0, .L70
	ldr	r0, [r0]
	ldrh	r0, [r0, #174]
	.loc 3 425 51 discriminator 4
	add	r1, r1, r0
	.loc 3 425 187 discriminator 4
	orrs	r3, r3, r2
	.loc 3 425 80 discriminator 4
	str	r3, [r1]
	.loc 3 426 119 discriminator 4
	ldr	r3, .L70
	ldr	r3, [r3]
	ldr	r3, [r3]
	.loc 3 426 142 discriminator 4
	ldr	r2, .L70
	ldr	r2, [r2]
	ldrh	r2, [r2, #174]
	.loc 3 426 131 discriminator 4
	add	r3, r3, r2
	.loc 3 426 86 discriminator 4
	ldr	r3, [r3]
	.loc 3 426 39 discriminator 4
	ldr	r2, .L70
	ldr	r2, [r2]
	ldr	r2, [r2]
	.loc 3 426 62 discriminator 4
	ldr	r1, .L70
	ldr	r1, [r1]
	ldrh	r1, [r1, #174]
	.loc 3 426 51 discriminator 4
	add	r2, r2, r1
	.loc 3 426 189 discriminator 4
	bic	r3, r3, #768
	.loc 3 426 80 discriminator 4
	str	r3, [r2]
	.loc 3 437 8 discriminator 4
	ldrb	r3, [r7, #7]	@ zero_extendqisi2
	cmp	r3, #0
	beq	.L54
	.loc 3 439 50
	ldr	r3, [r7]
	cmp	r3, #16
	bls	.L55
	.loc 3 440 51
	ldr	r3, [r7]
	cmp	r3, #33
	bhi	.L56
	.loc 3 440 51 is_stmt 0 discriminator 1
	movs	r3, #1
	b	.L58
.L56:
	.loc 3 440 51 discriminator 2
	movs	r3, #2
	b	.L58
.L55:
	.loc 3 439 50 is_stmt 1 discriminator 1
	movs	r3, #0
.L58:
	.loc 3 439 20 discriminator 3
	str	r3, [r7, #12]
	b	.L59
.L54:
	.loc 3 444 44
	ldr	r3, .L70
	ldr	r3, [r3]
	ldrb	r3, [r3, #85]	@ zero_extendqisi2
	mov	r2, r3
	.loc 3 444 73
	ldr	r3, [r7]
	cmp	r3, r2
	bls	.L60
	.loc 3 445 45
	ldr	r3, .L70
	ldr	r3, [r3]
	ldrb	r3, [r3, #86]	@ zero_extendqisi2
	mov	r2, r3
	.loc 3 445 74
	ldr	r3, [r7]
	cmp	r3, r2
	bls	.L61
	.loc 3 446 45
	ldr	r3, .L70
	ldr	r3, [r3]
	ldrb	r3, [r3, #87]	@ zero_extendqisi2
	mov	r2, r3
	.loc 3 446 74
	ldr	r3, [r7]
	cmp	r3, r2
	bls	.L62
	.loc 3 447 45
	ldr	r3, .L70
	ldr	r3, [r3]
	ldrb	r3, [r3, #88]	@ zero_extendqisi2
	mov	r2, r3
	.loc 3 447 74
	ldr	r3, [r7]
	cmp	r3, r2
	bls	.L63
	.loc 3 448 45
	ldr	r3, .L70
	ldr	r3, [r3]
	ldrb	r3, [r3, #89]	@ zero_extendqisi2
	mov	r2, r3
	.loc 3 448 74
	ldr	r3, [r7]
	cmp	r3, r2
	bhi	.L64
	.loc 3 448 74 is_stmt 0 discriminator 1
	movs	r3, #4
	b	.L69
.L64:
	.loc 3 448 74 discriminator 2
	movs	r3, #5
	b	.L69
.L63:
	.loc 3 447 74 is_stmt 1 discriminator 1
	movs	r3, #3
	b	.L69
.L62:
	.loc 3 446 74 discriminator 1
	movs	r3, #2
	b	.L69
.L61:
	.loc 3 445 74 discriminator 1
	movs	r3, #1
	b	.L69
.L60:
	.loc 3 444 73 discriminator 1
	movs	r3, #0
.L69:
	.loc 3 444 20 discriminator 3
	str	r3, [r7, #12]
.L59:
	.loc 3 451 96
	ldr	r3, .L70
	ldr	r3, [r3]
	ldr	r3, [r3, #4]
	.loc 3 451 109
	ldr	r3, [r3]
	.loc 3 451 123
	bic	r2, r3, #15
	.loc 3 451 185
	ldr	r3, [r7, #12]
	and	r3, r3, #15
	.loc 3 451 35
	ldr	r1, .L70
	ldr	r1, [r1]
	ldr	r1, [r1, #4]
	.loc 3 451 149
	orrs	r3, r3, r2
	.loc 3 451 61
	str	r3, [r1]
	.loc 3 460 1
	nop
	adds	r7, r7, #20
.LCFI66:
	.cfi_def_cfa_offset 4
	mov	sp, r7
.LCFI67:
	.cfi_def_cfa_register 13
	@ sp needed
	ldr	r7, [sp], #4
.LCFI68:
	.cfi_restore 7
	.cfi_def_cfa_offset 0
	bx	lr
.L71:
	.align	2
.L70:
	.word	cy_device
	.cfi_endproc
.LFE173:
	.size	Cy_SysLib_SetWaitStates, .-Cy_SysLib_SetWaitStates
	.section	.text.Cy_SysLib_GetDeviceRevision,"ax",%progbits
	.align	1
	.global	Cy_SysLib_GetDeviceRevision
	.syntax unified
	.thumb
	.thumb_func
	.type	Cy_SysLib_GetDeviceRevision, %function
Cy_SysLib_GetDeviceRevision:
.LFB174:
	.loc 3 464 1
	.cfi_startproc
	@ args = 0, pretend = 0, frame = 0
	@ frame_needed = 1, uses_anonymous_args = 0
	@ link register save eliminated.
	push	{r7}
.LCFI69:
	.cfi_def_cfa_offset 4
	.cfi_offset 7, -4
	add	r7, sp, #0
.LCFI70:
	.cfi_def_cfa_register 7
	.loc 3 466 65
	mov	r3, #369098752
	ldrb	r3, [r3, #1]
	uxtb	r3, r3
	.loc 3 466 101
	cmp	r3, #0
	beq	.L73
	.loc 3 466 154 discriminator 1
	mov	r3, #369098752
	.loc 3 466 101 discriminator 1
	ldrb	r3, [r3, #1]
	uxtb	r3, r3
	b	.L74
.L73:
	.loc 3 466 101 is_stmt 0 discriminator 2
	movs	r3, #33
.L74:
	.loc 3 472 1 is_stmt 1 discriminator 4
	mov	r0, r3
	mov	sp, r7
.LCFI71:
	.cfi_def_cfa_register 13
	@ sp needed
	ldr	r7, [sp], #4
.LCFI72:
	.cfi_restore 7
	.cfi_def_cfa_offset 0
	bx	lr
	.cfi_endproc
.LFE174:
	.size	Cy_SysLib_GetDeviceRevision, .-Cy_SysLib_GetDeviceRevision
	.section	.text.Cy_SysLib_GetDevice,"ax",%progbits
	.align	1
	.global	Cy_SysLib_GetDevice
	.syntax unified
	.thumb
	.thumb_func
	.type	Cy_SysLib_GetDevice, %function
Cy_SysLib_GetDevice:
.LFB175:
	.loc 3 475 1
	.cfi_startproc
	@ args = 0, pretend = 0, frame = 0
	@ frame_needed = 1, uses_anonymous_args = 0
	@ link register save eliminated.
	push	{r7}
.LCFI73:
	.cfi_def_cfa_offset 4
	.cfi_offset 7, -4
	add	r7, sp, #0
.LCFI74:
	.cfi_def_cfa_register 7
	.loc 3 477 65
	mov	r3, #369098752
	ldrh	r3, [r3, #12]	@ movhi
	uxth	r3, r3
	.loc 3 477 97
	cmp	r3, #0
	beq	.L77
	.loc 3 477 150 discriminator 1
	mov	r3, #369098752
	.loc 3 477 97 discriminator 1
	ldrh	r3, [r3, #12]	@ movhi
	uxth	r3, r3
	b	.L78
.L77:
	.loc 3 477 97 is_stmt 0 discriminator 2
	mov	r3, #256
.L78:
	.loc 3 481 1 is_stmt 1 discriminator 4
	mov	r0, r3
	mov	sp, r7
.LCFI75:
	.cfi_def_cfa_register 13
	@ sp needed
	ldr	r7, [sp], #4
.LCFI76:
	.cfi_restore 7
	.cfi_def_cfa_offset 0
	bx	lr
	.cfi_endproc
.LFE175:
	.size	Cy_SysLib_GetDevice, .-Cy_SysLib_GetDevice
	.text
.Letext0:
	.file 5 "d:\\llc\\softwares\\env-windows-v1.3.5\\tools\\gnu_gcc\\arm_gcc\\mingw\\arm-none-eabi\\include\\machine\\_default_types.h"
	.file 6 "d:\\llc\\softwares\\env-windows-v1.3.5\\tools\\gnu_gcc\\arm_gcc\\mingw\\arm-none-eabi\\include\\sys\\_stdint.h"
	.file 7 "libraries\\IFX_PSOC6_HAL\\mtb-pdl-cat1\\devices\\COMPONENT_CAT1A\\include/ip/cyip_flashc.h"
	.file 8 "libraries\\IFX_PSOC6_HAL\\mtb-pdl-cat1\\devices\\COMPONENT_CAT1A\\include/ip/cyip_sflash.h"
	.file 9 "libraries\\IFX_PSOC6_HAL\\mtb-pdl-cat1\\devices\\COMPONENT_CAT1A\\include/ip/cyip_srss.h"
	.file 10 "libraries\\IFX_PSOC6_HAL\\mtb-pdl-cat1\\devices\\COMPONENT_CAT1A\\include/ip/cyip_backup.h"
	.file 11 "libraries\\IFX_PSOC6_HAL\\mtb-pdl-cat1\\cmsis\\include/core_cm4.h"
	.file 12 "libs\\TARGET_RTT-062S2/system_psoc6.h"
	.file 13 "libraries\\IFX_PSOC6_HAL\\mtb-pdl-cat1\\devices\\COMPONENT_CAT1A\\include/psoc6_02_config.h"
	.file 14 "libraries\\IFX_PSOC6_HAL\\mtb-pdl-cat1\\devices\\COMPONENT_CAT1A\\include/cy_device.h"
	.file 15 "libraries\\IFX_PSOC6_HAL\\core-lib\\include/cy_result.h"