	.cpu cortex-m4
	.arch armv7e-m
	.fpu fpv4-sp-d16
	.eabi_attribute 27, 1
	.eabi_attribute 28, 1
	.eabi_attribute 20, 1
	.eabi_attribute 21, 1
	.eabi_attribute 23, 3
	.eabi_attribute 24, 1
	.eabi_attribute 25, 1
	.eabi_attribute 26, 1
	.eabi_attribute 30, 6
	.eabi_attribute 34, 1
	.eabi_attribute 18, 4
	.file	"cy_sysclk.c"
	.text
.Ltext0:
	.cfi_sections	.debug_frame
	.section	.text.CY_HALT,"ax",%progbits
	.align	1
	.syntax unified
	.thumb
	.thumb_func
	.type	CY_HALT, %function
CY_HALT:
.LFB133:
	.file 1 "libraries\\IFX_PSOC6_HAL\\core-lib\\include/cy_utils.h"
	.loc 1 49 1
	.cfi_startproc
	@ args = 0, pretend = 0, frame = 0
	@ frame_needed = 1, uses_anonymous_args = 0
	@ link register save eliminated.
	push	{r7}
.LCFI0:
	.cfi_def_cfa_offset 4
	.cfi_offset 7, -4
	add	r7, sp, #0
.LCFI1:
	.cfi_def_cfa_register 7
	.loc 1 50 5
	.syntax unified
@ 50 "libraries\IFX_PSOC6_HAL\core-lib\include/cy_utils.h" 1
	    bkpt    1
@ 0 "" 2
	.loc 1 51 1
	.thumb
	.syntax unified
	nop
	mov	sp, r7
.LCFI2:
	.cfi_def_cfa_register 13
	@ sp needed
	ldr	r7, [sp], #4
.LCFI3:
	.cfi_restore 7
	.cfi_def_cfa_offset 0
	bx	lr
	.cfi_endproc
.LFE133:
	.size	CY_HALT, .-CY_HALT
	.section	.text.Cy_SysClk_PeriphSetDivider,"ax",%progbits
	.align	1
	.global	Cy_SysClk_PeriphSetDivider
	.syntax unified
	.thumb
	.thumb_func
	.type	Cy_SysClk_PeriphSetDivider, %function
Cy_SysClk_PeriphSetDivider:
.LFB137:
	.file 2 "libraries\\IFX_PSOC6_HAL\\mtb-pdl-cat1\\drivers\\source\\cy_sysclk.c"
	.loc 2 44 1
	.cfi_startproc
	@ args = 0, pretend = 0, frame = 24
	@ frame_needed = 1, uses_anonymous_args = 0
	@ link register save eliminated.
	push	{r4, r7}
.LCFI4:
	.cfi_def_cfa_offset 8
	.cfi_offset 4, -8
	.cfi_offset 7, -4
	sub	sp, sp, #24
.LCFI5:
	.cfi_def_cfa_offset 32
	add	r7, sp, #0
.LCFI6:
	.cfi_def_cfa_register 7
	mov	r3, r0
	str	r1, [r7, #8]
	str	r2, [r7, #4]
	strb	r3, [r7, #15]
	.loc 2 45 27
	ldr	r3, .L6
	str	r3, [r7, #20]
	.loc 2 46 8
	ldrb	r3, [r7, #15]	@ zero_extendqisi2
	cmp	r3, #0
	bne	.L3
	.loc 2 48 12
	ldr	r3, [r7, #8]
	cmp	r3, #7
	bhi	.L4
	.loc 2 48 31 discriminator 1
	ldr	r3, [r7, #4]
	cmp	r3, #255
	bhi	.L4
	.loc 2 51 233
	ldr	r3, [r7, #8]
	lsls	r2, r3, #2
	.loc 2 51 177
	ldr	r3, .L6+4
	ldr	r3, [r3]
	ldr	r3, [r3, #8]
	.loc 2 51 211
	ldr	r1, .L6+4
	ldr	r1, [r1]
	ldrh	r1, [r1, #120]
	.loc 2 51 189
	add	r3, r3, r1
	.loc 2 51 233
	add	r3, r3, r2
	ldr	r3, [r3]
	.loc 2 51 248
	bic	r2, r3, #65280
	.loc 2 51 309
	ldr	r3, [r7, #4]
	lsls	r3, r3, #8
	.loc 2 51 317
	uxth	r3, r3
	.loc 2 51 114
	ldr	r1, [r7, #8]
	lsls	r0, r1, #2
	.loc 2 51 58
	ldr	r1, .L6+4
	ldr	r1, [r1]
	ldr	r1, [r1, #8]
	.loc 2 51 92
	ldr	r4, .L6+4
	ldr	r4, [r4]
	ldrh	r4, [r4, #120]
	.loc 2 51 70
	add	r1, r1, r4
	.loc 2 51 114
	add	r1, r1, r0
	.loc 2 51 277
	orrs	r3, r3, r2
	.loc 2 51 128
	str	r3, [r1]
	.loc 2 52 20
	movs	r3, #0
	str	r3, [r7, #20]
	b	.L4
.L3:
	.loc 2 55 13
	ldrb	r3, [r7, #15]	@ zero_extendqisi2
	cmp	r3, #1
	bne	.L4
	.loc 2 57 12
	ldr	r3, [r7, #8]
	cmp	r3, #15
	bhi	.L4
	.loc 2 57 32 discriminator 1
	ldr	r3, [r7, #4]
	cmp	r3, #65536
	bcs	.L4
	.loc 2 60 235
	ldr	r3, [r7, #8]
	lsls	r2, r3, #2
	.loc 2 60 178
	ldr	r3, .L6+4
	ldr	r3, [r3]
	ldr	r3, [r3, #8]
	.loc 2 60 212
	ldr	r1, .L6+4
	ldr	r1, [r1]
	ldrh	r1, [r1, #122]
	.loc 2 60 190
	add	r3, r3, r1
	.loc 2 60 235
	add	r3, r3, r2
	ldr	r3, [r3]
	.loc 2 60 250
	bic	r2, r3, #16711680
	bic	r2, r2, #65280
	.loc 2 60 313
	ldr	r3, [r7, #4]
	lsls	r3, r3, #8
	.loc 2 60 321
	bic	r3, r3, #-16777216
	bic	r3, r3, #255
	.loc 2 60 115
	ldr	r1, [r7, #8]
	lsls	r0, r1, #2
	.loc 2 60 58
	ldr	r1, .L6+4
	ldr	r1, [r1]
	ldr	r1, [r1, #8]
	.loc 2 60 92
	ldr	r4, .L6+4
	ldr	r4, [r4]
	ldrh	r4, [r4, #122]
	.loc 2 60 70
	add	r1, r1, r4
	.loc 2 60 115
	add	r1, r1, r0
	.loc 2 60 281
	orrs	r3, r3, r2
	.loc 2 60 129
	str	r3, [r1]
	.loc 2 61 20
	movs	r3, #0
	str	r3, [r7, #20]
.L4:
	.loc 2 67 12
	ldr	r3, [r7, #20]
	.loc 2 68 1
	mov	r0, r3
	adds	r7, r7, #24
.LCFI7:
	.cfi_def_cfa_offset 8
	mov	sp, r7
.LCFI8:
	.cfi_def_cfa_register 13
	@ sp needed
	pop	{r4, r7}
.LCFI9:
	.cfi_restore 7
	.cfi_restore 4
	.cfi_def_cfa_offset 0
	bx	lr
.L7:
	.align	2
.L6:
	.word	4849665
	.word	cy_device
	.cfi_endproc
.LFE137:
	.size	Cy_SysClk_PeriphSetDivider, .-Cy_SysClk_PeriphSetDivider
	.section	.text.Cy_SysClk_PeriphGetDivider,"ax",%progbits
	.align	1
	.global	Cy_SysClk_PeriphGetDivider
	.syntax unified
	.thumb
	.thumb_func
	.type	Cy_SysClk_PeriphGetDivider, %function
Cy_SysClk_PeriphGetDivider:
.LFB138:
	.loc 2 72 1
	.cfi_startproc
	@ args = 0, pretend = 0, frame = 16
	@ frame_needed = 1, uses_anonymous_args = 0
	push	{r7, lr}
.LCFI10:
	.cfi_def_cfa_offset 8
	.cfi_offset 7, -8
	.cfi_offset 14, -4
	sub	sp, sp, #16
.LCFI11:
	.cfi_def_cfa_offset 24
	add	r7, sp, #0
.LCFI12:
	.cfi_def_cfa_register 7
	mov	r3, r0
	str	r1, [r7]
	strb	r3, [r7, #7]
	.loc 2 75 12
	ldrb	r3, [r7, #7]	@ zero_extendqisi2
	cmp	r3, #1
	bls	.L9
	.loc 2 75 55 discriminator 1
	bl	CY_HALT
.L9:
	.loc 2 77 8
	ldrb	r3, [r7, #7]	@ zero_extendqisi2
	cmp	r3, #0
	bne	.L10
	.loc 2 79 16
	ldr	r3, [r7]
	cmp	r3, #7
	bls	.L11
	.loc 2 79 39 discriminator 1
	bl	CY_HALT
.L11:
	.loc 2 80 130
	ldr	r3, [r7]
	lsls	r2, r3, #2
	.loc 2 80 74
	ldr	r3, .L15
	ldr	r3, [r3]
	ldr	r3, [r3, #8]
	.loc 2 80 108
	ldr	r1, .L15
	ldr	r1, [r1]
	ldrh	r1, [r1, #120]
	.loc 2 80 86
	add	r3, r3, r1
	.loc 2 80 130
	add	r3, r3, r2
	.loc 2 80 20
	ldr	r3, [r3]
	.loc 2 80 156
	lsrs	r3, r3, #8
	.loc 2 80 16
	uxtb	r3, r3
	str	r3, [r7, #12]
	b	.L12
.L10:
	.loc 2 84 16
	ldr	r3, [r7]
	cmp	r3, #15
	bls	.L13
	.loc 2 84 40 discriminator 1
	bl	CY_HALT
.L13:
	.loc 2 85 131
	ldr	r3, [r7]
	lsls	r2, r3, #2
	.loc 2 85 74
	ldr	r3, .L15
	ldr	r3, [r3]
	ldr	r3, [r3, #8]
	.loc 2 85 108
	ldr	r1, .L15
	ldr	r1, [r1]
	ldrh	r1, [r1, #122]
	.loc 2 85 86
	add	r3, r3, r1
	.loc 2 85 131
	add	r3, r3, r2
	.loc 2 85 20
	ldr	r3, [r3]
	.loc 2 85 159
	lsrs	r3, r3, #8
	.loc 2 85 16
	uxth	r3, r3
	str	r3, [r7, #12]
.L12:
	.loc 2 87 12
	ldr	r3, [r7, #12]
	.loc 2 88 1
	mov	r0, r3
	adds	r7, r7, #16
.LCFI13:
	.cfi_def_cfa_offset 8
	mov	sp, r7
.LCFI14:
	.cfi_def_cfa_register 13
	@ sp needed
	pop	{r7, pc}
.L16:
	.align	2
.L15:
	.word	cy_device
	.cfi_endproc
.LFE138:
	.size	Cy_SysClk_PeriphGetDivider, .-Cy_SysClk_PeriphGetDivider
	.section	.text.Cy_SysClk_PeriphSetFracDivider,"ax",%progbits
	.align	1
	.global	Cy_SysClk_PeriphSetFracDivider
	.syntax unified
	.thumb
	.thumb_func
	.type	Cy_SysClk_PeriphSetFracDivider, %function
Cy_SysClk_PeriphSetFracDivider:
.LFB139:
	.loc 2 94 1
	.cfi_startproc
	@ args = 0, pretend = 0, frame = 24
	@ frame_needed = 1, uses_anonymous_args = 0
	@ link register save eliminated.
	push	{r4, r7}
.LCFI15:
	.cfi_def_cfa_offset 8
	.cfi_offset 4, -8
	.cfi_offset 7, -4
	sub	sp, sp, #24
.LCFI16:
	.cfi_def_cfa_offset 32
	add	r7, sp, #0
.LCFI17:
	.cfi_def_cfa_register 7
	str	r1, [r7, #8]
	str	r2, [r7, #4]
	str	r3, [r7]
	mov	r3, r0
	strb	r3, [r7, #15]
	.loc 2 95 27
	ldr	r3, .L21
	str	r3, [r7, #20]
	.loc 2 96 8
	ldrb	r3, [r7, #15]	@ zero_extendqisi2
	cmp	r3, #2
	bne	.L18
	.loc 2 98 12
	ldr	r3, [r7, #8]
	cmp	r3, #3
	bhi	.L19
	.loc 2 98 31 discriminator 1
	ldr	r3, [r7, #4]
	cmp	r3, #65536
	bcs	.L19
	.loc 2 99 54
	ldr	r3, [r7]
	cmp	r3, #31
	bhi	.L19
	.loc 2 102 239
	ldr	r3, [r7, #8]
	lsls	r2, r3, #2
	.loc 2 102 180
	ldr	r3, .L21+4
	ldr	r3, [r3]
	ldr	r3, [r3, #8]
	.loc 2 102 214
	ldr	r1, .L21+4
	ldr	r1, [r1]
	ldrh	r1, [r1, #124]
	.loc 2 102 192
	add	r3, r3, r1
	.loc 2 102 239
	add	r3, r3, r2
	ldr	r3, [r3]
	.loc 2 102 254
	bic	r2, r3, #16711680
	bic	r2, r2, #65280
	.loc 2 102 320
	ldr	r3, [r7, #4]
	lsls	r3, r3, #8
	.loc 2 102 328
	bic	r3, r3, #-16777216
	bic	r3, r3, #255
	.loc 2 102 117
	ldr	r1, [r7, #8]
	lsls	r0, r1, #2
	.loc 2 102 58
	ldr	r1, .L21+4
	ldr	r1, [r1]
	ldr	r1, [r1, #8]
	.loc 2 102 92
	ldr	r4, .L21+4
	ldr	r4, [r4]
	ldrh	r4, [r4, #124]
	.loc 2 102 70
	add	r1, r1, r4
	.loc 2 102 117
	add	r1, r1, r0
	.loc 2 102 285
	orrs	r3, r3, r2
	.loc 2 102 131
	str	r3, [r1]
	.loc 2 103 239
	ldr	r3, [r7, #8]
	lsls	r2, r3, #2
	.loc 2 103 180
	ldr	r3, .L21+4
	ldr	r3, [r3]
	ldr	r3, [r3, #8]
	.loc 2 103 214
	ldr	r1, .L21+4
	ldr	r1, [r1]
	ldrh	r1, [r1, #124]
	.loc 2 103 192
	add	r3, r3, r1
	.loc 2 103 239
	add	r3, r3, r2
	ldr	r3, [r3]
	.loc 2 103 254
	bic	r2, r3, #248
	.loc 2 103 317
	ldr	r3, [r7]
	lsls	r3, r3, #3
	.loc 2 103 325
	uxtb	r3, r3
	.loc 2 103 117
	ldr	r1, [r7, #8]
	lsls	r0, r1, #2
	.loc 2 103 58
	ldr	r1, .L21+4
	ldr	r1, [r1]
	ldr	r1, [r1, #8]
	.loc 2 103 92
	ldr	r4, .L21+4
	ldr	r4, [r4]
	ldrh	r4, [r4, #124]
	.loc 2 103 70
	add	r1, r1, r4
	.loc 2 103 117
	add	r1, r1, r0
	.loc 2 103 281
	orrs	r3, r3, r2
	.loc 2 103 131
	str	r3, [r1]
	.loc 2 104 20
	movs	r3, #0
	str	r3, [r7, #20]
	b	.L19
.L18:
	.loc 2 107 13
	ldrb	r3, [r7, #15]	@ zero_extendqisi2
	cmp	r3, #3
	bne	.L19
	.loc 2 109 12
	ldr	r3, [r7, #8]
	cmp	r3, #0
	bne	.L19
	.loc 2 109 31 discriminator 1
	ldr	r3, [r7, #4]
	cmp	r3, #16777216
	bcs	.L19
	.loc 2 110 56
	ldr	r3, [r7]
	cmp	r3, #31
	bhi	.L19
	.loc 2 113 239
	ldr	r3, [r7, #8]
	lsls	r2, r3, #2
	.loc 2 113 180
	ldr	r3, .L21+4
	ldr	r3, [r3]
	ldr	r3, [r3, #8]
	.loc 2 113 214
	ldr	r1, .L21+4
	ldr	r1, [r1]
	ldrh	r1, [r1, #126]
	.loc 2 113 192
	add	r3, r3, r1
	.loc 2 113 239
	add	r3, r3, r2
	ldr	r3, [r3]
	.loc 2 113 254
	uxtb	r2, r3
	.loc 2 113 330
	ldr	r3, [r7, #4]
	lsls	r3, r3, #8
	.loc 2 113 117
	ldr	r1, [r7, #8]
	lsls	r0, r1, #2
	.loc 2 113 58
	ldr	r1, .L21+4
	ldr	r1, [r1]
	ldr	r1, [r1, #8]
	.loc 2 113 92
	ldr	r4, .L21+4
	ldr	r4, [r4]
	ldrh	r4, [r4, #126]
	.loc 2 113 70
	add	r1, r1, r4
	.loc 2 113 117
	add	r1, r1, r0
	.loc 2 113 287
	orrs	r3, r3, r2
	.loc 2 113 131
	str	r3, [r1]
	.loc 2 114 239
	ldr	r3, [r7, #8]
	lsls	r2, r3, #2
	.loc 2 114 180
	ldr	r3, .L21+4
	ldr	r3, [r3]
	ldr	r3, [r3, #8]
	.loc 2 114 214
	ldr	r1, .L21+4
	ldr	r1, [r1]
	ldrh	r1, [r1, #126]
	.loc 2 114 192
	add	r3, r3, r1
	.loc 2 114 239
	add	r3, r3, r2
	ldr	r3, [r3]
	.loc 2 114 254
	bic	r2, r3, #248
	.loc 2 114 317
	ldr	r3, [r7]
	lsls	r3, r3, #3
	.loc 2 114 325
	uxtb	r3, r3
	.loc 2 114 117
	ldr	r1, [r7, #8]
	lsls	r0, r1, #2
	.loc 2 114 58
	ldr	r1, .L21+4
	ldr	r1, [r1]
	ldr	r1, [r1, #8]
	.loc 2 114 92
	ldr	r4, .L21+4
	ldr	r4, [r4]
	ldrh	r4, [r4, #126]
	.loc 2 114 70
	add	r1, r1, r4
	.loc 2 114 117
	add	r1, r1, r0
	.loc 2 114 281
	orrs	r3, r3, r2
	.loc 2 114 131
	str	r3, [r1]
	.loc 2 115 20
	movs	r3, #0
	str	r3, [r7, #20]
.L19:
	.loc 2 121 12
	ldr	r3, [r7, #20]
	.loc 2 122 1
	mov	r0, r3
	adds	r7, r7, #24
.LCFI18:
	.cfi_def_cfa_offset 8
	mov	sp, r7
.LCFI19:
	.cfi_def_cfa_register 13
	@ sp needed
	pop	{r4, r7}
.LCFI20:
	.cfi_restore 7
	.cfi_restore 4
	.cfi_def_cfa_offset 0
	bx	lr
.L22:
	.align	2
.L21:
	.word	4849665
	.word	cy_device
	.cfi_endproc
.LFE139:
	.size	Cy_SysClk_PeriphSetFracDivider, .-Cy_SysClk_PeriphSetFracDivider
	.section	.text.Cy_SysClk_PeriphGetFracDivider,"ax",%progbits
	.align	1
	.global	Cy_SysClk_PeriphGetFracDivider
	.syntax unified
	.thumb
	.thumb_func
	.type	Cy_SysClk_PeriphGetFracDivider, %function
Cy_SysClk_PeriphGetFracDivider:
.LFB140:
	.loc 2 127 1
	.cfi_startproc
	@ args = 0, pretend = 0, frame = 16
	@ frame_needed = 1, uses_anonymous_args = 0
	push	{r7, lr}
.LCFI21:
	.cfi_def_cfa_offset 8
	.cfi_offset 7, -8
	.cfi_offset 14, -4
	sub	sp, sp, #16
.LCFI22:
	.cfi_def_cfa_offset 24
	add	r7, sp, #0
.LCFI23:
	.cfi_def_cfa_register 7
	str	r1, [r7, #8]
	str	r2, [r7, #4]
	str	r3, [r7]
	mov	r3, r0
	strb	r3, [r7, #15]
	.loc 2 128 12
	ldrb	r3, [r7, #15]	@ zero_extendqisi2
	cmp	r3, #2
	beq	.L24
	.loc 2 128 56 discriminator 1
	ldrb	r3, [r7, #15]	@ zero_extendqisi2
	cmp	r3, #3
	bne	.L25
.L24:
	.loc 2 128 100 discriminator 4
	ldr	r3, [r7, #4]
	cmp	r3, #0
	beq	.L25
	.loc 2 128 13 discriminator 6
	ldr	r3, [r7]
	cmp	r3, #0
	bne	.L26
.L25:
	.loc 2 128 10 discriminator 7
	bl	CY_HALT
.L26:
	.loc 2 131 8
	ldrb	r3, [r7, #15]	@ zero_extendqisi2
	cmp	r3, #2
	bne	.L27
	.loc 2 133 16
	ldr	r3, [r7, #8]
	cmp	r3, #3
	bls	.L28
	.loc 2 133 39 discriminator 1
	bl	CY_HALT
.L28:
	.loc 2 134 143
	ldr	r3, [r7, #8]
	lsls	r2, r3, #2
	.loc 2 134 84
	ldr	r3, .L32
	ldr	r3, [r3]
	ldr	r3, [r3, #8]
	.loc 2 134 118
	ldr	r1, .L32
	ldr	r1, [r1]
	ldrh	r1, [r1, #124]
	.loc 2 134 96
	add	r3, r3, r1
	.loc 2 134 143
	add	r3, r3, r2
	.loc 2 134 30
	ldr	r3, [r3]
	.loc 2 134 171
	lsrs	r3, r3, #8
	uxth	r2, r3
	.loc 2 134 26
	ldr	r3, [r7, #4]
	str	r2, [r3]
	.loc 2 135 144
	ldr	r3, [r7, #8]
	lsls	r2, r3, #2
	.loc 2 135 85
	ldr	r3, .L32
	ldr	r3, [r3]
	ldr	r3, [r3, #8]
	.loc 2 135 119
	ldr	r1, .L32
	ldr	r1, [r1]
	ldrh	r1, [r1, #124]
	.loc 2 135 97
	add	r3, r3, r1
	.loc 2 135 144
	add	r3, r3, r2
	.loc 2 135 31
	ldr	r3, [r3]
	.loc 2 135 168
	lsrs	r3, r3, #3
	and	r2, r3, #31
	.loc 2 135 27
	ldr	r3, [r7]
	str	r2, [r3]
	.loc 2 143 1
	b	.L31
.L27:
	.loc 2 139 16
	ldr	r3, [r7, #8]
	cmp	r3, #0
	beq	.L30
	.loc 2 139 39 discriminator 1
	bl	CY_HALT
.L30:
	.loc 2 140 143
	ldr	r3, [r7, #8]
	lsls	r2, r3, #2
	.loc 2 140 84
	ldr	r3, .L32
	ldr	r3, [r3]
	ldr	r3, [r3, #8]
	.loc 2 140 118
	ldr	r1, .L32
	ldr	r1, [r1]
	ldrh	r1, [r1, #126]
	.loc 2 140 96
	add	r3, r3, r1
	.loc 2 140 143
	add	r3, r3, r2
	.loc 2 140 30
	ldr	r3, [r3]
	.loc 2 140 173
	lsrs	r3, r3, #8
	bic	r2, r3, #-16777216
	.loc 2 140 26
	ldr	r3, [r7, #4]
	str	r2, [r3]
	.loc 2 141 144
	ldr	r3, [r7, #8]
	lsls	r2, r3, #2
	.loc 2 141 85
	ldr	r3, .L32
	ldr	r3, [r3]
	ldr	r3, [r3, #8]
	.loc 2 141 119
	ldr	r1, .L32
	ldr	r1, [r1]
	ldrh	r1, [r1, #126]
	.loc 2 141 97
	add	r3, r3, r1
	.loc 2 141 144
	add	r3, r3, r2
	.loc 2 141 31
	ldr	r3, [r3]
	.loc 2 141 168
	lsrs	r3, r3, #3
	and	r2, r3, #31
	.loc 2 141 27
	ldr	r3, [r7]
	str	r2, [r3]
.L31:
	.loc 2 143 1
	nop
	adds	r7, r7, #16
.LCFI24:
	.cfi_def_cfa_offset 8
	mov	sp, r7
.LCFI25:
	.cfi_def_cfa_register 13
	@ sp needed
	pop	{r7, pc}
.L33:
	.align	2
.L32:
	.word	cy_device
	.cfi_endproc
.LFE140:
	.size	Cy_SysClk_PeriphGetFracDivider, .-Cy_SysClk_PeriphGetFracDivider
	.section	.text.Cy_SysClk_PeriphAssignDivider,"ax",%progbits
	.align	1
	.global	Cy_SysClk_PeriphAssignDivider
	.syntax unified
	.thumb
	.thumb_func
	.type	Cy_SysClk_PeriphAssignDivider, %function
Cy_SysClk_PeriphAssignDivider:
.LFB141:
	.loc 2 149 1
	.cfi_startproc
	@ args = 0, pretend = 0, frame = 16
	@ frame_needed = 1, uses_anonymous_args = 0
	@ link register save eliminated.
	push	{r7}
.LCFI26:
	.cfi_def_cfa_offset 4
	.cfi_offset 7, -4
	sub	sp, sp, #20
.LCFI27:
	.cfi_def_cfa_offset 24
	add	r7, sp, #0
.LCFI28:
	.cfi_def_cfa_register 7
	mov	r3, r0
	str	r2, [r7]
	strb	r3, [r7, #7]
	mov	r3, r1
	strb	r3, [r7, #6]
	.loc 2 150 27
	ldr	r3, .L41
	str	r3, [r7, #12]
	.loc 2 151 31
	ldr	r3, .L41+4
	ldr	r3, [r3]
	ldrb	r3, [r3, #66]	@ zero_extendqisi2
	.loc 2 151 8
	ldrb	r2, [r7, #7]	@ zero_extendqisi2
	cmp	r2, r3
	bcs	.L35
	.loc 2 151 68 discriminator 1
	ldrb	r3, [r7, #6]	@ zero_extendqisi2
	cmp	r3, #3
	bhi	.L35
	.loc 2 153 12
	ldrb	r3, [r7, #6]	@ zero_extendqisi2
	cmp	r3, #0
	bne	.L36
	.loc 2 153 51 discriminator 1
	ldr	r3, [r7]
	cmp	r3, #7
	bls	.L37
.L36:
	.loc 2 153 73 discriminator 3
	ldrb	r3, [r7, #6]	@ zero_extendqisi2
	cmp	r3, #1
	bne	.L38
	.loc 2 154 52
	ldr	r3, [r7]
	cmp	r3, #15
	bls	.L37
.L38:
	.loc 2 154 75 discriminator 1
	ldrb	r3, [r7, #6]	@ zero_extendqisi2
	cmp	r3, #2
	bne	.L39
	.loc 2 155 54
	ldr	r3, [r7]
	cmp	r3, #3
	bls	.L37
.L39:
	.loc 2 155 76 discriminator 1
	ldrb	r3, [r7, #6]	@ zero_extendqisi2
	cmp	r3, #3
	bne	.L35
	.loc 2 156 54
	ldr	r3, [r7]
	cmp	r3, #0
	bne	.L35
.L37:
	.loc 2 158 80
	ldrb	r3, [r7, #6]	@ zero_extendqisi2
	.loc 2 158 129
	ldr	r2, .L41+4
	ldr	r2, [r2]
	ldrb	r2, [r2, #117]	@ zero_extendqisi2
	.loc 2 158 104
	lsl	r2, r3, r2
	.loc 2 158 201
	ldr	r3, .L41+4
	ldr	r3, [r3]
	ldrb	r3, [r3, #117]	@ zero_extendqisi2
	.loc 2 158 181
	mov	r1, r3
	.loc 2 158 160
	movs	r3, #3
	lsls	r3, r3, r1
	.loc 2 158 156
	and	r1, r2, r3
	.loc 2 159 98
	ldr	r3, .L41+4
	ldr	r3, [r3]
	ldrb	r3, [r3, #116]	@ zero_extendqisi2
	.loc 2 159 78
	mov	r2, r3
	.loc 2 159 74
	ldr	r3, [r7]
	ands	r2, r2, r3
	.loc 2 158 42
	ldr	r3, .L41+4
	ldr	r3, [r3]
	ldr	r3, [r3, #8]
	.loc 2 158 16
	mov	r0, r3
	.loc 2 158 66
	ldrb	r3, [r7, #7]	@ zero_extendqisi2
	.loc 2 158 230
	orrs	r2, r2, r1
	.loc 2 158 76
	add	r3, r3, #768
	str	r2, [r0, r3, lsl #2]
	.loc 2 160 20
	movs	r3, #0
	str	r3, [r7, #12]
.L35:
	.loc 2 163 12
	ldr	r3, [r7, #12]
	.loc 2 164 1
	mov	r0, r3
	adds	r7, r7, #20
.LCFI29:
	.cfi_def_cfa_offset 4
	mov	sp, r7
.LCFI30:
	.cfi_def_cfa_register 13
	@ sp needed
	ldr	r7, [sp], #4
.LCFI31:
	.cfi_restore 7
	.cfi_def_cfa_offset 0
	bx	lr
.L42:
	.align	2
.L41:
	.word	4849665
	.word	cy_device
	.cfi_endproc
.LFE141:
	.size	Cy_SysClk_PeriphAssignDivider, .-Cy_SysClk_PeriphAssignDivider
	.section	.text.Cy_SysClk_PeriphGetAssignedDivider,"ax",%progbits
	.align	1
	.global	Cy_SysClk_PeriphGetAssignedDivider
	.syntax unified
	.thumb
	.thumb_func
	.type	Cy_SysClk_PeriphGetAssignedDivider, %function
Cy_SysClk_PeriphGetAssignedDivider:
.LFB142:
	.loc 2 168 1
	.cfi_startproc
	@ args = 0, pretend = 0, frame = 8
	@ frame_needed = 1, uses_anonymous_args = 0
	push	{r7, lr}
.LCFI32:
	.cfi_def_cfa_offset 8
	.cfi_offset 7, -8
	.cfi_offset 14, -4
	sub	sp, sp, #8
.LCFI33:
	.cfi_def_cfa_offset 16
	add	r7, sp, #0
.LCFI34:
	.cfi_def_cfa_register 7
	mov	r3, r0
	strb	r3, [r7, #7]
	.loc 2 169 36
	ldr	r3, .L46
	ldr	r3, [r3]
	ldrb	r3, [r3, #66]	@ zero_extendqisi2
	.loc 2 169 12
	ldrb	r2, [r7, #7]	@ zero_extendqisi2
	cmp	r2, r3
	bcc	.L44
	.loc 2 169 76 discriminator 1
	bl	CY_HALT
.L44:
	.loc 2 170 42
	ldr	r3, .L46
	ldr	r3, [r3]
	ldr	r3, [r3, #8]
	.loc 2 170 16
	mov	r2, r3
	.loc 2 170 66
	ldrb	r3, [r7, #7]	@ zero_extendqisi2
	add	r3, r3, #768
	ldr	r2, [r2, r3, lsl #2]
	.loc 2 170 101
	ldr	r3, .L46
	ldr	r3, [r3]
	ldrb	r3, [r3, #116]	@ zero_extendqisi2
	.loc 2 170 81
	mov	r1, r3
	.loc 2 170 171
	ldr	r3, .L46
	ldr	r3, [r3]
	ldrb	r3, [r3, #117]	@ zero_extendqisi2
	.loc 2 170 151
	mov	r0, r3
	.loc 2 170 130
	movs	r3, #3
	lsls	r3, r3, r0
	.loc 2 170 126
	orrs	r3, r3, r1
	.loc 2 170 76
	ands	r3, r3, r2
	.loc 2 171 1
	mov	r0, r3
	adds	r7, r7, #8
.LCFI35:
	.cfi_def_cfa_offset 8
	mov	sp, r7
.LCFI36:
	.cfi_def_cfa_register 13
	@ sp needed
	pop	{r7, pc}
.L47:
	.align	2
.L46:
	.word	cy_device
	.cfi_endproc
.LFE142:
	.size	Cy_SysClk_PeriphGetAssignedDivider, .-Cy_SysClk_PeriphGetAssignedDivider
	.section	.text.Cy_SysClk_PeriphEnableDivider,"ax",%progbits
	.align	1
	.global	Cy_SysClk_PeriphEnableDivider
	.syntax unified
	.thumb
	.thumb_func
	.type	Cy_SysClk_PeriphEnableDivider, %function
Cy_SysClk_PeriphEnableDivider:
.LFB143:
	.loc 2 176 1
	.cfi_startproc
	@ args = 0, pretend = 0, frame = 16
	@ frame_needed = 1, uses_anonymous_args = 0
	@ link register save eliminated.
	push	{r7}
.LCFI37:
	.cfi_def_cfa_offset 4
	.cfi_offset 7, -4
	sub	sp, sp, #20
.LCFI38:
	.cfi_def_cfa_offset 24
	add	r7, sp, #0
.LCFI39:
	.cfi_def_cfa_register 7
	mov	r3, r0
	str	r1, [r7]
	strb	r3, [r7, #7]
	.loc 2 177 27
	ldr	r3, .L55
	str	r3, [r7, #12]
	.loc 2 178 8
	ldrb	r3, [r7, #7]	@ zero_extendqisi2
	cmp	r3, #3
	bhi	.L49
	.loc 2 180 12
	ldrb	r3, [r7, #7]	@ zero_extendqisi2
	cmp	r3, #0
	bne	.L50
	.loc 2 180 51 discriminator 1
	ldr	r3, [r7]
	cmp	r3, #7
	bls	.L51
.L50:
	.loc 2 180 73 discriminator 3
	ldrb	r3, [r7, #7]	@ zero_extendqisi2
	cmp	r3, #1
	bne	.L52
	.loc 2 181 52
	ldr	r3, [r7]
	cmp	r3, #15
	bls	.L51
.L52:
	.loc 2 181 75 discriminator 1
	ldrb	r3, [r7, #7]	@ zero_extendqisi2
	cmp	r3, #2
	bne	.L53
	.loc 2 182 54
	ldr	r3, [r7]
	cmp	r3, #3
	bls	.L51
.L53:
	.loc 2 182 76 discriminator 1
	ldrb	r3, [r7, #7]	@ zero_extendqisi2
	cmp	r3, #3
	bne	.L49
	.loc 2 183 54
	ldr	r3, [r7]
	cmp	r3, #0
	bne	.L49
.L51:
	.loc 2 187 70
	ldr	r3, .L55+4
	ldr	r3, [r3]
	ldrb	r3, [r3, #119]	@ zero_extendqisi2
	.loc 2 187 50
	mov	r2, r3
	.loc 2 187 29
	movs	r3, #3
	lsl	r2, r3, r2
	.loc 2 188 61
	ldr	r3, .L55+4
	ldr	r3, [r3]
	ldrb	r3, [r3, #116]	@ zero_extendqisi2
	.loc 2 188 41
	mov	r1, r3
	.loc 2 188 109
	ldr	r3, .L55+4
	ldr	r3, [r3]
	ldrb	r3, [r3, #118]	@ zero_extendqisi2
	.loc 2 188 29
	lsl	r3, r1, r3
	.loc 2 187 99
	orrs	r2, r2, r3
	.loc 2 189 30
	ldrb	r3, [r7, #7]	@ zero_extendqisi2
	.loc 2 189 78
	ldr	r1, .L55+4
	ldr	r1, [r1]
	ldrb	r1, [r1, #117]	@ zero_extendqisi2
	.loc 2 189 54
	lsl	r1, r3, r1
	.loc 2 189 148
	ldr	r3, .L55+4
	ldr	r3, [r3]
	ldrb	r3, [r3, #117]	@ zero_extendqisi2
	.loc 2 189 128
	mov	r0, r3
	.loc 2 189 107
	movs	r3, #3
	lsls	r3, r3, r0
	.loc 2 189 104
	ands	r3, r3, r1
	.loc 2 188 137
	orrs	r2, r2, r3
	.loc 2 190 86
	ldr	r3, .L55+4
	ldr	r3, [r3]
	ldrb	r3, [r3, #116]	@ zero_extendqisi2
	.loc 2 190 66
	mov	r1, r3
	.loc 2 190 63
	ldr	r3, [r7]
	ands	r3, r3, r1
	.loc 2 189 176
	orrs	r3, r3, r2
	.loc 2 186 42
	ldr	r2, .L55+4
	ldr	r2, [r2]
	ldr	r2, [r2, #8]
	.loc 2 189 176
	orr	r3, r3, #-2147483648
	.loc 2 186 65
	str	r3, [r2, #1024]
	.loc 2 191 48
	ldr	r3, .L55+4
	ldr	r3, [r3]
	ldr	r3, [r3, #8]
	.loc 2 191 13
	ldr	r3, [r3, #1024]
	.loc 2 192 20
	movs	r3, #0
	str	r3, [r7, #12]
.L49:
	.loc 2 195 12
	ldr	r3, [r7, #12]
	.loc 2 196 1
	mov	r0, r3
	adds	r7, r7, #20
.LCFI40:
	.cfi_def_cfa_offset 4
	mov	sp, r7
.LCFI41:
	.cfi_def_cfa_register 13
	@ sp needed
	ldr	r7, [sp], #4
.LCFI42:
	.cfi_restore 7
	.cfi_def_cfa_offset 0
	bx	lr
.L56:
	.align	2
.L55:
	.word	4849665
	.word	cy_device
	.cfi_endproc
.LFE143:
	.size	Cy_SysClk_PeriphEnableDivider, .-Cy_SysClk_PeriphEnableDivider
	.section	.text.Cy_SysClk_PeriphDisableDivider,"ax",%progbits
	.align	1
	.global	Cy_SysClk_PeriphDisableDivider
	.syntax unified
	.thumb
	.thumb_func
	.type	Cy_SysClk_PeriphDisableDivider, %function
Cy_SysClk_PeriphDisableDivider:
.LFB144:
	.loc 2 201 1
	.cfi_startproc
	@ args = 0, pretend = 0, frame = 16
	@ frame_needed = 1, uses_anonymous_args = 0
	@ link register save eliminated.
	push	{r7}
.LCFI43:
	.cfi_def_cfa_offset 4
	.cfi_offset 7, -4
	sub	sp, sp, #20
.LCFI44:
	.cfi_def_cfa_offset 24
	add	r7, sp, #0
.LCFI45:
	.cfi_def_cfa_register 7
	mov	r3, r0
	str	r1, [r7]
	strb	r3, [r7, #7]
	.loc 2 202 27
	ldr	r3, .L64
	str	r3, [r7, #12]
	.loc 2 203 8
	ldrb	r3, [r7, #7]	@ zero_extendqisi2
	cmp	r3, #3
	bhi	.L58
	.loc 2 205 12
	ldrb	r3, [r7, #7]	@ zero_extendqisi2
	cmp	r3, #0
	bne	.L59
	.loc 2 205 51 discriminator 1
	ldr	r3, [r7]
	cmp	r3, #7
	bls	.L60
.L59:
	.loc 2 205 73 discriminator 3
	ldrb	r3, [r7, #7]	@ zero_extendqisi2
	cmp	r3, #1
	bne	.L61
	.loc 2 206 52
	ldr	r3, [r7]
	cmp	r3, #15
	bls	.L60
.L61:
	.loc 2 206 75 discriminator 1
	ldrb	r3, [r7, #7]	@ zero_extendqisi2
	cmp	r3, #2
	bne	.L62
	.loc 2 207 54
	ldr	r3, [r7]
	cmp	r3, #3
	bls	.L60
.L62:
	.loc 2 207 76 discriminator 1
	ldrb	r3, [r7, #7]	@ zero_extendqisi2
	cmp	r3, #3
	bne	.L58
	.loc 2 208 54
	ldr	r3, [r7]
	cmp	r3, #0
	bne	.L58
.L60:
	.loc 2 212 16
	ldrb	r3, [r7, #7]	@ zero_extendqisi2
	.loc 2 212 64
	ldr	r2, .L64+4
	ldr	r2, [r2]
	ldrb	r2, [r2, #117]	@ zero_extendqisi2
	.loc 2 212 40
	lsl	r2, r3, r2
	.loc 2 212 134
	ldr	r3, .L64+4
	ldr	r3, [r3]
	ldrb	r3, [r3, #117]	@ zero_extendqisi2
	.loc 2 212 114
	mov	r1, r3
	.loc 2 212 93
	movs	r3, #3
	lsls	r3, r3, r1
	.loc 2 212 90
	ands	r2, r2, r3
	.loc 2 213 72
	ldr	r3, .L64+4
	ldr	r3, [r3]
	ldrb	r3, [r3, #116]	@ zero_extendqisi2
	.loc 2 213 52
	mov	r1, r3
	.loc 2 213 49
	ldr	r3, [r7]
	ands	r3, r3, r1
	.loc 2 212 162
	orrs	r3, r3, r2
	.loc 2 211 42
	ldr	r2, .L64+4
	ldr	r2, [r2]
	ldr	r2, [r2, #8]
	.loc 2 212 162
	orr	r3, r3, #1073741824
	.loc 2 211 65
	str	r3, [r2, #1024]
	.loc 2 214 20
	movs	r3, #0
	str	r3, [r7, #12]
.L58:
	.loc 2 217 12
	ldr	r3, [r7, #12]
	.loc 2 218 1
	mov	r0, r3
	adds	r7, r7, #20
.LCFI46:
	.cfi_def_cfa_offset 4
	mov	sp, r7
.LCFI47:
	.cfi_def_cfa_register 13
	@ sp needed
	ldr	r7, [sp], #4
.LCFI48:
	.cfi_restore 7
	.cfi_def_cfa_offset 0
	bx	lr
.L65:
	.align	2
.L64:
	.word	4849665
	.word	cy_device
	.cfi_endproc
.LFE144:
	.size	Cy_SysClk_PeriphDisableDivider, .-Cy_SysClk_PeriphDisableDivider
	.section	.text.Cy_SysClk_PeriphEnablePhaseAlignDivider,"ax",%progbits
	.align	1
	.global	Cy_SysClk_PeriphEnablePhaseAlignDivider
	.syntax unified
	.thumb
	.thumb_func
	.type	Cy_SysClk_PeriphEnablePhaseAlignDivider, %function
Cy_SysClk_PeriphEnablePhaseAlignDivider:
.LFB145:
	.loc 2 224 1
	.cfi_startproc
	@ args = 0, pretend = 0, frame = 24
	@ frame_needed = 1, uses_anonymous_args = 0
	push	{r7, lr}
.LCFI49:
	.cfi_def_cfa_offset 8
	.cfi_offset 7, -8
	.cfi_offset 14, -4
	sub	sp, sp, #24
.LCFI50:
	.cfi_def_cfa_offset 32
	add	r7, sp, #0
.LCFI51:
	.cfi_def_cfa_register 7
	str	r1, [r7, #8]
	str	r3, [r7, #4]
	mov	r3, r0
	strb	r3, [r7, #15]
	mov	r3, r2
	strb	r3, [r7, #14]
	.loc 2 225 27
	ldr	r3, .L73
	str	r3, [r7, #20]
	.loc 2 226 8
	ldrb	r3, [r7, #14]	@ zero_extendqisi2
	cmp	r3, #3
	bhi	.L67
	.loc 2 228 12
	ldrb	r3, [r7, #14]	@ zero_extendqisi2
	cmp	r3, #0
	bne	.L68
	.loc 2 228 53 discriminator 1
	ldr	r3, [r7, #4]
	cmp	r3, #7
	bls	.L69
.L68:
	.loc 2 228 77 discriminator 3
	ldrb	r3, [r7, #14]	@ zero_extendqisi2
	cmp	r3, #1
	bne	.L70
	.loc 2 229 54
	ldr	r3, [r7, #4]
	cmp	r3, #15
	bls	.L69
.L70:
	.loc 2 229 79 discriminator 1
	ldrb	r3, [r7, #14]	@ zero_extendqisi2
	cmp	r3, #2
	bne	.L71
	.loc 2 230 56
	ldr	r3, [r7, #4]
	cmp	r3, #3
	bls	.L69
.L71:
	.loc 2 230 80 discriminator 1
	ldrb	r3, [r7, #14]	@ zero_extendqisi2
	cmp	r3, #3
	bne	.L67
	.loc 2 231 56
	ldr	r3, [r7, #4]
	cmp	r3, #0
	beq	.L69
	.loc 2 231 80 discriminator 1
	ldr	r3, [r7, #4]
	cmp	r3, #63
	bne	.L67
.L69:
	.loc 2 236 22
	ldrb	r3, [r7, #15]	@ zero_extendqisi2
	ldr	r1, [r7, #8]
	mov	r0, r3
	bl	Cy_SysClk_PeriphDisableDivider
	str	r0, [r7, #20]
	.loc 2 237 16
	ldr	r3, [r7, #20]
	cmp	r3, #0
	bne	.L67
	.loc 2 241 20
	ldrb	r3, [r7, #14]	@ zero_extendqisi2
	.loc 2 241 70
	ldr	r2, .L73+4
	ldr	r2, [r2]
	ldrb	r2, [r2, #119]	@ zero_extendqisi2
	.loc 2 241 46
	lsl	r2, r3, r2
	.loc 2 241 142
	ldr	r3, .L73+4
	ldr	r3, [r3]
	ldrb	r3, [r3, #119]	@ zero_extendqisi2
	.loc 2 241 122
	mov	r1, r3
	.loc 2 241 101
	movs	r3, #3
	lsls	r3, r3, r1
	.loc 2 241 98
	ands	r2, r2, r3
	.loc 2 242 69
	ldr	r3, .L73+4
	ldr	r3, [r3]
	ldrb	r3, [r3, #118]	@ zero_extendqisi2
	.loc 2 242 49
	mov	r1, r3
	.loc 2 242 45
	ldr	r3, [r7, #4]
	lsl	r1, r3, r1
	.loc 2 242 131
	ldr	r3, .L73+4
	ldr	r3, [r3]
	ldrb	r3, [r3, #116]	@ zero_extendqisi2
	.loc 2 242 111
	mov	r0, r3
	.loc 2 242 179
	ldr	r3, .L73+4
	ldr	r3, [r3]
	ldrb	r3, [r3, #118]	@ zero_extendqisi2
	.loc 2 242 99
	lsl	r3, r0, r3
	.loc 2 242 96
	ands	r3, r3, r1
	.loc 2 241 172
	orrs	r2, r2, r3
	.loc 2 243 20
	ldrb	r3, [r7, #15]	@ zero_extendqisi2
	.loc 2 243 68
	ldr	r1, .L73+4
	ldr	r1, [r1]
	ldrb	r1, [r1, #117]	@ zero_extendqisi2
	.loc 2 243 44
	lsl	r1, r3, r1
	.loc 2 243 138
	ldr	r3, .L73+4
	ldr	r3, [r3]
	ldrb	r3, [r3, #117]	@ zero_extendqisi2
	.loc 2 243 118
	mov	r0, r3
	.loc 2 243 97
	movs	r3, #3
	lsls	r3, r3, r0
	.loc 2 243 94
	ands	r3, r3, r1
	.loc 2 242 208
	orrs	r2, r2, r3
	.loc 2 244 76
	ldr	r3, .L73+4
	ldr	r3, [r3]
	ldrb	r3, [r3, #116]	@ zero_extendqisi2
	.loc 2 244 56
	mov	r1, r3
	.loc 2 244 53
	ldr	r3, [r7, #8]
	ands	r3, r3, r1
	.loc 2 243 166
	orrs	r3, r3, r2
	.loc 2 240 46
	ldr	r2, .L73+4
	ldr	r2, [r2]
	ldr	r2, [r2, #8]
	.loc 2 243 166
	orr	r3, r3, #-2147483648
	.loc 2 240 69
	str	r3, [r2, #1024]
.L67:
	.loc 2 248 12
	ldr	r3, [r7, #20]
	.loc 2 249 1
	mov	r0, r3
	adds	r7, r7, #24
.LCFI52:
	.cfi_def_cfa_offset 8
	mov	sp, r7
.LCFI53:
	.cfi_def_cfa_register 13
	@ sp needed
	pop	{r7, pc}
.L74:
	.align	2
.L73:
	.word	4849665
	.word	cy_device
	.cfi_endproc
.LFE145:
	.size	Cy_SysClk_PeriphEnablePhaseAlignDivider, .-Cy_SysClk_PeriphEnablePhaseAlignDivider
	.section	.text.Cy_SysClk_PeriphGetDividerEnabled,"ax",%progbits
	.align	1
	.global	Cy_SysClk_PeriphGetDividerEnabled
	.syntax unified
	.thumb
	.thumb_func
	.type	Cy_SysClk_PeriphGetDividerEnabled, %function
Cy_SysClk_PeriphGetDividerEnabled:
.LFB146:
	.loc 2 253 1
	.cfi_startproc
	@ args = 0, pretend = 0, frame = 16
	@ frame_needed = 1, uses_anonymous_args = 0
	push	{r7, lr}
.LCFI54:
	.cfi_def_cfa_offset 8
	.cfi_offset 7, -8
	.cfi_offset 14, -4
	sub	sp, sp, #16
.LCFI55:
	.cfi_def_cfa_offset 24
	add	r7, sp, #0
.LCFI56:
	.cfi_def_cfa_register 7
	mov	r3, r0
	str	r1, [r7]
	strb	r3, [r7, #7]
	.loc 2 254 9
	movs	r3, #0
	strb	r3, [r7, #15]
	.loc 2 256 12
	ldrb	r3, [r7, #7]	@ zero_extendqisi2
	cmp	r3, #0
	bne	.L76
	.loc 2 256 53 discriminator 2
	ldr	r3, [r7]
	cmp	r3, #7
	bls	.L77
.L76:
	.loc 2 256 75 discriminator 3
	ldrb	r3, [r7, #7]	@ zero_extendqisi2
	cmp	r3, #1
	bne	.L78
	.loc 2 256 117 discriminator 5
	ldr	r3, [r7]
	cmp	r3, #15
	bls	.L77
.L78:
	.loc 2 256 140 discriminator 6
	ldrb	r3, [r7, #7]	@ zero_extendqisi2
	cmp	r3, #2
	bne	.L79
	.loc 2 256 184 discriminator 8
	ldr	r3, [r7]
	cmp	r3, #3
	bls	.L77
.L79:
	.loc 2 256 13 discriminator 9
	ldrb	r3, [r7, #7]	@ zero_extendqisi2
	cmp	r3, #3
	bne	.L80
	.loc 2 256 250 discriminator 11
	ldr	r3, [r7]
	cmp	r3, #0
	beq	.L77
.L80:
	.loc 2 256 276 discriminator 12
	bl	CY_HALT
.L77:
	.loc 2 261 5
	ldrb	r3, [r7, #7]	@ zero_extendqisi2
	cmp	r3, #3
	bhi	.L89
	adr	r2, .L83
	ldr	pc, [r2, r3, lsl #2]
	.p2align 2
.L83:
	.word	.L86+1
	.word	.L85+1
	.word	.L84+1
	.word	.L82+1
	.p2align 1
.L86:
	.loc 2 264 124
	ldr	r3, [r7]
	lsls	r2, r3, #2
	.loc 2 264 68
	ldr	r3, .L90
	ldr	r3, [r3]
	ldr	r3, [r3, #8]
	.loc 2 264 102
	ldr	r1, .L90
	ldr	r1, [r1]
	ldrh	r1, [r1, #120]
	.loc 2 264 80
	add	r3, r3, r1
	.loc 2 264 124
	add	r3, r3, r2
	ldr	r3, [r3]
	.loc 2 264 138
	and	r3, r3, #1
	.loc 2 264 20
	cmp	r3, #0
	ite	ne
	movne	r3, #1
	moveq	r3, #0
	strb	r3, [r7, #15]
	.loc 2 265 13
	b	.L87
.L85:
	.loc 2 267 125
	ldr	r3, [r7]
	lsls	r2, r3, #2
	.loc 2 267 68
	ldr	r3, .L90
	ldr	r3, [r3]
	ldr	r3, [r3, #8]
	.loc 2 267 102
	ldr	r1, .L90
	ldr	r1, [r1]
	ldrh	r1, [r1, #122]
	.loc 2 267 80
	add	r3, r3, r1
	.loc 2 267 125
	add	r3, r3, r2
	ldr	r3, [r3]
	.loc 2 267 139
	and	r3, r3, #1
	.loc 2 267 20
	cmp	r3, #0
	ite	ne
	movne	r3, #1
	moveq	r3, #0
	strb	r3, [r7, #15]
	.loc 2 268 13
	b	.L87
.L84:
	.loc 2 270 127
	ldr	r3, [r7]
	lsls	r2, r3, #2
	.loc 2 270 68
	ldr	r3, .L90
	ldr	r3, [r3]
	ldr	r3, [r3, #8]
	.loc 2 270 102
	ldr	r1, .L90
	ldr	r1, [r1]
	ldrh	r1, [r1, #124]
	.loc 2 270 80
	add	r3, r3, r1
	.loc 2 270 127
	add	r3, r3, r2
	ldr	r3, [r3]
	.loc 2 270 141
	and	r3, r3, #1
	.loc 2 270 20
	cmp	r3, #0
	ite	ne
	movne	r3, #1
	moveq	r3, #0
	strb	r3, [r7, #15]
	.loc 2 271 13
	b	.L87
.L82:
	.loc 2 273 127
	ldr	r3, [r7]
	lsls	r2, r3, #2
	.loc 2 273 68
	ldr	r3, .L90
	ldr	r3, [r3]
	ldr	r3, [r3, #8]
	.loc 2 273 102
	ldr	r1, .L90
	ldr	r1, [r1]
	ldrh	r1, [r1, #126]
	.loc 2 273 80
	add	r3, r3, r1
	.loc 2 273 127
	add	r3, r3, r2
	ldr	r3, [r3]
	.loc 2 273 141
	and	r3, r3, #1
	.loc 2 273 20
	cmp	r3, #0
	ite	ne
	movne	r3, #1
	moveq	r3, #0
	strb	r3, [r7, #15]
	.loc 2 274 13
	b	.L87
.L89:
	.loc 2 277 13
	nop
.L87:
	.loc 2 279 12
	ldrb	r3, [r7, #15]	@ zero_extendqisi2
	.loc 2 280 1
	mov	r0, r3
	adds	r7, r7, #16
.LCFI57:
	.cfi_def_cfa_offset 8
	mov	sp, r7
.LCFI58:
	.cfi_def_cfa_register 13
	@ sp needed
	pop	{r7, pc}
.L91:
	.align	2
.L90:
	.word	cy_device
	.cfi_endproc
.LFE146:
	.size	Cy_SysClk_PeriphGetDividerEnabled, .-Cy_SysClk_PeriphGetDividerEnabled
	.section	.text.Cy_SysClk_ClkSlowGetFrequency,"ax",%progbits
	.align	1
	.global	Cy_SysClk_ClkSlowGetFrequency
	.syntax unified
	.thumb
	.thumb_func
	.type	Cy_SysClk_ClkSlowGetFrequency, %function
Cy_SysClk_ClkSlowGetFrequency:
.LFB147:
	.loc 2 289 1
	.cfi_startproc
	@ args = 0, pretend = 0, frame = 8
	@ frame_needed = 1, uses_anonymous_args = 0
	push	{r7, lr}
.LCFI59:
	.cfi_def_cfa_offset 8
	.cfi_offset 7, -8
	.cfi_offset 14, -4
	sub	sp, sp, #8
.LCFI60:
	.cfi_def_cfa_offset 16
	add	r7, sp, #0
.LCFI61:
	.cfi_def_cfa_register 7
	.loc 2 290 24
	bl	Cy_SysClk_ClkPeriGetFrequency
	str	r0, [r7, #4]
	.loc 2 291 39
	bl	Cy_SysClk_ClkSlowGetDivider
	mov	r3, r0
	.loc 2 291 14
	adds	r3, r3, #1
	str	r3, [r7]
	.loc 2 294 37
	ldr	r3, [r7]
	lsrs	r2, r3, #1
	.loc 2 294 25
	ldr	r3, [r7, #4]
	add	r2, r2, r3
	.loc 2 294 44
	ldr	r3, [r7]
	udiv	r3, r2, r3
	.loc 2 295 1
	mov	r0, r3
	adds	r7, r7, #8
.LCFI62:
	.cfi_def_cfa_offset 8
	mov	sp, r7
.LCFI63:
	.cfi_def_cfa_register 13
	@ sp needed
	pop	{r7, pc}
	.cfi_endproc
.LFE147:
	.size	Cy_SysClk_ClkSlowGetFrequency, .-Cy_SysClk_ClkSlowGetFrequency
	.section	.text.Cy_SysClk_ClkSlowSetDivider,"ax",%progbits
	.align	1
	.global	Cy_SysClk_ClkSlowSetDivider
	.syntax unified
	.thumb
	.thumb_func
	.type	Cy_SysClk_ClkSlowSetDivider, %function
Cy_SysClk_ClkSlowSetDivider:
.LFB148:
	.loc 2 299 1
	.cfi_startproc
	@ args = 0, pretend = 0, frame = 8
	@ frame_needed = 1, uses_anonymous_args = 0
	@ link register save eliminated.
	push	{r7}
.LCFI64:
	.cfi_def_cfa_offset 4
	.cfi_offset 7, -4
	sub	sp, sp, #12
.LCFI65:
	.cfi_def_cfa_offset 16
	add	r7, sp, #0
.LCFI66:
	.cfi_def_cfa_register 7
	mov	r3, r0
	strb	r3, [r7, #7]
	.loc 2 304 132
	ldr	r3, .L95
	ldr	r3, [r3]
	ldr	r2, [r3]
	.loc 2 304 155
	ldr	r3, .L95
	ldr	r3, [r3]
	ldr	r3, [r3, #136]
	.loc 2 304 144
	add	r3, r3, r2
	.loc 2 304 99
	ldr	r3, [r3]
	.loc 2 304 184
	bic	r2, r3, #65280
	.loc 2 304 218
	ldrb	r3, [r7, #7]	@ zero_extendqisi2
	.loc 2 304 240
	lsls	r3, r3, #8
	.loc 2 304 248
	uxth	r3, r3
	.loc 2 304 41
	ldr	r1, .L95
	ldr	r1, [r1]
	ldr	r0, [r1]
	.loc 2 304 64
	ldr	r1, .L95
	ldr	r1, [r1]
	ldr	r1, [r1, #136]
	.loc 2 304 53
	add	r1, r1, r0
	.loc 2 304 213
	orrs	r3, r3, r2
	.loc 2 304 92
	str	r3, [r1]
	.loc 2 306 1
	nop
	adds	r7, r7, #12
.LCFI67:
	.cfi_def_cfa_offset 4
	mov	sp, r7
.LCFI68:
	.cfi_def_cfa_register 13
	@ sp needed
	ldr	r7, [sp], #4
.LCFI69:
	.cfi_restore 7
	.cfi_def_cfa_offset 0
	bx	lr
.L96:
	.align	2
.L95:
	.word	cy_device
	.cfi_endproc
.LFE148:
	.size	Cy_SysClk_ClkSlowSetDivider, .-Cy_SysClk_ClkSlowSetDivider
	.section	.text.Cy_SysClk_ClkSlowGetDivider,"ax",%progbits
	.align	1
	.global	Cy_SysClk_ClkSlowGetDivider
	.syntax unified
	.thumb
	.thumb_func
	.type	Cy_SysClk_ClkSlowGetDivider, %function
Cy_SysClk_ClkSlowGetDivider:
.LFB149:
	.loc 2 310 1
	.cfi_startproc
	@ args = 0, pretend = 0, frame = 0
	@ frame_needed = 1, uses_anonymous_args = 0
	@ link register save eliminated.
	push	{r7}
.LCFI70:
	.cfi_def_cfa_offset 4
	.cfi_offset 7, -4
	add	r7, sp, #0
.LCFI71:
	.cfi_def_cfa_register 7
	.loc 2 311 69
	ldr	r3, .L99
	ldr	r3, [r3]
	ldr	r2, [r3]
	.loc 2 311 92
	ldr	r3, .L99
	ldr	r3, [r3]
	ldr	r3, [r3, #136]
	.loc 2 311 81
	add	r3, r3, r2
	.loc 2 311 24
	ldr	r3, [r3]
	.loc 2 311 132
	lsrs	r3, r3, #8
	.loc 2 311 13
	uxtb	r3, r3
	.loc 2 312 1
	mov	r0, r3
	mov	sp, r7
.LCFI72:
	.cfi_def_cfa_register 13
	@ sp needed
	ldr	r7, [sp], #4
.LCFI73:
	.cfi_restore 7
	.cfi_def_cfa_offset 0
	bx	lr
.L100:
	.align	2
.L99:
	.word	cy_device
	.cfi_endproc
.LFE149:
	.size	Cy_SysClk_ClkSlowGetDivider, .-Cy_SysClk_ClkSlowGetDivider
	.section	.text.Cy_SysClk_ClkPumpSetSource,"ax",%progbits
	.align	1
	.global	Cy_SysClk_ClkPumpSetSource
	.syntax unified
	.thumb
	.thumb_func
	.type	Cy_SysClk_ClkPumpSetSource, %function
Cy_SysClk_ClkPumpSetSource:
.LFB150:
	.loc 2 316 1
	.cfi_startproc
	@ args = 0, pretend = 0, frame = 8
	@ frame_needed = 1, uses_anonymous_args = 0
	push	{r7, lr}
.LCFI74:
	.cfi_def_cfa_offset 8
	.cfi_offset 7, -8
	.cfi_offset 14, -4
	sub	sp, sp, #8
.LCFI75:
	.cfi_def_cfa_offset 16
	add	r7, sp, #0
.LCFI76:
	.cfi_def_cfa_register 7
	mov	r3, r0
	strb	r3, [r7, #7]
	.loc 2 327 12
	ldrb	r3, [r7, #7]	@ zero_extendqisi2
	cmp	r3, #15
	bls	.L102
	.loc 2 327 57 discriminator 1
	bl	CY_HALT
.L102:
	.loc 2 328 122
	ldr	r3, .L103
	ldr	r3, [r3, #1280]
	.loc 2 328 138
	bic	r2, r3, #3840
	.loc 2 328 171
	ldrb	r3, [r7, #7]	@ zero_extendqisi2
	.loc 2 328 192
	lsls	r3, r3, #8
	.loc 2 328 200
	and	r3, r3, #3840
	.loc 2 328 54
	ldr	r1, .L103
	.loc 2 328 166
	orrs	r3, r3, r2
	.loc 2 328 69
	str	r3, [r1, #1280]
	.loc 2 330 1
	nop
	adds	r7, r7, #8
.LCFI77:
	.cfi_def_cfa_offset 8
	mov	sp, r7
.LCFI78:
	.cfi_def_cfa_register 13
	@ sp needed
	pop	{r7, pc}
.L104:
	.align	2
.L103:
	.word	1076232192
	.cfi_endproc
.LFE150:
	.size	Cy_SysClk_ClkPumpSetSource, .-Cy_SysClk_ClkPumpSetSource
	.section	.text.Cy_SysClk_ClkPumpGetSource,"ax",%progbits
	.align	1
	.global	Cy_SysClk_ClkPumpGetSource
	.syntax unified
	.thumb
	.thumb_func
	.type	Cy_SysClk_ClkPumpGetSource, %function
Cy_SysClk_ClkPumpGetSource:
.LFB151:
	.loc 2 334 1
	.cfi_startproc
	@ args = 0, pretend = 0, frame = 0
	@ frame_needed = 1, uses_anonymous_args = 0
	@ link register save eliminated.
	push	{r7}
.LCFI79:
	.cfi_def_cfa_offset 4
	.cfi_offset 7, -4
	add	r7, sp, #0
.LCFI80:
	.cfi_def_cfa_register 7
	.loc 2 335 112
	ldr	r3, .L107
	ldr	r3, [r3, #1280]
	.loc 2 335 42
	lsrs	r3, r3, #8
	and	r3, r3, #15
	.loc 2 335 13
	uxtb	r3, r3
	.loc 2 336 1
	mov	r0, r3
	mov	sp, r7
.LCFI81:
	.cfi_def_cfa_register 13
	@ sp needed
	ldr	r7, [sp], #4
.LCFI82:
	.cfi_restore 7
	.cfi_def_cfa_offset 0
	bx	lr
.L108:
	.align	2
.L107:
	.word	1076232192
	.cfi_endproc
.LFE151:
	.size	Cy_SysClk_ClkPumpGetSource, .-Cy_SysClk_ClkPumpGetSource
	.section	.text.Cy_SysClk_ClkPumpSetDivider,"ax",%progbits
	.align	1
	.global	Cy_SysClk_ClkPumpSetDivider
	.syntax unified
	.thumb
	.thumb_func
	.type	Cy_SysClk_ClkPumpSetDivider, %function
Cy_SysClk_ClkPumpSetDivider:
.LFB152:
	.loc 2 340 1
	.cfi_startproc
	@ args = 0, pretend = 0, frame = 8
	@ frame_needed = 1, uses_anonymous_args = 0
	push	{r7, lr}
.LCFI83:
	.cfi_def_cfa_offset 8
	.cfi_offset 7, -8
	.cfi_offset 14, -4
	sub	sp, sp, #8
.LCFI84:
	.cfi_def_cfa_offset 16
	add	r7, sp, #0
.LCFI85:
	.cfi_def_cfa_register 7
	mov	r3, r0
	strb	r3, [r7, #7]
	.loc 2 351 12
	ldrb	r3, [r7, #7]	@ zero_extendqisi2
	cmp	r3, #0
	beq	.L110
	.loc 2 351 53 discriminator 1
	ldrb	r3, [r7, #7]	@ zero_extendqisi2
	cmp	r3, #1
	beq	.L110
	.loc 2 351 92 discriminator 2
	ldrb	r3, [r7, #7]	@ zero_extendqisi2
	cmp	r3, #2
	beq	.L110
	.loc 2 351 131 discriminator 3
	ldrb	r3, [r7, #7]	@ zero_extendqisi2
	cmp	r3, #3
	beq	.L110
	.loc 2 351 13 discriminator 4
	ldrb	r3, [r7, #7]	@ zero_extendqisi2
	cmp	r3, #4
	beq	.L110
	.loc 2 351 215 discriminator 5
	bl	CY_HALT
.L110:
	.loc 2 352 122
	ldr	r3, .L111
	ldr	r3, [r3, #1280]
	.loc 2 352 138
	bic	r2, r3, #28672
	.loc 2 352 172
	ldrb	r3, [r7, #7]	@ zero_extendqisi2
	.loc 2 352 194
	lsls	r3, r3, #12
	.loc 2 352 203
	and	r3, r3, #28672
	.loc 2 352 54
	ldr	r1, .L111
	.loc 2 352 167
	orrs	r3, r3, r2
	.loc 2 352 69
	str	r3, [r1, #1280]
	.loc 2 354 1
	nop
	adds	r7, r7, #8
.LCFI86:
	.cfi_def_cfa_offset 8
	mov	sp, r7
.LCFI87:
	.cfi_def_cfa_register 13
	@ sp needed
	pop	{r7, pc}
.L112:
	.align	2
.L111:
	.word	1076232192
	.cfi_endproc
.LFE152:
	.size	Cy_SysClk_ClkPumpSetDivider, .-Cy_SysClk_ClkPumpSetDivider
	.section	.text.Cy_SysClk_ClkPumpGetDivider,"ax",%progbits
	.align	1
	.global	Cy_SysClk_ClkPumpGetDivider
	.syntax unified
	.thumb
	.thumb_func
	.type	Cy_SysClk_ClkPumpGetDivider, %function
Cy_SysClk_ClkPumpGetDivider:
.LFB153:
	.loc 2 358 1
	.cfi_startproc
	@ args = 0, pretend = 0, frame = 0
	@ frame_needed = 1, uses_anonymous_args = 0
	@ link register save eliminated.
	push	{r7}
.LCFI88:
	.cfi_def_cfa_offset 4
	.cfi_offset 7, -4
	add	r7, sp, #0
.LCFI89:
	.cfi_def_cfa_register 7
	.loc 2 359 108
	ldr	r3, .L115
	ldr	r3, [r3, #1280]
	.loc 2 359 38
	lsrs	r3, r3, #12
	and	r3, r3, #7
	.loc 2 359 13
	uxtb	r3, r3
	.loc 2 360 1
	mov	r0, r3
	mov	sp, r7
.LCFI90:
	.cfi_def_cfa_register 13
	@ sp needed
	ldr	r7, [sp], #4
.LCFI91:
	.cfi_restore 7
	.cfi_def_cfa_offset 0
	bx	lr
.L116:
	.align	2
.L115:
	.word	1076232192
	.cfi_endproc
.LFE153:
	.size	Cy_SysClk_ClkPumpGetDivider, .-Cy_SysClk_ClkPumpGetDivider
	.section	.text.Cy_SysClk_ClkPumpEnable,"ax",%progbits
	.align	1
	.global	Cy_SysClk_ClkPumpEnable
	.syntax unified
	.thumb
	.thumb_func
	.type	Cy_SysClk_ClkPumpEnable, %function
Cy_SysClk_ClkPumpEnable:
.LFB154:
	.loc 2 364 1
	.cfi_startproc
	@ args = 0, pretend = 0, frame = 0
	@ frame_needed = 1, uses_anonymous_args = 0
	@ link register save eliminated.
	push	{r7}
.LCFI92:
	.cfi_def_cfa_offset 4
	.cfi_offset 7, -4
	add	r7, sp, #0
.LCFI93:
	.cfi_def_cfa_register 7
	.loc 2 375 66
	ldr	r3, .L118
	ldr	r3, [r3, #1280]
	ldr	r2, .L118
	orr	r3, r3, #32768
	str	r3, [r2, #1280]
	.loc 2 377 1
	nop
	mov	sp, r7
.LCFI94:
	.cfi_def_cfa_register 13
	@ sp needed
	ldr	r7, [sp], #4
.LCFI95:
	.cfi_restore 7
	.cfi_def_cfa_offset 0
	bx	lr
.L119:
	.align	2
.L118:
	.word	1076232192
	.cfi_endproc
.LFE154:
	.size	Cy_SysClk_ClkPumpEnable, .-Cy_SysClk_ClkPumpEnable
	.section	.text.Cy_SysClk_ClkPumpIsEnabled,"ax",%progbits
	.align	1
	.global	Cy_SysClk_ClkPumpIsEnabled
	.syntax unified
	.thumb
	.thumb_func
	.type	Cy_SysClk_ClkPumpIsEnabled, %function
Cy_SysClk_ClkPumpIsEnabled:
.LFB155:
	.loc 2 381 1
	.cfi_startproc
	@ args = 0, pretend = 0, frame = 0
	@ frame_needed = 1, uses_anonymous_args = 0
	@ link register save eliminated.
	push	{r7}
.LCFI96:
	.cfi_def_cfa_offset 4
	.cfi_offset 7, -4
	add	r7, sp, #0
.LCFI97:
	.cfi_def_cfa_register 7
	.loc 2 382 63
	ldr	r3, .L122
	ldr	r3, [r3, #1280]
	.loc 2 382 78
	and	r3, r3, #32768
	.loc 2 382 92
	cmp	r3, #0
	ite	ne
	movne	r3, #1
	moveq	r3, #0
	uxtb	r3, r3
	.loc 2 383 1
	mov	r0, r3
	mov	sp, r7
.LCFI98:
	.cfi_def_cfa_register 13
	@ sp needed
	ldr	r7, [sp], #4
.LCFI99:
	.cfi_restore 7
	.cfi_def_cfa_offset 0
	bx	lr
.L123:
	.align	2
.L122:
	.word	1076232192
	.cfi_endproc
.LFE155:
	.size	Cy_SysClk_ClkPumpIsEnabled, .-Cy_SysClk_ClkPumpIsEnabled
	.section	.text.Cy_SysClk_ClkPumpDisable,"ax",%progbits
	.align	1
	.global	Cy_SysClk_ClkPumpDisable
	.syntax unified
	.thumb
	.thumb_func
	.type	Cy_SysClk_ClkPumpDisable, %function
Cy_SysClk_ClkPumpDisable:
.LFB156:
	.loc 2 387 1
	.cfi_startproc
	@ args = 0, pretend = 0, frame = 0
	@ frame_needed = 1, uses_anonymous_args = 0
	@ link register save eliminated.
	push	{r7}
.LCFI100:
	.cfi_def_cfa_offset 4
	.cfi_offset 7, -4
	add	r7, sp, #0
.LCFI101:
	.cfi_def_cfa_register 7
	.loc 2 398 66
	ldr	r3, .L125
	ldr	r3, [r3, #1280]
	ldr	r2, .L125
	bic	r3, r3, #32768
	str	r3, [r2, #1280]
	.loc 2 400 1
	nop
	mov	sp, r7
.LCFI102:
	.cfi_def_cfa_register 13
	@ sp needed
	ldr	r7, [sp], #4
.LCFI103:
	.cfi_restore 7
	.cfi_def_cfa_offset 0
	bx	lr
.L126:
	.align	2
.L125:
	.word	1076232192
	.cfi_endproc
.LFE156:
	.size	Cy_SysClk_ClkPumpDisable, .-Cy_SysClk_ClkPumpDisable
	.section	.text.Cy_SysClk_ClkPumpGetFrequency,"ax",%progbits
	.align	1
	.global	Cy_SysClk_ClkPumpGetFrequency
	.syntax unified
	.thumb
	.thumb_func
	.type	Cy_SysClk_ClkPumpGetFrequency, %function
Cy_SysClk_ClkPumpGetFrequency:
.LFB157:
	.loc 2 404 1
	.cfi_startproc
	@ args = 0, pretend = 0, frame = 0
	@ frame_needed = 1, uses_anonymous_args = 0
	push	{r3, r4, r7, lr}
.LCFI104:
	.cfi_def_cfa_offset 16
	.cfi_offset 3, -16
	.cfi_offset 4, -12
	.cfi_offset 7, -8
	.cfi_offset 14, -4
	add	r7, sp, #0
.LCFI105:
	.cfi_def_cfa_register 7
	.loc 2 406 13
	bl	Cy_SysClk_ClkPumpIsEnabled
	mov	r3, r0
	.loc 2 408 64
	cmp	r3, #0
	beq	.L128
	.loc 2 407 54 discriminator 1
	bl	Cy_SysClk_ClkPumpGetSource
	mov	r3, r0
	.loc 2 407 14 discriminator 1
	mov	r0, r3
	bl	Cy_SysClk_ClkPathGetFrequency
	mov	r4, r0
	.loc 2 408 32 discriminator 1
	bl	Cy_SysClk_ClkPumpGetDivider
	mov	r3, r0
	.loc 2 408 64 discriminator 1
	lsr	r3, r4, r3
	b	.L130
.L128:
	.loc 2 408 64 is_stmt 0 discriminator 2
	movs	r3, #0
.L130:
	.loc 2 409 1 is_stmt 1 discriminator 5
	mov	r0, r3
	pop	{r3, r4, r7, pc}
	.cfi_endproc
.LFE157:
	.size	Cy_SysClk_ClkPumpGetFrequency, .-Cy_SysClk_ClkPumpGetFrequency
	.section	.text.Cy_SysClk_ClkBakSetSource,"ax",%progbits
	.align	1
	.global	Cy_SysClk_ClkBakSetSource
	.syntax unified
	.thumb
	.thumb_func
	.type	Cy_SysClk_ClkBakSetSource, %function
Cy_SysClk_ClkBakSetSource:
.LFB158:
	.loc 2 413 1
	.cfi_startproc
	@ args = 0, pretend = 0, frame = 8
	@ frame_needed = 1, uses_anonymous_args = 0
	push	{r7, lr}
.LCFI106:
	.cfi_def_cfa_offset 8
	.cfi_offset 7, -8
	.cfi_offset 14, -4
	sub	sp, sp, #8
.LCFI107:
	.cfi_def_cfa_offset 16
	add	r7, sp, #0
.LCFI108:
	.cfi_def_cfa_register 7
	mov	r3, r0
	strb	r3, [r7, #7]
	.loc 2 424 12
	ldrb	r3, [r7, #7]	@ zero_extendqisi2
	cmp	r3, #1
	bls	.L132
	.loc 2 424 52 discriminator 1
	bl	CY_HALT
.L132:
	.loc 2 425 123
	ldr	r3, .L133
	ldr	r3, [r3]
	.loc 2 425 132
	bic	r2, r3, #768
	.loc 2 425 165
	ldrb	r3, [r7, #7]	@ zero_extendqisi2
	.loc 2 425 186
	lsls	r3, r3, #8
	.loc 2 425 194
	and	r3, r3, #768
	.loc 2 425 58
	ldr	r1, .L133
	.loc 2 425 160
	orrs	r3, r3, r2
	.loc 2 425 66
	str	r3, [r1]
	.loc 2 427 1
	nop
	adds	r7, r7, #8
.LCFI109:
	.cfi_def_cfa_offset 8
	mov	sp, r7
.LCFI110:
	.cfi_def_cfa_register 13
	@ sp needed
	pop	{r7, pc}
.L134:
	.align	2
.L133:
	.word	1076297728
	.cfi_endproc
.LFE158:
	.size	Cy_SysClk_ClkBakSetSource, .-Cy_SysClk_ClkBakSetSource
	.section	.text.Cy_SysClk_ClkBakGetSource,"ax",%progbits
	.align	1
	.global	Cy_SysClk_ClkBakGetSource
	.syntax unified
	.thumb
	.thumb_func
	.type	Cy_SysClk_ClkBakGetSource, %function
Cy_SysClk_ClkBakGetSource:
.LFB159:
	.loc 2 431 1
	.cfi_startproc
	@ args = 0, pretend = 0, frame = 0
	@ frame_needed = 1, uses_anonymous_args = 0
	@ link register save eliminated.
	push	{r7}
.LCFI111:
	.cfi_def_cfa_offset 4
	.cfi_offset 7, -4
	add	r7, sp, #0
.LCFI112:
	.cfi_def_cfa_register 7
	.loc 2 432 115
	ldr	r3, .L137
	ldr	r3, [r3]
	.loc 2 432 41
	lsrs	r3, r3, #8
	and	r3, r3, #3
	.loc 2 432 13
	uxtb	r3, r3
	.loc 2 433 1
	mov	r0, r3
	mov	sp, r7
.LCFI113:
	.cfi_def_cfa_register 13
	@ sp needed
	ldr	r7, [sp], #4
.LCFI114:
	.cfi_restore 7
	.cfi_def_cfa_offset 0
	bx	lr
.L138:
	.align	2
.L137:
	.word	1076297728
	.cfi_endproc
.LFE159:
	.size	Cy_SysClk_ClkBakGetSource, .-Cy_SysClk_ClkBakGetSource
	.section	.text.Cy_SysClk_ClkTimerSetSource,"ax",%progbits
	.align	1
	.global	Cy_SysClk_ClkTimerSetSource
	.syntax unified
	.thumb
	.thumb_func
	.type	Cy_SysClk_ClkTimerSetSource, %function
Cy_SysClk_ClkTimerSetSource:
.LFB160:
	.loc 2 437 1
	.cfi_startproc
	@ args = 0, pretend = 0, frame = 8
	@ frame_needed = 1, uses_anonymous_args = 0
	push	{r7, lr}
.LCFI115:
	.cfi_def_cfa_offset 8
	.cfi_offset 7, -8
	.cfi_offset 14, -4
	sub	sp, sp, #8
.LCFI116:
	.cfi_def_cfa_offset 16
	add	r7, sp, #0
.LCFI117:
	.cfi_def_cfa_register 7
	mov	r3, r0
	strh	r3, [r7, #6]	@ movhi
	.loc 2 448 12
	ldrh	r3, [r7, #6]
	movw	r2, #769
	cmp	r3, r2
	bls	.L140
	.loc 2 448 60 discriminator 1
	bl	CY_HALT
.L140:
	.loc 2 450 125
	ldr	r3, .L141
	ldr	r3, [r3, #1284]
	.loc 2 450 144
	bic	r3, r3, #768
	bic	r3, r3, #1
	.loc 2 450 208
	ldrh	r1, [r7, #6]
	.loc 2 450 218
	movw	r2, #769
	ands	r2, r2, r1
	.loc 2 450 54
	ldr	r1, .L141
	.loc 2 450 182
	orrs	r3, r3, r2
	.loc 2 450 72
	str	r3, [r1, #1284]
	.loc 2 452 1
	nop
	adds	r7, r7, #8
.LCFI118:
	.cfi_def_cfa_offset 8
	mov	sp, r7
.LCFI119:
	.cfi_def_cfa_register 13
	@ sp needed
	pop	{r7, pc}
.L142:
	.align	2
.L141:
	.word	1076232192
	.cfi_endproc
.LFE160:
	.size	Cy_SysClk_ClkTimerSetSource, .-Cy_SysClk_ClkTimerSetSource
	.section	.text.Cy_SysClk_ClkTimerGetSource,"ax",%progbits
	.align	1
	.global	Cy_SysClk_ClkTimerGetSource
	.syntax unified
	.thumb
	.thumb_func
	.type	Cy_SysClk_ClkTimerGetSource, %function
Cy_SysClk_ClkTimerGetSource:
.LFB161:
	.loc 2 456 1
	.cfi_startproc
	@ args = 0, pretend = 0, frame = 0
	@ frame_needed = 1, uses_anonymous_args = 0
	@ link register save eliminated.
	push	{r7}
.LCFI120:
	.cfi_def_cfa_offset 4
	.cfi_offset 7, -4
	add	r7, sp, #0
.LCFI121:
	.cfi_def_cfa_register 7
	.loc 2 458 101
	ldr	r3, .L145
	ldr	r3, [r3, #1284]
	.loc 2 458 13
	uxth	r2, r3
	movw	r3, #769
	ands	r3, r3, r2
	uxth	r3, r3
	.loc 2 459 1
	mov	r0, r3
	mov	sp, r7
.LCFI122:
	.cfi_def_cfa_register 13
	@ sp needed
	ldr	r7, [sp], #4
.LCFI123:
	.cfi_restore 7
	.cfi_def_cfa_offset 0
	bx	lr
.L146:
	.align	2
.L145:
	.word	1076232192
	.cfi_endproc
.LFE161:
	.size	Cy_SysClk_ClkTimerGetSource, .-Cy_SysClk_ClkTimerGetSource
	.section	.text.Cy_SysClk_ClkTimerSetDivider,"ax",%progbits
	.align	1
	.global	Cy_SysClk_ClkTimerSetDivider
	.syntax unified
	.thumb
	.thumb_func
	.type	Cy_SysClk_ClkTimerSetDivider, %function
Cy_SysClk_ClkTimerSetDivider:
.LFB162:
	.loc 2 463 1
	.cfi_startproc
	@ args = 0, pretend = 0, frame = 8
	@ frame_needed = 1, uses_anonymous_args = 0
	@ link register save eliminated.
	push	{r7}
.LCFI124:
	.cfi_def_cfa_offset 4
	.cfi_offset 7, -4
	sub	sp, sp, #12
.LCFI125:
	.cfi_def_cfa_offset 16
	add	r7, sp, #0
.LCFI126:
	.cfi_def_cfa_register 7
	mov	r3, r0
	strb	r3, [r7, #7]
	.loc 2 474 125
	ldr	r3, .L148
	ldr	r3, [r3, #1284]
	.loc 2 474 144
	bic	r2, r3, #16711680
	.loc 2 474 180
	ldrb	r3, [r7, #7]	@ zero_extendqisi2
	.loc 2 474 202
	lsls	r3, r3, #16
	.loc 2 474 211
	and	r3, r3, #16711680
	.loc 2 474 54
	ldr	r1, .L148
	.loc 2 474 175
	orrs	r3, r3, r2
	.loc 2 474 72
	str	r3, [r1, #1284]
	.loc 2 476 1
	nop
	adds	r7, r7, #12
.LCFI127:
	.cfi_def_cfa_offset 4
	mov	sp, r7
.LCFI128:
	.cfi_def_cfa_register 13
	@ sp needed
	ldr	r7, [sp], #4
.LCFI129:
	.cfi_restore 7
	.cfi_def_cfa_offset 0
	bx	lr
.L149:
	.align	2
.L148:
	.word	1076232192
	.cfi_endproc
.LFE162:
	.size	Cy_SysClk_ClkTimerSetDivider, .-Cy_SysClk_ClkTimerSetDivider
	.section	.text.Cy_SysClk_ClkTimerGetDivider,"ax",%progbits
	.align	1
	.global	Cy_SysClk_ClkTimerGetDivider
	.syntax unified
	.thumb
	.thumb_func
	.type	Cy_SysClk_ClkTimerGetDivider, %function
Cy_SysClk_ClkTimerGetDivider:
.LFB163:
	.loc 2 480 1
	.cfi_startproc
	@ args = 0, pretend = 0, frame = 0
	@ frame_needed = 1, uses_anonymous_args = 0
	@ link register save eliminated.
	push	{r7}
.LCFI130:
	.cfi_def_cfa_offset 4
	.cfi_offset 7, -4
	add	r7, sp, #0
.LCFI131:
	.cfi_def_cfa_register 7
	.loc 2 481 82
	ldr	r3, .L152
	ldr	r3, [r3, #1284]
	.loc 2 481 114
	lsrs	r3, r3, #16
	.loc 2 481 13
	uxtb	r3, r3
	.loc 2 482 1
	mov	r0, r3
	mov	sp, r7
.LCFI132:
	.cfi_def_cfa_register 13
	@ sp needed
	ldr	r7, [sp], #4
.LCFI133:
	.cfi_restore 7
	.cfi_def_cfa_offset 0
	bx	lr
.L153:
	.align	2
.L152:
	.word	1076232192
	.cfi_endproc
.LFE163:
	.size	Cy_SysClk_ClkTimerGetDivider, .-Cy_SysClk_ClkTimerGetDivider
	.section	.text.Cy_SysClk_ClkTimerEnable,"ax",%progbits
	.align	1
	.global	Cy_SysClk_ClkTimerEnable
	.syntax unified
	.thumb
	.thumb_func
	.type	Cy_SysClk_ClkTimerEnable, %function
Cy_SysClk_ClkTimerEnable:
.LFB164:
	.loc 2 486 1
	.cfi_startproc
	@ args = 0, pretend = 0, frame = 0
	@ frame_needed = 1, uses_anonymous_args = 0
	@ link register save eliminated.
	push	{r7}
.LCFI134:
	.cfi_def_cfa_offset 4
	.cfi_offset 7, -4
	add	r7, sp, #0
.LCFI135:
	.cfi_def_cfa_register 7
	.loc 2 497 69
	ldr	r3, .L155
	ldr	r3, [r3, #1284]
	ldr	r2, .L155
	orr	r3, r3, #-2147483648
	str	r3, [r2, #1284]
	.loc 2 499 1
	nop
	mov	sp, r7
.LCFI136:
	.cfi_def_cfa_register 13
	@ sp needed
	ldr	r7, [sp], #4
.LCFI137:
	.cfi_restore 7
	.cfi_def_cfa_offset 0
	bx	lr
.L156:
	.align	2
.L155:
	.word	1076232192
	.cfi_endproc
.LFE164:
	.size	Cy_SysClk_ClkTimerEnable, .-Cy_SysClk_ClkTimerEnable
	.section	.text.Cy_SysClk_ClkTimerIsEnabled,"ax",%progbits
	.align	1
	.global	Cy_SysClk_ClkTimerIsEnabled
	.syntax unified
	.thumb
	.thumb_func
	.type	Cy_SysClk_ClkTimerIsEnabled, %function
Cy_SysClk_ClkTimerIsEnabled:
.LFB165:
	.loc 2 503 1
	.cfi_startproc
	@ args = 0, pretend = 0, frame = 0
	@ frame_needed = 1, uses_anonymous_args = 0
	@ link register save eliminated.
	push	{r7}
.LCFI138:
	.cfi_def_cfa_offset 4
	.cfi_offset 7, -4
	add	r7, sp, #0
.LCFI139:
	.cfi_def_cfa_register 7
	.loc 2 504 63
	ldr	r3, .L159
	ldr	r3, [r3, #1284]
	.loc 2 504 99
	lsrs	r3, r3, #31
	uxtb	r3, r3
	.loc 2 505 1
	mov	r0, r3
	mov	sp, r7
.LCFI140:
	.cfi_def_cfa_register 13
	@ sp needed
	ldr	r7, [sp], #4
.LCFI141:
	.cfi_restore 7
	.cfi_def_cfa_offset 0
	bx	lr
.L160:
	.align	2
.L159:
	.word	1076232192
	.cfi_endproc
.LFE165:
	.size	Cy_SysClk_ClkTimerIsEnabled, .-Cy_SysClk_ClkTimerIsEnabled
	.section	.text.Cy_SysClk_ClkTimerDisable,"ax",%progbits
	.align	1
	.global	Cy_SysClk_ClkTimerDisable
	.syntax unified
	.thumb
	.thumb_func
	.type	Cy_SysClk_ClkTimerDisable, %function
Cy_SysClk_ClkTimerDisable:
.LFB166:
	.loc 2 509 1
	.cfi_startproc
	@ args = 0, pretend = 0, frame = 0
	@ frame_needed = 1, uses_anonymous_args = 0
	@ link register save eliminated.
	push	{r7}
.LCFI142:
	.cfi_def_cfa_offset 4
	.cfi_offset 7, -4
	add	r7, sp, #0
.LCFI143:
	.cfi_def_cfa_register 7
	.loc 2 520 69
	ldr	r3, .L162
	ldr	r3, [r3, #1284]
	ldr	r2, .L162
	bic	r3, r3, #-2147483648
	str	r3, [r2, #1284]
	.loc 2 522 1
	nop
	mov	sp, r7
.LCFI144:
	.cfi_def_cfa_register 13
	@ sp needed
	ldr	r7, [sp], #4
.LCFI145:
	.cfi_restore 7
	.cfi_def_cfa_offset 0
	bx	lr
.L163:
	.align	2
.L162:
	.word	1076232192
	.cfi_endproc
.LFE166:
	.size	Cy_SysClk_ClkTimerDisable, .-Cy_SysClk_ClkTimerDisable
	.section	.text.Cy_SysClk_ClkLfSetSource,"ax",%progbits
	.align	1
	.global	Cy_SysClk_ClkLfSetSource
	.syntax unified
	.thumb
	.thumb_func
	.type	Cy_SysClk_ClkLfSetSource, %function
Cy_SysClk_ClkLfSetSource:
.LFB167:
	.loc 2 526 1
	.cfi_startproc
	@ args = 0, pretend = 0, frame = 8
	@ frame_needed = 1, uses_anonymous_args = 0
	push	{r7, lr}
.LCFI146:
	.cfi_def_cfa_offset 8
	.cfi_offset 7, -8
	.cfi_offset 14, -4
	sub	sp, sp, #8
.LCFI147:
	.cfi_def_cfa_offset 16
	add	r7, sp, #0
.LCFI148:
	.cfi_def_cfa_register 7
	mov	r3, r0
	strb	r3, [r7, #7]
	.loc 2 537 12
	ldrb	r3, [r7, #7]	@ zero_extendqisi2
	cmp	r3, #3
	bls	.L165
	.loc 2 537 53 discriminator 1
	bl	CY_HALT
.L165:
	.loc 2 538 122
	ldr	r3, .L166
	ldr	r3, [r3, #1280]
	.loc 2 538 138
	bic	r2, r3, #3
	.loc 2 538 190
	ldrb	r3, [r7, #7]	@ zero_extendqisi2
	.loc 2 538 198
	and	r3, r3, #3
	.loc 2 538 54
	ldr	r1, .L166
	.loc 2 538 164
	orrs	r3, r3, r2
	.loc 2 538 69
	str	r3, [r1, #1280]
	.loc 2 540 1
	nop
	adds	r7, r7, #8
.LCFI149:
	.cfi_def_cfa_offset 8
	mov	sp, r7
.LCFI150:
	.cfi_def_cfa_register 13
	@ sp needed
	pop	{r7, pc}
.L167:
	.align	2
.L166:
	.word	1076232192
	.cfi_endproc
.LFE167:
	.size	Cy_SysClk_ClkLfSetSource, .-Cy_SysClk_ClkLfSetSource
	.section	.text.Cy_SysClk_ClkLfGetSource,"ax",%progbits
	.align	1
	.global	Cy_SysClk_ClkLfGetSource
	.syntax unified
	.thumb
	.thumb_func
	.type	Cy_SysClk_ClkLfGetSource, %function
Cy_SysClk_ClkLfGetSource:
.LFB168:
	.loc 2 544 1
	.cfi_startproc
	@ args = 0, pretend = 0, frame = 0
	@ frame_needed = 1, uses_anonymous_args = 0
	@ link register save eliminated.
	push	{r7}
.LCFI151:
	.cfi_def_cfa_offset 4
	.cfi_offset 7, -4
	add	r7, sp, #0
.LCFI152:
	.cfi_def_cfa_register 7
	.loc 2 545 111
	ldr	r3, .L170
	ldr	r3, [r3, #1280]
	.loc 2 545 13
	uxtb	r3, r3
	and	r3, r3, #3
	uxtb	r3, r3
	.loc 2 546 1
	mov	r0, r3
	mov	sp, r7
.LCFI153:
	.cfi_def_cfa_register 13
	@ sp needed
	ldr	r7, [sp], #4
.LCFI154:
	.cfi_restore 7
	.cfi_def_cfa_offset 0
	bx	lr
.L171:
	.align	2
.L170:
	.word	1076232192
	.cfi_endproc
.LFE168:
	.size	Cy_SysClk_ClkLfGetSource, .-Cy_SysClk_ClkLfGetSource
	.section	.text.Cy_SysClk_ClkPeriGetFrequency,"ax",%progbits
	.align	1
	.global	Cy_SysClk_ClkPeriGetFrequency
	.syntax unified
	.thumb
	.thumb_func
	.type	Cy_SysClk_ClkPeriGetFrequency, %function
Cy_SysClk_ClkPeriGetFrequency:
.LFB169:
	.loc 2 550 1
	.cfi_startproc
	@ args = 0, pretend = 0, frame = 8
	@ frame_needed = 1, uses_anonymous_args = 0
	push	{r7, lr}
.LCFI155:
	.cfi_def_cfa_offset 8
	.cfi_offset 7, -8
	.cfi_offset 14, -4
	sub	sp, sp, #8
.LCFI156:
	.cfi_def_cfa_offset 16
	add	r7, sp, #0
.LCFI157:
	.cfi_def_cfa_register 7
	.loc 2 551 24
	movs	r0, #0
	bl	Cy_SysClk_ClkHfGetFrequency
	str	r0, [r7, #4]
	.loc 2 552 39
	bl	Cy_SysClk_ClkPeriGetDivider
	mov	r3, r0
	.loc 2 552 14
	adds	r3, r3, #1
	str	r3, [r7]
	.loc 2 555 37
	ldr	r3, [r7]
	lsrs	r2, r3, #1
	.loc 2 555 25
	ldr	r3, [r7, #4]
	add	r2, r2, r3
	.loc 2 555 44
	ldr	r3, [r7]
	udiv	r3, r2, r3
	.loc 2 556 1
	mov	r0, r3
	adds	r7, r7, #8
.LCFI158:
	.cfi_def_cfa_offset 8
	mov	sp, r7
.LCFI159:
	.cfi_def_cfa_register 13
	@ sp needed
	pop	{r7, pc}
	.cfi_endproc
.LFE169:
	.size	Cy_SysClk_ClkPeriGetFrequency, .-Cy_SysClk_ClkPeriGetFrequency
	.section	.text.Cy_SysClk_ClkPeriSetDivider,"ax",%progbits
	.align	1
	.global	Cy_SysClk_ClkPeriSetDivider
	.syntax unified
	.thumb
	.thumb_func
	.type	Cy_SysClk_ClkPeriSetDivider, %function
Cy_SysClk_ClkPeriSetDivider:
.LFB170:
	.loc 2 560 1
	.cfi_startproc
	@ args = 0, pretend = 0, frame = 8
	@ frame_needed = 1, uses_anonymous_args = 0
	@ link register save eliminated.
	push	{r7}
.LCFI160:
	.cfi_def_cfa_offset 4
	.cfi_offset 7, -4
	sub	sp, sp, #12
.LCFI161:
	.cfi_def_cfa_offset 16
	add	r7, sp, #0
.LCFI162:
	.cfi_def_cfa_register 7
	mov	r3, r0
	strb	r3, [r7, #7]
	.loc 2 571 132
	ldr	r3, .L175
	ldr	r3, [r3]
	ldr	r2, [r3]
	.loc 2 571 155
	ldr	r3, .L175
	ldr	r3, [r3]
	ldr	r3, [r3, #136]
	.loc 2 571 144
	add	r3, r3, r2
	.loc 2 571 99
	ldr	r3, [r3]
	.loc 2 571 184
	bic	r2, r3, #-16777216
	.loc 2 571 222
	ldrb	r3, [r7, #7]	@ zero_extendqisi2
	.loc 2 571 253
	lsls	r3, r3, #24
	.loc 2 571 41
	ldr	r1, .L175
	ldr	r1, [r1]
	ldr	r0, [r1]
	.loc 2 571 64
	ldr	r1, .L175
	ldr	r1, [r1]
	ldr	r1, [r1, #136]
	.loc 2 571 53
	add	r1, r1, r0
	.loc 2 571 217
	orrs	r3, r3, r2
	.loc 2 571 92
	str	r3, [r1]
	.loc 2 573 1
	nop
	adds	r7, r7, #12
.LCFI163:
	.cfi_def_cfa_offset 4
	mov	sp, r7
.LCFI164:
	.cfi_def_cfa_register 13
	@ sp needed
	ldr	r7, [sp], #4
.LCFI165:
	.cfi_restore 7
	.cfi_def_cfa_offset 0
	bx	lr
.L176:
	.align	2
.L175:
	.word	cy_device
	.cfi_endproc
.LFE170:
	.size	Cy_SysClk_ClkPeriSetDivider, .-Cy_SysClk_ClkPeriSetDivider
	.section	.text.Cy_SysClk_ClkPeriGetDivider,"ax",%progbits
	.align	1
	.global	Cy_SysClk_ClkPeriGetDivider
	.syntax unified
	.thumb
	.thumb_func
	.type	Cy_SysClk_ClkPeriGetDivider, %function
Cy_SysClk_ClkPeriGetDivider:
.LFB171:
	.loc 2 577 1
	.cfi_startproc
	@ args = 0, pretend = 0, frame = 0
	@ frame_needed = 1, uses_anonymous_args = 0
	@ link register save eliminated.
	push	{r7}
.LCFI166:
	.cfi_def_cfa_offset 4
	.cfi_offset 7, -4
	add	r7, sp, #0
.LCFI167:
	.cfi_def_cfa_register 7
	.loc 2 578 69
	ldr	r3, .L179
	ldr	r3, [r3]
	ldr	r2, [r3]
	.loc 2 578 92
	ldr	r3, .L179
	ldr	r3, [r3]
	ldr	r3, [r3, #136]
	.loc 2 578 81
	add	r3, r3, r2
	.loc 2 578 24
	ldr	r3, [r3]
	.loc 2 578 136
	lsrs	r3, r3, #24
	.loc 2 578 13
	uxtb	r3, r3
	.loc 2 579 1
	mov	r0, r3
	mov	sp, r7
.LCFI168:
	.cfi_def_cfa_register 13
	@ sp needed
	ldr	r7, [sp], #4
.LCFI169:
	.cfi_restore 7
	.cfi_def_cfa_offset 0
	bx	lr
.L180:
	.align	2
.L179:
	.word	cy_device
	.cfi_endproc
.LFE171:
	.size	Cy_SysClk_ClkPeriGetDivider, .-Cy_SysClk_ClkPeriGetDivider
	.section	.text.Cy_SysClk_ClkFastGetFrequency,"ax",%progbits
	.align	1
	.global	Cy_SysClk_ClkFastGetFrequency
	.syntax unified
	.thumb
	.thumb_func
	.type	Cy_SysClk_ClkFastGetFrequency, %function
Cy_SysClk_ClkFastGetFrequency:
.LFB172:
	.loc 2 588 1
	.cfi_startproc
	@ args = 0, pretend = 0, frame = 8
	@ frame_needed = 1, uses_anonymous_args = 0
	push	{r7, lr}
.LCFI170:
	.cfi_def_cfa_offset 8
	.cfi_offset 7, -8
	.cfi_offset 14, -4
	sub	sp, sp, #8
.LCFI171:
	.cfi_def_cfa_offset 16
	add	r7, sp, #0
.LCFI172:
	.cfi_def_cfa_register 7
	.loc 2 589 24
	movs	r0, #0
	bl	Cy_SysClk_ClkHfGetFrequency
	str	r0, [r7, #4]
	.loc 2 590 39
	bl	Cy_SysClk_ClkFastGetDivider
	mov	r3, r0
	.loc 2 590 14
	adds	r3, r3, #1
	str	r3, [r7]
	.loc 2 593 37
	ldr	r3, [r7]
	lsrs	r2, r3, #1
	.loc 2 593 25
	ldr	r3, [r7, #4]
	add	r2, r2, r3
	.loc 2 593 44
	ldr	r3, [r7]
	udiv	r3, r2, r3
	.loc 2 594 1
	mov	r0, r3
	adds	r7, r7, #8
.LCFI173:
	.cfi_def_cfa_offset 8
	mov	sp, r7
.LCFI174:
	.cfi_def_cfa_register 13
	@ sp needed
	pop	{r7, pc}
	.cfi_endproc
.LFE172:
	.size	Cy_SysClk_ClkFastGetFrequency, .-Cy_SysClk_ClkFastGetFrequency
	.section	.text.Cy_SysClk_ClkFastSetDivider,"ax",%progbits
	.align	1
	.global	Cy_SysClk_ClkFastSetDivider
	.syntax unified
	.thumb
	.thumb_func
	.type	Cy_SysClk_ClkFastSetDivider, %function
Cy_SysClk_ClkFastSetDivider:
.LFB173:
	.loc 2 598 1
	.cfi_startproc
	@ args = 0, pretend = 0, frame = 8
	@ frame_needed = 1, uses_anonymous_args = 0
	@ link register save eliminated.
	push	{r7}
.LCFI175:
	.cfi_def_cfa_offset 4
	.cfi_offset 7, -4
	sub	sp, sp, #12
.LCFI176:
	.cfi_def_cfa_offset 16
	add	r7, sp, #0
.LCFI177:
	.cfi_def_cfa_register 7
	mov	r3, r0
	strb	r3, [r7, #7]
	.loc 2 609 132
	ldr	r3, .L184
	ldr	r3, [r3]
	ldr	r2, [r3]
	.loc 2 609 155
	ldr	r3, .L184
	ldr	r3, [r3]
	ldr	r3, [r3, #140]
	.loc 2 609 144
	add	r3, r3, r2
	.loc 2 609 99
	ldr	r3, [r3]
	.loc 2 609 184
	bic	r2, r3, #65280
	.loc 2 609 218
	ldrb	r3, [r7, #7]	@ zero_extendqisi2
	.loc 2 609 240
	lsls	r3, r3, #8
	.loc 2 609 248
	uxth	r3, r3
	.loc 2 609 41
	ldr	r1, .L184
	ldr	r1, [r1]
	ldr	r0, [r1]
	.loc 2 609 64
	ldr	r1, .L184
	ldr	r1, [r1]
	ldr	r1, [r1, #140]
	.loc 2 609 53
	add	r1, r1, r0
	.loc 2 609 213
	orrs	r3, r3, r2
	.loc 2 609 92
	str	r3, [r1]
	.loc 2 611 1
	nop
	adds	r7, r7, #12
.LCFI178:
	.cfi_def_cfa_offset 4
	mov	sp, r7
.LCFI179:
	.cfi_def_cfa_register 13
	@ sp needed
	ldr	r7, [sp], #4
.LCFI180:
	.cfi_restore 7
	.cfi_def_cfa_offset 0
	bx	lr
.L185:
	.align	2
.L184:
	.word	cy_device
	.cfi_endproc
.LFE173:
	.size	Cy_SysClk_ClkFastSetDivider, .-Cy_SysClk_ClkFastSetDivider
	.section	.text.Cy_SysClk_ClkFastGetDivider,"ax",%progbits
	.align	1
	.global	Cy_SysClk_ClkFastGetDivider
	.syntax unified
	.thumb
	.thumb_func
	.type	Cy_SysClk_ClkFastGetDivider, %function
Cy_SysClk_ClkFastGetDivider:
.LFB174:
	.loc 2 615 1
	.cfi_startproc
	@ args = 0, pretend = 0, frame = 0
	@ frame_needed = 1, uses_anonymous_args = 0
	@ link register save eliminated.
	push	{r7}
.LCFI181:
	.cfi_def_cfa_offset 4
	.cfi_offset 7, -4
	add	r7, sp, #0
.LCFI182:
	.cfi_def_cfa_register 7
	.loc 2 616 69
	ldr	r3, .L188
	ldr	r3, [r3]
	ldr	r2, [r3]
	.loc 2 616 92
	ldr	r3, .L188
	ldr	r3, [r3]
	ldr	r3, [r3, #140]
	.loc 2 616 81
	add	r3, r3, r2
	.loc 2 616 24
	ldr	r3, [r3]
	.loc 2 616 132
	lsrs	r3, r3, #8
	.loc 2 616 13
	uxtb	r3, r3
	.loc 2 617 1
	mov	r0, r3
	mov	sp, r7
.LCFI183:
	.cfi_def_cfa_register 13
	@ sp needed
	ldr	r7, [sp], #4
.LCFI184:
	.cfi_restore 7
	.cfi_def_cfa_offset 0
	bx	lr
.L189:
	.align	2
.L188:
	.word	cy_device
	.cfi_endproc
.LFE174:
	.size	Cy_SysClk_ClkFastGetDivider, .-Cy_SysClk_ClkFastGetDivider
	.section	.text.Cy_SysClk_ClkHfEnable,"ax",%progbits
	.align	1
	.global	Cy_SysClk_ClkHfEnable
	.syntax unified
	.thumb
	.thumb_func
	.type	Cy_SysClk_ClkHfEnable, %function
Cy_SysClk_ClkHfEnable:
.LFB175:
	.loc 2 621 1
	.cfi_startproc
	@ args = 0, pretend = 0, frame = 16
	@ frame_needed = 1, uses_anonymous_args = 0
	@ link register save eliminated.
	push	{r7}
.LCFI185:
	.cfi_def_cfa_offset 4
	.cfi_offset 7, -4
	sub	sp, sp, #20
.LCFI186:
	.cfi_def_cfa_offset 24
	add	r7, sp, #0
.LCFI187:
	.cfi_def_cfa_register 7
	str	r0, [r7, #4]
	.loc 2 622 27
	ldr	r3, .L193
	str	r3, [r7, #12]
	.loc 2 623 38
	ldr	r3, .L193+4
	ldr	r3, [r3]
	ldrb	r3, [r3, #64]	@ zero_extendqisi2
	.loc 2 623 18
	mov	r2, r3
	.loc 2 623 8
	ldr	r3, [r7, #4]
	cmp	r3, r2
	bcs	.L191
	.loc 2 629 82
	ldr	r2, .L193+8
	ldr	r3, [r7, #4]
	adds	r3, r3, #224
	ldr	r3, [r2, r3, lsl #2]
	ldr	r1, .L193+8
	orr	r2, r3, #-2147483648
	ldr	r3, [r7, #4]
	adds	r3, r3, #224
	str	r2, [r1, r3, lsl #2]
	.loc 2 630 16
	movs	r3, #0
	str	r3, [r7, #12]
.L191:
	.loc 2 633 12
	ldr	r3, [r7, #12]
	.loc 2 634 1
	mov	r0, r3
	adds	r7, r7, #20
.LCFI188:
	.cfi_def_cfa_offset 4
	mov	sp, r7
.LCFI189:
	.cfi_def_cfa_register 13
	@ sp needed
	ldr	r7, [sp], #4
.LCFI190:
	.cfi_restore 7
	.cfi_def_cfa_offset 0
	bx	lr
.L194:
	.align	2
.L193:
	.word	4849665
	.word	cy_device
	.word	1076232192
	.cfi_endproc
.LFE175:
	.size	Cy_SysClk_ClkHfEnable, .-Cy_SysClk_ClkHfEnable
	.section	.text.Cy_SysClk_ClkHfIsEnabled,"ax",%progbits
	.align	1
	.global	Cy_SysClk_ClkHfIsEnabled
	.syntax unified
	.thumb
	.thumb_func
	.type	Cy_SysClk_ClkHfIsEnabled, %function
Cy_SysClk_ClkHfIsEnabled:
.LFB176:
	.loc 2 638 1
	.cfi_startproc
	@ args = 0, pretend = 0, frame = 16
	@ frame_needed = 1, uses_anonymous_args = 0
	@ link register save eliminated.
	push	{r7}
.LCFI191:
	.cfi_def_cfa_offset 4
	.cfi_offset 7, -4
	sub	sp, sp, #20
.LCFI192:
	.cfi_def_cfa_offset 24
	add	r7, sp, #0
.LCFI193:
	.cfi_def_cfa_register 7
	str	r0, [r7, #4]
	.loc 2 639 9
	movs	r3, #0
	strb	r3, [r7, #15]
	.loc 2 640 38
	ldr	r3, .L198
	ldr	r3, [r3]
	ldrb	r3, [r3, #64]	@ zero_extendqisi2
	.loc 2 640 18
	mov	r2, r3
	.loc 2 640 8
	ldr	r3, [r7, #4]
	cmp	r3, r2
	bcs	.L196
	.loc 2 642 68
	ldr	r2, .L198+4
	.loc 2 642 86
	ldr	r3, [r7, #4]
	adds	r3, r3, #224
	ldr	r3, [r2, r3, lsl #2]
	.loc 2 642 16
	lsrs	r3, r3, #31
	strb	r3, [r7, #15]
.L196:
	.loc 2 644 12
	ldrb	r3, [r7, #15]	@ zero_extendqisi2
	.loc 2 645 1
	mov	r0, r3
	adds	r7, r7, #20
.LCFI194:
	.cfi_def_cfa_offset 4
	mov	sp, r7
.LCFI195:
	.cfi_def_cfa_register 13
	@ sp needed
	ldr	r7, [sp], #4
.LCFI196:
	.cfi_restore 7
	.cfi_def_cfa_offset 0
	bx	lr
.L199:
	.align	2
.L198:
	.word	cy_device
	.word	1076232192
	.cfi_endproc
.LFE176:
	.size	Cy_SysClk_ClkHfIsEnabled, .-Cy_SysClk_ClkHfIsEnabled
	.section	.text.Cy_SysClk_ClkHfDisable,"ax",%progbits
	.align	1
	.global	Cy_SysClk_ClkHfDisable
	.syntax unified
	.thumb
	.thumb_func
	.type	Cy_SysClk_ClkHfDisable, %function
Cy_SysClk_ClkHfDisable:
.LFB177:
	.loc 2 649 1
	.cfi_startproc
	@ args = 0, pretend = 0, frame = 16
	@ frame_needed = 1, uses_anonymous_args = 0
	@ link register save eliminated.
	push	{r7}
.LCFI197:
	.cfi_def_cfa_offset 4
	.cfi_offset 7, -4
	sub	sp, sp, #20
.LCFI198:
	.cfi_def_cfa_offset 24
	add	r7, sp, #0
.LCFI199:
	.cfi_def_cfa_register 7
	str	r0, [r7, #4]
	.loc 2 650 27
	ldr	r3, .L203
	str	r3, [r7, #12]
	.loc 2 651 8
	ldr	r3, [r7, #4]
	cmp	r3, #0
	beq	.L201
	.loc 2 652 45
	ldr	r3, .L203+4
	ldr	r3, [r3]
	ldrb	r3, [r3, #64]	@ zero_extendqisi2
	.loc 2 652 25
	mov	r2, r3
	.loc 2 652 12
	ldr	r3, [r7, #4]
	cmp	r3, r2
	bcs	.L201
	.loc 2 658 82
	ldr	r2, .L203+8
	ldr	r3, [r7, #4]
	adds	r3, r3, #224
	ldr	r3, [r2, r3, lsl #2]
	ldr	r1, .L203+8
	bic	r2, r3, #-2147483648
	ldr	r3, [r7, #4]
	adds	r3, r3, #224
	str	r2, [r1, r3, lsl #2]
	.loc 2 659 16
	movs	r3, #0
	str	r3, [r7, #12]
.L201:
	.loc 2 662 12
	ldr	r3, [r7, #12]
	.loc 2 663 1
	mov	r0, r3
	adds	r7, r7, #20
.LCFI200:
	.cfi_def_cfa_offset 4
	mov	sp, r7
.LCFI201:
	.cfi_def_cfa_register 13
	@ sp needed
	ldr	r7, [sp], #4
.LCFI202:
	.cfi_restore 7
	.cfi_def_cfa_offset 0
	bx	lr
.L204:
	.align	2
.L203:
	.word	4849665
	.word	cy_device
	.word	1076232192
	.cfi_endproc
.LFE177:
	.size	Cy_SysClk_ClkHfDisable, .-Cy_SysClk_ClkHfDisable
	.section	.text.Cy_SysClk_ClkHfSetSource,"ax",%progbits
	.align	1
	.global	Cy_SysClk_ClkHfSetSource
	.syntax unified
	.thumb
	.thumb_func
	.type	Cy_SysClk_ClkHfSetSource, %function
Cy_SysClk_ClkHfSetSource:
.LFB178:
	.loc 2 667 1
	.cfi_startproc
	@ args = 0, pretend = 0, frame = 16
	@ frame_needed = 1, uses_anonymous_args = 0
	@ link register save eliminated.
	push	{r7}
.LCFI203:
	.cfi_def_cfa_offset 4
	.cfi_offset 7, -4
	sub	sp, sp, #20
.LCFI204:
	.cfi_def_cfa_offset 24
	add	r7, sp, #0
.LCFI205:
	.cfi_def_cfa_register 7
	str	r0, [r7, #4]
	mov	r3, r1
	strb	r3, [r7, #3]
	.loc 2 668 27
	ldr	r3, .L208
	str	r3, [r7, #12]
	.loc 2 669 39
	ldr	r3, .L208+4
	ldr	r3, [r3]
	ldrb	r3, [r3, #64]	@ zero_extendqisi2
	.loc 2 669 19
	mov	r2, r3
	.loc 2 669 8
	ldr	r3, [r7, #4]
	cmp	r3, r2
	bcs	.L206
	.loc 2 669 58 discriminator 1
	ldrb	r3, [r7, #3]	@ zero_extendqisi2
	cmp	r3, #15
	bhi	.L206
	.loc 2 678 138
	ldr	r2, .L208+8
	.loc 2 678 156
	ldr	r3, [r7, #4]
	adds	r3, r3, #224
	ldr	r3, [r2, r3, lsl #2]
	.loc 2 678 166
	bic	r2, r3, #15
	.loc 2 678 218
	ldrb	r3, [r7, #3]	@ zero_extendqisi2
	.loc 2 678 226
	and	r3, r3, #15
	.loc 2 678 58
	ldr	r1, .L208+8
	.loc 2 678 192
	orrs	r2, r2, r3
	.loc 2 678 85
	ldr	r3, [r7, #4]
	adds	r3, r3, #224
	str	r2, [r1, r3, lsl #2]
	.loc 2 679 16
	movs	r3, #0
	str	r3, [r7, #12]
.L206:
	.loc 2 682 12
	ldr	r3, [r7, #12]
	.loc 2 683 1
	mov	r0, r3
	adds	r7, r7, #20
.LCFI206:
	.cfi_def_cfa_offset 4
	mov	sp, r7
.LCFI207:
	.cfi_def_cfa_register 13
	@ sp needed
	ldr	r7, [sp], #4
.LCFI208:
	.cfi_restore 7
	.cfi_def_cfa_offset 0
	bx	lr
.L209:
	.align	2
.L208:
	.word	4849665
	.word	cy_device
	.word	1076232192
	.cfi_endproc
.LFE178:
	.size	Cy_SysClk_ClkHfSetSource, .-Cy_SysClk_ClkHfSetSource
	.section	.text.Cy_SysClk_ClkHfGetSource,"ax",%progbits
	.align	1
	.global	Cy_SysClk_ClkHfGetSource
	.syntax unified
	.thumb
	.thumb_func
	.type	Cy_SysClk_ClkHfGetSource, %function
Cy_SysClk_ClkHfGetSource:
.LFB179:
	.loc 2 687 1
	.cfi_startproc
	@ args = 0, pretend = 0, frame = 8
	@ frame_needed = 1, uses_anonymous_args = 0
	push	{r7, lr}
.LCFI209:
	.cfi_def_cfa_offset 8
	.cfi_offset 7, -8
	.cfi_offset 14, -4
	sub	sp, sp, #8
.LCFI210:
	.cfi_def_cfa_offset 16
	add	r7, sp, #0
.LCFI211:
	.cfi_def_cfa_register 7
	str	r0, [r7, #4]
	.loc 2 688 44
	ldr	r3, .L213
	ldr	r3, [r3]
	ldrb	r3, [r3, #64]	@ zero_extendqisi2
	.loc 2 688 24
	mov	r2, r3
	.loc 2 688 12
	ldr	r3, [r7, #4]
	cmp	r3, r2
	bcc	.L211
	.loc 2 688 66 discriminator 1
	bl	CY_HALT
.L211:
	.loc 2 689 111
	ldr	r2, .L213+4
	.loc 2 689 129
	ldr	r3, [r7, #4]
	adds	r3, r3, #224
	ldr	r3, [r2, r3, lsl #2]
	.loc 2 689 13
	uxtb	r3, r3
	and	r3, r3, #15
	uxtb	r3, r3
	.loc 2 690 1
	mov	r0, r3
	adds	r7, r7, #8
.LCFI212:
	.cfi_def_cfa_offset 8
	mov	sp, r7
.LCFI213:
	.cfi_def_cfa_register 13
	@ sp needed
	pop	{r7, pc}
.L214:
	.align	2
.L213:
	.word	cy_device
	.word	1076232192
	.cfi_endproc
.LFE179:
	.size	Cy_SysClk_ClkHfGetSource, .-Cy_SysClk_ClkHfGetSource
	.section	.text.Cy_SysClk_ClkHfSetDivider,"ax",%progbits
	.align	1
	.global	Cy_SysClk_ClkHfSetDivider
	.syntax unified
	.thumb
	.thumb_func
	.type	Cy_SysClk_ClkHfSetDivider, %function
Cy_SysClk_ClkHfSetDivider:
.LFB180:
	.loc 2 694 1
	.cfi_startproc
	@ args = 0, pretend = 0, frame = 16
	@ frame_needed = 1, uses_anonymous_args = 0
	@ link register save eliminated.
	push	{r7}
.LCFI214:
	.cfi_def_cfa_offset 4
	.cfi_offset 7, -4
	sub	sp, sp, #20
.LCFI215:
	.cfi_def_cfa_offset 24
	add	r7, sp, #0
.LCFI216:
	.cfi_def_cfa_register 7
	str	r0, [r7, #4]
	mov	r3, r1
	strb	r3, [r7, #3]
	.loc 2 695 27
	ldr	r3, .L218
	str	r3, [r7, #12]
	.loc 2 696 39
	ldr	r3, .L218+4
	ldr	r3, [r3]
	ldrb	r3, [r3, #64]	@ zero_extendqisi2
	.loc 2 696 19
	mov	r2, r3
	.loc 2 696 8
	ldr	r3, [r7, #4]
	cmp	r3, r2
	bcs	.L216
	.loc 2 696 58 discriminator 1
	ldrb	r3, [r7, #3]	@ zero_extendqisi2
	cmp	r3, #3
	bhi	.L216
	.loc 2 705 138
	ldr	r2, .L218+8
	.loc 2 705 156
	ldr	r3, [r7, #4]
	adds	r3, r3, #224
	ldr	r3, [r2, r3, lsl #2]
	.loc 2 705 166
	bic	r2, r3, #48
	.loc 2 705 198
	ldrb	r3, [r7, #3]	@ zero_extendqisi2
	.loc 2 705 220
	lsls	r3, r3, #4
	.loc 2 705 228
	and	r3, r3, #48
	.loc 2 705 58
	ldr	r1, .L218+8
	.loc 2 705 193
	orrs	r2, r2, r3
	.loc 2 705 85
	ldr	r3, [r7, #4]
	adds	r3, r3, #224
	str	r2, [r1, r3, lsl #2]
	.loc 2 706 16
	movs	r3, #0
	str	r3, [r7, #12]
.L216:
	.loc 2 709 12
	ldr	r3, [r7, #12]
	.loc 2 710 1
	mov	r0, r3
	adds	r7, r7, #20
.LCFI217:
	.cfi_def_cfa_offset 4
	mov	sp, r7
.LCFI218:
	.cfi_def_cfa_register 13
	@ sp needed
	ldr	r7, [sp], #4
.LCFI219:
	.cfi_restore 7
	.cfi_def_cfa_offset 0
	bx	lr
.L219:
	.align	2
.L218:
	.word	4849665
	.word	cy_device
	.word	1076232192
	.cfi_endproc
.LFE180:
	.size	Cy_SysClk_ClkHfSetDivider, .-Cy_SysClk_ClkHfSetDivider
	.section	.text.Cy_SysClk_ClkHfGetDivider,"ax",%progbits
	.align	1
	.global	Cy_SysClk_ClkHfGetDivider
	.syntax unified
	.thumb
	.thumb_func
	.type	Cy_SysClk_ClkHfGetDivider, %function
Cy_SysClk_ClkHfGetDivider:
.LFB181:
	.loc 2 714 1
	.cfi_startproc
	@ args = 0, pretend = 0, frame = 8
	@ frame_needed = 1, uses_anonymous_args = 0
	push	{r7, lr}
.LCFI220:
	.cfi_def_cfa_offset 8
	.cfi_offset 7, -8
	.cfi_offset 14, -4
	sub	sp, sp, #8
.LCFI221:
	.cfi_def_cfa_offset 16
	add	r7, sp, #0
.LCFI222:
	.cfi_def_cfa_register 7
	str	r0, [r7, #4]
	.loc 2 715 44
	ldr	r3, .L223
	ldr	r3, [r3]
	ldrb	r3, [r3, #64]	@ zero_extendqisi2
	.loc 2 715 24
	mov	r2, r3
	.loc 2 715 12
	ldr	r3, [r7, #4]
	cmp	r3, r2
	bcc	.L221
	.loc 2 715 66 discriminator 1
	bl	CY_HALT
.L221:
	.loc 2 716 109
	ldr	r2, .L223+4
	.loc 2 716 127
	ldr	r3, [r7, #4]
	adds	r3, r3, #224
	ldr	r3, [r2, r3, lsl #2]
	.loc 2 716 39
	lsrs	r3, r3, #4
	and	r3, r3, #3
	.loc 2 716 13
	uxtb	r3, r3
	.loc 2 717 1
	mov	r0, r3
	adds	r7, r7, #8
.LCFI223:
	.cfi_def_cfa_offset 8
	mov	sp, r7
.LCFI224:
	.cfi_def_cfa_register 13
	@ sp needed
	pop	{r7, pc}
.L224:
	.align	2
.L223:
	.word	cy_device
	.word	1076232192
	.cfi_endproc
.LFE181:
	.size	Cy_SysClk_ClkHfGetDivider, .-Cy_SysClk_ClkHfGetDivider
	.section	.text.Cy_SysClk_MfoEnable,"ax",%progbits
	.align	1
	.global	Cy_SysClk_MfoEnable
	.syntax unified
	.thumb
	.thumb_func
	.type	Cy_SysClk_MfoEnable, %function
Cy_SysClk_MfoEnable:
.LFB182:
	.loc 2 726 1
	.cfi_startproc
	@ args = 0, pretend = 0, frame = 8
	@ frame_needed = 1, uses_anonymous_args = 0
	@ link register save eliminated.
	push	{r7}
.LCFI225:
	.cfi_def_cfa_offset 4
	.cfi_offset 7, -4
	sub	sp, sp, #12
.LCFI226:
	.cfi_def_cfa_offset 16
	add	r7, sp, #0
.LCFI227:
	.cfi_def_cfa_register 7
	mov	r3, r0
	strb	r3, [r7, #7]
	.loc 2 727 29
	ldr	r3, .L230
	ldr	r3, [r3]
	ldrb	r3, [r3, #49]	@ zero_extendqisi2
	.loc 2 727 8
	cmp	r3, #19
	bne	.L229
	.loc 2 732 89
	ldrb	r3, [r7, #7]	@ zero_extendqisi2
	cmp	r3, #0
	beq	.L227
	.loc 2 732 89 is_stmt 0 discriminator 1
	mov	r3, #-1073741824
	b	.L228
.L227:
	.loc 2 732 89 discriminator 2
	mov	r3, #-2147483648
.L228:
	.loc 2 732 56 is_stmt 1 discriminator 4
	ldr	r2, .L230+4
	.loc 2 732 74 discriminator 4
	str	r3, [r2, #1352]
.L229:
	.loc 2 735 1
	nop
	adds	r7, r7, #12
.LCFI228:
	.cfi_def_cfa_offset 4
	mov	sp, r7
.LCFI229:
	.cfi_def_cfa_register 13
	@ sp needed
	ldr	r7, [sp], #4
.LCFI230:
	.cfi_restore 7
	.cfi_def_cfa_offset 0
	bx	lr
.L231:
	.align	2
.L230:
	.word	cy_device
	.word	1076232192
	.cfi_endproc
.LFE182:
	.size	Cy_SysClk_MfoEnable, .-Cy_SysClk_MfoEnable
	.section	.text.Cy_SysClk_MfoIsEnabled,"ax",%progbits
	.align	1
	.global	Cy_SysClk_MfoIsEnabled
	.syntax unified
	.thumb
	.thumb_func
	.type	Cy_SysClk_MfoIsEnabled, %function
Cy_SysClk_MfoIsEnabled:
.LFB183:
	.loc 2 739 1
	.cfi_startproc
	@ args = 0, pretend = 0, frame = 0
	@ frame_needed = 1, uses_anonymous_args = 0
	@ link register save eliminated.
	push	{r7}
.LCFI231:
	.cfi_def_cfa_offset 4
	.cfi_offset 7, -4
	add	r7, sp, #0
.LCFI232:
	.cfi_def_cfa_register 7
	.loc 2 740 33
	ldr	r3, .L236
	ldr	r3, [r3]
	ldrb	r3, [r3, #49]	@ zero_extendqisi2
	.loc 2 740 49
	cmp	r3, #19
	bne	.L233
	.loc 2 740 108 discriminator 1
	ldr	r3, .L236+4
	ldr	r3, [r3, #1352]
	.loc 2 740 49 discriminator 1
	cmp	r3, #0
	bge	.L233
	.loc 2 740 49 is_stmt 0 discriminator 3
	movs	r3, #1
	b	.L234
.L233:
	.loc 2 740 49 discriminator 4
	movs	r3, #0
.L234:
	.loc 2 740 49 discriminator 6
	and	r3, r3, #1
	uxtb	r3, r3
	.loc 2 741 1 is_stmt 1 discriminator 6
	mov	r0, r3
	mov	sp, r7
.LCFI233:
	.cfi_def_cfa_register 13
	@ sp needed
	ldr	r7, [sp], #4
.LCFI234:
	.cfi_restore 7
	.cfi_def_cfa_offset 0
	bx	lr
.L237:
	.align	2
.L236:
	.word	cy_device
	.word	1076232192
	.cfi_endproc
.LFE183:
	.size	Cy_SysClk_MfoIsEnabled, .-Cy_SysClk_MfoIsEnabled
	.section	.text.Cy_SysClk_MfoDisable,"ax",%progbits
	.align	1
	.global	Cy_SysClk_MfoDisable
	.syntax unified
	.thumb
	.thumb_func
	.type	Cy_SysClk_MfoDisable, %function
Cy_SysClk_MfoDisable:
.LFB184:
	.loc 2 745 1
	.cfi_startproc
	@ args = 0, pretend = 0, frame = 0
	@ frame_needed = 1, uses_anonymous_args = 0
	@ link register save eliminated.
	push	{r7}
.LCFI235:
	.cfi_def_cfa_offset 4
	.cfi_offset 7, -4
	add	r7, sp, #0
.LCFI236:
	.cfi_def_cfa_register 7
	.loc 2 746 29
	ldr	r3, .L241
	ldr	r3, [r3]
	ldrb	r3, [r3, #49]	@ zero_extendqisi2
	.loc 2 746 8
	cmp	r3, #19
	bne	.L240
	.loc 2 751 56
	ldr	r3, .L241+4
	.loc 2 751 74
	movs	r2, #0
	str	r2, [r3, #1352]
.L240:
	.loc 2 754 1
	nop
	mov	sp, r7
.LCFI237:
	.cfi_def_cfa_register 13
	@ sp needed
	ldr	r7, [sp], #4
.LCFI238:
	.cfi_restore 7
	.cfi_def_cfa_offset 0
	bx	lr
.L242:
	.align	2
.L241:
	.word	cy_device
	.word	1076232192
	.cfi_endproc
.LFE184:
	.size	Cy_SysClk_MfoDisable, .-Cy_SysClk_MfoDisable
	.section	.text.Cy_SysClk_ClkMfEnable,"ax",%progbits
	.align	1
	.global	Cy_SysClk_ClkMfEnable
	.syntax unified
	.thumb
	.thumb_func
	.type	Cy_SysClk_ClkMfEnable, %function
Cy_SysClk_ClkMfEnable:
.LFB185:
	.loc 2 758 1
	.cfi_startproc
	@ args = 0, pretend = 0, frame = 0
	@ frame_needed = 1, uses_anonymous_args = 0
	@ link register save eliminated.
	push	{r7}
.LCFI239:
	.cfi_def_cfa_offset 4
	.cfi_offset 7, -4
	add	r7, sp, #0
.LCFI240:
	.cfi_def_cfa_register 7
	.loc 2 759 29
	ldr	r3, .L246
	ldr	r3, [r3]
	ldrb	r3, [r3, #49]	@ zero_extendqisi2
	.loc 2 759 8
	cmp	r3, #19
	bne	.L245
	.loc 2 764 73
	ldr	r3, .L246+4
	ldr	r3, [r3, #1348]
	ldr	r2, .L246+4
	orr	r3, r3, #-2147483648
	str	r3, [r2, #1348]
.L245:
	.loc 2 767 1
	nop
	mov	sp, r7
.LCFI241:
	.cfi_def_cfa_register 13
	@ sp needed
	ldr	r7, [sp], #4
.LCFI242:
	.cfi_restore 7
	.cfi_def_cfa_offset 0
	bx	lr
.L247:
	.align	2
.L246:
	.word	cy_device
	.word	1076232192
	.cfi_endproc
.LFE185:
	.size	Cy_SysClk_ClkMfEnable, .-Cy_SysClk_ClkMfEnable
	.section	.text.Cy_SysClk_ClkMfIsEnabled,"ax",%progbits
	.align	1
	.global	Cy_SysClk_ClkMfIsEnabled
	.syntax unified
	.thumb
	.thumb_func
	.type	Cy_SysClk_ClkMfIsEnabled, %function
Cy_SysClk_ClkMfIsEnabled:
.LFB186:
	.loc 2 771 1
	.cfi_startproc
	@ args = 0, pretend = 0, frame = 0
	@ frame_needed = 1, uses_anonymous_args = 0
	@ link register save eliminated.
	push	{r7}
.LCFI243:
	.cfi_def_cfa_offset 4
	.cfi_offset 7, -4
	add	r7, sp, #0
.LCFI244:
	.cfi_def_cfa_register 7
	.loc 2 772 34
	ldr	r3, .L252
	ldr	r3, [r3]
	ldrb	r3, [r3, #49]	@ zero_extendqisi2
	.loc 2 772 51
	cmp	r3, #19
	bne	.L249
	.loc 2 772 110 discriminator 1
	ldr	r3, .L252+4
	ldr	r3, [r3, #1348]
	.loc 2 772 51 discriminator 1
	cmp	r3, #0
	bge	.L249
	.loc 2 772 51 is_stmt 0 discriminator 3
	movs	r3, #1
	b	.L250
.L249:
	.loc 2 772 51 discriminator 4
	movs	r3, #0
.L250:
	.loc 2 772 51 discriminator 6
	and	r3, r3, #1
	uxtb	r3, r3
	.loc 2 773 1 is_stmt 1 discriminator 6
	mov	r0, r3
	mov	sp, r7
.LCFI245:
	.cfi_def_cfa_register 13
	@ sp needed
	ldr	r7, [sp], #4
.LCFI246:
	.cfi_restore 7
	.cfi_def_cfa_offset 0
	bx	lr
.L253:
	.align	2
.L252:
	.word	cy_device
	.word	1076232192
	.cfi_endproc
.LFE186:
	.size	Cy_SysClk_ClkMfIsEnabled, .-Cy_SysClk_ClkMfIsEnabled
	.section	.text.Cy_SysClk_ClkMfDisable,"ax",%progbits
	.align	1
	.global	Cy_SysClk_ClkMfDisable
	.syntax unified
	.thumb
	.thumb_func
	.type	Cy_SysClk_ClkMfDisable, %function
Cy_SysClk_ClkMfDisable:
.LFB187:
	.loc 2 777 1
	.cfi_startproc
	@ args = 0, pretend = 0, frame = 0
	@ frame_needed = 1, uses_anonymous_args = 0
	@ link register save eliminated.
	push	{r7}
.LCFI247:
	.cfi_def_cfa_offset 4
	.cfi_offset 7, -4
	add	r7, sp, #0
.LCFI248:
	.cfi_def_cfa_register 7
	.loc 2 778 29
	ldr	r3, .L257
	ldr	r3, [r3]
	ldrb	r3, [r3, #49]	@ zero_extendqisi2
	.loc 2 778 8
	cmp	r3, #19
	bne	.L256
	.loc 2 783 73
	ldr	r3, .L257+4
	ldr	r3, [r3, #1348]
	ldr	r2, .L257+4
	bic	r3, r3, #-2147483648
	str	r3, [r2, #1348]
.L256:
	.loc 2 786 1
	nop
	mov	sp, r7
.LCFI249:
	.cfi_def_cfa_register 13
	@ sp needed
	ldr	r7, [sp], #4
.LCFI250:
	.cfi_restore 7
	.cfi_def_cfa_offset 0
	bx	lr
.L258:
	.align	2
.L257:
	.word	cy_device
	.word	1076232192
	.cfi_endproc
.LFE187:
	.size	Cy_SysClk_ClkMfDisable, .-Cy_SysClk_ClkMfDisable
	.section	.text.Cy_SysClk_ClkMfSetDivider,"ax",%progbits
	.align	1
	.global	Cy_SysClk_ClkMfSetDivider
	.syntax unified
	.thumb
	.thumb_func
	.type	Cy_SysClk_ClkMfSetDivider, %function
Cy_SysClk_ClkMfSetDivider:
.LFB188:
	.loc 2 790 1
	.cfi_startproc
	@ args = 0, pretend = 0, frame = 8
	@ frame_needed = 1, uses_anonymous_args = 0
	push	{r7, lr}
.LCFI251:
	.cfi_def_cfa_offset 8
	.cfi_offset 7, -8
	.cfi_offset 14, -4
	sub	sp, sp, #8
.LCFI252:
	.cfi_def_cfa_offset 16
	add	r7, sp, #0
.LCFI253:
	.cfi_def_cfa_register 7
	str	r0, [r7, #4]
	.loc 2 791 30
	ldr	r3, .L262
	ldr	r3, [r3]
	ldrb	r3, [r3, #49]	@ zero_extendqisi2
	.loc 2 791 8
	cmp	r3, #19
	bne	.L261
	.loc 2 791 47 discriminator 1
	ldr	r3, [r7, #4]
	cmp	r3, #0
	beq	.L261
	.loc 2 791 71 discriminator 2
	ldr	r3, [r7, #4]
	cmp	r3, #256
	bhi	.L261
	.loc 2 793 14
	bl	Cy_SysClk_ClkMfIsEnabled
	mov	r3, r0
	.loc 2 793 13
	eor	r3, r3, #1
	uxtb	r3, r3
	.loc 2 793 12
	cmp	r3, #0
	beq	.L261
	.loc 2 798 133
	ldr	r3, .L262+4
	ldr	r3, [r3, #1348]
	.loc 2 798 152
	bic	r2, r3, #65280
	.loc 2 798 186
	ldr	r3, [r7, #4]
	subs	r3, r3, #1
	.loc 2 798 214
	lsls	r3, r3, #8
	.loc 2 798 222
	uxth	r3, r3
	.loc 2 798 62
	ldr	r1, .L262+4
	.loc 2 798 181
	orrs	r3, r3, r2
	.loc 2 798 80
	str	r3, [r1, #1348]
.L261:
	.loc 2 802 1
	nop
	adds	r7, r7, #8
.LCFI254:
	.cfi_def_cfa_offset 8
	mov	sp, r7
.LCFI255:
	.cfi_def_cfa_register 13
	@ sp needed
	pop	{r7, pc}
.L263:
	.align	2
.L262:
	.word	cy_device
	.word	1076232192
	.cfi_endproc
.LFE188:
	.size	Cy_SysClk_ClkMfSetDivider, .-Cy_SysClk_ClkMfSetDivider
	.section	.text.Cy_SysClk_ClkMfGetDivider,"ax",%progbits
	.align	1
	.global	Cy_SysClk_ClkMfGetDivider
	.syntax unified
	.thumb
	.thumb_func
	.type	Cy_SysClk_ClkMfGetDivider, %function
Cy_SysClk_ClkMfGetDivider:
.LFB189:
	.loc 2 806 1
	.cfi_startproc
	@ args = 0, pretend = 0, frame = 0
	@ frame_needed = 1, uses_anonymous_args = 0
	@ link register save eliminated.
	push	{r7}
.LCFI256:
	.cfi_def_cfa_offset 4
	.cfi_offset 7, -4
	add	r7, sp, #0
.LCFI257:
	.cfi_def_cfa_register 7
	.loc 2 807 34
	ldr	r3, .L268
	ldr	r3, [r3]
	ldrb	r3, [r3, #49]	@ zero_extendqisi2
	.loc 2 807 159
	cmp	r3, #19
	bne	.L265
	.loc 2 807 120 discriminator 1
	ldr	r3, .L268+4
	ldr	r3, [r3, #1348]
	.loc 2 807 150 discriminator 1
	lsrs	r3, r3, #8
	uxtb	r3, r3
	.loc 2 807 159 discriminator 1
	adds	r3, r3, #1
	b	.L267
.L265:
	.loc 2 807 159 is_stmt 0 discriminator 2
	movs	r3, #1
.L267:
	.loc 2 808 1 is_stmt 1 discriminator 5
	mov	r0, r3
	mov	sp, r7
.LCFI258:
	.cfi_def_cfa_register 13
	@ sp needed
	ldr	r7, [sp], #4
.LCFI259:
	.cfi_restore 7
	.cfi_def_cfa_offset 0
	bx	lr
.L269:
	.align	2
.L268:
	.word	cy_device
	.word	1076232192
	.cfi_endproc
.LFE189:
	.size	Cy_SysClk_ClkMfGetDivider, .-Cy_SysClk_ClkMfGetDivider
	.section	.text.Cy_SysClk_ClkMfGetFrequency,"ax",%progbits
	.align	1
	.global	Cy_SysClk_ClkMfGetFrequency
	.syntax unified
	.thumb
	.thumb_func
	.type	Cy_SysClk_ClkMfGetFrequency, %function
Cy_SysClk_ClkMfGetFrequency:
.LFB190:
	.loc 2 812 1
	.cfi_startproc
	@ args = 0, pretend = 0, frame = 8
	@ frame_needed = 1, uses_anonymous_args = 0
	push	{r7, lr}
.LCFI260:
	.cfi_def_cfa_offset 8
	.cfi_offset 7, -8
	.cfi_offset 14, -4
	sub	sp, sp, #8
.LCFI261:
	.cfi_def_cfa_offset 16
	add	r7, sp, #0
.LCFI262:
	.cfi_def_cfa_register 7
	.loc 2 813 25
	bl	Cy_SysClk_MfoIsEnabled
	mov	r3, r0
	.loc 2 813 65
	cmp	r3, #0
	beq	.L271
	.loc 2 813 65 is_stmt 0 discriminator 1
	ldr	r3, .L274
	b	.L272
.L271:
	.loc 2 813 65 discriminator 2
	movs	r3, #0
.L272:
	.loc 2 813 14 is_stmt 1 discriminator 4
	str	r3, [r7, #4]
	.loc 2 814 23 discriminator 4
	bl	Cy_SysClk_ClkMfGetDivider
	str	r0, [r7]
	.loc 2 817 37 discriminator 4
	ldr	r3, [r7]
	lsrs	r2, r3, #1
	.loc 2 817 25 discriminator 4
	ldr	r3, [r7, #4]
	add	r2, r2, r3
	.loc 2 817 44 discriminator 4
	ldr	r3, [r7]
	udiv	r3, r2, r3
	.loc 2 818 1 discriminator 4
	mov	r0, r3
	adds	r7, r7, #8
.LCFI263:
	.cfi_def_cfa_offset 8
	mov	sp, r7
.LCFI264:
	.cfi_def_cfa_register 13
	@ sp needed
	pop	{r7, pc}
.L275:
	.align	2
.L274:
	.word	2000000
	.cfi_endproc
.LFE190:
	.size	Cy_SysClk_ClkMfGetFrequency, .-Cy_SysClk_ClkMfGetFrequency
	.section	.text.Cy_SysClk_WcoEnable,"ax",%progbits
	.align	1
	.global	Cy_SysClk_WcoEnable
	.syntax unified
	.thumb
	.thumb_func
	.type	Cy_SysClk_WcoEnable, %function
Cy_SysClk_WcoEnable:
.LFB191:
	.loc 2 822 1
	.cfi_startproc
	@ args = 0, pretend = 0, frame = 16
	@ frame_needed = 1, uses_anonymous_args = 0
	push	{r7, lr}
.LCFI265:
	.cfi_def_cfa_offset 8
	.cfi_offset 7, -8
	.cfi_offset 14, -4
	sub	sp, sp, #16
.LCFI266:
	.cfi_def_cfa_offset 24
	add	r7, sp, #0
.LCFI267:
	.cfi_def_cfa_register 7
	str	r0, [r7, #4]
	.loc 2 828 12
	ldr	r3, .L282
	str	r3, [r7, #12]
	.loc 2 831 63
	ldr	r3, .L282+4
	ldr	r3, [r3]
	ldr	r2, .L282+4
	orr	r3, r3, #8
	str	r3, [r2]
	.loc 2 834 5
	b	.L277
.L279:
	.loc 2 836 9 discriminator 3
	movs	r0, #1
	bl	Cy_SysLib_DelayUs
	.loc 2 834 74 discriminator 3
	ldr	r3, [r7, #4]
	subs	r3, r3, #1
	str	r3, [r7, #4]
.L277:
	.loc 2 834 13 discriminator 1
	bl	Cy_SysClk_WcoOkay
	mov	r3, r0
	.loc 2 834 33 discriminator 1
	eor	r3, r3, #1
	uxtb	r3, r3
	.loc 2 834 5 discriminator 1
	cmp	r3, #0
	beq	.L278
	.loc 2 834 42 discriminator 2
	ldr	r3, [r7, #4]
	cmp	r3, #0
	bne	.L279
.L278:
	.loc 2 839 8
	ldr	r3, [r7, #4]
	cmp	r3, #0
	beq	.L280
	.loc 2 841 16
	movs	r3, #0
	str	r3, [r7, #12]
.L280:
	.loc 2 844 12
	ldr	r3, [r7, #12]
	.loc 2 845 1
	mov	r0, r3
	adds	r7, r7, #16
.LCFI268:
	.cfi_def_cfa_offset 8
	mov	sp, r7
.LCFI269:
	.cfi_def_cfa_register 13
	@ sp needed
	pop	{r7, pc}
.L283:
	.align	2
.L282:
	.word	4849666
	.word	1076297728
	.cfi_endproc
.LFE191:
	.size	Cy_SysClk_WcoEnable, .-Cy_SysClk_WcoEnable
	.section	.text.Cy_SysClk_WcoOkay,"ax",%progbits
	.align	1
	.global	Cy_SysClk_WcoOkay
	.syntax unified
	.thumb
	.thumb_func
	.type	Cy_SysClk_WcoOkay, %function
Cy_SysClk_WcoOkay:
.LFB192:
	.loc 2 849 1
	.cfi_startproc
	@ args = 0, pretend = 0, frame = 0
	@ frame_needed = 1, uses_anonymous_args = 0
	@ link register save eliminated.
	push	{r7}
.LCFI270:
	.cfi_def_cfa_offset 4
	.cfi_offset 7, -4
	add	r7, sp, #0
.LCFI271:
	.cfi_def_cfa_register 7
	.loc 2 850 67
	ldr	r3, .L286
	ldr	r3, [r3, #16]
	.loc 2 850 78
	and	r3, r3, #4
	.loc 2 850 89
	cmp	r3, #0
	ite	ne
	movne	r3, #1
	moveq	r3, #0
	uxtb	r3, r3
	.loc 2 851 1
	mov	r0, r3
	mov	sp, r7
.LCFI272:
	.cfi_def_cfa_register 13
	@ sp needed
	ldr	r7, [sp], #4
.LCFI273:
	.cfi_restore 7
	.cfi_def_cfa_offset 0
	bx	lr
.L287:
	.align	2
.L286:
	.word	1076297728
	.cfi_endproc
.LFE192:
	.size	Cy_SysClk_WcoOkay, .-Cy_SysClk_WcoOkay
	.section	.text.Cy_SysClk_WcoDisable,"ax",%progbits
	.align	1
	.global	Cy_SysClk_WcoDisable
	.syntax unified
	.thumb
	.thumb_func
	.type	Cy_SysClk_WcoDisable, %function
Cy_SysClk_WcoDisable:
.LFB193:
	.loc 2 855 1
	.cfi_startproc
	@ args = 0, pretend = 0, frame = 0
	@ frame_needed = 1, uses_anonymous_args = 0
	@ link register save eliminated.
	push	{r7}
.LCFI274:
	.cfi_def_cfa_offset 4
	.cfi_offset 7, -4
	add	r7, sp, #0
.LCFI275:
	.cfi_def_cfa_register 7
	.loc 2 866 63
	ldr	r3, .L289
	ldr	r3, [r3]
	ldr	r2, .L289
	bic	r3, r3, #8
	str	r3, [r2]
	.loc 2 868 1
	nop
	mov	sp, r7
.LCFI276:
	.cfi_def_cfa_register 13
	@ sp needed
	ldr	r7, [sp], #4
.LCFI277:
	.cfi_restore 7
	.cfi_def_cfa_offset 0
	bx	lr
.L290:
	.align	2
.L289:
	.word	1076297728
	.cfi_endproc
.LFE193:
	.size	Cy_SysClk_WcoDisable, .-Cy_SysClk_WcoDisable
	.section	.text.Cy_SysClk_WcoBypass,"ax",%progbits
	.align	1
	.global	Cy_SysClk_WcoBypass
	.syntax unified
	.thumb
	.thumb_func
	.type	Cy_SysClk_WcoBypass, %function
Cy_SysClk_WcoBypass:
.LFB194:
	.loc 2 872 1
	.cfi_startproc
	@ args = 0, pretend = 0, frame = 8
	@ frame_needed = 1, uses_anonymous_args = 0
	@ link register save eliminated.
	push	{r7}
.LCFI278:
	.cfi_def_cfa_offset 4
	.cfi_offset 7, -4
	sub	sp, sp, #12
.LCFI279:
	.cfi_def_cfa_offset 16
	add	r7, sp, #0
.LCFI280:
	.cfi_def_cfa_register 7
	mov	r3, r0
	strb	r3, [r7, #7]
	.loc 2 883 123
	ldr	r3, .L292
	ldr	r3, [r3]
	.loc 2 883 132
	bic	r2, r3, #65536
	.loc 2 883 167
	ldrb	r3, [r7, #7]	@ zero_extendqisi2
	.loc 2 883 188
	lsls	r3, r3, #16
	.loc 2 883 197
	and	r3, r3, #65536
	.loc 2 883 58
	ldr	r1, .L292
	.loc 2 883 162
	orrs	r3, r3, r2
	.loc 2 883 66
	str	r3, [r1]
	.loc 2 885 1
	nop
	adds	r7, r7, #12
.LCFI281:
	.cfi_def_cfa_offset 4
	mov	sp, r7
.LCFI282:
	.cfi_def_cfa_register 13
	@ sp needed
	ldr	r7, [sp], #4
.LCFI283:
	.cfi_restore 7
	.cfi_def_cfa_offset 0
	bx	lr
.L293:
	.align	2
.L292:
	.word	1076297728
	.cfi_endproc
.LFE194:
	.size	Cy_SysClk_WcoBypass, .-Cy_SysClk_WcoBypass
	.section	.text.Cy_SysClk_PiloEnable,"ax",%progbits
	.align	1
	.global	Cy_SysClk_PiloEnable
	.syntax unified
	.thumb
	.thumb_func
	.type	Cy_SysClk_PiloEnable, %function
Cy_SysClk_PiloEnable:
.LFB195:
	.loc 2 894 1
	.cfi_startproc
	@ args = 0, pretend = 0, frame = 0
	@ frame_needed = 1, uses_anonymous_args = 0
	push	{r7, lr}
.LCFI284:
	.cfi_def_cfa_offset 8
	.cfi_offset 7, -8
	.cfi_offset 14, -4
	add	r7, sp, #0
.LCFI285:
	.cfi_def_cfa_register 7
	.loc 2 905 71
	ldr	r3, .L295
	ldr	r3, [r3, #1340]
	ldr	r2, .L295
	orr	r3, r3, #-2147483648
	str	r3, [r2, #1340]
	.loc 2 906 5
	movs	r0, #1
	bl	Cy_SysLib_Delay
	.loc 2 908 71
	ldr	r3, .L295
	ldr	r3, [r3, #1340]
	ldr	r2, .L295
	orr	r3, r3, #1610612736
	str	r3, [r2, #1340]
	.loc 2 911 1
	nop
	pop	{r7, pc}
.L296:
	.align	2
.L295:
	.word	1076232192
	.cfi_endproc
.LFE195:
	.size	Cy_SysClk_PiloEnable, .-Cy_SysClk_PiloEnable
	.section	.text.Cy_SysClk_PiloIsEnabled,"ax",%progbits
	.align	1
	.global	Cy_SysClk_PiloIsEnabled
	.syntax unified
	.thumb
	.thumb_func
	.type	Cy_SysClk_PiloIsEnabled, %function
Cy_SysClk_PiloIsEnabled:
.LFB196:
	.loc 2 915 1
	.cfi_startproc
	@ args = 0, pretend = 0, frame = 0
	@ frame_needed = 1, uses_anonymous_args = 0
	@ link register save eliminated.
	push	{r7}
.LCFI286:
	.cfi_def_cfa_offset 4
	.cfi_offset 7, -4
	add	r7, sp, #0
.LCFI287:
	.cfi_def_cfa_register 7
	.loc 2 916 63
	ldr	r3, .L299
	ldr	r3, [r3, #1340]
	.loc 2 916 83
	and	r3, r3, #536870912
	.loc 2 916 101
	cmp	r3, #0
	ite	ne
	movne	r3, #1
	moveq	r3, #0
	uxtb	r3, r3
	.loc 2 917 1
	mov	r0, r3
	mov	sp, r7
.LCFI288:
	.cfi_def_cfa_register 13
	@ sp needed
	ldr	r7, [sp], #4
.LCFI289:
	.cfi_restore 7
	.cfi_def_cfa_offset 0
	bx	lr
.L300:
	.align	2
.L299:
	.word	1076232192
	.cfi_endproc
.LFE196:
	.size	Cy_SysClk_PiloIsEnabled, .-Cy_SysClk_PiloIsEnabled
	.section	.text.Cy_SysClk_PiloDisable,"ax",%progbits
	.align	1
	.global	Cy_SysClk_PiloDisable
	.syntax unified
	.thumb
	.thumb_func
	.type	Cy_SysClk_PiloDisable, %function
Cy_SysClk_PiloDisable:
.LFB197:
	.loc 2 921 1
	.cfi_startproc
	@ args = 0, pretend = 0, frame = 0
	@ frame_needed = 1, uses_anonymous_args = 0
	@ link register save eliminated.
	push	{r7}
.LCFI290:
	.cfi_def_cfa_offset 4
	.cfi_offset 7, -4
	add	r7, sp, #0
.LCFI291:
	.cfi_def_cfa_register 7
	.loc 2 934 71
	ldr	r3, .L302
	ldr	r3, [r3, #1340]
	ldr	r2, .L302
	bic	r3, r3, #-536870912
	str	r3, [r2, #1340]
	.loc 2 938 1
	nop
	mov	sp, r7
.LCFI292:
	.cfi_def_cfa_register 13
	@ sp needed
	ldr	r7, [sp], #4
.LCFI293:
	.cfi_restore 7
	.cfi_def_cfa_offset 0
	bx	lr
.L303:
	.align	2
.L302:
	.word	1076232192
	.cfi_endproc
.LFE197:
	.size	Cy_SysClk_PiloDisable, .-Cy_SysClk_PiloDisable
	.section	.text.Cy_SysClk_PiloSetTrim,"ax",%progbits
	.align	1
	.global	Cy_SysClk_PiloSetTrim
	.syntax unified
	.thumb
	.thumb_func
	.type	Cy_SysClk_PiloSetTrim, %function
Cy_SysClk_PiloSetTrim:
.LFB198:
	.loc 2 942 1
	.cfi_startproc
	@ args = 0, pretend = 0, frame = 8
	@ frame_needed = 1, uses_anonymous_args = 0
	@ link register save eliminated.
	push	{r7}
.LCFI294:
	.cfi_def_cfa_offset 4
	.cfi_offset 7, -4
	sub	sp, sp, #12
.LCFI295:
	.cfi_def_cfa_offset 16
	add	r7, sp, #0
.LCFI296:
	.cfi_def_cfa_register 7
	str	r0, [r7, #4]
	.loc 2 946 127
	ldr	r3, .L305
	ldr	r3, [r3, #1340]
	.loc 2 946 148
	bic	r3, r3, #1020
	bic	r3, r3, #3
	.loc 2 946 211
	ldr	r2, [r7, #4]
	ubfx	r2, r2, #0, #10
	.loc 2 946 54
	ldr	r1, .L305
	.loc 2 946 176
	orrs	r3, r3, r2
	.loc 2 946 74
	str	r3, [r1, #1340]
	.loc 2 948 1
	nop
	adds	r7, r7, #12
.LCFI297:
	.cfi_def_cfa_offset 4
	mov	sp, r7
.LCFI298:
	.cfi_def_cfa_register 13
	@ sp needed
	ldr	r7, [sp], #4
.LCFI299:
	.cfi_restore 7
	.cfi_def_cfa_offset 0
	bx	lr
.L306:
	.align	2
.L305:
	.word	1076232192
	.cfi_endproc
.LFE198:
	.size	Cy_SysClk_PiloSetTrim, .-Cy_SysClk_PiloSetTrim
	.section	.text.Cy_SysClk_PiloGetTrim,"ax",%progbits
	.align	1
	.global	Cy_SysClk_PiloGetTrim
	.syntax unified
	.thumb
	.thumb_func
	.type	Cy_SysClk_PiloGetTrim, %function
Cy_SysClk_PiloGetTrim:
.LFB199:
	.loc 2 952 1
	.cfi_startproc
	@ args = 0, pretend = 0, frame = 0
	@ frame_needed = 1, uses_anonymous_args = 0
	@ link register save eliminated.
	push	{r7}
.LCFI300:
	.cfi_def_cfa_offset 4
	.cfi_offset 7, -4
	add	r7, sp, #0
.LCFI301:
	.cfi_def_cfa_register 7
	.loc 2 953 73
	ldr	r3, .L309
	ldr	r3, [r3, #1340]
	.loc 2 953 104
	ubfx	r3, r3, #0, #10
	.loc 2 954 1
	mov	r0, r3
	mov	sp, r7
.LCFI302:
	.cfi_def_cfa_register 13
	@ sp needed
	ldr	r7, [sp], #4
.LCFI303:
	.cfi_restore 7
	.cfi_def_cfa_offset 0
	bx	lr
.L310:
	.align	2
.L309:
	.word	1076232192
	.cfi_endproc
.LFE199:
	.size	Cy_SysClk_PiloGetTrim, .-Cy_SysClk_PiloGetTrim
	.section	.text.Cy_SysClk_AltHfGetFrequency,"ax",%progbits
	.align	1
	.global	Cy_SysClk_AltHfGetFrequency
	.syntax unified
	.thumb
	.thumb_func
	.type	Cy_SysClk_AltHfGetFrequency, %function
Cy_SysClk_AltHfGetFrequency:
.LFB200:
	.loc 2 963 1
	.cfi_startproc
	@ args = 0, pretend = 0, frame = 0
	@ frame_needed = 1, uses_anonymous_args = 0
	@ link register save eliminated.
	push	{r7}
.LCFI304:
	.cfi_def_cfa_offset 4
	.cfi_offset 7, -4
	add	r7, sp, #0
.LCFI305:
	.cfi_def_cfa_register 7
	.loc 2 967 16
	movs	r3, #0
	.loc 2 969 1
	mov	r0, r3
	mov	sp, r7
.LCFI306:
	.cfi_def_cfa_register 13
	@ sp needed
	ldr	r7, [sp], #4
.LCFI307:
	.cfi_restore 7
	.cfi_def_cfa_offset 0
	bx	lr
	.cfi_endproc
.LFE200:
	.size	Cy_SysClk_AltHfGetFrequency, .-Cy_SysClk_AltHfGetFrequency
	.section	.text.Cy_SysClk_AltLfGetFrequency,"ax",%progbits
	.align	1
	.global	Cy_SysClk_AltLfGetFrequency
	.syntax unified
	.thumb
	.thumb_func
	.type	Cy_SysClk_AltLfGetFrequency, %function
Cy_SysClk_AltLfGetFrequency:
.LFB201:
	.loc 2 978 1
	.cfi_startproc
	@ args = 0, pretend = 0, frame = 0
	@ frame_needed = 1, uses_anonymous_args = 0
	@ link register save eliminated.
	push	{r7}
.LCFI308:
	.cfi_def_cfa_offset 4
	.cfi_offset 7, -4
	add	r7, sp, #0
.LCFI309:
	.cfi_def_cfa_register 7
	.loc 2 979 12
	movs	r3, #0
	.loc 2 980 1
	mov	r0, r3
	mov	sp, r7
.LCFI310:
	.cfi_def_cfa_register 13
	@ sp needed
	ldr	r7, [sp], #4
.LCFI311:
	.cfi_restore 7
	.cfi_def_cfa_offset 0
	bx	lr
	.cfi_endproc
.LFE201:
	.size	Cy_SysClk_AltLfGetFrequency, .-Cy_SysClk_AltLfGetFrequency
	.section	.text.Cy_SysClk_AltLfIsEnabled,"ax",%progbits
	.align	1
	.global	Cy_SysClk_AltLfIsEnabled
	.syntax unified
	.thumb
	.thumb_func
	.type	Cy_SysClk_AltLfIsEnabled, %function
Cy_SysClk_AltLfIsEnabled:
.LFB202:
	.loc 2 984 1
	.cfi_startproc
	@ args = 0, pretend = 0, frame = 0
	@ frame_needed = 1, uses_anonymous_args = 0
	@ link register save eliminated.
	push	{r7}
.LCFI312:
	.cfi_def_cfa_offset 4
	.cfi_offset 7, -4
	add	r7, sp, #0
.LCFI313:
	.cfi_def_cfa_register 7
	.loc 2 985 12
	movs	r3, #0
	.loc 2 986 1
	mov	r0, r3
	mov	sp, r7
.LCFI314:
	.cfi_def_cfa_register 13
	@ sp needed
	ldr	r7, [sp], #4
.LCFI315:
	.cfi_restore 7
	.cfi_def_cfa_offset 0
	bx	lr
	.cfi_endproc
.LFE202:
	.size	Cy_SysClk_AltLfIsEnabled, .-Cy_SysClk_AltLfIsEnabled
	.section	.text.Cy_SysClk_IloEnable,"ax",%progbits
	.align	1
	.global	Cy_SysClk_IloEnable
	.syntax unified
	.thumb
	.thumb_func
	.type	Cy_SysClk_IloEnable, %function
Cy_SysClk_IloEnable:
.LFB203:
	.loc 2 995 1
	.cfi_startproc
	@ args = 0, pretend = 0, frame = 0
	@ frame_needed = 1, uses_anonymous_args = 0
	@ link register save eliminated.
	push	{r7}
.LCFI316:
	.cfi_def_cfa_offset 4
	.cfi_offset 7, -4
	add	r7, sp, #0
.LCFI317:
	.cfi_def_cfa_register 7
	.loc 2 1006 70
	ldr	r3, .L318
	ldr	r3, [r3, #1292]
	ldr	r2, .L318
	orr	r3, r3, #-2147483648
	str	r3, [r2, #1292]
	.loc 2 1008 1
	nop
	mov	sp, r7
.LCFI318:
	.cfi_def_cfa_register 13
	@ sp needed
	ldr	r7, [sp], #4
.LCFI319:
	.cfi_restore 7
	.cfi_def_cfa_offset 0
	bx	lr
.L319:
	.align	2
.L318:
	.word	1076232192
	.cfi_endproc
.LFE203:
	.size	Cy_SysClk_IloEnable, .-Cy_SysClk_IloEnable
	.section	.text.Cy_SysClk_IloIsEnabled,"ax",%progbits
	.align	1
	.global	Cy_SysClk_IloIsEnabled
	.syntax unified
	.thumb
	.thumb_func
	.type	Cy_SysClk_IloIsEnabled, %function
Cy_SysClk_IloIsEnabled:
.LFB204:
	.loc 2 1012 1
	.cfi_startproc
	@ args = 0, pretend = 0, frame = 0
	@ frame_needed = 1, uses_anonymous_args = 0
	@ link register save eliminated.
	push	{r7}
.LCFI320:
	.cfi_def_cfa_offset 4
	.cfi_offset 7, -4
	add	r7, sp, #0
.LCFI321:
	.cfi_def_cfa_register 7
	.loc 2 1013 63
	ldr	r3, .L322
	ldr	r3, [r3, #1292]
	.loc 2 1013 100
	lsrs	r3, r3, #31
	uxtb	r3, r3
	.loc 2 1014 1
	mov	r0, r3
	mov	sp, r7
.LCFI322:
	.cfi_def_cfa_register 13
	@ sp needed
	ldr	r7, [sp], #4
.LCFI323:
	.cfi_restore 7
	.cfi_def_cfa_offset 0
	bx	lr
.L323:
	.align	2
.L322:
	.word	1076232192
	.cfi_endproc
.LFE204:
	.size	Cy_SysClk_IloIsEnabled, .-Cy_SysClk_IloIsEnabled
	.section	.text.Cy_SysClk_IloDisable,"ax",%progbits
	.align	1
	.global	Cy_SysClk_IloDisable
	.syntax unified
	.thumb
	.thumb_func
	.type	Cy_SysClk_IloDisable, %function
Cy_SysClk_IloDisable:
.LFB205:
	.loc 2 1018 1
	.cfi_startproc
	@ args = 0, pretend = 0, frame = 8
	@ frame_needed = 1, uses_anonymous_args = 0
	@ link register save eliminated.
	push	{r7}
.LCFI324:
	.cfi_def_cfa_offset 4
	.cfi_offset 7, -4
	sub	sp, sp, #12
.LCFI325:
	.cfi_def_cfa_offset 16
	add	r7, sp, #0
.LCFI326:
	.cfi_def_cfa_register 7
	.loc 2 1025 12
	ldr	r3, .L327
	str	r3, [r7, #4]
	.loc 2 1026 60
	ldr	r3, .L327+4
	ldr	r3, [r3, #384]
	.loc 2 1026 72
	and	r3, r3, #1
	.loc 2 1026 8
	cmp	r3, #0
	bne	.L325
	.loc 2 1028 74
	ldr	r3, .L327+4
	ldr	r3, [r3, #1292]
	ldr	r2, .L327+4
	bic	r3, r3, #-2147483648
	str	r3, [r2, #1292]
	.loc 2 1029 16
	movs	r3, #0
	str	r3, [r7, #4]
.L325:
	.loc 2 1032 12
	ldr	r3, [r7, #4]
	.loc 2 1033 1
	mov	r0, r3
	adds	r7, r7, #12
.LCFI327:
	.cfi_def_cfa_offset 4
	mov	sp, r7
.LCFI328:
	.cfi_def_cfa_register 13
	@ sp needed
	ldr	r7, [sp], #4
.LCFI329:
	.cfi_restore 7
	.cfi_def_cfa_offset 0
	bx	lr
.L328:
	.align	2
.L327:
	.word	4849667
	.word	1076232192
	.cfi_endproc
.LFE205:
	.size	Cy_SysClk_IloDisable, .-Cy_SysClk_IloDisable
	.section	.text.Cy_SysClk_IloHibernateOn,"ax",%progbits
	.align	1
	.global	Cy_SysClk_IloHibernateOn
	.syntax unified
	.thumb
	.thumb_func
	.type	Cy_SysClk_IloHibernateOn, %function
Cy_SysClk_IloHibernateOn:
.LFB206:
	.loc 2 1037 1
	.cfi_startproc
	@ args = 0, pretend = 0, frame = 8
	@ frame_needed = 1, uses_anonymous_args = 0
	@ link register save eliminated.
	push	{r7}
.LCFI330:
	.cfi_def_cfa_offset 4
	.cfi_offset 7, -4
	sub	sp, sp, #12
.LCFI331:
	.cfi_def_cfa_offset 16
	add	r7, sp, #0
.LCFI332:
	.cfi_def_cfa_register 7
	mov	r3, r0
	strb	r3, [r7, #7]
	.loc 2 1048 126
	ldr	r3, .L332
	ldr	r3, [r3, #1292]
	.loc 2 1048 146
	bic	r3, r3, #1
	.loc 2 1048 218
	ldrb	r2, [r7, #7]	@ zero_extendqisi2
	cmp	r2, #0
	beq	.L330
	.loc 2 1048 218 is_stmt 0 discriminator 1
	movs	r2, #1
	b	.L331
.L330:
	.loc 2 1048 218 discriminator 2
	movs	r2, #0
.L331:
	.loc 2 1048 54 is_stmt 1 discriminator 4
	ldr	r1, .L332
	.loc 2 1048 172 discriminator 4
	orrs	r3, r3, r2
	.loc 2 1048 73 discriminator 4
	str	r3, [r1, #1292]
	.loc 2 1050 1 discriminator 4
	nop
	adds	r7, r7, #12
.LCFI333:
	.cfi_def_cfa_offset 4
	mov	sp, r7
.LCFI334:
	.cfi_def_cfa_register 13
	@ sp needed
	ldr	r7, [sp], #4
.LCFI335:
	.cfi_restore 7
	.cfi_def_cfa_offset 0
	bx	lr
.L333:
	.align	2
.L332:
	.word	1076232192
	.cfi_endproc
.LFE206:
	.size	Cy_SysClk_IloHibernateOn, .-Cy_SysClk_IloHibernateOn
	.section	.bss.cySysClkExtFreq,"aw",%nobits
	.align	2
	.type	cySysClkExtFreq, %object
	.size	cySysClkExtFreq, 4
cySysClkExtFreq:
	.space	4
	.section	.text.Cy_SysClk_ExtClkSetFrequency,"ax",%progbits
	.align	1
	.global	Cy_SysClk_ExtClkSetFrequency
	.syntax unified
	.thumb
	.thumb_func
	.type	Cy_SysClk_ExtClkSetFrequency, %function
Cy_SysClk_ExtClkSetFrequency:
.LFB207:
	.loc 2 1067 1
	.cfi_startproc
	@ args = 0, pretend = 0, frame = 8
	@ frame_needed = 1, uses_anonymous_args = 0
	@ link register save eliminated.
	push	{r7}
.LCFI336:
	.cfi_def_cfa_offset 4
	.cfi_offset 7, -4
	sub	sp, sp, #12
.LCFI337:
	.cfi_def_cfa_offset 16
	add	r7, sp, #0
.LCFI338:
	.cfi_def_cfa_register 7
	str	r0, [r7, #4]
	.loc 2 1068 8
	ldr	r3, [r7, #4]
	ldr	r2, .L337
	cmp	r3, r2
	bhi	.L336
	.loc 2 1073 25
	ldr	r2, .L337+4
	ldr	r3, [r7, #4]
	str	r3, [r2]
.L336:
	.loc 2 1076 1
	nop
	adds	r7, r7, #12
.LCFI339:
	.cfi_def_cfa_offset 4
	mov	sp, r7
.LCFI340:
	.cfi_def_cfa_register 13
	@ sp needed
	ldr	r7, [sp], #4
.LCFI341:
	.cfi_restore 7
	.cfi_def_cfa_offset 0
	bx	lr
.L338:
	.align	2
.L337:
	.word	100000000
	.word	cySysClkExtFreq
	.cfi_endproc
.LFE207:
	.size	Cy_SysClk_ExtClkSetFrequency, .-Cy_SysClk_ExtClkSetFrequency
	.section	.text.Cy_SysClk_ExtClkGetFrequency,"ax",%progbits
	.align	1
	.global	Cy_SysClk_ExtClkGetFrequency
	.syntax unified
	.thumb
	.thumb_func
	.type	Cy_SysClk_ExtClkGetFrequency, %function
Cy_SysClk_ExtClkGetFrequency:
.LFB208:
	.loc 2 1080 1
	.cfi_startproc
	@ args = 0, pretend = 0, frame = 0
	@ frame_needed = 1, uses_anonymous_args = 0
	@ link register save eliminated.
	push	{r7}
.LCFI342:
	.cfi_def_cfa_offset 4
	.cfi_offset 7, -4
	add	r7, sp, #0
.LCFI343:
	.cfi_def_cfa_register 7
	.loc 2 1081 12
	ldr	r3, .L341
	ldr	r3, [r3]
	.loc 2 1082 1
	mov	r0, r3
	mov	sp, r7
.LCFI344:
	.cfi_def_cfa_register 13
	@ sp needed
	ldr	r7, [sp], #4
.LCFI345:
	.cfi_restore 7
	.cfi_def_cfa_offset 0
	bx	lr
.L342:
	.align	2
.L341:
	.word	cySysClkExtFreq
	.cfi_endproc
.LFE208:
	.size	Cy_SysClk_ExtClkGetFrequency, .-Cy_SysClk_ExtClkGetFrequency
	.section	.text.cy_sqrt,"ax",%progbits
	.align	1
	.syntax unified
	.thumb
	.thumb_func
	.type	cy_sqrt, %function
cy_sqrt:
.LFB209:
	.loc 2 1105 1
	.cfi_startproc
	@ args = 0, pretend = 0, frame = 24
	@ frame_needed = 1, uses_anonymous_args = 0
	@ link register save eliminated.
	push	{r7}
.LCFI346:
	.cfi_def_cfa_offset 4
	.cfi_offset 7, -4
	sub	sp, sp, #28
.LCFI347:
	.cfi_def_cfa_offset 32
	add	r7, sp, #0
.LCFI348:
	.cfi_def_cfa_register 7
	str	r0, [r7, #4]
	.loc 2 1107 14
	movs	r3, #0
	str	r3, [r7, #16]
	.loc 2 1108 14
	mov	r3, #32768
	str	r3, [r7, #12]
	.loc 2 1110 11
	movs	r3, #0
	str	r3, [r7, #20]
	.loc 2 1110 5
	b	.L344
.L346:
.LBB2:
	.loc 2 1112 18
	ldr	r2, [r7, #16]
	ldr	r3, [r7, #12]
	orrs	r3, r3, r2
	str	r3, [r7, #8]
	.loc 2 1114 23
	ldr	r3, [r7, #8]
	mul	r3, r3, r3
	.loc 2 1114 12
	ldr	r2, [r7, #4]
	cmp	r2, r3
	bcc	.L345
	.loc 2 1116 17
	ldr	r3, [r7, #8]
	str	r3, [r7, #16]
.L345:
	.loc 2 1119 13 discriminator 2
	ldr	r3, [r7, #12]
	lsrs	r3, r3, #1
	str	r3, [r7, #12]
.LBE2:
	.loc 2 1110 29 discriminator 2
	ldr	r3, [r7, #20]
	adds	r3, r3, #1
	str	r3, [r7, #20]
.L344:
	.loc 2 1110 5 discriminator 1
	ldr	r3, [r7, #20]
	cmp	r3, #15
	bls	.L346
	.loc 2 1122 12
	ldr	r3, [r7, #16]
	.loc 2 1123 1
	mov	r0, r3
	adds	r7, r7, #28
.LCFI349:
	.cfi_def_cfa_offset 4
	mov	sp, r7
.LCFI350:
	.cfi_def_cfa_register 13
	@ sp needed
	ldr	r7, [sp], #4
.LCFI351:
	.cfi_restore 7
	.cfi_def_cfa_offset 0
	bx	lr
	.cfi_endproc
.LFE209:
	.size	cy_sqrt, .-cy_sqrt
	.section	.bss.ecoFrequency,"aw",%nobits
	.align	2
	.type	ecoFrequency, %object
	.size	ecoFrequency, 4
ecoFrequency:
	.space	4
	.section	.text.Cy_SysClk_EcoDisable,"ax",%progbits
	.align	1
	.global	Cy_SysClk_EcoDisable
	.syntax unified
	.thumb
	.thumb_func
	.type	Cy_SysClk_EcoDisable, %function
Cy_SysClk_EcoDisable:
.LFB210:
	.loc 2 1141 1
	.cfi_startproc
	@ args = 0, pretend = 0, frame = 0
	@ frame_needed = 1, uses_anonymous_args = 0
	@ link register save eliminated.
	push	{r7}
.LCFI352:
	.cfi_def_cfa_offset 4
	.cfi_offset 7, -4
	add	r7, sp, #0
.LCFI353:
	.cfi_def_cfa_register 7
	.loc 2 1152 70
	ldr	r3, .L349
	ldr	r3, [r3, #1324]
	ldr	r2, .L349
	bic	r3, r3, #-2147483648
	str	r3, [r2, #1324]
	.loc 2 1154 1
	nop
	mov	sp, r7
.LCFI354:
	.cfi_def_cfa_register 13
	@ sp needed
	ldr	r7, [sp], #4
.LCFI355:
	.cfi_restore 7
	.cfi_def_cfa_offset 0
	bx	lr
.L350:
	.align	2
.L349:
	.word	1076232192
	.cfi_endproc
.LFE210:
	.size	Cy_SysClk_EcoDisable, .-Cy_SysClk_EcoDisable
	.section	.text.Cy_SysClk_EcoGetStatus,"ax",%progbits
	.align	1
	.global	Cy_SysClk_EcoGetStatus
	.syntax unified
	.thumb
	.thumb_func
	.type	Cy_SysClk_EcoGetStatus, %function
Cy_SysClk_EcoGetStatus:
.LFB211:
	.loc 2 1158 1
	.cfi_startproc
	@ args = 0, pretend = 0, frame = 0
	@ frame_needed = 1, uses_anonymous_args = 0
	@ link register save eliminated.
	push	{r7}
.LCFI356:
	.cfi_def_cfa_offset 4
	.cfi_offset 7, -4
	add	r7, sp, #0
.LCFI357:
	.cfi_def_cfa_register 7
	.loc 2 1160 99
	ldr	r3, .L355
	ldr	r3, [r3, #1328]
	.loc 2 1160 50
	and	r3, r3, #3
	.loc 2 1161 11
	cmp	r3, #3
	beq	.L352
	.loc 2 1161 69 discriminator 1
	ldr	r3, .L355
	ldr	r3, [r3, #1328]
	.loc 2 1161 11 discriminator 1
	and	r3, r3, #1
	b	.L354
.L352:
	.loc 2 1161 11 is_stmt 0 discriminator 2
	movs	r3, #2
.L354:
	.loc 2 1162 1 is_stmt 1 discriminator 5
	mov	r0, r3
	mov	sp, r7
.LCFI358:
	.cfi_def_cfa_register 13
	@ sp needed
	ldr	r7, [sp], #4
.LCFI359:
	.cfi_restore 7
	.cfi_def_cfa_offset 0
	bx	lr
.L356:
	.align	2
.L355:
	.word	1076232192
	.cfi_endproc
.LFE211:
	.size	Cy_SysClk_EcoGetStatus, .-Cy_SysClk_EcoGetStatus
	.section	.text.Cy_SysClk_EcoConfigure,"ax",%progbits
	.align	1
	.global	Cy_SysClk_EcoConfigure
	.syntax unified
	.thumb
	.thumb_func
	.type	Cy_SysClk_EcoConfigure, %function
Cy_SysClk_EcoConfigure:
.LFB212:
	.loc 2 1166 1
	.cfi_startproc
	@ args = 0, pretend = 0, frame = 40
	@ frame_needed = 1, uses_anonymous_args = 0
	push	{r7, lr}
.LCFI360:
	.cfi_def_cfa_offset 8
	.cfi_offset 7, -8
	.cfi_offset 14, -4
	sub	sp, sp, #40
.LCFI361:
	.cfi_def_cfa_offset 48
	add	r7, sp, #0
.LCFI362:
	.cfi_def_cfa_register 7
	str	r0, [r7, #12]
	str	r1, [r7, #8]
	str	r2, [r7, #4]
	str	r3, [r7]
	.loc 2 1167 27
	ldr	r3, .L363
	str	r3, [r7, #36]
	.loc 2 1184 79
	ldr	r3, .L363+4
	ldr	r3, [r3, #1324]
	.loc 2 1184 8
	cmp	r3, #0
	bge	.L358
	.loc 2 1186 16
	ldr	r3, .L363+8
	str	r3, [r7, #36]
	b	.L359
.L358:
	.loc 2 1188 13
	ldr	r3, [r7, #12]
	ldr	r2, .L363+12
	cmp	r3, r2
	bcc	.L359
	.loc 2 1188 41 discriminator 1
	ldr	r3, [r7, #12]
	ldr	r2, .L363+16
	cmp	r3, r2
	bhi	.L359
	.loc 2 1188 71 discriminator 2
	ldr	r3, [r7, #8]
	cmp	r3, #0
	beq	.L359
	.loc 2 1189 31
	ldr	r3, [r7, #8]
	cmp	r3, #100
	bhi	.L359
	.loc 2 1189 56 discriminator 1
	ldr	r3, [r7, #4]
	cmp	r3, #0
	beq	.L359
	.loc 2 1190 30
	ldr	r3, [r7, #4]
	cmp	r3, #1000
	bhi	.L359
	.loc 2 1190 55 discriminator 1
	ldr	r3, [r7]
	cmp	r3, #0
	beq	.L359
	.loc 2 1191 37
	ldr	r3, [r7]
	cmp	r3, #2000
	bhi	.L359
.LBB3:
	.loc 2 1194 37
	ldr	r3, [r7, #12]
	add	r3, r3, #500
	.loc 2 1194 18
	ldr	r2, .L363+20
	umull	r2, r3, r2, r3
	lsrs	r3, r3, #6
	str	r3, [r7, #32]
	.loc 2 1196 64
	ldr	r3, [r7]
	ldr	r2, .L363+24
	mul	r2, r3, r2
	.loc 2 1196 87
	ldr	r3, [r7, #4]
	lsrs	r3, r3, #1
	.loc 2 1196 78
	add	r2, r2, r3
	.loc 2 1196 43
	ldr	r3, [r7, #4]
	udiv	r3, r2, r3
	mov	r0, r3
	bl	cy_sqrt
	mov	r3, r0
	.loc 2 1196 41
	ldr	r2, .L363+28
	mul	r2, r3, r2
	.loc 2 1196 119
	ldr	r3, [r7, #32]
	ldr	r1, [r7, #8]
	mul	r3, r1, r3
	.loc 2 1196 128
	lsrs	r3, r3, #1
	.loc 2 1196 106
	add	r2, r2, r3
	.loc 2 1196 147
	ldr	r3, [r7, #32]
	ldr	r1, [r7, #8]
	mul	r3, r1, r3
	.loc 2 1196 18
	udiv	r3, r2, r3
	str	r3, [r7, #28]
	.loc 2 1201 37
	ldr	r3, [r7, #8]
	mul	r1, r3, r3
	.loc 2 1201 57
	ldr	r3, [r7, #32]
	mul	r3, r3, r3
	.loc 2 1201 68
	add	r3, r3, #63232
	adds	r3, r3, #93
	.loc 2 1201 89
	ldr	r2, .L363+32
	umull	r0, r2, r2, r3
	subs	r3, r3, r2
	lsrs	r3, r3, #1
	add	r3, r3, r2
	lsrs	r3, r3, #16
	.loc 2 1201 44
	mul	r3, r1, r3
	.loc 2 1201 104
	adds	r3, r3, #50
	.loc 2 1201 122
	ldr	r2, .L363+36
	umull	r2, r3, r2, r3
	lsrs	r3, r3, #5
	.loc 2 1202 86
	ldr	r2, [r7, #4]
	mul	r3, r2, r3
	.loc 2 1201 18
	ldr	r2, .L363+40
	umull	r2, r3, r2, r3
	lsrs	r3, r3, #19
	str	r3, [r7, #24]
	.loc 2 1204 12
	ldr	r3, [r7, #28]
	movw	r2, #649
	cmp	r3, r2
	bls	.L359
	.loc 2 1204 32 discriminator 1
	ldr	r3, [r7, #24]
	cmp	r3, #3
	bhi	.L359
.LBB4:
	.loc 2 1206 56
	ldr	r3, [r7, #24]
	cmp	r3, #1
	bhi	.L360
	.loc 2 1207 53 discriminator 1
	ldr	r3, [r7, #24]
	cmp	r3, #1
	ite	ne
	movne	r3, #1
	moveq	r3, #0
	uxtb	r3, r3
	b	.L361
.L360:
	.loc 2 1206 56 discriminator 2
	ldr	r3, [r7, #24]
.L361:
	.loc 2 1206 22 discriminator 4
	str	r3, [r7, #20]
	.loc 2 1214 48 discriminator 4
	ldr	r3, [r7, #20]
	lsls	r3, r3, #12
	.loc 2 1214 57 discriminator 4
	and	r3, r3, #12288
	.loc 2 1210 22 discriminator 4
	orr	r3, r3, #1012
	orr	r3, r3, #3
	str	r3, [r7, #16]
	.loc 2 1216 136 discriminator 4
	ldr	r3, .L363+4
	add	r3, r3, #61440
	ldr	r3, [r3, #3872]
	.loc 2 1216 158 discriminator 4
	bic	r3, r3, #16320
	bic	r3, r3, #55
	.loc 2 1216 259 discriminator 4
	ldr	r1, [r7, #16]
	movw	r2, #16375
	ands	r2, r2, r1
	.loc 2 1216 62 discriminator 4
	ldr	r1, .L363+4
	.loc 2 1216 226 discriminator 4
	orrs	r3, r3, r2
	.loc 2 1216 83 discriminator 4
	add	r2, r1, #61440
	str	r3, [r2, #3872]
	.loc 2 1218 78 discriminator 4
	ldr	r3, .L363+4
	ldr	r3, [r3, #1324]
	ldr	r2, .L363+4
	orr	r3, r3, #2
	str	r3, [r2, #1324]
	.loc 2 1220 26 discriminator 4
	ldr	r2, .L363+44
	ldr	r3, [r7, #12]
	str	r3, [r2]
	.loc 2 1222 20 discriminator 4
	movs	r3, #0
	str	r3, [r7, #36]
.L359:
.LBE4:
.LBE3:
	.loc 2 1230 12
	ldr	r3, [r7, #36]
	.loc 2 1231 1
	mov	r0, r3
	adds	r7, r7, #40
.LCFI363:
	.cfi_def_cfa_offset 8
	mov	sp, r7
.LCFI364:
	.cfi_def_cfa_register 13
	@ sp needed
	pop	{r7, pc}
.L364:
	.align	2
.L363:
	.word	4849665
	.word	1076232192
	.word	4849667
	.word	16000000
	.word	35000000
	.word	274877907
	.word	2000000
	.word	159155
	.word	149924205
	.word	1374389535
	.word	-1792967503
	.word	ecoFrequency
	.cfi_endproc
.LFE212:
	.size	Cy_SysClk_EcoConfigure, .-Cy_SysClk_EcoConfigure
	.section	.text.Cy_SysClk_EcoEnable,"ax",%progbits
	.align	1
	.global	Cy_SysClk_EcoEnable
	.syntax unified
	.thumb
	.thumb_func
	.type	Cy_SysClk_EcoEnable, %function
Cy_SysClk_EcoEnable:
.LFB213:
	.loc 2 1235 1
	.cfi_startproc
	@ args = 0, pretend = 0, frame = 16
	@ frame_needed = 1, uses_anonymous_args = 0
	push	{r7, lr}
.LCFI365:
	.cfi_def_cfa_offset 8
	.cfi_offset 7, -8
	.cfi_offset 14, -4
	sub	sp, sp, #16
.LCFI366:
	.cfi_def_cfa_offset 24
	add	r7, sp, #0
.LCFI367:
	.cfi_def_cfa_register 7
	str	r0, [r7, #4]
	.loc 2 1242 9
	ldr	r3, [r7, #4]
	cmp	r3, #0
	ite	eq
	moveq	r3, #1
	movne	r3, #0
	strb	r3, [r7, #11]
	.loc 2 1243 12
	ldr	r3, .L373
	str	r3, [r7, #12]
	.loc 2 1246 79
	ldr	r3, .L373+4
	ldr	r3, [r3, #1324]
	.loc 2 1246 8
	cmp	r3, #0
	blt	.L366
	.loc 2 1249 74
	ldr	r3, .L373+4
	ldr	r3, [r3, #1324]
	ldr	r2, .L373+4
	orr	r3, r3, #-2147483648
	str	r3, [r2, #1324]
	.loc 2 1252 9
	b	.L367
.L369:
	.loc 2 1254 13 discriminator 3
	movs	r0, #1
	bl	Cy_SysLib_DelayUs
	.loc 2 1252 82 discriminator 3
	ldr	r3, [r7, #4]
	subs	r3, r3, #1
	str	r3, [r7, #4]
.L367:
	.loc 2 1252 24 discriminator 1
	bl	Cy_SysClk_EcoGetStatus
	mov	r3, r0
	.loc 2 1252 9 discriminator 1
	cmp	r3, #2
	beq	.L368
	.loc 2 1252 50 discriminator 2
	ldr	r3, [r7, #4]
	cmp	r3, #0
	bne	.L369
.L368:
	.loc 2 1257 12
	ldrb	r3, [r7, #11]	@ zero_extendqisi2
	cmp	r3, #0
	bne	.L370
	.loc 2 1257 25 discriminator 1
	ldr	r3, [r7, #4]
	cmp	r3, #0
	beq	.L371
.L370:
	.loc 2 1259 20
	movs	r3, #0
	str	r3, [r7, #12]
	b	.L366
.L371:
	.loc 2 1264 78
	ldr	r3, .L373+4
	ldr	r3, [r3, #1324]
	ldr	r2, .L373+4
	bic	r3, r3, #-2147483648
	str	r3, [r2, #1324]
	.loc 2 1265 20
	ldr	r3, .L373+8
	str	r3, [r7, #12]
.L366:
	.loc 2 1269 12
	ldr	r3, [r7, #12]
	.loc 2 1270 1
	mov	r0, r3
	adds	r7, r7, #16
.LCFI368:
	.cfi_def_cfa_offset 8
	mov	sp, r7
.LCFI369:
	.cfi_def_cfa_register 13
	@ sp needed
	pop	{r7, pc}
.L374:
	.align	2
.L373:
	.word	4849667
	.word	1076232192
	.word	4849666
	.cfi_endproc
.LFE213:
	.size	Cy_SysClk_EcoEnable, .-Cy_SysClk_EcoEnable
	.section	.text.Cy_SysClk_EcoGetFrequency,"ax",%progbits
	.align	1
	.global	Cy_SysClk_EcoGetFrequency
	.syntax unified
	.thumb
	.thumb_func
	.type	Cy_SysClk_EcoGetFrequency, %function
Cy_SysClk_EcoGetFrequency:
.LFB214:
	.loc 2 1274 1
	.cfi_startproc
	@ args = 0, pretend = 0, frame = 0
	@ frame_needed = 1, uses_anonymous_args = 0
	push	{r7, lr}
.LCFI370:
	.cfi_def_cfa_offset 8
	.cfi_offset 7, -8
	.cfi_offset 14, -4
	add	r7, sp, #0
.LCFI371:
	.cfi_def_cfa_register 7
	.loc 2 1275 21
	bl	Cy_SysClk_EcoGetStatus
	mov	r3, r0
	.loc 2 1275 62
	cmp	r3, #2
	bne	.L376
	.loc 2 1275 62 is_stmt 0 discriminator 1
	ldr	r3, .L379
	ldr	r3, [r3]
	b	.L378
.L376:
	.loc 2 1275 62 discriminator 2
	movs	r3, #0
.L378:
	.loc 2 1276 1 is_stmt 1 discriminator 5
	mov	r0, r3
	pop	{r7, pc}
.L380:
	.align	2
.L379:
	.word	ecoFrequency
	.cfi_endproc
.LFE214:
	.size	Cy_SysClk_EcoGetFrequency, .-Cy_SysClk_EcoGetFrequency
	.section	.text.Cy_SysClk_ClkPathSetSource,"ax",%progbits
	.align	1
	.global	Cy_SysClk_ClkPathSetSource
	.syntax unified
	.thumb
	.thumb_func
	.type	Cy_SysClk_ClkPathSetSource, %function
Cy_SysClk_ClkPathSetSource:
.LFB215:
	.loc 2 1285 1
	.cfi_startproc
	@ args = 0, pretend = 0, frame = 16
	@ frame_needed = 1, uses_anonymous_args = 0
	@ link register save eliminated.
	push	{r7}
.LCFI372:
	.cfi_def_cfa_offset 4
	.cfi_offset 7, -4
	sub	sp, sp, #20
.LCFI373:
	.cfi_def_cfa_offset 24
	add	r7, sp, #0
.LCFI374:
	.cfi_def_cfa_register 7
	str	r0, [r7, #4]
	mov	r3, r1
	strh	r3, [r7, #2]	@ movhi
	.loc 2 1286 27
	ldr	r3, .L387
	str	r3, [r7, #12]
	.loc 2 1287 41
	ldr	r3, .L387+4
	ldr	r3, [r3]
	ldrb	r3, [r3, #62]	@ zero_extendqisi2
	.loc 2 1287 21
	mov	r2, r3
	.loc 2 1287 8
	ldr	r3, [r7, #4]
	cmp	r3, r2
	bcs	.L382
	.loc 2 1287 61 discriminator 1
	ldrh	r3, [r7, #2]
	cmp	r3, #4
	bls	.L383
	.loc 2 1288 50
	ldrh	r3, [r7, #2]
	cmp	r3, #255
	bls	.L382
	.loc 2 1289 48
	ldrh	r3, [r7, #2]
	cmp	r3, #276
	bcs	.L382
.L383:
	.loc 2 1299 12
	ldrh	r3, [r7, #2]
	cmp	r3, #255
	bls	.L384
	.loc 2 1301 120
	ldrh	r3, [r7, #2]
	.loc 2 1301 60
	ldr	r1, .L387+8
	.loc 2 1301 128
	and	r2, r3, #31
	.loc 2 1301 87
	ldr	r3, [r7, #4]
	adds	r3, r3, #192
	str	r2, [r1, r3, lsl #2]
	.loc 2 1302 60
	ldr	r2, .L387+8
	.loc 2 1302 88
	ldr	r3, [r7, #4]
	adds	r3, r3, #208
	movs	r1, #4
	str	r1, [r2, r3, lsl #2]
	b	.L385
.L384:
	.loc 2 1306 121
	ldrh	r3, [r7, #2]
	.loc 2 1306 60
	ldr	r1, .L387+8
	.loc 2 1306 129
	and	r2, r3, #7
	.loc 2 1306 88
	ldr	r3, [r7, #4]
	adds	r3, r3, #208
	str	r2, [r1, r3, lsl #2]
.L385:
	.loc 2 1308 16
	movs	r3, #0
	str	r3, [r7, #12]
.L382:
	.loc 2 1311 12
	ldr	r3, [r7, #12]
	.loc 2 1313 1
	mov	r0, r3
	adds	r7, r7, #20
.LCFI375:
	.cfi_def_cfa_offset 4
	mov	sp, r7
.LCFI376:
	.cfi_def_cfa_register 13
	@ sp needed
	ldr	r7, [sp], #4
.LCFI377:
	.cfi_restore 7
	.cfi_def_cfa_offset 0
	bx	lr
.L388:
	.align	2
.L387:
	.word	4849665
	.word	cy_device
	.word	1076232192
	.cfi_endproc
.LFE215:
	.size	Cy_SysClk_ClkPathSetSource, .-Cy_SysClk_ClkPathSetSource
	.section	.text.Cy_SysClk_ClkPathGetSource,"ax",%progbits
	.align	1
	.global	Cy_SysClk_ClkPathGetSource
	.syntax unified
	.thumb
	.thumb_func
	.type	Cy_SysClk_ClkPathGetSource, %function
Cy_SysClk_ClkPathGetSource:
.LFB216:
	.loc 2 1317 1
	.cfi_startproc
	@ args = 0, pretend = 0, frame = 16
	@ frame_needed = 1, uses_anonymous_args = 0
	push	{r7, lr}
.LCFI378:
	.cfi_def_cfa_offset 8
	.cfi_offset 7, -8
	.cfi_offset 14, -4
	sub	sp, sp, #16
.LCFI379:
	.cfi_def_cfa_offset 24
	add	r7, sp, #0
.LCFI380:
	.cfi_def_cfa_register 7
	str	r0, [r7, #4]
	.loc 2 1318 46
	ldr	r3, .L393
	ldr	r3, [r3]
	ldrb	r3, [r3, #62]	@ zero_extendqisi2
	.loc 2 1318 26
	mov	r2, r3
	.loc 2 1318 12
	ldr	r3, [r7, #4]
	cmp	r3, r2
	bcc	.L390
	.loc 2 1318 69 discriminator 1
	bl	CY_HALT
.L390:
	.loc 2 1320 109
	ldr	r2, .L393+4
	.loc 2 1320 127
	ldr	r3, [r7, #4]
	adds	r3, r3, #208
	ldr	r3, [r2, r3, lsl #2]
	.loc 2 1320 9
	uxth	r3, r3
	.loc 2 1319 32
	and	r3, r3, #7
	strh	r3, [r7, #14]	@ movhi
	.loc 2 1321 8
	ldrh	r3, [r7, #14]
	cmp	r3, #4
	bne	.L391
	.loc 2 1324 93
	ldr	r2, .L393+4
	.loc 2 1324 110
	ldr	r3, [r7, #4]
	adds	r3, r3, #192
	ldr	r3, [r2, r3, lsl #2]
	.loc 2 1324 121
	uxth	r3, r3
	and	r3, r3, #31
	uxth	r3, r3
	.loc 2 1323 16
	orr	r3, r3, #256
	strh	r3, [r7, #14]	@ movhi
.L391:
	.loc 2 1326 12
	ldrh	r3, [r7, #14]
	.loc 2 1327 1
	mov	r0, r3
	adds	r7, r7, #16
.LCFI381:
	.cfi_def_cfa_offset 8
	mov	sp, r7
.LCFI382:
	.cfi_def_cfa_register 13
	@ sp needed
	pop	{r7, pc}
.L394:
	.align	2
.L393:
	.word	cy_device
	.word	1076232192
	.cfi_endproc
.LFE216:
	.size	Cy_SysClk_ClkPathGetSource, .-Cy_SysClk_ClkPathGetSource
	.section	.text.Cy_SysClk_ClkPathMuxGetFrequency,"ax",%progbits
	.align	1
	.global	Cy_SysClk_ClkPathMuxGetFrequency
	.syntax unified
	.thumb
	.thumb_func
	.type	Cy_SysClk_ClkPathMuxGetFrequency, %function
Cy_SysClk_ClkPathMuxGetFrequency:
.LFB217:
	.loc 2 1331 1
	.cfi_startproc
	@ args = 0, pretend = 0, frame = 16
	@ frame_needed = 1, uses_anonymous_args = 0
	push	{r7, lr}
.LCFI383:
	.cfi_def_cfa_offset 8
	.cfi_offset 7, -8
	.cfi_offset 14, -4
	sub	sp, sp, #16
.LCFI384:
	.cfi_def_cfa_offset 24
	add	r7, sp, #0
.LCFI385:
	.cfi_def_cfa_register 7
	str	r0, [r7, #4]
	.loc 2 1332 46
	ldr	r3, .L420
	ldr	r3, [r3]
	ldrb	r3, [r3, #62]	@ zero_extendqisi2
	.loc 2 1332 26
	mov	r2, r3
	.loc 2 1332 12
	ldr	r3, [r7, #4]
	cmp	r3, r2
	bcc	.L396
	.loc 2 1332 69 discriminator 1
	bl	CY_HALT
.L396:
	.loc 2 1334 14
	movs	r3, #0
	str	r3, [r7, #12]
	.loc 2 1337 12
	ldr	r0, [r7, #4]
	bl	Cy_SysClk_ClkPathGetSource
	mov	r3, r0
	.loc 2 1337 5
	cmp	r3, #3
	bgt	.L397
	cmp	r3, #0
	bge	.L398
	.loc 2 1373 13
	b	.L419
.L410:
	.loc 2 1337 5
	sub	r3, r3, #272
	cmp	r3, #3
	bhi	.L419
	adr	r2, .L401
	ldr	pc, [r2, r3, lsl #2]
	.p2align 2
.L401:
	.word	.L404+1
	.word	.L403+1
	.word	.L402+1
	.word	.L400+1
	.p2align 1
.L398:
	cmp	r3, #3
	bhi	.L419
	adr	r2, .L406
	ldr	pc, [r2, r3, lsl #2]
	.p2align 2
.L406:
	.word	.L409+1
	.word	.L408+1
	.word	.L407+1
	.word	.L405+1
	.p2align 1
.L397:
	cmp	r3, #276
	bge	.L419
	cmp	r3, #272
	bge	.L410
	.loc 2 1373 13
	b	.L419
.L409:
	.loc 2 1340 18
	ldr	r3, .L420+4
	str	r3, [r7, #12]
	.loc 2 1341 13
	b	.L411
.L408:
	.loc 2 1344 20
	bl	Cy_SysClk_ExtClkGetFrequency
	str	r0, [r7, #12]
	.loc 2 1345 13
	b	.L411
.L407:
	.loc 2 1348 20
	bl	Cy_SysClk_EcoGetFrequency
	str	r0, [r7, #12]
	.loc 2 1349 13
	b	.L411
.L405:
	.loc 2 1352 20
	bl	Cy_SysClk_AltHfGetFrequency
	str	r0, [r7, #12]
	.loc 2 1353 13
	b	.L411
.L404:
	.loc 2 1356 76
	ldr	r3, .L420+8
	ldr	r3, [r3, #1292]
	.loc 2 1356 123
	cmp	r3, #0
	bge	.L412
	.loc 2 1356 123 is_stmt 0 discriminator 1
	mov	r3, #32768
	b	.L413
.L412:
	.loc 2 1356 123 discriminator 2
	movs	r3, #0
.L413:
	.loc 2 1356 18 is_stmt 1 discriminator 4
	str	r3, [r7, #12]
	.loc 2 1357 13 discriminator 4
	b	.L411
.L403:
	.loc 2 1360 21
	bl	Cy_SysClk_WcoOkay
	mov	r3, r0
	.loc 2 1360 54
	cmp	r3, #0
	beq	.L414
	.loc 2 1360 54 is_stmt 0 discriminator 1
	mov	r3, #32768
	b	.L415
.L414:
	.loc 2 1360 54 discriminator 2
	movs	r3, #0
.L415:
	.loc 2 1360 18 is_stmt 1 discriminator 4
	str	r3, [r7, #12]
	.loc 2 1361 13 discriminator 4
	b	.L411
.L400:
	.loc 2 1364 76
	ldr	r3, .L420+8
	ldr	r3, [r3, #1340]
	.loc 2 1364 124
	cmp	r3, #0
	bge	.L416
	.loc 2 1364 124 is_stmt 0 discriminator 1
	mov	r3, #32768
	b	.L417
.L416:
	.loc 2 1364 124 discriminator 2
	movs	r3, #0
.L417:
	.loc 2 1364 18 is_stmt 1 discriminator 4
	str	r3, [r7, #12]
	.loc 2 1365 13 discriminator 4
	b	.L411
.L402:
	.loc 2 1368 20
	bl	Cy_SysClk_AltLfGetFrequency
	str	r0, [r7, #12]
	.loc 2 1369 13
	b	.L411
.L419:
	.loc 2 1373 13
	nop
.L411:
	.loc 2 1376 12
	ldr	r3, [r7, #12]
	.loc 2 1377 1
	mov	r0, r3
	adds	r7, r7, #16
.LCFI386:
	.cfi_def_cfa_offset 8
	mov	sp, r7
.LCFI387:
	.cfi_def_cfa_register 13
	@ sp needed
	pop	{r7, pc}
.L421:
	.align	2
.L420:
	.word	cy_device
	.word	8000000
	.word	1076232192
	.cfi_endproc
.LFE217:
	.size	Cy_SysClk_ClkPathMuxGetFrequency, .-Cy_SysClk_ClkPathMuxGetFrequency
	.section	.text.Cy_SysClk_ClkPathGetFrequency,"ax",%progbits
	.align	1
	.global	Cy_SysClk_ClkPathGetFrequency
	.syntax unified
	.thumb
	.thumb_func
	.type	Cy_SysClk_ClkPathGetFrequency, %function
Cy_SysClk_ClkPathGetFrequency:
.LFB218:
	.loc 2 1381 1
	.cfi_startproc
	@ args = 0, pretend = 0, frame = 16
	@ frame_needed = 1, uses_anonymous_args = 0
	push	{r7, lr}
.LCFI388:
	.cfi_def_cfa_offset 8
	.cfi_offset 7, -8
	.cfi_offset 14, -4
	sub	sp, sp, #16
.LCFI389:
	.cfi_def_cfa_offset 24
	add	r7, sp, #0
.LCFI390:
	.cfi_def_cfa_register 7
	str	r0, [r7, #4]
	.loc 2 1382 46
	ldr	r3, .L428
	ldr	r3, [r3]
	ldrb	r3, [r3, #62]	@ zero_extendqisi2
	.loc 2 1382 26
	mov	r2, r3
	.loc 2 1382 12
	ldr	r3, [r7, #4]
	cmp	r3, r2
	bcc	.L423
	.loc 2 1382 69 discriminator 1
	bl	CY_HALT
.L423:
	.loc 2 1384 14
	movs	r3, #0
	str	r3, [r7, #12]
	.loc 2 1386 8
	ldr	r3, [r7, #4]
	cmp	r3, #0
	bne	.L424
	.loc 2 1388 16
	bl	Cy_SysClk_FllGetFrequency
	str	r0, [r7, #12]
	b	.L425
.L424:
	.loc 2 1390 46
	ldr	r3, .L428
	ldr	r3, [r3]
	ldrb	r3, [r3, #63]	@ zero_extendqisi2
	.loc 2 1390 26
	mov	r2, r3
	.loc 2 1390 13
	ldr	r3, [r7, #4]
	cmp	r3, r2
	bhi	.L425
	.loc 2 1392 16
	ldr	r0, [r7, #4]
	bl	Cy_SysClk_PllGetFrequency
	str	r0, [r7, #12]
.L425:
	.loc 2 1399 7
	ldr	r3, [r7, #12]
	cmp	r3, #0
	bne	.L426
	.loc 2 1401 16
	ldr	r0, [r7, #4]
	bl	Cy_SysClk_ClkPathMuxGetFrequency
	str	r0, [r7, #12]
.L426:
	.loc 2 1404 8
	ldr	r3, [r7, #12]
	.loc 2 1405 1
	mov	r0, r3
	adds	r7, r7, #16
.LCFI391:
	.cfi_def_cfa_offset 8
	mov	sp, r7
.LCFI392:
	.cfi_def_cfa_register 13
	@ sp needed
	pop	{r7, pc}
.L429:
	.align	2
.L428:
	.word	cy_device
	.cfi_endproc
.LFE218:
	.size	Cy_SysClk_ClkPathGetFrequency, .-Cy_SysClk_ClkPathGetFrequency
	.section	.text.Cy_SysClk_FllIsEnabled,"ax",%progbits
	.align	1
	.global	Cy_SysClk_FllIsEnabled
	.syntax unified
	.thumb
	.thumb_func
	.type	Cy_SysClk_FllIsEnabled, %function
Cy_SysClk_FllIsEnabled:
.LFB219:
	.loc 2 1432 1
	.cfi_startproc
	@ args = 0, pretend = 0, frame = 0
	@ frame_needed = 1, uses_anonymous_args = 0
	@ link register save eliminated.
	push	{r7}
.LCFI393:
	.cfi_def_cfa_offset 4
	.cfi_offset 7, -4
	add	r7, sp, #0
.LCFI394:
	.cfi_def_cfa_register 7
	.loc 2 1433 63
	ldr	r3, .L432
	ldr	r3, [r3, #1408]
	.loc 2 1433 100
	lsrs	r3, r3, #31
	uxtb	r3, r3
	.loc 2 1434 1
	mov	r0, r3
	mov	sp, r7
.LCFI395:
	.cfi_def_cfa_register 13
	@ sp needed
	ldr	r7, [sp], #4
.LCFI396:
	.cfi_restore 7
	.cfi_def_cfa_offset 0
	bx	lr
.L433:
	.align	2
.L432:
	.word	1076232192
	.cfi_endproc
.LFE219:
	.size	Cy_SysClk_FllIsEnabled, .-Cy_SysClk_FllIsEnabled
	.section	.text.Cy_SysClk_FllLocked,"ax",%progbits
	.align	1
	.global	Cy_SysClk_FllLocked
	.syntax unified
	.thumb
	.thumb_func
	.type	Cy_SysClk_FllLocked, %function
Cy_SysClk_FllLocked:
.LFB220:
	.loc 2 1438 1
	.cfi_startproc
	@ args = 0, pretend = 0, frame = 0
	@ frame_needed = 1, uses_anonymous_args = 0
	@ link register save eliminated.
	push	{r7}
.LCFI397:
	.cfi_def_cfa_offset 4
	.cfi_offset 7, -4
	add	r7, sp, #0
.LCFI398:
	.cfi_def_cfa_register 7
	.loc 2 1439 63
	ldr	r3, .L436
	ldr	r3, [r3, #1424]
	.loc 2 1439 82
	and	r3, r3, #1
	.loc 2 1439 93
	cmp	r3, #0
	ite	ne
	movne	r3, #1
	moveq	r3, #0
	uxtb	r3, r3
	.loc 2 1440 1
	mov	r0, r3
	mov	sp, r7
.LCFI399:
	.cfi_def_cfa_register 13
	@ sp needed
	ldr	r7, [sp], #4
.LCFI400:
	.cfi_restore 7
	.cfi_def_cfa_offset 0
	bx	lr
.L437:
	.align	2
.L436:
	.word	1076232192
	.cfi_endproc
.LFE220:
	.size	Cy_SysClk_FllLocked, .-Cy_SysClk_FllLocked
	.section	.text.Cy_SysClk_FllDisable,"ax",%progbits
	.align	1
	.global	Cy_SysClk_FllDisable
	.syntax unified
	.thumb
	.thumb_func
	.type	Cy_SysClk_FllDisable, %function
Cy_SysClk_FllDisable:
.LFB221:
	.loc 2 1444 1
	.cfi_startproc
	@ args = 0, pretend = 0, frame = 8
	@ frame_needed = 1, uses_anonymous_args = 0
	@ link register save eliminated.
	push	{r7}
.LCFI401:
	.cfi_def_cfa_offset 4
	.cfi_offset 7, -4
	sub	sp, sp, #12
.LCFI402:
	.cfi_def_cfa_offset 16
	add	r7, sp, #0
.LCFI403:
	.cfi_def_cfa_register 7
	.loc 2 1451 127
	ldr	r3, .L440
	ldr	r3, [r3, #1416]
	.loc 2 1451 148
	bic	r3, r3, #805306368
	.loc 2 1451 54
	ldr	r2, .L440
	.loc 2 1451 181
	orr	r3, r3, #536870912
	.loc 2 1451 74
	str	r3, [r2, #1416]
	.loc 2 1452 70
	ldr	r3, .L440
	ldr	r3, [r3, #1408]
	ldr	r2, .L440
	bic	r3, r3, #-2147483648
	str	r3, [r2, #1408]
	.loc 2 1453 71
	ldr	r3, .L440
	ldr	r3, [r3, #1420]
	ldr	r2, .L440
	bic	r3, r3, #-2147483648
	str	r3, [r2, #1420]
	.loc 2 1454 15
	movs	r3, #0
	str	r3, [r7, #4]
	.loc 2 1456 12
	ldr	r3, [r7, #4]
	.loc 2 1457 1
	mov	r0, r3
	adds	r7, r7, #12
.LCFI404:
	.cfi_def_cfa_offset 4
	mov	sp, r7
.LCFI405:
	.cfi_def_cfa_register 13
	@ sp needed
	ldr	r7, [sp], #4
.LCFI406:
	.cfi_restore 7
	.cfi_def_cfa_offset 0
	bx	lr
.L441:
	.align	2
.L440:
	.word	1076232192
	.cfi_endproc
.LFE221:
	.size	Cy_SysClk_FllDisable, .-Cy_SysClk_FllDisable
	.global	__aeabi_uldivmod
	.section	.rodata
	.align	2
.LC0:
	.word	110340
	.word	110200
	.word	110000
	.word	110000
	.word	117062
	.align	2
.LC1:
	.word	436
	.word	581
	.word	772
	.word	1030
	.word	1320
	.section	.text.Cy_SysClk_FllConfigure,"ax",%progbits
	.align	1
	.global	Cy_SysClk_FllConfigure
	.syntax unified
	.thumb
	.thumb_func
	.type	Cy_SysClk_FllConfigure, %function
Cy_SysClk_FllConfigure:
.LFB222:
	.loc 2 1461 1
	.cfi_startproc
	@ args = 0, pretend = 0, frame = 456
	@ frame_needed = 1, uses_anonymous_args = 0
	push	{r4, r5, r7, r8, r9, r10, fp, lr}
.LCFI407:
	.cfi_def_cfa_offset 32
	.cfi_offset 4, -32
	.cfi_offset 5, -28
	.cfi_offset 7, -24
	.cfi_offset 8, -20
	.cfi_offset 9, -16
	.cfi_offset 10, -12
	.cfi_offset 11, -8
	.cfi_offset 14, -4
	sub	sp, sp, #456
.LCFI408:
	.cfi_def_cfa_offset 488
	add	r7, sp, #0
.LCFI409:
	.cfi_def_cfa_register 7
	str	r0, [r7, #316]
	str	r1, [r7, #312]
	mov	r3, r2
	strb	r3, [r7, #311]
	.loc 2 1462 27
	movs	r3, #0
	str	r3, [r7, #452]
	.loc 2 1465 8
	ldr	r2, [r7, #312]
	ldr	r3, .L476
	cmp	r2, r3
	bcc	.L443
	.loc 2 1465 44 discriminator 1
	ldr	r2, [r7, #312]
	ldr	r3, .L476+4
	cmp	r2, r3
	bhi	.L443
	.loc 2 1466 21 discriminator 2
	ldr	r2, [r7, #312]
	mov	r3, r2
	lsls	r3, r3, #2
	add	r2, r2, r3
	.loc 2 1466 28 discriminator 2
	ldr	r3, [r7, #316]
	udiv	r3, r2, r3
	.loc 2 1465 76 discriminator 2
	cmp	r3, #10
	bhi	.L444
.L443:
	.loc 2 1468 16
	ldr	r3, .L476+8
	str	r3, [r7, #452]
	b	.L445
.L444:
	.loc 2 1475 12
	ldrb	r3, [r7, #311]	@ zero_extendqisi2
	cmp	r3, #2
	beq	.L446
.LBB5:
	.loc 2 1479 58
	movs	r0, #0
	bl	Cy_SysClk_ClkPathGetSource
	mov	r3, r0
	mov	r2, r3
	.loc 2 1479 17
	movw	r3, #273
	cmp	r2, r3
	ite	eq
	moveq	r3, #1
	movne	r3, #0
	strb	r3, [r7, #431]
	.loc 2 1481 31
	ldrb	r3, [r7, #311]
	strb	r3, [r7, #378]
	.loc 2 1483 36
	movs	r3, #1
	strb	r3, [r7, #371]
	.loc 2 1485 21
	ldr	r3, [r7, #312]
	lsls	r3, r3, #1
	str	r3, [r7, #424]
	.loc 2 1487 84
	ldr	r2, [r7, #424]
	ldr	r3, .L476+12
	cmp	r2, r3
	bhi	.L447
	.loc 2 1487 84 is_stmt 0 discriminator 1
	ldr	r2, [r7, #424]
	ldr	r3, .L476+16
	cmp	r2, r3
	bhi	.L448
	.loc 2 1487 84 discriminator 3
	ldr	r2, [r7, #424]
	ldr	r3, .L476+20
	cmp	r2, r3
	bhi	.L449
	.loc 2 1490 86 is_stmt 1 discriminator 5
	ldr	r2, [r7, #424]
	ldr	r3, .L476+24
	cmp	r2, r3
	ite	hi
	movhi	r3, #1
	movls	r3, #0
	uxtb	r3, r3
	b	.L452
.L449:
	.loc 2 1487 84 discriminator 6
	movs	r3, #2
	b	.L452
.L448:
	.loc 2 1487 84 is_stmt 0 discriminator 4
	movs	r3, #3
	b	.L452
.L447:
	.loc 2 1487 84 discriminator 2
	movs	r3, #4
.L452:
	.loc 2 1487 29 is_stmt 1 discriminator 12
	strb	r3, [r7, #370]
	.loc 2 1495 27 discriminator 12
	ldrb	r3, [r7, #431]	@ zero_extendqisi2
	cmp	r3, #0
	beq	.L453
	.loc 2 1495 27 is_stmt 0 discriminator 1
	movs	r3, #19
	b	.L454
.L477:
	.align	2
.L476:
	.word	24000000
	.word	100000000
	.word	4849665
	.word	150339199
	.word	113009379
	.word	84948699
	.word	63855599
.L453:
	.loc 2 1495 61 is_stmt 1 discriminator 2
	ldr	r3, [r7, #316]
	movs	r2, #0
	mov	r10, r3
	mov	fp, r2
	.loc 2 1495 81 discriminator 2
	mov	r2, r10
	mov	r3, fp
	mov	r0, #0
	mov	r1, #0
	lsls	r1, r3, #5
	orr	r1, r1, r2, lsr #27
	lsls	r0, r2, #5
	mov	r2, r0
	mov	r3, r1
	subs	r4, r2, r10
	sbc	r5, r3, fp
	mov	r2, #0
	mov	r3, #0
	lsls	r3, r5, #2
	orr	r3, r3, r4, lsr #30
	lsls	r2, r4, #2
	mov	r4, r2
	mov	r5, r3
	adds	r8, r4, r10
	adc	r9, r5, fp
	adds	r3, r8, r8
	str	r3, [r7, #56]
	adc	r3, r9, r9
	str	r3, [r7, #60]
	ldrd	r8, [r7, #56]
	mov	r2, r8
	mov	r3, r9
	.loc 2 1495 91 discriminator 2
	subs	r1, r2, #1
	str	r1, [r7, #248]
	adc	r3, r3, #-1
	str	r3, [r7, #252]
	.loc 2 1495 100 discriminator 2
	ldr	r3, [r7, #312]
	movs	r2, #0
	str	r3, [r7, #240]
	str	r2, [r7, #244]
	.loc 2 1495 97 discriminator 2
	ldrd	r2, [r7, #240]
	ldrd	r0, [r7, #248]
	bl	__aeabi_uldivmod
	mov	r2, r0
	mov	r3, r1
	.loc 2 1495 47 discriminator 2
	uxth	r3, r2
	.loc 2 1495 27 discriminator 2
	adds	r3, r3, #1
	uxth	r3, r3
.L454:
	.loc 2 1495 27 is_stmt 0 discriminator 4
	strh	r3, [r7, #368]	@ movhi
	.loc 2 1499 44 is_stmt 1 discriminator 4
	ldr	r3, [r7, #424]
	movs	r2, #0
	str	r3, [r7, #232]
	str	r2, [r7, #236]
	.loc 2 1499 80 discriminator 4
	ldrh	r3, [r7, #368]
	.loc 2 1499 64 discriminator 4
	uxth	r3, r3
	movs	r2, #0
	str	r3, [r7, #224]
	str	r2, [r7, #228]
	.loc 2 1499 62 discriminator 4
	ldrd	r4, [r7, #232]
	mov	r3, r5
	ldrd	r8, [r7, #224]
	mov	r2, r8
	mul	r2, r2, r3
	mov	r3, r9
	mov	r1, r4
	mul	r3, r1, r3
	add	r3, r3, r2
	mov	r2, r4
	mov	r1, r8
	umull	r1, r2, r2, r1
	str	r2, [r7, #300]
	mov	r2, r1
	str	r2, [r7, #296]
	ldr	r2, [r7, #300]
	add	r3, r3, r2
	str	r3, [r7, #300]
	.loc 2 1499 89 discriminator 4
	ldrd	r1, [r7, #296]
	mov	r3, r1
	subs	r3, r3, #1
	str	r3, [r7, #216]
	mov	r3, r2
	adc	r3, r3, #-1
	str	r3, [r7, #220]
	.loc 2 1499 98 discriminator 4
	ldr	r3, [r7, #316]
	movs	r2, #0
	str	r3, [r7, #208]
	str	r2, [r7, #212]
	.loc 2 1499 95 discriminator 4
	ldrd	r2, [r7, #208]
	ldrd	r0, [r7, #216]
	bl	__aeabi_uldivmod
	mov	r2, r0
	mov	r3, r1
	.loc 2 1499 30 discriminator 4
	mov	r3, r2
	adds	r3, r3, #1
	.loc 2 1499 28 discriminator 4
	str	r3, [r7, #364]
	.loc 2 1505 56 discriminator 4
	ldr	r2, [r7, #364]
	.loc 2 1505 65 discriminator 4
	movw	r3, #18939
	mul	r3, r2, r3
	.loc 2 1505 76 discriminator 4
	subs	r2, r3, #1
	.loc 2 1505 82 discriminator 4
	ldr	r3, .L478
	umull	r2, r3, r3, r2
	lsrs	r3, r3, #18
	.loc 2 1505 36 discriminator 4
	uxth	r3, r3
	adds	r3, r3, #1
	uxth	r3, r3
	.loc 2 1505 34 discriminator 4
	strh	r3, [r7, #372]	@ movhi
.LBB6:
	.loc 2 1509 32 discriminator 4
	ldr	r3, .L478+4
	add	r5, r7, #344
	mov	r4, r3
	ldmia	r4!, {r0, r1, r2, r3}
	stmia	r5!, {r0, r1, r2, r3}
	ldr	r3, [r4]
	str	r3, [r5]
	.loc 2 1510 32 discriminator 4
	ldr	r3, .L478+8
	add	r5, r7, #324
	mov	r4, r3
	ldmia	r4!, {r0, r1, r2, r3}
	stmia	r5!, {r0, r1, r2, r3}
	ldr	r3, [r4]
	str	r3, [r5]
.LBB7:
	.loc 2 1514 54 discriminator 4
	ldrb	r3, [r7, #370]	@ zero_extendqisi2
	.loc 2 1514 47 discriminator 4
	lsls	r3, r3, #2
	adds	r3, r3, #152
	add	r2, r7, #304
	add	r3, r3, r2
	ldr	r2, [r3, #-112]
	.loc 2 1514 80 discriminator 4
	ldrb	r3, [r7, #370]	@ zero_extendqisi2
	.loc 2 1514 73 discriminator 4
	lsls	r3, r3, #2
	adds	r3, r3, #152
	add	r1, r7, #304
	add	r3, r3, r1
	ldr	r3, [r3, #-132]
	.loc 2 1514 30 discriminator 4
	mul	r3, r2, r3
	str	r3, [r7, #420]
	.loc 2 1515 73 discriminator 4
	ldr	r3, [r7, #316]
	movs	r2, #0
	str	r3, [r7, #200]
	str	r2, [r7, #204]
	ldr	r3, .L478+12
	ldrd	r4, [r7, #200]
	mov	r2, r5
	mul	r2, r3, r2
	movs	r3, #64
	mov	r1, r4
	mul	r3, r1, r3
	add	r2, r2, r3
	ldr	r3, .L478+12
	mov	r1, r4
	umull	r1, r3, r1, r3
	str	r3, [r7, #292]
	mov	r3, r1
	str	r3, [r7, #288]
	ldr	r3, [r7, #292]
	adds	r3, r2, r3
	str	r3, [r7, #292]
	.loc 2 1515 90 discriminator 4
	ldr	r3, [r7, #420]
	movs	r2, #0
	str	r3, [r7, #192]
	str	r2, [r7, #196]
	.loc 2 1515 123 discriminator 4
	ldrh	r3, [r7, #368]
	.loc 2 1515 107 discriminator 4
	uxth	r3, r3
	movs	r2, #0
	str	r3, [r7, #184]
	str	r2, [r7, #188]
	.loc 2 1515 105 discriminator 4
	ldrd	r4, [r7, #192]
	mov	r3, r5
	ldrd	r8, [r7, #184]
	mov	r2, r8
	mul	r2, r2, r3
	mov	r3, r9
	mov	r1, r4
	mul	r3, r1, r3
	add	r3, r3, r2
	mov	r2, r4
	mov	r1, r8
	umull	r1, r2, r2, r1
	str	r2, [r7, #284]
	mov	r2, r1
	str	r2, [r7, #280]
	ldr	r2, [r7, #284]
	add	r3, r3, r2
	str	r3, [r7, #284]
	.loc 2 1515 132 discriminator 4
	mov	r2, #0
	mov	r3, #0
	ldrd	r4, [r7, #280]
	mov	r1, r4
	lsrs	r2, r1, #1
	mov	r1, r5
	orr	r2, r2, r1, lsl #31
	mov	r1, r5
	lsrs	r3, r1, #1
	.loc 2 1515 86 discriminator 4
	ldrd	r4, [r7, #288]
	mov	r1, r4
	adds	r1, r1, r2
	str	r1, [r7, #176]
	mov	r1, r5
	adc	r1, r3, r1
	str	r1, [r7, #180]
	.loc 2 1515 142 discriminator 4
	ldr	r3, [r7, #420]
	movs	r2, #0
	str	r3, [r7, #168]
	str	r2, [r7, #172]
	.loc 2 1515 175 discriminator 4
	ldrh	r3, [r7, #368]
	.loc 2 1515 159 discriminator 4
	uxth	r3, r3
	movs	r2, #0
	str	r3, [r7, #160]
	str	r2, [r7, #164]
	.loc 2 1515 157 discriminator 4
	ldrd	r4, [r7, #168]
	mov	r3, r5
	ldrd	r8, [r7, #160]
	mov	r2, r8
	mul	r2, r2, r3
	mov	r3, r9
	mov	r1, r4
	mul	r3, r1, r3
	add	r3, r3, r2
	mov	r2, r4
	mov	r1, r8
	umull	r1, r2, r2, r1
	str	r2, [r7, #276]
	mov	r2, r1
	str	r2, [r7, #272]
	ldr	r2, [r7, #276]
	add	r3, r3, r2
	str	r3, [r7, #276]
	.loc 2 1515 139 discriminator 4
	ldrd	r2, [r7, #272]
	ldrd	r0, [r7, #176]
	bl	__aeabi_uldivmod
	mov	r2, r0
	mov	r3, r1
	.loc 2 1515 30 discriminator 4
	mov	r3, r2
	str	r3, [r7, #416]
	.loc 2 1518 30 discriminator 4
	ldr	r3, .L478+16
	str	r3, [r7, #448]
	.loc 2 1519 30 discriminator 4
	ldr	r3, .L478+16
	str	r3, [r7, #444]
	.loc 2 1522 38 discriminator 4
	movs	r3, #11
	strb	r3, [r7, #374]
	.loc 2 1522 21 discriminator 4
	b	.L455
.L458:
	.loc 2 1524 26
	ldr	r2, [r7, #448]
	ldr	r3, [r7, #416]
	cmp	r2, r3
	bls	.L474
	.loc 2 1528 33 discriminator 2
	ldr	r3, [r7, #448]
	lsrs	r3, r3, #1
	str	r3, [r7, #448]
	.loc 2 1522 74 discriminator 2
	ldrb	r3, [r7, #374]	@ zero_extendqisi2
	.loc 2 1522 80 discriminator 2
	subs	r3, r3, #1
	uxtb	r3, r3
	strb	r3, [r7, #374]
.L455:
	.loc 2 1522 53 discriminator 1
	ldrb	r3, [r7, #374]	@ zero_extendqisi2
	.loc 2 1522 21 discriminator 1
	cmp	r3, #0
	bne	.L458
	b	.L457
.L474:
	.loc 2 1526 27
	nop
.L457:
	.loc 2 1531 24
	ldrb	r3, [r7, #431]	@ zero_extendqisi2
	cmp	r3, #0
	beq	.L459
	.loc 2 1531 45 discriminator 1
	ldrb	r3, [r7, #374]	@ zero_extendqisi2
	.loc 2 1531 35 discriminator 1
	cmp	r3, #0
	beq	.L459
	.loc 2 1533 31
	ldrb	r3, [r7, #374]	@ zero_extendqisi2
	.loc 2 1533 37
	subs	r3, r3, #1
	uxtb	r3, r3
	strb	r3, [r7, #374]
	.loc 2 1534 34
	ldr	r3, [r7, #448]
	lsrs	r3, r3, #1
	str	r3, [r7, #448]
.L459:
	.loc 2 1538 38
	movs	r3, #11
	strb	r3, [r7, #375]
	.loc 2 1538 21
	b	.L460
.L463:
	.loc 2 1540 44
	ldr	r2, [r7, #416]
	ldr	r3, [r7, #448]
	subs	r2, r2, r3
	.loc 2 1540 25
	ldr	r3, [r7, #444]
	cmp	r3, r2
	bls	.L475
	.loc 2 1544 32 discriminator 2
	ldr	r3, [r7, #444]
	lsrs	r3, r3, #1
	str	r3, [r7, #444]
	.loc 2 1538 74 discriminator 2
	ldrb	r3, [r7, #375]	@ zero_extendqisi2
	.loc 2 1538 80 discriminator 2
	subs	r3, r3, #1
	uxtb	r3, r3
	strb	r3, [r7, #375]
.L460:
	.loc 2 1538 53 discriminator 1
	ldrb	r3, [r7, #375]	@ zero_extendqisi2
	.loc 2 1538 21 discriminator 1
	cmp	r3, #0
	bne	.L463
	b	.L462
.L475:
	.loc 2 1542 27
	nop
.L462:
	.loc 2 1548 24
	ldrb	r3, [r7, #431]	@ zero_extendqisi2
	cmp	r3, #0
	beq	.L464
	.loc 2 1548 45 discriminator 1
	ldrb	r3, [r7, #375]	@ zero_extendqisi2
	.loc 2 1548 35 discriminator 1
	cmp	r3, #0
	beq	.L464
	.loc 2 1550 31
	ldrb	r3, [r7, #375]	@ zero_extendqisi2
	.loc 2 1550 37
	subs	r3, r3, #1
	uxtb	r3, r3
	strb	r3, [r7, #375]
.L464:
.LBE7:
.LBB8:
	.loc 2 1556 73
	ldr	r3, [r7, #424]
	movs	r2, #0
	str	r3, [r7, #152]
	str	r2, [r7, #156]
	.loc 2 1556 71
	ldrd	r4, [r7, #152]
	mov	r2, r4
	mov	r3, r5
	mov	r0, #0
	mov	r1, #0
	lsls	r1, r3, #5
	orr	r1, r1, r2, lsr #27
	lsls	r0, r2, #5
	mov	r2, r0
	mov	r3, r1
	mov	r1, r4
	subs	r1, r2, r1
	str	r1, [r7, #48]
	mov	r1, r5
	sbc	r3, r3, r1
	str	r3, [r7, #52]
	mov	r2, #0
	mov	r3, #0
	ldrd	r8, [r7, #48]
	mov	r1, r9
	lsls	r3, r1, #2
	mov	r1, r8
	orr	r3, r3, r1, lsr #30
	mov	r1, r8
	lsls	r2, r1, #2
	mov	r0, r2
	mov	r1, r3
	mov	r3, r0
	mov	r2, r4
	adds	r3, r3, r2
	str	r3, [r7, #40]
	mov	r3, r5
	mov	r2, r1
	adc	r3, r2, r3
	str	r3, [r7, #44]
	mov	r2, #0
	mov	r3, #0
	ldrd	r4, [r7, #40]
	mov	r1, r5
	lsls	r3, r1, #3
	mov	r1, r4
	orr	r3, r3, r1, lsr #29
	mov	r1, r4
	lsls	r2, r1, #3
	mov	r0, r2
	mov	r1, r3
	.loc 2 1556 120
	ldrb	r3, [r7, #370]	@ zero_extendqisi2
	.loc 2 1556 113
	lsls	r3, r3, #2
	adds	r3, r3, #152
	add	r2, r7, #304
	add	r3, r3, r2
	ldr	r3, [r3, #-132]
	.loc 2 1556 132
	lsrs	r3, r3, #1
	movs	r2, #0
	str	r3, [r7, #144]
	str	r2, [r7, #148]
	.loc 2 1556 93
	ldrd	r4, [r7, #144]
	mov	r3, r4
	adds	r3, r0, r3
	str	r3, [r7, #136]
	mov	r3, r5
	adc	r3, r1, r3
	str	r3, [r7, #140]
	.loc 2 1556 165
	ldrb	r3, [r7, #370]	@ zero_extendqisi2
	.loc 2 1556 158
	lsls	r3, r3, #2
	adds	r3, r3, #152
	add	r2, r7, #304
	add	r3, r3, r2
	ldr	r3, [r3, #-132]
	.loc 2 1556 142
	movs	r2, #0
	str	r3, [r7, #128]
	str	r2, [r7, #132]
	.loc 2 1556 30
	ldrd	r2, [r7, #128]
	ldrd	r0, [r7, #136]
	bl	__aeabi_uldivmod
	mov	r2, r0
	mov	r3, r1
	strd	r2, [r7, #408]
	.loc 2 1557 79
	ldrb	r3, [r7, #370]	@ zero_extendqisi2
	.loc 2 1557 72
	lsls	r3, r3, #2
	adds	r3, r3, #152
	add	r2, r7, #304
	add	r3, r3, r2
	ldr	r3, [r3, #-112]
	.loc 2 1557 53
	movs	r2, #0
	str	r3, [r7, #120]
	str	r2, [r7, #124]
	.loc 2 1557 30
	ldr	r3, .L478+20
	ldrd	r0, [r7, #120]
	mov	r2, r0
	adds	r3, r2, r3
	str	r3, [r7, #32]
	mov	r3, r1
	adc	r3, r3, #0
	str	r3, [r7, #36]
	ldrd	r3, [r7, #32]
	strd	r3, [r7, #400]
	.loc 2 1558 30
	ldrd	r2, [r7, #400]
	strd	r2, [r7, #432]
	.loc 2 1560 37
	movs	r3, #0
	strh	r3, [r7, #380]	@ movhi
	.loc 2 1562 26
	b	.L465
.L479:
	.align	2
.L478:
	.word	1125899907
	.word	.LC0
	.word	.LC1
	.word	-644874240
	.word	-1673527296
	.word	100000000
.L466:
	.loc 2 1564 29
	ldr	r2, [r7, #436]
	ldr	r3, [r7, #400]
	mul	r1, r3, r2
	ldr	r2, [r7, #404]
	ldr	r3, [r7, #432]
	mul	r3, r2, r3
	add	r1, r1, r3
	ldr	r2, [r7, #432]
	ldr	r3, [r7, #400]
	umull	r2, r3, r2, r3
	str	r3, [r7, #260]
	mov	r3, r2
	str	r3, [r7, #256]
	ldr	r3, [r7, #260]
	adds	r3, r1, r3
	str	r3, [r7, #260]
	ldrd	r3, [r7, #256]
	strd	r3, [r7, #432]
	strd	r3, [r7, #432]
	.loc 2 1565 29
	ldrd	r0, [r7, #432]
	adr	r3, .L480+12
	ldrd	r2, [r3]
	bl	__aeabi_uldivmod
	mov	r2, r0
	mov	r3, r1
	strd	r2, [r7, #432]
	.loc 2 1566 31
	ldrh	r3, [r7, #380]
	.loc 2 1566 40
	adds	r3, r3, #1
	uxth	r3, r3
	strh	r3, [r7, #380]	@ movhi
.L465:
	.loc 2 1562 26
	ldrd	r0, [r7, #432]
	ldrd	r2, [r7, #408]
	cmp	r0, r2
	sbcs	r3, r1, r3
	bcc	.L466
.LBE8:
.LBE6:
.LBB9:
	.loc 2 1573 46
	ldr	r3, [r7, #316]
	movs	r2, #0
	str	r3, [r7, #112]
	str	r2, [r7, #116]
	.loc 2 1573 44
	ldrd	r4, [r7, #112]
	mov	r2, r4
	mov	r3, r5
	adds	r1, r2, r2
	str	r1, [r7, #24]
	adcs	r3, r3, r3
	str	r3, [r7, #28]
	ldrd	r2, [r7, #24]
	mov	r1, r4
	adds	r1, r2, r1
	str	r1, [r7, #16]
	mov	r1, r5
	adcs	r3, r3, r1
	str	r3, [r7, #20]
	mov	r2, #0
	mov	r3, #0
	ldrd	r8, [r7, #16]
	mov	r1, r9
	lsls	r3, r1, #4
	mov	r1, r8
	orr	r3, r3, r1, lsr #28
	mov	r1, r8
	lsls	r2, r1, #4
	mov	r0, r2
	mov	r1, r3
	mov	r3, r0
	mov	r2, r4
	subs	r3, r3, r2
	str	r3, [r7, #8]
	mov	r3, r1
	mov	r2, r5
	sbc	r3, r3, r2
	str	r3, [r7, #12]
	mov	r2, #0
	mov	r3, #0
	ldrd	r8, [r7, #8]
	mov	r1, r9
	lsls	r3, r1, #3
	mov	r1, r8
	orr	r3, r3, r1, lsr #29
	mov	r1, r8
	lsls	r2, r1, #3
	mov	r0, r2
	mov	r1, r3
	mov	r3, r0
	mov	r2, r4
	subs	r3, r3, r2
	str	r3, [r7]
	mov	r3, r1
	mov	r2, r5
	sbc	r3, r3, r2
	str	r3, [r7, #4]
	mov	r2, #0
	mov	r3, #0
	ldrd	r4, [r7]
	mov	r1, r5
	lsls	r3, r1, #4
	mov	r1, r4
	orr	r3, r3, r1, lsr #28
	mov	r1, r4
	lsls	r2, r1, #4
	mov	r0, r2
	mov	r1, r3
	.loc 2 1573 87
	ldrh	r3, [r7, #368]
	.loc 2 1573 96
	lsrs	r3, r3, #1
	uxth	r3, r3
	uxth	r3, r3
	movs	r2, #0
	str	r3, [r7, #104]
	str	r2, [r7, #108]
	.loc 2 1573 67
	ldrd	r4, [r7, #104]
	mov	r3, r4
	adds	r3, r0, r3
	str	r3, [r7, #96]
	mov	r3, r5
	adc	r3, r1, r3
	str	r3, [r7, #100]
	.loc 2 1573 122
	ldrh	r3, [r7, #368]
	.loc 2 1573 106
	uxth	r3, r3
	movs	r2, #0
	str	r3, [r7, #88]
	str	r2, [r7, #92]
	.loc 2 1573 26
	ldrd	r2, [r7, #88]
	ldrd	r0, [r7, #96]
	bl	__aeabi_uldivmod
	mov	r2, r0
	mov	r3, r1
	strd	r2, [r7, #392]
	.loc 2 1574 50
	ldr	r3, [r7, #316]
	subs	r3, r3, #1
	.loc 2 1574 56
	ldr	r2, .L480
	umull	r2, r3, r2, r3
	lsrs	r3, r3, #18
	.loc 2 1574 26
	adds	r3, r3, #1
	str	r3, [r7, #388]
	.loc 2 1575 49
	ldr	r3, [r7, #388]
	movs	r2, #0
	str	r3, [r7, #80]
	str	r2, [r7, #84]
	.loc 2 1575 66
	ldr	r3, [r7, #392]
	ldrd	r4, [r7, #80]
	mov	r2, r5
	mul	r2, r2, r3
	ldr	r3, [r7, #396]
	mov	r1, r4
	mul	r3, r1, r3
	add	r3, r3, r2
	ldr	r2, [r7, #392]
	mov	r1, r4
	umull	r1, r2, r2, r1
	str	r2, [r7, #268]
	mov	r2, r1
	str	r2, [r7, #264]
	ldr	r2, [r7, #268]
	add	r3, r3, r2
	str	r3, [r7, #268]
	.loc 2 1575 74
	ldrd	r1, [r7, #264]
	mov	r3, r1
	subs	r3, r3, #1
	str	r3, [r7, #72]
	mov	r3, r2
	adc	r3, r3, #-1
	str	r3, [r7, #76]
	.loc 2 1575 80
	ldr	r2, .L480+4
	mov	r3, #0
	ldrd	r0, [r7, #72]
	bl	__aeabi_uldivmod
	mov	r2, r0
	mov	r3, r1
	.loc 2 1575 102
	mov	r3, r2
	.loc 2 1575 26
	adds	r3, r3, #2
	str	r3, [r7, #384]
	.loc 2 1577 38
	ldrb	r3, [r7, #431]	@ zero_extendqisi2
	cmp	r3, #0
	beq	.L467
	.loc 2 1577 38 is_stmt 0 discriminator 1
	movs	r3, #200
	b	.L468
.L467:
	.loc 2 1578 40 is_stmt 1 discriminator 2
	ldr	r3, [r7, #312]
	movs	r2, #0
	str	r3, [r7, #64]
	str	r2, [r7, #68]
	.loc 2 1577 38 discriminator 2
	ldrd	r2, [r7, #392]
	ldrd	r4, [r7, #64]
	mov	r1, r4
	cmp	r1, r2
	mov	r1, r5
	sbcs	r3, r1, r3
	bcs	.L469
	.loc 2 1577 38 is_stmt 0 discriminator 4
	ldr	r3, [r7, #388]
	uxth	r3, r3
	b	.L468
.L469:
	.loc 2 1577 38 discriminator 5
	ldr	r2, [r7, #388]
	ldr	r3, [r7, #384]
	cmp	r2, r3
	bls	.L471
	.loc 2 1577 38 discriminator 7
	ldr	r3, [r7, #388]
	uxth	r3, r3
	b	.L468
.L471:
	.loc 2 1577 38 discriminator 8
	ldr	r3, [r7, #384]
	uxth	r3, r3
.L468:
	.loc 2 1577 38 discriminator 12
	strh	r3, [r7, #376]	@ movhi
.LBE9:
	.loc 2 1582 22 is_stmt 1 discriminator 12
	add	r3, r7, #364
	mov	r0, r3
	bl	Cy_SysClk_FllManualConfigure
	str	r0, [r7, #452]
.LBE5:
	b	.L445
.L446:
	.loc 2 1586 135
	ldr	r3, .L480+8
	ldr	r3, [r3, #1416]
	.loc 2 1586 156
	bic	r3, r3, #805306368
	.loc 2 1586 62
	ldr	r2, .L480+8
	.loc 2 1586 189
	orr	r3, r3, #536870912
	.loc 2 1586 82
	str	r3, [r2, #1416]
.L445:
	.loc 2 1590 12
	ldr	r3, [r7, #452]
	.loc 2 1591 1
	mov	r0, r3
	add	r7, r7, #456
.LCFI410:
	.cfi_def_cfa_offset 32
	mov	sp, r7
.LCFI411:
	.cfi_def_cfa_register 13
	@ sp needed
	pop	{r4, r5, r7, r8, r9, r10, fp, pc}
.L481:
	.align	3
.L480:
	.word	1125899907
	.word	6000000
	.word	1076232192
	.word	100000000
	.word	0
	.cfi_endproc
.LFE222:
	.size	Cy_SysClk_FllConfigure, .-Cy_SysClk_FllConfigure
	.section	.text.Cy_SysClk_FllManualConfigure,"ax",%progbits
	.align	1
	.global	Cy_SysClk_FllManualConfigure
	.syntax unified
	.thumb
	.thumb_func
	.type	Cy_SysClk_FllManualConfigure, %function
Cy_SysClk_FllManualConfigure:
.LFB223:
	.loc 2 1595 1
	.cfi_startproc
	@ args = 0, pretend = 0, frame = 16
	@ frame_needed = 1, uses_anonymous_args = 0
	push	{r7, lr}
.LCFI412:
	.cfi_def_cfa_offset 8
	.cfi_offset 7, -8
	.cfi_offset 14, -4
	sub	sp, sp, #16
.LCFI413:
	.cfi_def_cfa_offset 24
	add	r7, sp, #0
.LCFI414:
	.cfi_def_cfa_register 7
	str	r0, [r7, #4]
	.loc 2 1601 12
	ldr	r3, .L496
	str	r3, [r7, #12]
	.loc 2 1604 12
	ldr	r3, [r7, #4]
	cmp	r3, #0
	bne	.L483
	.loc 2 1604 9 discriminator 1
	bl	CY_HALT
.L483:
	.loc 2 1606 10
	bl	Cy_SysClk_FllIsEnabled
	mov	r3, r0
	.loc 2 1606 9
	eor	r3, r3, #1
	uxtb	r3, r3
	.loc 2 1606 8
	cmp	r3, #0
	beq	.L484
	.loc 2 1610 25
	ldr	r3, [r7, #4]
	ldr	r3, [r3]
	.loc 2 1610 16
	cmp	r3, #262144
	bcc	.L485
	.loc 2 1610 61 discriminator 1
	bl	CY_HALT
.L485:
	.loc 2 1612 95
	ldr	r3, [r7, #4]
	ldr	r3, [r3]
	.loc 2 1612 114
	ubfx	r3, r3, #0, #18
	.loc 2 1613 39
	ldr	r2, [r7, #4]
	ldrb	r2, [r2, #7]	@ zero_extendqisi2
	.loc 2 1613 47
	cmp	r2, #0
	beq	.L486
	.loc 2 1613 47 is_stmt 0 discriminator 1
	mov	r2, #16777216
	b	.L487
.L486:
	.loc 2 1613 47 discriminator 2
	movs	r2, #0
.L487:
	.loc 2 1612 56 is_stmt 1
	ldr	r1, .L496+4
	.loc 2 1612 127
	orrs	r3, r3, r2
	.loc 2 1612 74
	str	r3, [r1, #1408]
	.loc 2 1617 25
	ldr	r3, [r7, #4]
	ldrh	r3, [r3, #4]
	.loc 2 1617 16
	cmp	r3, #8192
	bcc	.L488
	.loc 2 1617 59 discriminator 1
	bl	CY_HALT
.L488:
	.loc 2 1618 25
	ldr	r3, [r7, #4]
	ldrh	r3, [r3, #8]
	.loc 2 1618 16
	cmp	r3, #512
	bcc	.L489
	.loc 2 1618 70 discriminator 1
	bl	CY_HALT
.L489:
	.loc 2 1620 96
	ldr	r3, [r7, #4]
	ldrh	r3, [r3, #4]
	.loc 2 1620 114
	ubfx	r2, r3, #0, #13
	.loc 2 1621 51
	ldr	r3, [r7, #4]
	ldrh	r3, [r3, #8]
	.loc 2 1621 68
	lsls	r1, r3, #16
	.loc 2 1621 77
	ldr	r3, .L496+8
	ands	r3, r3, r1
	.loc 2 1620 56
	ldr	r1, .L496+4
	.loc 2 1620 126
	orrs	r3, r3, r2
	.loc 2 1620 75
	str	r3, [r1, #1412]
	.loc 2 1625 25
	ldr	r3, [r7, #4]
	ldrb	r3, [r3, #10]	@ zero_extendqisi2
	.loc 2 1625 16
	cmp	r3, #15
	bls	.L490
	.loc 2 1625 55 discriminator 1
	bl	CY_HALT
.L490:
	.loc 2 1626 25
	ldr	r3, [r7, #4]
	ldrb	r3, [r3, #11]	@ zero_extendqisi2
	.loc 2 1626 16
	cmp	r3, #15
	bls	.L491
	.loc 2 1626 56 discriminator 1
	bl	CY_HALT
.L491:
	.loc 2 1627 25
	ldr	r3, [r7, #4]
	ldrh	r3, [r3, #12]
	.loc 2 1627 16
	cmp	r3, #8192
	bcc	.L492
	.loc 2 1627 68 discriminator 1
	bl	CY_HALT
.L492:
	.loc 2 1629 96
	ldr	r3, [r7, #4]
	ldrb	r3, [r3, #10]	@ zero_extendqisi2
	.loc 2 1629 113
	and	r2, r3, #15
	.loc 2 1630 51
	ldr	r3, [r7, #4]
	ldrb	r3, [r3, #11]	@ zero_extendqisi2
	.loc 2 1630 60
	lsls	r3, r3, #4
	.loc 2 1630 68
	uxtb	r3, r3
	.loc 2 1629 122
	orrs	r2, r2, r3
	.loc 2 1631 51
	ldr	r3, [r7, #4]
	ldrh	r3, [r3, #12]
	.loc 2 1631 68
	lsls	r1, r3, #8
	.loc 2 1631 76
	ldr	r3, .L496+12
	ands	r3, r3, r1
	.loc 2 1630 78
	orrs	r2, r2, r3
	.loc 2 1632 51
	ldr	r3, [r7, #4]
	ldrb	r3, [r3, #14]	@ zero_extendqisi2
	.loc 2 1632 65
	lsls	r3, r3, #28
	.loc 2 1632 74
	and	r3, r3, #805306368
	.loc 2 1629 56
	ldr	r1, .L496+4
	.loc 2 1631 90
	orrs	r3, r3, r2
	.loc 2 1629 75
	str	r3, [r1, #1416]
	.loc 2 1636 28
	ldr	r3, [r7, #4]
	ldrb	r3, [r3, #6]	@ zero_extendqisi2
	.loc 2 1636 16
	cmp	r3, #0
	beq	.L493
	.loc 2 1636 80 discriminator 1
	ldr	r3, [r7, #4]
	ldrb	r3, [r3, #6]	@ zero_extendqisi2
	.loc 2 1636 69 discriminator 1
	cmp	r3, #1
	beq	.L493
	.loc 2 1636 132 discriminator 2
	ldr	r3, [r7, #4]
	ldrb	r3, [r3, #6]	@ zero_extendqisi2
	.loc 2 1636 121 discriminator 2
	cmp	r3, #2
	beq	.L493
	.loc 2 1636 184 discriminator 3
	ldr	r3, [r7, #4]
	ldrb	r3, [r3, #6]	@ zero_extendqisi2
	.loc 2 1636 173 discriminator 3
	cmp	r3, #3
	beq	.L493
	.loc 2 1636 236 discriminator 4
	ldr	r3, [r7, #4]
	ldrb	r3, [r3, #6]	@ zero_extendqisi2
	.loc 2 1636 17 discriminator 4
	cmp	r3, #4
	beq	.L493
	.loc 2 1636 282 discriminator 5
	bl	CY_HALT
.L493:
	.loc 2 1637 25
	ldr	r3, [r7, #4]
	ldrh	r3, [r3, #16]
	.loc 2 1637 16
	cmp	r3, #512
	bcc	.L494
	.loc 2 1637 65 discriminator 1
	bl	CY_HALT
.L494:
	.loc 2 1639 131
	ldr	r3, .L496+4
	ldr	r3, [r3, #1420]
	.loc 2 1639 152
	bic	r2, r3, #1792
	.loc 2 1639 214
	ldr	r3, [r7, #4]
	ldrb	r3, [r3, #6]	@ zero_extendqisi2
	.loc 2 1639 228
	lsls	r3, r3, #8
	.loc 2 1639 236
	and	r3, r3, #1792
	.loc 2 1639 58
	ldr	r1, .L496+4
	.loc 2 1639 180
	orrs	r3, r3, r2
	.loc 2 1639 78
	str	r3, [r1, #1420]
	.loc 2 1640 131
	ldr	r3, .L496+4
	ldr	r3, [r3, #1420]
	.loc 2 1640 152
	bic	r3, r3, #33423360
	bic	r3, r3, #65536
	.loc 2 1640 218
	ldr	r2, [r7, #4]
	ldrh	r2, [r2, #16]
	.loc 2 1640 232
	lsls	r1, r2, #16
	.loc 2 1640 241
	ldr	r2, .L496+8
	ands	r2, r2, r1
	.loc 2 1640 58
	ldr	r1, .L496+4
	.loc 2 1640 184
	orrs	r3, r3, r2
	.loc 2 1640 78
	str	r3, [r1, #1420]
	.loc 2 1642 16
	movs	r3, #0
	str	r3, [r7, #12]
.L484:
	.loc 2 1646 12
	ldr	r3, [r7, #12]
	.loc 2 1647 1
	mov	r0, r3
	adds	r7, r7, #16
.LCFI415:
	.cfi_def_cfa_offset 8
	mov	sp, r7
.LCFI416:
	.cfi_def_cfa_register 13
	@ sp needed
	pop	{r7, pc}
.L497:
	.align	2
.L496:
	.word	4849667
	.word	1076232192
	.word	33488896
	.word	2096896
	.cfi_endproc
.LFE223:
	.size	Cy_SysClk_FllManualConfigure, .-Cy_SysClk_FllManualConfigure
	.section	.text.Cy_SysClk_FllGetConfiguration,"ax",%progbits
	.align	1
	.global	Cy_SysClk_FllGetConfiguration
	.syntax unified
	.thumb
	.thumb_func
	.type	Cy_SysClk_FllGetConfiguration, %function
Cy_SysClk_FllGetConfiguration:
.LFB224:
	.loc 2 1651 1
	.cfi_startproc
	@ args = 0, pretend = 0, frame = 16
	@ frame_needed = 1, uses_anonymous_args = 0
	push	{r7, lr}
.LCFI417:
	.cfi_def_cfa_offset 8
	.cfi_offset 7, -8
	.cfi_offset 14, -4
	sub	sp, sp, #16
.LCFI418:
	.cfi_def_cfa_offset 24
	add	r7, sp, #0
.LCFI419:
	.cfi_def_cfa_register 7
	str	r0, [r7, #4]
	.loc 2 1652 12
	ldr	r3, [r7, #4]
	cmp	r3, #0
	bne	.L499
	.loc 2 1652 9 discriminator 1
	bl	CY_HALT
.L499:
	.loc 2 1654 71
	ldr	r3, .L500
	.loc 2 1654 14
	ldr	r3, [r3, #1408]
	str	r3, [r7, #12]
	.loc 2 1655 58
	ldr	r3, [r7, #12]
	ubfx	r2, r3, #0, #18
	.loc 2 1655 21
	ldr	r3, [r7, #4]
	str	r2, [r3]
	.loc 2 1656 43
	ldr	r3, [r7, #12]
	and	r3, r3, #16777216
	.loc 2 1656 60
	cmp	r3, #0
	ite	ne
	movne	r3, #1
	moveq	r3, #0
	uxtb	r2, r3
	.loc 2 1656 29
	ldr	r3, [r7, #4]
	strb	r2, [r3, #7]
	.loc 2 1658 62
	ldr	r3, .L500
	.loc 2 1658 13
	ldr	r3, [r3, #1412]
	str	r3, [r7, #12]
	.loc 2 1659 22
	ldr	r3, [r7, #12]
	uxth	r3, r3
	ubfx	r3, r3, #0, #13
	uxth	r2, r3
	.loc 2 1659 20
	ldr	r3, [r7, #4]
	strh	r2, [r3, #4]	@ movhi
	.loc 2 1660 76
	ldr	r3, [r7, #12]
	lsrs	r3, r3, #16
	.loc 2 1660 29
	uxth	r3, r3
	ubfx	r3, r3, #0, #9
	uxth	r2, r3
	.loc 2 1660 27
	ldr	r3, [r7, #4]
	strh	r2, [r3, #8]	@ movhi
	.loc 2 1662 62
	ldr	r3, .L500
	.loc 2 1662 13
	ldr	r3, [r3, #1416]
	str	r3, [r7, #12]
	.loc 2 1663 21
	ldr	r3, [r7, #12]
	uxtb	r3, r3
	and	r3, r3, #15
	uxtb	r2, r3
	.loc 2 1663 19
	ldr	r3, [r7, #4]
	strb	r2, [r3, #10]
	.loc 2 1664 62
	ldr	r3, [r7, #12]
	lsrs	r3, r3, #4
	.loc 2 1664 21
	uxtb	r3, r3
	and	r3, r3, #15
	uxtb	r2, r3
	.loc 2 1664 19
	ldr	r3, [r7, #4]
	strb	r2, [r3, #11]
	.loc 2 1665 75
	ldr	r3, [r7, #12]
	lsrs	r3, r3, #8
	.loc 2 1665 29
	uxth	r3, r3
	ubfx	r3, r3, #0, #13
	uxth	r2, r3
	.loc 2 1665 27
	ldr	r3, [r7, #4]
	strh	r2, [r3, #12]	@ movhi
	.loc 2 1666 56
	ldr	r3, [r7, #12]
	lsrs	r3, r3, #28
	and	r3, r3, #3
	.loc 2 1666 26
	uxtb	r2, r3
	.loc 2 1666 24
	ldr	r3, [r7, #4]
	strb	r2, [r3, #14]
	.loc 2 1668 62
	ldr	r3, .L500
	.loc 2 1668 13
	ldr	r3, [r3, #1420]
	str	r3, [r7, #12]
	.loc 2 1669 49
	ldr	r3, [r7, #12]
	lsrs	r3, r3, #8
	and	r3, r3, #7
	.loc 2 1669 24
	uxtb	r2, r3
	.loc 2 1669 22
	ldr	r3, [r7, #4]
	strb	r2, [r3, #6]
	.loc 2 1670 71
	ldr	r3, [r7, #12]
	lsrs	r3, r3, #16
	.loc 2 1670 24
	uxth	r3, r3
	ubfx	r3, r3, #0, #9
	uxth	r2, r3
	.loc 2 1670 22
	ldr	r3, [r7, #4]
	strh	r2, [r3, #16]	@ movhi
	.loc 2 1671 1
	nop
	adds	r7, r7, #16
.LCFI420:
	.cfi_def_cfa_offset 8
	mov	sp, r7
.LCFI421:
	.cfi_def_cfa_register 13
	@ sp needed
	pop	{r7, pc}
.L501:
	.align	2
.L500:
	.word	1076232192
	.cfi_endproc
.LFE224:
	.size	Cy_SysClk_FllGetConfiguration, .-Cy_SysClk_FllGetConfiguration
	.section	.text.Cy_SysClk_FllEnable,"ax",%progbits
	.align	1
	.global	Cy_SysClk_FllEnable
	.syntax unified
	.thumb
	.thumb_func
	.type	Cy_SysClk_FllEnable, %function
Cy_SysClk_FllEnable:
.LFB225:
	.loc 2 1675 1
	.cfi_startproc
	@ args = 0, pretend = 0, frame = 16
	@ frame_needed = 1, uses_anonymous_args = 0
	push	{r7, lr}
.LCFI422:
	.cfi_def_cfa_offset 8
	.cfi_offset 7, -8
	.cfi_offset 14, -4
	sub	sp, sp, #16
.LCFI423:
	.cfi_def_cfa_offset 24
	add	r7, sp, #0
.LCFI424:
	.cfi_def_cfa_register 7
	str	r0, [r7, #4]
	.loc 2 1681 9
	ldr	r3, [r7, #4]
	cmp	r3, #0
	ite	eq
	moveq	r3, #1
	movne	r3, #0
	strb	r3, [r7, #15]
	.loc 2 1684 71
	ldr	r3, .L518
	ldr	r3, [r3, #1420]
	ldr	r2, .L518
	orr	r3, r3, #-2147483648
	str	r3, [r2, #1420]
	.loc 2 1687 5
	b	.L503
.L505:
	.loc 2 1691 9
	movs	r0, #1
	bl	Cy_SysLib_DelayUs
	.loc 2 1689 19
	ldr	r3, [r7, #4]
	subs	r3, r3, #1
	str	r3, [r7, #4]
.L503:
	.loc 2 1687 64
	ldr	r3, .L518
	ldr	r3, [r3, #1424]
	.loc 2 1687 83
	and	r3, r3, #4
	.loc 2 1687 5
	cmp	r3, #0
	bne	.L504
	.loc 2 1687 103 discriminator 1
	ldr	r3, [r7, #4]
	cmp	r3, #0
	bne	.L505
.L504:
	.loc 2 1695 127
	ldr	r3, .L518
	ldr	r3, [r3, #1416]
	.loc 2 1695 148
	bic	r3, r3, #805306368
	.loc 2 1695 54
	ldr	r2, .L518
	.loc 2 1695 181
	orr	r3, r3, #536870912
	.loc 2 1695 74
	str	r3, [r2, #1416]
	.loc 2 1698 8
	ldrb	r3, [r7, #15]	@ zero_extendqisi2
	cmp	r3, #0
	bne	.L506
	.loc 2 1698 21 discriminator 1
	ldr	r3, [r7, #4]
	cmp	r3, #0
	beq	.L508
.L506:
	.loc 2 1700 74
	ldr	r3, .L518
	ldr	r3, [r3, #1408]
	ldr	r2, .L518
	orr	r3, r3, #-2147483648
	str	r3, [r2, #1408]
	.loc 2 1704 5
	b	.L508
.L510:
	.loc 2 1708 9
	movs	r0, #1
	bl	Cy_SysLib_DelayUs
	.loc 2 1706 19
	ldr	r3, [r7, #4]
	subs	r3, r3, #1
	str	r3, [r7, #4]
.L508:
	.loc 2 1704 14
	bl	Cy_SysClk_FllLocked
	mov	r3, r0
	.loc 2 1704 13
	eor	r3, r3, #1
	uxtb	r3, r3
	.loc 2 1704 5
	cmp	r3, #0
	beq	.L509
	.loc 2 1704 37 discriminator 1
	ldr	r3, [r7, #4]
	cmp	r3, #0
	bne	.L510
.L509:
	.loc 2 1711 8
	ldrb	r3, [r7, #15]	@ zero_extendqisi2
	cmp	r3, #0
	bne	.L511
	.loc 2 1711 21 discriminator 1
	ldr	r3, [r7, #4]
	cmp	r3, #0
	beq	.L512
.L511:
	.loc 2 1714 131
	ldr	r3, .L518
	ldr	r3, [r3, #1416]
	.loc 2 1714 58
	ldr	r2, .L518
	.loc 2 1714 185
	orr	r3, r3, #805306368
	.loc 2 1714 78
	str	r3, [r2, #1416]
	b	.L513
.L512:
	.loc 2 1719 15
	bl	Cy_SysClk_FllDisable
.L513:
	.loc 2 1722 74
	ldrb	r3, [r7, #15]	@ zero_extendqisi2
	cmp	r3, #0
	bne	.L514
	.loc 2 1722 31 discriminator 2
	ldr	r3, [r7, #4]
	cmp	r3, #0
	beq	.L515
.L514:
	.loc 2 1722 74 discriminator 3
	movs	r3, #0
	b	.L516
.L515:
	.loc 2 1722 74 is_stmt 0 discriminator 4
	ldr	r3, .L518+4
.L516:
	.loc 2 1722 15 is_stmt 1 discriminator 6
	str	r3, [r7, #8]
	.loc 2 1724 12 discriminator 6
	ldr	r3, [r7, #8]
	.loc 2 1725 1 discriminator 6
	mov	r0, r3
	adds	r7, r7, #16
.LCFI425:
	.cfi_def_cfa_offset 8
	mov	sp, r7
.LCFI426:
	.cfi_def_cfa_register 13
	@ sp needed
	pop	{r7, pc}
.L519:
	.align	2
.L518:
	.word	1076232192
	.word	4849666
	.cfi_endproc
.LFE225:
	.size	Cy_SysClk_FllEnable, .-Cy_SysClk_FllEnable
	.section	.text.Cy_SysClk_PllIsEnabled,"ax",%progbits
	.align	1
	.global	Cy_SysClk_PllIsEnabled
	.syntax unified
	.thumb
	.thumb_func
	.type	Cy_SysClk_PllIsEnabled, %function
Cy_SysClk_PllIsEnabled:
.LFB226:
	.loc 2 1767 1
	.cfi_startproc
	@ args = 0, pretend = 0, frame = 8
	@ frame_needed = 1, uses_anonymous_args = 0
	push	{r7, lr}
.LCFI427:
	.cfi_def_cfa_offset 8
	.cfi_offset 7, -8
	.cfi_offset 14, -4
	sub	sp, sp, #8
.LCFI428:
	.cfi_def_cfa_offset 16
	add	r7, sp, #0
.LCFI429:
	.cfi_def_cfa_register 7
	str	r0, [r7, #4]
	.loc 2 1768 12
	ldr	r3, [r7, #4]
	subs	r3, r3, #1
	str	r3, [r7, #4]
	.loc 2 1769 46
	ldr	r3, .L523
	ldr	r3, [r3]
	ldrb	r3, [r3, #63]	@ zero_extendqisi2
	.loc 2 1769 26
	mov	r2, r3
	.loc 2 1769 12
	ldr	r3, [r7, #4]
	cmp	r3, r2
	bcc	.L521
	.loc 2 1769 65 discriminator 1
	bl	CY_HALT
.L521:
	.loc 2 1770 63
	ldr	r2, .L523+4
	.loc 2 1770 80
	ldr	r3, [r7, #4]
	add	r3, r3, #384
	ldr	r3, [r2, r3, lsl #2]
	.loc 2 1770 109
	lsrs	r3, r3, #31
	uxtb	r3, r3
	.loc 2 1771 1
	mov	r0, r3
	adds	r7, r7, #8
.LCFI430:
	.cfi_def_cfa_offset 8
	mov	sp, r7
.LCFI431:
	.cfi_def_cfa_register 13
	@ sp needed
	pop	{r7, pc}
.L524:
	.align	2
.L523:
	.word	cy_device
	.word	1076232192
	.cfi_endproc
.LFE226:
	.size	Cy_SysClk_PllIsEnabled, .-Cy_SysClk_PllIsEnabled
	.section	.text.Cy_SysClk_PllLocked,"ax",%progbits
	.align	1
	.global	Cy_SysClk_PllLocked
	.syntax unified
	.thumb
	.thumb_func
	.type	Cy_SysClk_PllLocked, %function
Cy_SysClk_PllLocked:
.LFB227:
	.loc 2 1775 1
	.cfi_startproc
	@ args = 0, pretend = 0, frame = 8
	@ frame_needed = 1, uses_anonymous_args = 0
	push	{r7, lr}
.LCFI432:
	.cfi_def_cfa_offset 8
	.cfi_offset 7, -8
	.cfi_offset 14, -4
	sub	sp, sp, #8
.LCFI433:
	.cfi_def_cfa_offset 16
	add	r7, sp, #0
.LCFI434:
	.cfi_def_cfa_register 7
	str	r0, [r7, #4]
	.loc 2 1776 12
	ldr	r3, [r7, #4]
	subs	r3, r3, #1
	str	r3, [r7, #4]
	.loc 2 1777 46
	ldr	r3, .L528
	ldr	r3, [r3]
	ldrb	r3, [r3, #63]	@ zero_extendqisi2
	.loc 2 1777 26
	mov	r2, r3
	.loc 2 1777 12
	ldr	r3, [r7, #4]
	cmp	r3, r2
	bcc	.L526
	.loc 2 1777 65 discriminator 1
	bl	CY_HALT
.L526:
	.loc 2 1778 63
	ldr	r2, .L528+4
	.loc 2 1778 80
	ldr	r3, [r7, #4]
	add	r3, r3, #400
	ldr	r3, [r2, r3, lsl #2]
	.loc 2 1778 91
	and	r3, r3, #1
	.loc 2 1778 102
	cmp	r3, #0
	ite	ne
	movne	r3, #1
	moveq	r3, #0
	uxtb	r3, r3
	.loc 2 1779 1
	mov	r0, r3
	adds	r7, r7, #8
.LCFI435:
	.cfi_def_cfa_offset 8
	mov	sp, r7
.LCFI436:
	.cfi_def_cfa_register 13
	@ sp needed
	pop	{r7, pc}
.L529:
	.align	2
.L528:
	.word	cy_device
	.word	1076232192
	.cfi_endproc
.LFE227:
	.size	Cy_SysClk_PllLocked, .-Cy_SysClk_PllLocked
	.section	.text.Cy_SysClk_PllLostLock,"ax",%progbits
	.align	1
	.global	Cy_SysClk_PllLostLock
	.syntax unified
	.thumb
	.thumb_func
	.type	Cy_SysClk_PllLostLock, %function
Cy_SysClk_PllLostLock:
.LFB228:
	.loc 2 1783 1
	.cfi_startproc
	@ args = 0, pretend = 0, frame = 16
	@ frame_needed = 1, uses_anonymous_args = 0
	push	{r7, lr}
.LCFI437:
	.cfi_def_cfa_offset 8
	.cfi_offset 7, -8
	.cfi_offset 14, -4
	sub	sp, sp, #16
.LCFI438:
	.cfi_def_cfa_offset 24
	add	r7, sp, #0
.LCFI439:
	.cfi_def_cfa_register 7
	str	r0, [r7, #4]
	.loc 2 1789 12
	ldr	r3, [r7, #4]
	subs	r3, r3, #1
	str	r3, [r7, #4]
	.loc 2 1790 46
	ldr	r3, .L533
	ldr	r3, [r3]
	ldrb	r3, [r3, #63]	@ zero_extendqisi2
	.loc 2 1790 26
	mov	r2, r3
	.loc 2 1790 12
	ldr	r3, [r7, #4]
	cmp	r3, r2
	bcc	.L531
	.loc 2 1790 65 discriminator 1
	bl	CY_HALT
.L531:
	.loc 2 1791 68
	ldr	r2, .L533+4
	.loc 2 1791 85
	ldr	r3, [r7, #4]
	add	r3, r3, #400
	ldr	r3, [r2, r3, lsl #2]
	.loc 2 1791 96
	and	r3, r3, #2
	.loc 2 1791 9
	cmp	r3, #0
	ite	ne
	movne	r3, #1
	moveq	r3, #0
	strb	r3, [r7, #15]
	.loc 2 1793 52
	ldr	r2, .L533+4
	.loc 2 1793 79
	ldr	r3, [r7, #4]
	add	r3, r3, #400
	movs	r1, #2
	str	r1, [r2, r3, lsl #2]
	.loc 2 1794 12
	ldrb	r3, [r7, #15]	@ zero_extendqisi2
	.loc 2 1796 1
	mov	r0, r3
	adds	r7, r7, #16
.LCFI440:
	.cfi_def_cfa_offset 8
	mov	sp, r7
.LCFI441:
	.cfi_def_cfa_register 13
	@ sp needed
	pop	{r7, pc}
.L534:
	.align	2
.L533:
	.word	cy_device
	.word	1076232192
	.cfi_endproc
.LFE228:
	.size	Cy_SysClk_PllLostLock, .-Cy_SysClk_PllLostLock
	.section	.text.Cy_SysClk_PllDisable,"ax",%progbits
	.align	1
	.global	Cy_SysClk_PllDisable
	.syntax unified
	.thumb
	.thumb_func
	.type	Cy_SysClk_PllDisable, %function
Cy_SysClk_PllDisable:
.LFB229:
	.loc 2 1800 1
	.cfi_startproc
	@ args = 0, pretend = 0, frame = 16
	@ frame_needed = 1, uses_anonymous_args = 0
	push	{r7, lr}
.LCFI442:
	.cfi_def_cfa_offset 8
	.cfi_offset 7, -8
	.cfi_offset 14, -4
	sub	sp, sp, #16
.LCFI443:
	.cfi_def_cfa_offset 24
	add	r7, sp, #0
.LCFI444:
	.cfi_def_cfa_register 7
	str	r0, [r7, #4]
	.loc 2 1801 27
	ldr	r3, .L538
	str	r3, [r7, #12]
	.loc 2 1802 12
	ldr	r3, [r7, #4]
	subs	r3, r3, #1
	str	r3, [r7, #4]
	.loc 2 1803 40
	ldr	r3, .L538+4
	ldr	r3, [r3]
	ldrb	r3, [r3, #63]	@ zero_extendqisi2
	.loc 2 1803 20
	mov	r2, r3
	.loc 2 1803 8
	ldr	r3, [r7, #4]
	cmp	r3, r2
	bcs	.L536
	.loc 2 1810 139
	ldr	r2, .L538+8
	.loc 2 1810 156
	ldr	r3, [r7, #4]
	add	r3, r3, #384
	ldr	r3, [r2, r3, lsl #2]
	.loc 2 1810 168
	bic	r3, r3, #805306368
	.loc 2 1810 58
	ldr	r1, .L538+8
	.loc 2 1810 201
	orr	r2, r3, #536870912
	.loc 2 1810 86
	ldr	r3, [r7, #4]
	add	r3, r3, #384
	str	r2, [r1, r3, lsl #2]
	.loc 2 1812 9
	movs	r0, #1
	bl	Cy_SysLib_DelayUs
	.loc 2 1814 83
	ldr	r2, .L538+8
	ldr	r3, [r7, #4]
	add	r3, r3, #384
	ldr	r3, [r2, r3, lsl #2]
	ldr	r1, .L538+8
	bic	r2, r3, #-2147483648
	ldr	r3, [r7, #4]
	add	r3, r3, #384
	str	r2, [r1, r3, lsl #2]
	.loc 2 1815 16
	movs	r3, #0
	str	r3, [r7, #12]
.L536:
	.loc 2 1818 12
	ldr	r3, [r7, #12]
	.loc 2 1819 1
	mov	r0, r3
	adds	r7, r7, #16
.LCFI445:
	.cfi_def_cfa_offset 8
	mov	sp, r7
.LCFI446:
	.cfi_def_cfa_register 13
	@ sp needed
	pop	{r7, pc}
.L539:
	.align	2
.L538:
	.word	4849665
	.word	cy_device
	.word	1076232192
	.cfi_endproc
.LFE229:
	.size	Cy_SysClk_PllDisable, .-Cy_SysClk_PllDisable
	.section	.text.Cy_SysClk_PllConfigure,"ax",%progbits
	.align	1
	.global	Cy_SysClk_PllConfigure
	.syntax unified
	.thumb
	.thumb_func
	.type	Cy_SysClk_PllConfigure, %function
Cy_SysClk_PllConfigure:
.LFB230:
	.loc 2 1823 1
	.cfi_startproc
	@ args = 0, pretend = 0, frame = 56
	@ frame_needed = 1, uses_anonymous_args = 0
	push	{r4, r5, r7, r8, r9, r10, fp, lr}
.LCFI447:
	.cfi_def_cfa_offset 32
	.cfi_offset 4, -32
	.cfi_offset 5, -28
	.cfi_offset 7, -24
	.cfi_offset 8, -20
	.cfi_offset 9, -16
	.cfi_offset 10, -12
	.cfi_offset 11, -8
	.cfi_offset 14, -4
	sub	sp, sp, #56
.LCFI448:
	.cfi_def_cfa_offset 88
	add	r7, sp, #0
.LCFI449:
	.cfi_def_cfa_register 7
	str	r0, [r7, #12]
	str	r1, [r7, #8]
	.loc 2 1824 27
	movs	r3, #0
	str	r3, [r7, #52]
	.loc 2 1826 17
	ldr	r3, [r7, #8]
	ldr	r3, [r3]
	.loc 2 1826 8
	ldr	r2, .L567
	cmp	r3, r2
	bls	.L541
	.loc 2 1826 71 discriminator 1
	ldr	r3, [r7, #8]
	ldr	r3, [r3]
	.loc 2 1826 45 discriminator 1
	ldr	r2, .L567+4
	cmp	r3, r2
	bhi	.L541
	.loc 2 1827 17
	ldr	r3, [r7, #8]
	ldr	r3, [r3, #4]
	.loc 2 1827 42
	ldr	r2, [r7, #8]
	ldrb	r2, [r2, #8]	@ zero_extendqisi2
	.loc 2 1827 85
	cmp	r2, #0
	beq	.L542
	.loc 2 1827 85 is_stmt 0 discriminator 1
	ldr	r2, .L567+8
	b	.L543
.L542:
	.loc 2 1827 85 discriminator 2
	ldr	r2, .L567+12
.L543:
	.loc 2 1826 85 is_stmt 1
	cmp	r2, r3
	bhi	.L541
	.loc 2 1827 123
	ldr	r3, [r7, #8]
	ldr	r3, [r3, #4]
	.loc 2 1827 96
	ldr	r2, .L567+16
	cmp	r3, r2
	bls	.L544
.L541:
	.loc 2 1829 16
	ldr	r3, .L567+20
	str	r3, [r7, #52]
	b	.L545
.L544:
.LBB10:
	.loc 2 1833 36
	add	r3, r7, #20
	movs	r2, #0
	str	r2, [r3]
	strb	r2, [r3, #4]
	.loc 2 1837 19
	ldr	r3, [r7, #8]
	ldrb	r3, [r3, #9]	@ zero_extendqisi2
	.loc 2 1837 12
	cmp	r3, #2
	beq	.L546
.LBB11:
	.loc 2 1843 22
	movs	r3, #0
	str	r3, [r7, #36]
	.loc 2 1846 20
	movs	r3, #1
	str	r3, [r7, #44]
	.loc 2 1846 13
	b	.L547
.L563:
	.loc 2 1849 34
	ldr	r3, [r7, #8]
	ldrb	r3, [r3, #8]	@ zero_extendqisi2
	.loc 2 1849 53
	cmp	r3, #0
	beq	.L548
	.loc 2 1849 53 is_stmt 0 discriminator 1
	movs	r3, #19
	b	.L549
.L548:
	.loc 2 1849 53 discriminator 2
	movs	r3, #22
.L549:
	.loc 2 1849 24 is_stmt 1 discriminator 4
	str	r3, [r7, #48]
	.loc 2 1849 17 discriminator 4
	b	.L550
.L562:
.LBB12:
	.loc 2 1852 66
	ldr	r3, [r7, #8]
	ldr	r3, [r3]
	.loc 2 1852 49
	movs	r2, #0
	mov	r8, r3
	mov	r9, r2
	.loc 2 1852 81
	ldr	r3, [r7, #48]
	movs	r2, #0
	mov	r10, r3
	mov	fp, r2
	.loc 2 1852 79
	mul	r2, r10, r9
	mul	r3, r8, fp
	add	r3, r3, r2
	umull	r4, r5, r8, r10
	add	r3, r3, r5
	mov	r5, r3
	.loc 2 1852 96
	ldr	r3, [r7, #44]
	movs	r2, #0
	str	r3, [r7]
	str	r2, [r7, #4]
	.loc 2 1852 94
	ldrd	r2, [r7]
	mov	r0, r4
	mov	r1, r5
	bl	__aeabi_uldivmod
	mov	r2, r0
	mov	r3, r1
	.loc 2 1852 30
	mov	r3, r2
	str	r3, [r7, #32]
	.loc 2 1853 34
	ldr	r3, [r7, #8]
	ldrb	r3, [r3, #8]	@ zero_extendqisi2
	.loc 2 1853 60
	cmp	r3, #0
	beq	.L551
	.loc 2 1853 60 is_stmt 0 discriminator 1
	ldr	r2, .L567+24
	b	.L552
.L551:
	.loc 2 1853 60 discriminator 2
	ldr	r2, .L567+28
.L552:
	.loc 2 1853 24 is_stmt 1 discriminator 4
	ldr	r3, [r7, #32]
	cmp	r2, r3
	bhi	.L553
	.loc 2 1853 106 discriminator 5
	ldr	r3, [r7, #8]
	ldrb	r3, [r3, #8]	@ zero_extendqisi2
	.loc 2 1853 132 discriminator 5
	cmp	r3, #0
	beq	.L554
	.loc 2 1853 132 is_stmt 0 discriminator 6
	ldr	r2, .L567+28
	b	.L555
.L554:
	.loc 2 1853 132 discriminator 7
	ldr	r2, .L567+32
.L555:
	.loc 2 1853 86 is_stmt 1 discriminator 9
	ldr	r3, [r7, #32]
	cmp	r2, r3
	bcc	.L553
	.loc 2 1856 34
	movs	r3, #2
	str	r3, [r7, #40]
	.loc 2 1856 25
	b	.L556
.L559:
.LBB13:
	.loc 2 1860 57
	ldr	r3, [r7, #8]
	ldr	r3, [r3]
	.loc 2 1860 49
	ldr	r2, [r7, #48]
	mul	r2, r3, r2
	.loc 2 1860 70
	ldr	r3, [r7, #44]
	udiv	r2, r2, r3
	.loc 2 1860 38
	ldr	r3, [r7, #40]
	udiv	r3, r2, r3
	str	r3, [r7, #28]
	.loc 2 1861 47
	ldr	r3, [r7, #28]
	.loc 2 1861 79
	ldr	r2, [r7, #8]
	ldr	r2, [r2, #4]
	.loc 2 1861 61
	subs	r3, r3, r2
	.loc 2 1861 43
	cmp	r3, #0
	it	lt
	rsblt	r3, r3, #0
	.loc 2 1861 33
	mov	r1, r3
	.loc 2 1862 47
	ldr	r3, [r7, #36]
	.loc 2 1862 83
	ldr	r2, [r7, #8]
	ldr	r2, [r2, #4]
	.loc 2 1862 65
	subs	r3, r3, r2
	.loc 2 1862 43
	cmp	r3, #0
	it	lt
	rsblt	r3, r3, #0
	.loc 2 1861 32
	cmp	r1, r3
	bcs	.L557
	.loc 2 1864 56
	ldr	r3, [r7, #8]
	ldr	r3, [r3, #4]
	.loc 2 1864 36
	ldr	r2, [r7, #36]
	cmp	r2, r3
	beq	.L566
	.loc 2 1869 42
	ldr	r3, [r7, #28]
	str	r3, [r7, #36]
	.loc 2 1870 60
	ldr	r3, [r7, #48]
	uxtb	r3, r3
	.loc 2 1870 58
	strb	r3, [r7, #20]
	.loc 2 1871 61
	ldr	r3, [r7, #44]
	uxtb	r3, r3
	.loc 2 1871 59
	strb	r3, [r7, #21]
	.loc 2 1872 58
	ldr	r3, [r7, #40]
	uxtb	r3, r3
	.loc 2 1872 56
	strb	r3, [r7, #22]
.L557:
.LBE13:
	.loc 2 1856 61 discriminator 2
	ldr	r3, [r7, #40]
	adds	r3, r3, #1
	str	r3, [r7, #40]
.L556:
	.loc 2 1856 25 discriminator 1
	ldr	r3, [r7, #40]
	cmp	r3, #16
	bls	.L559
	b	.L553
.L566:
.LBB14:
	.loc 2 1866 36
	nop
.L553:
.LBE14:
.LBE12:
	.loc 2 1849 109 discriminator 6
	ldr	r3, [r7, #48]
	adds	r3, r3, #1
	str	r3, [r7, #48]
.L550:
	.loc 2 1849 77 discriminator 5
	ldr	r3, [r7, #8]
	ldrb	r3, [r3, #8]	@ zero_extendqisi2
	.loc 2 1849 96 discriminator 5
	cmp	r3, #0
	beq	.L560
	.loc 2 1849 96 is_stmt 0 discriminator 7
	movs	r2, #56
	b	.L561
.L560:
	.loc 2 1849 96 discriminator 8
	movs	r2, #112
.L561:
	.loc 2 1849 17 is_stmt 1 discriminator 10
	ldr	r3, [r7, #48]
	cmp	r2, r3
	bcs	.L562
	.loc 2 1846 43 discriminator 2
	ldr	r3, [r7, #44]
	adds	r3, r3, #1
	str	r3, [r7, #44]
.L547:
	.loc 2 1846 13 discriminator 1
	ldr	r3, [r7, #44]
	cmp	r3, #18
	bls	.L563
	.loc 2 1880 41
	ldr	r3, [r7, #8]
	ldrb	r3, [r3, #8]	@ zero_extendqisi2
	.loc 2 1880 33
	strb	r3, [r7, #23]
.LBE11:
	b	.L564
.L546:
	.loc 2 1887 19
	add	r3, r7, #20
	mov	r1, r3
	ldr	r0, [r7, #12]
	bl	Cy_SysClk_PllGetConfiguration
.L564:
	.loc 2 1891 41
	ldr	r3, [r7, #8]
	ldrb	r3, [r3, #9]	@ zero_extendqisi2
	.loc 2 1891 33
	strb	r3, [r7, #24]
	.loc 2 1892 18
	add	r3, r7, #20
	mov	r1, r3
	ldr	r0, [r7, #12]
	bl	Cy_SysClk_PllManualConfigure
	str	r0, [r7, #52]
.L545:
.LBE10:
	.loc 2 1896 12
	ldr	r3, [r7, #52]
	.loc 2 1897 1
	mov	r0, r3
	adds	r7, r7, #56
.LCFI450:
	.cfi_def_cfa_offset 32
	mov	sp, r7
.LCFI451:
	.cfi_def_cfa_register 13
	@ sp needed
	pop	{r4, r5, r7, r8, r9, r10, fp, pc}
.L568:
	.align	2
.L567:
	.word	3999999
	.word	64000000
	.word	10625000
	.word	12500000
	.word	150000000
	.word	4849665
	.word	170000000
	.word	200000000
	.word	400000000
	.cfi_endproc
.LFE230:
	.size	Cy_SysClk_PllConfigure, .-Cy_SysClk_PllConfigure
	.section	.text.Cy_SysClk_PllManualConfigure,"ax",%progbits
	.align	1
	.global	Cy_SysClk_PllManualConfigure
	.syntax unified
	.thumb
	.thumb_func
	.type	Cy_SysClk_PllManualConfigure, %function
Cy_SysClk_PllManualConfigure:
.LFB231:
	.loc 2 1901 1
	.cfi_startproc
	@ args = 0, pretend = 0, frame = 16
	@ frame_needed = 1, uses_anonymous_args = 0
	push	{r7, lr}
.LCFI452:
	.cfi_def_cfa_offset 8
	.cfi_offset 7, -8
	.cfi_offset 14, -4
	sub	sp, sp, #16
.LCFI453:
	.cfi_def_cfa_offset 24
	add	r7, sp, #0
.LCFI454:
	.cfi_def_cfa_register 7
	str	r0, [r7, #4]
	str	r1, [r7]
	.loc 2 1902 27
	movs	r3, #0
	str	r3, [r7, #12]
	.loc 2 1905 40
	ldr	r3, .L581
	ldr	r3, [r3]
	ldrb	r3, [r3, #63]	@ zero_extendqisi2
	.loc 2 1905 20
	mov	r2, r3
	.loc 2 1905 8
	ldr	r3, [r7, #4]
	cmp	r3, r2
	bls	.L570
	.loc 2 1907 16
	ldr	r3, .L581+4
	str	r3, [r7, #12]
	b	.L571
.L570:
	.loc 2 1909 14
	ldr	r0, [r7, #4]
	bl	Cy_SysClk_PllIsEnabled
	mov	r3, r0
	.loc 2 1909 13
	cmp	r3, #0
	beq	.L572
	.loc 2 1911 16
	ldr	r3, .L581+8
	str	r3, [r7, #12]
	b	.L571
.L572:
	.loc 2 1914 21
	ldr	r3, [r7]
	ldrb	r3, [r3, #2]	@ zero_extendqisi2
	.loc 2 1914 13
	cmp	r3, #1
	bls	.L573
	.loc 2 1914 61 discriminator 1
	ldr	r3, [r7]
	ldrb	r3, [r3, #2]	@ zero_extendqisi2
	.loc 2 1914 42 discriminator 1
	cmp	r3, #16
	bhi	.L573
	.loc 2 1915 21 discriminator 2
	ldr	r3, [r7]
	ldrb	r3, [r3, #1]	@ zero_extendqisi2
	.loc 2 1914 74 discriminator 2
	cmp	r3, #0
	beq	.L573
	.loc 2 1915 64
	ldr	r3, [r7]
	ldrb	r3, [r3, #1]	@ zero_extendqisi2
	.loc 2 1915 45
	cmp	r3, #18
	bhi	.L573
	.loc 2 1916 21
	ldr	r3, [r7]
	ldrb	r3, [r3]	@ zero_extendqisi2
	mov	r2, r3
	.loc 2 1916 45
	ldr	r3, [r7]
	ldrb	r3, [r3, #3]	@ zero_extendqisi2
	.loc 2 1916 64
	cmp	r3, #0
	beq	.L574
	.loc 2 1916 64 is_stmt 0 discriminator 1
	movs	r3, #19
	b	.L575
.L574:
	.loc 2 1916 64 discriminator 2
	movs	r3, #22
.L575:
	.loc 2 1915 80 is_stmt 1
	cmp	r3, r2
	bhi	.L573
	.loc 2 1916 87
	ldr	r3, [r7]
	ldrb	r3, [r3, #3]	@ zero_extendqisi2
	.loc 2 1916 106
	cmp	r3, #0
	beq	.L576
	.loc 2 1916 106 is_stmt 0 discriminator 3
	movs	r3, #56
	b	.L577
.L576:
	.loc 2 1916 106 discriminator 4
	movs	r3, #112
.L577:
	.loc 2 1916 125 is_stmt 1 discriminator 6
	ldr	r2, [r7]
	ldrb	r2, [r2]	@ zero_extendqisi2
	.loc 2 1916 75 discriminator 6
	cmp	r3, r2
	bcs	.L578
.L573:
	.loc 2 1918 17
	ldr	r3, .L581+4
	str	r3, [r7, #12]
	b	.L571
.L578:
	.loc 2 1929 16
	ldr	r3, [r7, #4]
	subs	r3, r3, #1
	str	r3, [r7, #4]
	.loc 2 1932 19
	ldr	r3, [r7]
	ldrb	r3, [r3, #4]	@ zero_extendqisi2
	.loc 2 1932 12
	cmp	r3, #2
	beq	.L579
	.loc 2 1935 36
	ldr	r3, [r7]
	ldrb	r3, [r3]	@ zero_extendqisi2
	.loc 2 1935 59
	and	r2, r3, #127
	.loc 2 1936 36
	ldr	r3, [r7]
	ldrb	r3, [r3, #1]	@ zero_extendqisi2
	.loc 2 1936 52
	lsls	r3, r3, #8
	.loc 2 1936 60
	and	r3, r3, #7936
	.loc 2 1935 69
	orrs	r2, r2, r3
	.loc 2 1937 36
	ldr	r3, [r7]
	ldrb	r3, [r3, #2]	@ zero_extendqisi2
	.loc 2 1937 49
	lsls	r3, r3, #16
	.loc 2 1937 58
	and	r3, r3, #2031616
	.loc 2 1936 72
	orrs	r2, r2, r3
	.loc 2 1938 36
	ldr	r3, [r7]
	ldrb	r3, [r3, #3]	@ zero_extendqisi2
	.loc 2 1938 46
	lsls	r3, r3, #27
	.loc 2 1938 55
	and	r3, r3, #134217728
	.loc 2 1934 60
	ldr	r1, .L581+12
	.loc 2 1937 72
	orrs	r2, r2, r3
	.loc 2 1934 87
	ldr	r3, [r7, #4]
	add	r3, r3, #384
	str	r2, [r1, r3, lsl #2]
.L579:
	.loc 2 1941 139
	ldr	r2, .L581+12
	.loc 2 1941 156
	ldr	r3, [r7, #4]
	add	r3, r3, #384
	ldr	r3, [r2, r3, lsl #2]
	.loc 2 1941 168
	bic	r2, r3, #805306368
	.loc 2 1941 234
	ldr	r3, [r7]
	ldrb	r3, [r3, #4]	@ zero_extendqisi2
	.loc 2 1941 249
	lsls	r3, r3, #28
	.loc 2 1941 258
	and	r3, r3, #805306368
	.loc 2 1941 58
	ldr	r1, .L581+12
	.loc 2 1941 201
	orrs	r2, r2, r3
	.loc 2 1941 86
	ldr	r3, [r7, #4]
	add	r3, r3, #384
	str	r2, [r1, r3, lsl #2]
.L571:
	.loc 2 1945 12
	ldr	r3, [r7, #12]
	.loc 2 1946 1
	mov	r0, r3
	adds	r7, r7, #16
.LCFI455:
	.cfi_def_cfa_offset 8
	mov	sp, r7
.LCFI456:
	.cfi_def_cfa_register 13
	@ sp needed
	pop	{r7, pc}
.L582:
	.align	2
.L581:
	.word	cy_device
	.word	4849665
	.word	4849667
	.word	1076232192
	.cfi_endproc
.LFE231:
	.size	Cy_SysClk_PllManualConfigure, .-Cy_SysClk_PllManualConfigure
	.section	.text.Cy_SysClk_PllGetConfiguration,"ax",%progbits
	.align	1
	.global	Cy_SysClk_PllGetConfiguration
	.syntax unified
	.thumb
	.thumb_func
	.type	Cy_SysClk_PllGetConfiguration, %function
Cy_SysClk_PllGetConfiguration:
.LFB232:
	.loc 2 1950 1
	.cfi_startproc
	@ args = 0, pretend = 0, frame = 16
	@ frame_needed = 1, uses_anonymous_args = 0
	@ link register save eliminated.
	push	{r7}
.LCFI457:
	.cfi_def_cfa_offset 4
	.cfi_offset 7, -4
	sub	sp, sp, #20
.LCFI458:
	.cfi_def_cfa_offset 24
	add	r7, sp, #0
.LCFI459:
	.cfi_def_cfa_register 7
	str	r0, [r7, #4]
	str	r1, [r7]
	.loc 2 1951 27
	ldr	r3, .L586
	str	r3, [r7, #12]
	.loc 2 1952 12
	ldr	r3, [r7, #4]
	subs	r3, r3, #1
	str	r3, [r7, #4]
	.loc 2 1953 40
	ldr	r3, .L586+4
	ldr	r3, [r3]
	ldrb	r3, [r3, #63]	@ zero_extendqisi2
	.loc 2 1953 20
	mov	r2, r3
	.loc 2 1953 8
	ldr	r3, [r7, #4]
	cmp	r3, r2
	bcs	.L584
.LBB15:
	.loc 2 1955 75
	ldr	r2, .L586+8
	.loc 2 1955 18
	ldr	r3, [r7, #4]
	add	r3, r3, #384
	ldr	r3, [r2, r3, lsl #2]
	str	r3, [r7, #8]
	.loc 2 1956 31
	ldr	r3, [r7, #8]
	uxtb	r3, r3
	and	r3, r3, #127
	uxtb	r2, r3
	.loc 2 1956 29
	ldr	r3, [r7]
	strb	r2, [r3]
	.loc 2 1957 75
	ldr	r3, [r7, #8]
	lsrs	r3, r3, #8
	.loc 2 1957 32
	uxtb	r3, r3
	and	r3, r3, #31
	uxtb	r2, r3
	.loc 2 1957 30
	ldr	r3, [r7]
	strb	r2, [r3, #1]
	.loc 2 1958 74
	ldr	r3, [r7, #8]
	lsrs	r3, r3, #16
	.loc 2 1958 29
	uxtb	r3, r3
	and	r3, r3, #31
	uxtb	r2, r3
	.loc 2 1958 27
	ldr	r3, [r7]
	strb	r2, [r3, #2]
	.loc 2 1959 38
	ldr	r3, [r7, #8]
	and	r3, r3, #134217728
	.loc 2 1959 55
	cmp	r3, #0
	ite	ne
	movne	r3, #1
	moveq	r3, #0
	uxtb	r2, r3
	.loc 2 1959 24
	ldr	r3, [r7]
	strb	r2, [r3, #3]
	.loc 2 1960 60
	ldr	r3, [r7, #8]
	lsrs	r3, r3, #28
	and	r3, r3, #3
	.loc 2 1960 30
	uxtb	r2, r3
	.loc 2 1960 28
	ldr	r3, [r7]
	strb	r2, [r3, #4]
	.loc 2 1961 16
	movs	r3, #0
	str	r3, [r7, #12]
.L584:
.LBE15:
	.loc 2 1963 12
	ldr	r3, [r7, #12]
	.loc 2 1964 1
	mov	r0, r3
	adds	r7, r7, #20
.LCFI460:
	.cfi_def_cfa_offset 4
	mov	sp, r7
.LCFI461:
	.cfi_def_cfa_register 13
	@ sp needed
	ldr	r7, [sp], #4
.LCFI462:
	.cfi_restore 7
	.cfi_def_cfa_offset 0
	bx	lr
.L587:
	.align	2
.L586:
	.word	4849665
	.word	cy_device
	.word	1076232192
	.cfi_endproc
.LFE232:
	.size	Cy_SysClk_PllGetConfiguration, .-Cy_SysClk_PllGetConfiguration
	.section	.text.Cy_SysClk_PllEnable,"ax",%progbits
	.align	1
	.global	Cy_SysClk_PllEnable
	.syntax unified
	.thumb
	.thumb_func
	.type	Cy_SysClk_PllEnable, %function
Cy_SysClk_PllEnable:
.LFB233:
	.loc 2 1968 1
	.cfi_startproc
	@ args = 0, pretend = 0, frame = 16
	@ frame_needed = 1, uses_anonymous_args = 0
	push	{r7, lr}
.LCFI463:
	.cfi_def_cfa_offset 8
	.cfi_offset 7, -8
	.cfi_offset 14, -4
	sub	sp, sp, #16
.LCFI464:
	.cfi_def_cfa_offset 24
	add	r7, sp, #0
.LCFI465:
	.cfi_def_cfa_register 7
	str	r0, [r7, #4]
	str	r1, [r7]
	.loc 2 1969 27
	ldr	r3, .L597
	str	r3, [r7, #12]
	.loc 2 1970 9
	ldr	r3, [r7]
	cmp	r3, #0
	ite	eq
	moveq	r3, #1
	movne	r3, #0
	strb	r3, [r7, #11]
	.loc 2 1971 12
	ldr	r3, [r7, #4]
	subs	r3, r3, #1
	str	r3, [r7, #4]
	.loc 2 1972 40
	ldr	r3, .L597+4
	ldr	r3, [r3]
	ldrb	r3, [r3, #63]	@ zero_extendqisi2
	.loc 2 1972 20
	mov	r2, r3
	.loc 2 1972 8
	ldr	r3, [r7, #4]
	cmp	r3, r2
	bcs	.L589
	.loc 2 1981 83
	ldr	r2, .L597+8
	ldr	r3, [r7, #4]
	add	r3, r3, #384
	ldr	r3, [r2, r3, lsl #2]
	ldr	r1, .L597+8
	orr	r2, r3, #-2147483648
	ldr	r3, [r7, #4]
	add	r3, r3, #384
	str	r2, [r1, r3, lsl #2]
	.loc 2 1984 9
	b	.L590
.L592:
	.loc 2 1988 13
	movs	r0, #1
	bl	Cy_SysLib_DelayUs
	.loc 2 1986 23
	ldr	r3, [r7]
	subs	r3, r3, #1
	str	r3, [r7]
.L590:
	.loc 2 1984 80
	ldr	r2, .L597+8
	.loc 2 1984 97
	ldr	r3, [r7, #4]
	add	r3, r3, #400
	ldr	r3, [r2, r3, lsl #2]
	.loc 2 1984 31
	and	r3, r3, #1
	.loc 2 1984 9
	cmp	r3, #0
	bne	.L591
	.loc 2 1984 109 discriminator 1
	ldr	r3, [r7]
	cmp	r3, #0
	bne	.L592
.L591:
	.loc 2 1991 12
	ldrb	r3, [r7, #11]	@ zero_extendqisi2
	cmp	r3, #0
	bne	.L593
	.loc 2 1991 25 discriminator 1
	ldr	r3, [r7]
	cmp	r3, #0
	beq	.L594
.L593:
	.loc 2 1994 130
	ldr	r2, .L597+8
	.loc 2 1994 147
	ldr	r3, [r7, #4]
	add	r3, r3, #384
	ldr	r3, [r2, r3, lsl #2]
	.loc 2 1994 60
	lsrs	r3, r3, #28
	and	r3, r3, #3
	.loc 2 1994 16
	cmp	r3, #2
	bne	.L595
	.loc 2 1996 147
	ldr	r2, .L597+8
	.loc 2 1996 164
	ldr	r3, [r7, #4]
	add	r3, r3, #384
	ldr	r3, [r2, r3, lsl #2]
	.loc 2 1996 66
	ldr	r1, .L597+8
	.loc 2 1996 209
	orr	r2, r3, #805306368
	.loc 2 1996 94
	ldr	r3, [r7, #4]
	add	r3, r3, #384
	str	r2, [r1, r3, lsl #2]
.L595:
	.loc 2 1999 20
	movs	r3, #0
	str	r3, [r7, #12]
	b	.L589
.L594:
	.loc 2 2004 143
	ldr	r2, .L597+8
	.loc 2 2004 160
	ldr	r3, [r7, #4]
	add	r3, r3, #384
	ldr	r3, [r2, r3, lsl #2]
	.loc 2 2004 172
	bic	r3, r3, #805306368
	.loc 2 2004 62
	ldr	r1, .L597+8
	.loc 2 2004 205
	orr	r2, r3, #536870912
	.loc 2 2004 90
	ldr	r3, [r7, #4]
	add	r3, r3, #384
	str	r2, [r1, r3, lsl #2]
	.loc 2 2006 13
	movs	r0, #1
	bl	Cy_SysLib_DelayUs
	.loc 2 2008 87
	ldr	r2, .L597+8
	ldr	r3, [r7, #4]
	add	r3, r3, #384
	ldr	r3, [r2, r3, lsl #2]
	ldr	r1, .L597+8
	bic	r2, r3, #-2147483648
	ldr	r3, [r7, #4]
	add	r3, r3, #384
	str	r2, [r1, r3, lsl #2]
	.loc 2 2009 20
	ldr	r3, .L597+12
	str	r3, [r7, #12]
.L589:
	.loc 2 2013 12
	ldr	r3, [r7, #12]
	.loc 2 2014 1
	mov	r0, r3
	adds	r7, r7, #16
.LCFI466:
	.cfi_def_cfa_offset 8
	mov	sp, r7
.LCFI467:
	.cfi_def_cfa_register 13
	@ sp needed
	pop	{r7, pc}
.L598:
	.align	2
.L597:
	.word	4849665
	.word	cy_device
	.word	1076232192
	.word	4849666
	.cfi_endproc
.LFE233:
	.size	Cy_SysClk_PllEnable, .-Cy_SysClk_PllEnable
	.section	.bss.clk1Count1,"aw",%nobits
	.align	2
	.type	clk1Count1, %object
	.size	clk1Count1, 4
clk1Count1:
	.space	4
	.section	.bss.clkCounting,"aw",%nobits
	.type	clkCounting, %object
	.size	clkCounting, 1
clkCounting:
	.space	1
	.section	.bss.preventCounting,"aw",%nobits
	.type	preventCounting, %object
	.size	preventCounting, 1
preventCounting:
	.space	1
	.section	.text.Cy_SysClk_ClkMeasurementCountersGetFreq,"ax",%progbits
	.align	1
	.global	Cy_SysClk_ClkMeasurementCountersGetFreq
	.syntax unified
	.thumb
	.thumb_func
	.type	Cy_SysClk_ClkMeasurementCountersGetFreq, %function
Cy_SysClk_ClkMeasurementCountersGetFreq:
.LFB234:
	.loc 2 2051 1
	.cfi_startproc
	@ args = 0, pretend = 0, frame = 88
	@ frame_needed = 1, uses_anonymous_args = 0
	push	{r4, r5, r7, r8, r9, r10, fp, lr}
.LCFI468:
	.cfi_def_cfa_offset 32
	.cfi_offset 4, -32
	.cfi_offset 5, -28
	.cfi_offset 7, -24
	.cfi_offset 8, -20
	.cfi_offset 9, -16
	.cfi_offset 10, -12
	.cfi_offset 11, -8
	.cfi_offset 14, -4
	sub	sp, sp, #88
.LCFI469:
	.cfi_def_cfa_offset 120
	add	r7, sp, #0
.LCFI470:
	.cfi_def_cfa_register 7
	mov	r3, r0
	str	r1, [r7, #72]
	strb	r3, [r7, #79]
	.loc 2 2052 14
	movs	r3, #0
	str	r3, [r7, #84]
	.loc 2 2053 9
	movs	r3, #0
	strb	r3, [r7, #83]
	.loc 2 2056 17
	ldr	r2, .L607
	movs	r3, #0
	strb	r3, [r2]
	.loc 2 2059 10
	nop
.L600:
	.loc 2 2059 83 discriminator 1
	ldr	r3, .L607+4
	ldr	r3, [r3]
	ldr	r1, [r3, #32]
	.loc 2 2059 105 discriminator 1
	ldr	r3, .L607+4
	ldr	r3, [r3]
	ldrh	r3, [r3, #186]
	mov	r2, r3
	.loc 2 2059 121 discriminator 1
	mov	r3, r2
	lsls	r3, r3, #3
	subs	r3, r3, r2
	.loc 2 2059 93 discriminator 1
	add	r3, r3, r1
	.loc 2 2059 135 discriminator 1
	ldr	r3, [r3]
	.loc 2 2059 10 discriminator 1
	cmp	r3, #0
	bge	.L600
	.loc 2 2067 9
	ldr	r3, .L607+8
	ldr	r2, [r3]
	.loc 2 2067 7
	movw	r3, #7967
	cmp	r2, r3
	bne	.L601
	.loc 2 2069 12
	ldr	r3, .L607+12
	ldr	r2, [r3]
	.loc 2 2069 10
	movw	r3, #15677
	cmp	r2, r3
	bne	.L601
	.loc 2 2071 31
	movs	r3, #1
	strb	r3, [r7, #83]
.L601:
	.loc 2 2075 74
	ldr	r3, .L607+16
	ldr	r3, [r3, #1312]
	.loc 2 2075 12
	bic	r3, r3, #-16777216
	str	r3, [r7, #84]
	.loc 2 2077 55
	ldr	r3, .L607+4
	ldr	r3, [r3]
	ldr	r1, [r3, #32]
	.loc 2 2077 77
	ldr	r3, .L607+4
	ldr	r3, [r3]
	ldrh	r3, [r3, #186]
	mov	r2, r3
	.loc 2 2077 93
	mov	r3, r2
	lsls	r3, r3, #3
	subs	r3, r3, r2
	.loc 2 2077 65
	add	r3, r3, r1
	.loc 2 2077 7
	mov	r2, r3
	.loc 2 2077 118
	movs	r3, #0
	str	r3, [r2, #4]
	.loc 2 2079 8
	ldrb	r3, [r7, #83]	@ zero_extendqisi2
	cmp	r3, #0
	beq	.L602
	.loc 2 2079 28 discriminator 1
	ldr	r3, [r7, #84]
	cmp	r3, #0
	beq	.L602
	.loc 2 2081 13
	ldrb	r3, [r7, #79]
	eor	r3, r3, #1
	uxtb	r3, r3
	.loc 2 2081 12
	cmp	r3, #0
	beq	.L603
	.loc 2 2083 35
	ldr	r3, .L607+20
	ldr	r3, [r3]
	movs	r2, #0
	str	r3, [r7, #64]
	str	r2, [r7, #68]
	.loc 2 2083 58
	ldr	r3, [r7, #72]
	movs	r2, #0
	str	r3, [r7, #56]
	str	r2, [r7, #60]
	.loc 2 2083 56
	ldrd	r4, [r7, #64]
	mov	r3, r5
	ldrd	r10, [r7, #56]
	mov	r2, r10
	mul	r2, r2, r3
	mov	r3, fp
	mov	r1, r4
	mul	r3, r1, r3
	add	r3, r3, r2
	mov	r2, r4
	mov	r1, r10
	umull	r8, r9, r2, r1
	add	r3, r3, r9
	mov	r9, r3
	.loc 2 2083 102
	ldr	r3, [r7, #84]
	lsrs	r3, r3, #1
	movs	r2, #0
	str	r3, [r7, #48]
	str	r2, [r7, #52]
	.loc 2 2083 80
	ldrd	r1, [r7, #48]
	mov	r3, r1
	adds	r3, r8, r3
	str	r3, [r7, #40]
	mov	r3, r2
	adc	r3, r9, r3
	str	r3, [r7, #44]
	.loc 2 2083 112
	ldr	r3, [r7, #84]
	movs	r2, #0
	str	r3, [r7, #32]
	str	r2, [r7, #36]
	.loc 2 2083 109
	ldrd	r2, [r7, #32]
	ldrd	r0, [r7, #40]
	bl	__aeabi_uldivmod
	mov	r2, r0
	mov	r3, r1
	.loc 2 2083 20
	mov	r3, r2
	str	r3, [r7, #84]
	.loc 2 2081 12
	b	.L605
.L603:
	.loc 2 2087 35
	ldr	r3, [r7, #84]
	movs	r2, #0
	str	r3, [r7, #24]
	str	r2, [r7, #28]
	.loc 2 2087 54
	ldr	r3, [r7, #72]
	movs	r2, #0
	mov	r10, r3
	mov	fp, r2
	.loc 2 2087 52
	ldrd	r0, [r7, #24]
	mov	r3, r1
	mul	r2, r10, r3
	mov	r3, r0
	mul	r3, r3, fp
	add	r3, r3, r2
	mov	r2, r0
	umull	r4, r5, r2, r10
	add	r3, r3, r5
	mov	r5, r3
	.loc 2 2087 102
	ldr	r3, .L607+20
	ldr	r3, [r3]
	lsrs	r3, r3, #1
	movs	r2, #0
	str	r3, [r7, #16]
	str	r2, [r7, #20]
	.loc 2 2087 76
	ldrd	r1, [r7, #16]
	mov	r3, r1
	adds	r3, r4, r3
	str	r3, [r7, #8]
	mov	r3, r2
	adc	r3, r5, r3
	str	r3, [r7, #12]
	.loc 2 2087 112
	ldr	r3, .L607+20
	ldr	r3, [r3]
	movs	r2, #0
	str	r3, [r7]
	str	r2, [r7, #4]
	.loc 2 2087 109
	ldrd	r2, [r7]
	ldrd	r0, [r7, #8]
	bl	__aeabi_uldivmod
	mov	r2, r0
	mov	r3, r1
	.loc 2 2087 20
	mov	r3, r2
	str	r3, [r7, #84]
	.loc 2 2081 12
	b	.L605
.L602:
	.loc 2 2093 16
	movs	r3, #0
	str	r3, [r7, #84]
.L605:
	.loc 2 2096 12
	ldr	r3, [r7, #84]
	.loc 2 2097 1
	mov	r0, r3
	adds	r7, r7, #88
.LCFI471:
	.cfi_def_cfa_offset 32
	mov	sp, r7
.LCFI472:
	.cfi_def_cfa_register 13
	@ sp needed
	pop	{r4, r5, r7, r8, r9, r10, fp, pc}
.L608:
	.align	2
.L607:
	.word	clkCounting
	.word	cy_device
	.word	1076232456
	.word	1076232452
	.word	1076232192
	.word	clk1Count1
	.cfi_endproc
.LFE234:
	.size	Cy_SysClk_ClkMeasurementCountersGetFreq, .-Cy_SysClk_ClkMeasurementCountersGetFreq
	.section	.text.Cy_SysClk_ClkMeasurementCountersDone,"ax",%progbits
	.align	1
	.global	Cy_SysClk_ClkMeasurementCountersDone
	.syntax unified
	.thumb
	.thumb_func
	.type	Cy_SysClk_ClkMeasurementCountersDone, %function
Cy_SysClk_ClkMeasurementCountersDone:
.LFB235:
	.loc 2 2101 1
	.cfi_startproc
	@ args = 0, pretend = 0, frame = 0
	@ frame_needed = 1, uses_anonymous_args = 0
	@ link register save eliminated.
	push	{r7}
.LCFI473:
	.cfi_def_cfa_offset 4
	.cfi_offset 7, -4
	add	r7, sp, #0
.LCFI474:
	.cfi_def_cfa_register 7
	.loc 2 2102 63
	ldr	r3, .L611
	ldr	r3, [r3, #1308]
	.loc 2 2102 98
	lsrs	r3, r3, #31
	uxtb	r3, r3
	.loc 2 2103 1
	mov	r0, r3
	mov	sp, r7
.LCFI475:
	.cfi_def_cfa_register 13
	@ sp needed
	ldr	r7, [sp], #4
.LCFI476:
	.cfi_restore 7
	.cfi_def_cfa_offset 0
	bx	lr
.L612:
	.align	2
.L611:
	.word	1076232192
	.cfi_endproc
.LFE235:
	.size	Cy_SysClk_ClkMeasurementCountersDone, .-Cy_SysClk_ClkMeasurementCountersDone
	.section	.text.Cy_SysClk_StartClkMeasurementCounters,"ax",%progbits
	.align	1
	.global	Cy_SysClk_StartClkMeasurementCounters
	.syntax unified
	.thumb
	.thumb_func
	.type	Cy_SysClk_StartClkMeasurementCounters, %function
Cy_SysClk_StartClkMeasurementCounters:
.LFB236:
	.loc 2 2107 1
	.cfi_startproc
	@ args = 0, pretend = 0, frame = 32
	@ frame_needed = 1, uses_anonymous_args = 0
	@ link register save eliminated.
	push	{r7}
.LCFI477:
	.cfi_def_cfa_offset 4
	.cfi_offset 7, -4
	sub	sp, sp, #36
.LCFI478:
	.cfi_def_cfa_offset 40
	add	r7, sp, #0
.LCFI479:
	.cfi_def_cfa_register 7
	mov	r3, r0
	str	r1, [r7]
	strh	r3, [r7, #6]	@ movhi
	mov	r3, r2	@ movhi
	strh	r3, [r7, #4]	@ movhi
	.loc 2 2108 27
	ldr	r3, .L628
	str	r3, [r7, #28]
	.loc 2 2133 14
	movs	r3, #0
	str	r3, [r7, #24]
	.loc 2 2134 14
	movs	r3, #0
	str	r3, [r7, #20]
	.loc 2 2136 14
	movs	r3, #0
	str	r3, [r7, #16]
	.loc 2 2137 14
	movs	r3, #0
	str	r3, [r7, #12]
	.loc 2 2155 8
	ldrh	r3, [r7, #6]
	cmp	r3, #1552
	bcs	.L614
	.loc 2 2155 48 discriminator 1
	ldrh	r3, [r7, #4]
	cmp	r3, #1552
	bcs	.L614
	.loc 2 2155 90 discriminator 2
	ldr	r3, [r7]
	cmp	r3, #16777216
	bcs	.L614
	.loc 2 2159 21
	ldr	r3, .L628+4
	movs	r2, #1
	strb	r2, [r3]
	.loc 2 2161 12
	ldrh	r3, [r7, #6]
	cmp	r3, #255
	bhi	.L615
	.loc 2 2163 64
	ldrh	r3, [r7, #6]
	.loc 2 2163 72
	and	r3, r3, #15
	.loc 2 2163 30
	ldr	r2, [r7, #24]
	orrs	r3, r3, r2
	str	r3, [r7, #24]
	.loc 2 2164 30
	ldr	r3, [r7, #20]
	orr	r3, r3, #7
	str	r3, [r7, #20]
	.loc 2 2166 31
	ldr	r3, [r7, #16]
	orr	r3, r3, #15
	str	r3, [r7, #16]
	.loc 2 2167 31
	ldr	r3, [r7, #12]
	orr	r3, r3, #15
	str	r3, [r7, #12]
	b	.L616
.L615:
	.loc 2 2171 16
	ldrh	r3, [r7, #6]
	cmp	r3, #1280
	bcs	.L617
	.loc 2 2173 68
	ldrh	r3, [r7, #6]
	.loc 2 2173 76
	and	r3, r3, #15
	.loc 2 2173 34
	ldr	r2, [r7, #20]
	orrs	r3, r3, r2
	str	r3, [r7, #20]
	.loc 2 2174 35
	ldr	r3, [r7, #12]
	orr	r3, r3, #15
	str	r3, [r7, #12]
	b	.L616
.L617:
	.loc 2 2178 93
	ldrh	r3, [r7, #6]
	lsrs	r3, r3, #8
	uxth	r3, r3
	and	r3, r3, #15
	.loc 2 2178 34
	ldr	r2, [r7, #20]
	orrs	r3, r3, r2
	str	r3, [r7, #20]
	.loc 2 2179 35
	ldr	r3, [r7, #12]
	orr	r3, r3, #15
	str	r3, [r7, #12]
	.loc 2 2181 20
	ldrh	r3, [r7, #6]
	cmp	r3, #1536
	bcs	.L618
	.loc 2 2183 82
	ldrh	r3, [r7, #6]
	lsls	r3, r3, #4
	.loc 2 2183 90
	uxtb	r3, r3
	.loc 2 2183 38
	ldr	r2, [r7, #20]
	orrs	r3, r3, r2
	str	r3, [r7, #20]
	.loc 2 2184 39
	ldr	r3, [r7, #12]
	orr	r3, r3, #240
	str	r3, [r7, #12]
	b	.L616
.L618:
	.loc 2 2188 82
	ldrh	r3, [r7, #6]
	lsls	r3, r3, #8
	.loc 2 2188 90
	and	r3, r3, #3840
	.loc 2 2188 38
	ldr	r2, [r7, #20]
	orrs	r3, r3, r2
	str	r3, [r7, #20]
	.loc 2 2189 39
	ldr	r3, [r7, #12]
	orr	r3, r3, #3840
	str	r3, [r7, #12]
.L616:
	.loc 2 2194 12
	ldrh	r3, [r7, #4]
	cmp	r3, #255
	bhi	.L619
	.loc 2 2196 35
	ldrh	r3, [r7, #4]
	.loc 2 2196 64
	lsls	r3, r3, #4
	.loc 2 2196 72
	uxtb	r3, r3
	.loc 2 2196 30
	ldr	r2, [r7, #24]
	orrs	r3, r3, r2
	str	r3, [r7, #24]
	.loc 2 2197 30
	ldr	r3, [r7, #20]
	orr	r3, r3, #458752
	str	r3, [r7, #20]
	.loc 2 2199 31
	ldr	r3, [r7, #16]
	orr	r3, r3, #240
	str	r3, [r7, #16]
	.loc 2 2200 31
	ldr	r3, [r7, #12]
	orr	r3, r3, #983040
	str	r3, [r7, #12]
	b	.L627
.L619:
	.loc 2 2204 16
	ldrh	r3, [r7, #4]
	cmp	r3, #1280
	bcs	.L621
	.loc 2 2206 39
	ldrh	r3, [r7, #4]
	.loc 2 2206 68
	lsls	r3, r3, #16
	.loc 2 2206 77
	and	r3, r3, #983040
	.loc 2 2206 34
	ldr	r2, [r7, #20]
	orrs	r3, r3, r2
	str	r3, [r7, #20]
	.loc 2 2207 35
	ldr	r3, [r7, #12]
	orr	r3, r3, #983040
	str	r3, [r7, #12]
	b	.L627
.L621:
	.loc 2 2211 85
	ldrh	r3, [r7, #4]
	lsrs	r3, r3, #8
	uxth	r3, r3
	lsls	r3, r3, #16
	.loc 2 2211 94
	and	r3, r3, #983040
	.loc 2 2211 34
	ldr	r2, [r7, #20]
	orrs	r3, r3, r2
	str	r3, [r7, #20]
	.loc 2 2212 35
	ldr	r3, [r7, #12]
	orr	r3, r3, #983040
	str	r3, [r7, #12]
	.loc 2 2214 20
	ldrh	r3, [r7, #4]
	cmp	r3, #1536
	bcs	.L622
	.loc 2 2216 82
	ldrh	r3, [r7, #4]
	lsls	r3, r3, #20
	.loc 2 2216 91
	and	r3, r3, #15728640
	.loc 2 2216 38
	ldr	r2, [r7, #20]
	orrs	r3, r3, r2
	str	r3, [r7, #20]
	.loc 2 2217 39
	ldr	r3, [r7, #12]
	orr	r3, r3, #15728640
	str	r3, [r7, #12]
	b	.L627
.L622:
	.loc 2 2221 82
	ldrh	r3, [r7, #4]
	lsls	r3, r3, #24
	.loc 2 2221 91
	and	r3, r3, #251658240
	.loc 2 2221 38
	ldr	r2, [r7, #20]
	orrs	r3, r3, r2
	str	r3, [r7, #20]
	.loc 2 2222 39
	ldr	r3, [r7, #12]
	orr	r3, r3, #251658240
	str	r3, [r7, #12]
.L627:
	.loc 2 2228 14
	nop
.L623:
	.loc 2 2228 87 discriminator 1
	ldr	r3, .L628+8
	ldr	r3, [r3]
	ldr	r2, [r3, #32]
	.loc 2 2228 109 discriminator 1
	ldr	r3, .L628+8
	ldr	r3, [r3]
	ldrh	r3, [r3, #186]
	mov	r1, r3
	.loc 2 2228 125 discriminator 1
	mov	r3, r1
	lsls	r3, r3, #3
	subs	r3, r3, r1
	.loc 2 2228 97 discriminator 1
	add	r3, r3, r2
	.loc 2 2228 139 discriminator 1
	ldr	r3, [r3]
	.loc 2 2228 14 discriminator 1
	cmp	r3, #0
	bge	.L623
	.loc 2 2233 14
	ldr	r3, .L628+12
	ldrb	r3, [r3]	@ zero_extendqisi2
	eor	r3, r3, #1
	uxtb	r3, r3
	.loc 2 2233 12
	cmp	r3, #0
	bne	.L624
	.loc 2 2234 74 discriminator 1
	ldr	r3, .L628+16
	ldr	r3, [r3, #1308]
	.loc 2 2233 32 discriminator 1
	cmp	r3, #0
	bge	.L625
.L624:
	.loc 2 2237 14
	ldr	r3, .L628+20
	.loc 2 2237 50
	movw	r2, #7967
	str	r2, [r3]
	.loc 2 2238 14
	ldr	r3, .L628+24
	.loc 2 2238 50
	movw	r2, #15677
	str	r2, [r3]
	.loc 2 2240 130
	ldr	r3, .L628+16
	ldr	r2, [r3, #1304]
	.loc 2 2240 163
	ldr	r3, [r7, #16]
	mvns	r3, r3
	.loc 2 2240 149
	ands	r2, r2, r3
	.loc 2 2240 60
	ldr	r1, .L628+16
	.loc 2 2240 184
	ldr	r3, [r7, #24]
	orrs	r3, r3, r2
	.loc 2 2240 79
	str	r3, [r1, #1304]
	.loc 2 2241 130
	ldr	r3, .L628+16
	ldr	r2, [r3, #1300]
	.loc 2 2241 163
	ldr	r3, [r7, #12]
	mvns	r3, r3
	.loc 2 2241 149
	ands	r2, r2, r3
	.loc 2 2241 60
	ldr	r1, .L628+16
	.loc 2 2241 184
	ldr	r3, [r7, #20]
	orrs	r3, r3, r2
	.loc 2 2241 79
	str	r3, [r1, #1300]
	.loc 2 2245 24
	ldr	r2, .L628+28
	ldr	r3, [r7]
	str	r3, [r2]
	.loc 2 2248 60
	ldr	r2, .L628+16
	.loc 2 2248 76
	ldr	r3, .L628+28
	ldr	r3, [r3]
	str	r3, [r2, #1308]
	.loc 2 2250 20
	movs	r3, #0
	str	r3, [r7, #28]
.L625:
	.loc 2 2254 59
	ldr	r3, .L628+8
	ldr	r3, [r3]
	ldr	r2, [r3, #32]
	.loc 2 2254 81
	ldr	r3, .L628+8
	ldr	r3, [r3]
	ldrh	r3, [r3, #186]
	mov	r1, r3
	.loc 2 2254 97
	mov	r3, r1
	lsls	r3, r3, #3
	subs	r3, r3, r1
	.loc 2 2254 69
	add	r3, r3, r2
	.loc 2 2254 11
	mov	r2, r3
	.loc 2 2254 122
	movs	r3, #0
	str	r3, [r2, #4]
.L614:
	.loc 2 2259 12
	ldr	r3, [r7, #28]
	.loc 2 2260 1
	mov	r0, r3
	adds	r7, r7, #36
.LCFI480:
	.cfi_def_cfa_offset 4
	mov	sp, r7
.LCFI481:
	.cfi_def_cfa_register 13
	@ sp needed
	ldr	r7, [sp], #4
.LCFI482:
	.cfi_restore 7
	.cfi_def_cfa_offset 0
	bx	lr
.L629:
	.align	2
.L628:
	.word	4849665
	.word	clkCounting
	.word	cy_device
	.word	preventCounting
	.word	1076232192
	.word	1076232456
	.word	1076232452
	.word	clk1Count1
	.cfi_endproc
.LFE236:
	.size	Cy_SysClk_StartClkMeasurementCounters, .-Cy_SysClk_StartClkMeasurementCounters
	.section	.data.stepSize,"aw"
	.align	2
	.type	stepSize, %object
	.size	stepSize, 4
stepSize:
	.word	5
	.section	.text.Cy_SysClk_IloTrim,"ax",%progbits
	.align	1
	.global	Cy_SysClk_IloTrim
	.syntax unified
	.thumb
	.thumb_func
	.type	Cy_SysClk_IloTrim, %function
Cy_SysClk_IloTrim:
.LFB237:
	.loc 2 2277 1
	.cfi_startproc
	@ args = 0, pretend = 0, frame = 24
	@ frame_needed = 1, uses_anonymous_args = 0
	@ link register save eliminated.
	push	{r7}
.LCFI483:
	.cfi_def_cfa_offset 4
	.cfi_offset 7, -4
	sub	sp, sp, #28
.LCFI484:
	.cfi_def_cfa_offset 32
	add	r7, sp, #0
.LCFI485:
	.cfi_def_cfa_register 7
	str	r0, [r7, #4]
	.loc 2 2284 9
	movs	r3, #0
	strb	r3, [r7, #19]
	.loc 2 2286 7
	ldr	r3, [r7, #4]
	movw	r2, #33260
	cmp	r3, r2
	bls	.L631
	.loc 2 2288 14
	ldr	r3, [r7, #4]
	sub	r3, r3, #32768
	str	r3, [r7, #20]
	b	.L632
.L631:
	.loc 2 2290 13
	ldr	r3, [r7, #4]
	movw	r2, #32275
	cmp	r3, r2
	bhi	.L633
	.loc 2 2292 14
	ldr	r3, [r7, #4]
	rsb	r3, r3, #32768
	str	r3, [r7, #20]
	.loc 2 2293 14
	movs	r3, #1
	strb	r3, [r7, #19]
	b	.L632
.L633:
	.loc 2 2297 14
	movs	r3, #0
	str	r3, [r7, #20]
.L632:
	.loc 2 2301 7
	ldr	r3, [r7, #20]
	cmp	r3, #0
	beq	.L634
.LBB16:
	.loc 2 2304 85
	ldr	r3, .L640
	add	r3, r3, #61440
	ldr	r3, [r3, #3864]
	.loc 2 2304 18
	and	r3, r3, #63
	str	r3, [r7, #12]
	.loc 2 2306 25
	ldr	r3, [r7, #20]
	adds	r3, r3, #246
	.loc 2 2306 14
	lsrs	r3, r3, #2
	ldr	r2, .L640+4
	umull	r2, r3, r2, r3
	lsrs	r3, r3, #4
	str	r3, [r7, #20]
	.loc 2 2308 11
	ldrb	r3, [r7, #19]	@ zero_extendqisi2
	cmp	r3, #0
	beq	.L635
	.loc 2 2310 18
	ldr	r2, [r7, #12]
	ldr	r3, [r7, #20]
	add	r3, r3, r2
	str	r3, [r7, #12]
	b	.L636
.L635:
	.loc 2 2314 18
	ldr	r2, [r7, #12]
	ldr	r3, [r7, #20]
	subs	r3, r2, r3
	str	r3, [r7, #12]
.L636:
	.loc 2 2318 132
	ldr	r3, .L640
	add	r3, r3, #61440
	ldr	r3, [r3, #3864]
	.loc 2 2318 154
	bic	r2, r3, #63
	.loc 2 2318 213
	ldr	r3, [r7, #12]
	and	r3, r3, #63
	.loc 2 2318 58
	ldr	r1, .L640
	.loc 2 2318 181
	orrs	r3, r3, r2
	.loc 2 2318 79
	add	r2, r1, #61440
	str	r3, [r2, #3864]
.L634:
.LBE16:
	.loc 2 2321 42
	ldrb	r3, [r7, #19]	@ zero_extendqisi2
	cmp	r3, #0
	beq	.L637
	.loc 2 2321 42 is_stmt 0 discriminator 1
	ldr	r3, [r7, #20]
	b	.L638
.L637:
	.loc 2 2321 50 is_stmt 1 discriminator 2
	ldr	r3, [r7, #20]
	.loc 2 2321 42 discriminator 2
	rsbs	r3, r3, #0
.L638:
	.loc 2 2321 18 discriminator 4
	str	r3, [r7, #8]
	.loc 2 2324 12 discriminator 4
	ldr	r3, [r7, #8]
	.loc 2 2325 1 discriminator 4
	mov	r0, r3
	adds	r7, r7, #28
.LCFI486:
	.cfi_def_cfa_offset 4
	mov	sp, r7
.LCFI487:
	.cfi_def_cfa_register 13
	@ sp needed
	ldr	r7, [sp], #4
.LCFI488:
	.cfi_restore 7
	.cfi_def_cfa_offset 0
	bx	lr
.L641:
	.align	2
.L640:
	.word	1076232192
	.word	558694933
	.cfi_endproc
.LFE237:
	.size	Cy_SysClk_IloTrim, .-Cy_SysClk_IloTrim
	.section	.text.Cy_SysClk_PiloTrim,"ax",%progbits
	.align	1
	.global	Cy_SysClk_PiloTrim
	.syntax unified
	.thumb
	.thumb_func
	.type	Cy_SysClk_PiloTrim, %function
Cy_SysClk_PiloTrim:
.LFB238:
	.loc 2 2335 1
	.cfi_startproc
	@ args = 0, pretend = 0, frame = 24
	@ frame_needed = 1, uses_anonymous_args = 0
	push	{r7, lr}
.LCFI489:
	.cfi_def_cfa_offset 8
	.cfi_offset 7, -8
	.cfi_offset 14, -4
	sub	sp, sp, #24
.LCFI490:
	.cfi_def_cfa_offset 32
	add	r7, sp, #0
.LCFI491:
	.cfi_def_cfa_register 7
	str	r0, [r7, #4]
	.loc 2 2338 9
	movs	r3, #0
	strb	r3, [r7, #19]
	.loc 2 2340 30
	ldr	r3, .L652
	ldr	r3, [r3]
	add	r3, r3, #32768
	.loc 2 2340 7
	ldr	r2, [r7, #4]
	cmp	r2, r3
	bls	.L643
	.loc 2 2342 14
	ldr	r3, [r7, #4]
	sub	r3, r3, #32768
	str	r3, [r7, #20]
	b	.L644
.L643:
	.loc 2 2344 36
	ldr	r3, .L652
	ldr	r3, [r3]
	rsb	r3, r3, #32768
	.loc 2 2344 13
	ldr	r2, [r7, #4]
	cmp	r2, r3
	bcs	.L645
	.loc 2 2346 14
	ldr	r3, [r7, #4]
	rsb	r3, r3, #32768
	str	r3, [r7, #20]
	.loc 2 2347 14
	movs	r3, #1
	strb	r3, [r7, #19]
	b	.L644
.L645:
	.loc 2 2351 14
	movs	r3, #0
	str	r3, [r7, #20]
.L644:
	.loc 2 2355 7
	ldr	r3, [r7, #20]
	cmp	r3, #0
	beq	.L646
.LBB17:
	.loc 2 2358 25
	bl	Cy_SysClk_PiloGetTrim
	str	r0, [r7, #12]
	.loc 2 2360 39
	ldr	r3, .L652
	ldr	r3, [r3]
	lsrs	r2, r3, #1
	.loc 2 2360 25
	ldr	r3, [r7, #20]
	add	r2, r2, r3
	.loc 2 2360 46
	ldr	r3, .L652
	ldr	r3, [r3]
	.loc 2 2360 14
	udiv	r3, r2, r3
	str	r3, [r7, #20]
	.loc 2 2362 11
	ldrb	r3, [r7, #19]	@ zero_extendqisi2
	cmp	r3, #0
	beq	.L647
	.loc 2 2364 18
	ldr	r2, [r7, #12]
	ldr	r3, [r7, #20]
	add	r3, r3, r2
	str	r3, [r7, #12]
	.loc 2 2365 16
	ldr	r3, [r7, #12]
	movw	r2, #1022
	cmp	r3, r2
	bls	.L648
	.loc 2 2367 22
	movw	r3, #1023
	str	r3, [r7, #12]
	b	.L648
.L647:
	.loc 2 2372 18
	ldr	r2, [r7, #12]
	ldr	r3, [r7, #20]
	subs	r3, r2, r3
	str	r3, [r7, #12]
	.loc 2 2373 17
	ldr	r3, [r7, #12]
	.loc 2 2373 16
	cmp	r3, #0
	bge	.L648
	.loc 2 2375 22
	movs	r3, #0
	str	r3, [r7, #12]
.L648:
	.loc 2 2380 9
	ldr	r0, [r7, #12]
	bl	Cy_SysClk_PiloSetTrim
.L646:
.LBE17:
	.loc 2 2383 21
	ldrb	r3, [r7, #19]	@ zero_extendqisi2
	cmp	r3, #0
	beq	.L649
	.loc 2 2383 21 is_stmt 0 discriminator 1
	ldr	r3, [r7, #20]
	b	.L650
.L649:
	.loc 2 2383 60 is_stmt 1 discriminator 2
	ldr	r3, [r7, #20]
	.loc 2 2383 21 discriminator 2
	rsbs	r3, r3, #0
.L650:
	.loc 2 2383 18 discriminator 4
	str	r3, [r7, #8]
	.loc 2 2384 8 discriminator 4
	ldr	r3, [r7, #8]
	.loc 2 2385 1 discriminator 4
	mov	r0, r3
	adds	r7, r7, #24
.LCFI492:
	.cfi_def_cfa_offset 8
	mov	sp, r7
.LCFI493:
	.cfi_def_cfa_register 13
	@ sp needed
	pop	{r7, pc}
.L653:
	.align	2
.L652:
	.word	stepSize
	.cfi_endproc
.LFE238:
	.size	Cy_SysClk_PiloTrim, .-Cy_SysClk_PiloTrim
	.section	.text.Cy_SysClk_PiloInitialTrim,"ax",%progbits
	.align	1
	.global	Cy_SysClk_PiloInitialTrim
	.syntax unified
	.thumb
	.thumb_func
	.type	Cy_SysClk_PiloInitialTrim, %function
Cy_SysClk_PiloInitialTrim:
.LFB239:
	.loc 2 2397 1
	.cfi_startproc
	@ args = 0, pretend = 0, frame = 16
	@ frame_needed = 1, uses_anonymous_args = 0
	push	{r7, lr}
.LCFI494:
	.cfi_def_cfa_offset 8
	.cfi_offset 7, -8
	.cfi_offset 14, -4
	sub	sp, sp, #16
.LCFI495:
	.cfi_def_cfa_offset 24
	add	r7, sp, #0
.LCFI496:
	.cfi_def_cfa_register 7
	.loc 2 2401 14
	mov	r3, #-1
	str	r3, [r7, #4]
	.loc 2 2402 14
	movs	r3, #0
	str	r3, [r7, #12]
	.loc 2 2403 13
	movs	r3, #9
	str	r3, [r7, #8]
.L657:
	.loc 2 2407 75
	ldr	r3, .L658
	ldr	r3, [r3, #1340]
	ldr	r2, .L658
	bic	r3, r3, #1020
	bic	r3, r3, #3
	str	r3, [r2, #1340]
	.loc 2 2410 75
	ldr	r3, .L658
	ldr	r2, [r3, #1340]
	.loc 2 2410 107
	ldr	r3, [r7, #8]
	.loc 2 2410 104
	movs	r1, #1
	lsls	r1, r1, r3
	.loc 2 2410 87
	ldr	r3, [r7, #12]
	orrs	r3, r3, r1
	.loc 2 2410 75
	ldr	r1, .L658
	orrs	r3, r3, r2
	str	r3, [r1, #1340]
	.loc 2 2413 9
	mov	r0, #2000
	bl	Cy_SysLib_DelayUs
	.loc 2 2416 16
	movw	r2, #259
	movs	r1, #64
	movs	r0, #8
	bl	Cy_SysClk_StartClkMeasurementCounters
	.loc 2 2417 15
	nop
.L655:
	.loc 2 2417 24 discriminator 1
	bl	Cy_SysClk_ClkMeasurementCountersDone
	mov	r3, r0
	.loc 2 2417 21 discriminator 1
	eor	r3, r3, #1
	uxtb	r3, r3
	.loc 2 2417 15 discriminator 1
	cmp	r3, #0
	bne	.L655
	.loc 2 2422 93
	ldr	r3, .L658
	ldr	r3, [r3, #1312]
	.loc 2 2422 21
	bic	r3, r3, #-16777216
	str	r3, [r7, #4]
	.loc 2 2424 12
	ldr	r3, [r7, #4]
	movw	r2, #31250
	cmp	r3, r2
	bls	.L656
	.loc 2 2426 42
	ldr	r3, [r7, #8]
	.loc 2 2426 39
	movs	r2, #1
	lsl	r3, r2, r3
	.loc 2 2426 21
	ldr	r2, [r7, #12]
	orrs	r3, r3, r2
	str	r3, [r7, #12]
.L656:
	.loc 2 2429 15
	ldr	r3, [r7, #8]
	subs	r3, r3, #1
	str	r3, [r7, #8]
	.loc 2 2431 5
	ldr	r3, [r7, #8]
	cmp	r3, #0
	bge	.L657
	.loc 2 2432 71
	ldr	r3, .L658
	ldr	r3, [r3, #1340]
	ldr	r2, .L658
	bic	r3, r3, #1020
	bic	r3, r3, #3
	str	r3, [r2, #1340]
	.loc 2 2433 71
	ldr	r3, .L658
	ldr	r2, [r3, #1340]
	ldr	r1, .L658
	ldr	r3, [r7, #12]
	orrs	r3, r3, r2
	str	r3, [r1, #1340]
	.loc 2 2435 1
	nop
	adds	r7, r7, #16
.LCFI497:
	.cfi_def_cfa_offset 8
	mov	sp, r7
.LCFI498:
	.cfi_def_cfa_register 13
	@ sp needed
	pop	{r7, pc}
.L659:
	.align	2
.L658:
	.word	1076232192
	.cfi_endproc
.LFE239:
	.size	Cy_SysClk_PiloInitialTrim, .-Cy_SysClk_PiloInitialTrim
	.section	.text.Cy_SysClk_PiloUpdateTrimStep,"ax",%progbits
	.align	1
	.global	Cy_SysClk_PiloUpdateTrimStep
	.syntax unified
	.thumb
	.thumb_func
	.type	Cy_SysClk_PiloUpdateTrimStep, %function
Cy_SysClk_PiloUpdateTrimStep:
.LFB240:
	.loc 2 2439 1
	.cfi_startproc
	@ args = 0, pretend = 0, frame = 24
	@ frame_needed = 1, uses_anonymous_args = 0
	push	{r7, lr}
.LCFI499:
	.cfi_def_cfa_offset 8
	.cfi_offset 7, -8
	.cfi_offset 14, -4
	sub	sp, sp, #24
.LCFI500:
	.cfi_def_cfa_offset 32
	add	r7, sp, #0
.LCFI501:
	.cfi_def_cfa_register 7
	.loc 2 2444 14
	movs	r3, #0
	str	r3, [r7, #20]
	.loc 2 2445 14
	movs	r3, #0
	str	r3, [r7, #12]
	.loc 2 2446 14
	movs	r3, #0
	str	r3, [r7, #8]
	.loc 2 2447 14
	movs	r3, #0
	str	r3, [r7, #16]
	.loc 2 2448 89
	ldr	r3, .L664
	ldr	r3, [r3, #1340]
	.loc 2 2448 14
	ubfx	r3, r3, #0, #10
	str	r3, [r7, #4]
	.loc 2 2449 27
	bl	Cy_SysClk_AltHfGetFrequency
	str	r0, [r7]
	.loc 2 2451 14
	ldr	r3, .L664+4
	movs	r2, #8
	str	r2, [r3]
	.loc 2 2453 12
	movw	r2, #259
	movs	r1, #212
	movs	r0, #8
	bl	Cy_SysClk_StartClkMeasurementCounters
	.loc 2 2454 11
	nop
.L661:
	.loc 2 2454 20 discriminator 1
	bl	Cy_SysClk_ClkMeasurementCountersDone
	mov	r3, r0
	.loc 2 2454 17 discriminator 1
	eor	r3, r3, #1
	uxtb	r3, r3
	.loc 2 2454 11 discriminator 1
	cmp	r3, #0
	bne	.L661
	.loc 2 2459 15
	ldr	r1, [r7]
	movs	r0, #0
	bl	Cy_SysClk_ClkMeasurementCountersGetFreq
	str	r0, [r7, #16]
.L663:
	.loc 2 2462 77
	ldr	r3, .L664
	ldr	r3, [r3, #1340]
	.loc 2 2462 15
	ubfx	r3, r3, #0, #10
	str	r3, [r7, #12]
	.loc 2 2464 131
	ldr	r3, .L664
	ldr	r3, [r3, #1340]
	.loc 2 2464 152
	bic	r3, r3, #1020
	bic	r3, r3, #3
	.loc 2 2464 210
	ldr	r2, [r7, #12]
	adds	r2, r2, #1
	.loc 2 2464 218
	ubfx	r2, r2, #0, #10
	.loc 2 2464 58
	ldr	r1, .L664
	.loc 2 2464 180
	orrs	r3, r3, r2
	.loc 2 2464 78
	str	r3, [r1, #1340]
	.loc 2 2466 9
	mov	r0, #2000
	bl	Cy_SysLib_DelayUs
	.loc 2 2467 16
	movw	r2, #259
	movs	r1, #212
	movs	r0, #8
	bl	Cy_SysClk_StartClkMeasurementCounters
	.loc 2 2468 15
	nop
.L662:
	.loc 2 2468 24 discriminator 1
	bl	Cy_SysClk_ClkMeasurementCountersDone
	mov	r3, r0
	.loc 2 2468 21 discriminator 1
	eor	r3, r3, #1
	uxtb	r3, r3
	.loc 2 2468 15 discriminator 1
	cmp	r3, #0
	bne	.L662
	.loc 2 2472 19
	ldr	r1, [r7]
	movs	r0, #0
	bl	Cy_SysClk_ClkMeasurementCountersGetFreq
	str	r0, [r7, #8]
	.loc 2 2473 30
	ldr	r2, [r7, #8]
	ldr	r3, [r7, #16]
	subs	r2, r2, r3
	.loc 2 2473 18
	ldr	r3, .L664+4
	ldr	r3, [r3]
	add	r3, r3, r2
	ldr	r2, .L664+4
	str	r3, [r2]
	.loc 2 2474 17
	ldr	r3, [r7, #8]
	str	r3, [r7, #16]
	.loc 2 2475 18
	ldr	r3, [r7, #20]
	adds	r3, r3, #1
	str	r3, [r7, #20]
	.loc 2 2477 5
	ldr	r3, [r7, #20]
	cmp	r3, #7
	bls	.L663
	.loc 2 2478 25
	ldr	r3, .L664+4
	ldr	r3, [r3]
	lsrs	r3, r3, #3
	.loc 2 2478 14
	ldr	r2, .L664+4
	str	r3, [r2]
	.loc 2 2480 127
	ldr	r3, .L664
	ldr	r3, [r3, #1340]
	.loc 2 2480 148
	bic	r3, r3, #1020
	bic	r3, r3, #3
	.loc 2 2480 216
	ldr	r2, [r7, #4]
	ubfx	r2, r2, #0, #10
	.loc 2 2480 54
	ldr	r1, .L664
	.loc 2 2480 176
	orrs	r3, r3, r2
	.loc 2 2480 74
	str	r3, [r1, #1340]
	.loc 2 2482 5
	mov	r0, #2000
	bl	Cy_SysLib_DelayUs
	.loc 2 2484 1
	nop
	adds	r7, r7, #24
.LCFI502:
	.cfi_def_cfa_offset 8
	mov	sp, r7
.LCFI503:
	.cfi_def_cfa_register 13
	@ sp needed
	pop	{r7, pc}
.L665:
	.align	2
.L664:
	.word	1076232192
	.word	stepSize
	.cfi_endproc
.LFE240:
	.size	Cy_SysClk_PiloUpdateTrimStep, .-Cy_SysClk_PiloUpdateTrimStep
	.section	.text.Cy_SysClk_DeepSleepCallback,"ax",%progbits
	.align	1
	.global	Cy_SysClk_DeepSleepCallback
	.syntax unified
	.thumb
	.thumb_func
	.type	Cy_SysClk_DeepSleepCallback, %function
Cy_SysClk_DeepSleepCallback:
.LFB241:
	.loc 2 2498 1
	.cfi_startproc
	@ args = 0, pretend = 0, frame = 24
	@ frame_needed = 1, uses_anonymous_args = 0
	push	{r7, lr}
.LCFI504:
	.cfi_def_cfa_offset 8
	.cfi_offset 7, -8
	.cfi_offset 14, -4
	sub	sp, sp, #24
.LCFI505:
	.cfi_def_cfa_offset 32
	add	r7, sp, #0
.LCFI506:
	.cfi_def_cfa_register 7
	str	r0, [r7, #4]
	mov	r3, r1
	strb	r3, [r7, #3]
	.loc 2 2504 26
	ldr	r3, .L709
	str	r3, [r7, #20]
	.loc 2 2510 5
	ldrb	r3, [r7, #3]	@ zero_extendqisi2
	subs	r3, r3, #1
	cmp	r3, #7
	bhi	.L707
	adr	r2, .L669
	ldr	pc, [r2, r3, lsl #2]
	.p2align 2
.L669:
	.word	.L672+1
	.word	.L671+1
	.word	.L707+1
	.word	.L670+1
	.word	.L707+1
	.word	.L707+1
	.word	.L707+1
	.word	.L668+1
	.p2align 1
.L672:
	.loc 2 2514 17
	ldr	r3, .L709+4
	ldrb	r3, [r3]	@ zero_extendqisi2
	eor	r3, r3, #1
	uxtb	r3, r3
	.loc 2 2514 16
	cmp	r3, #0
	beq	.L708
	.loc 2 2520 33
	ldr	r3, .L709+8
	movs	r2, #1
	strb	r2, [r3]
	.loc 2 2521 24
	movs	r3, #0
	str	r3, [r7, #20]
	.loc 2 2523 13
	b	.L708
.L671:
	.loc 2 2527 29
	ldr	r3, .L709+8
	movs	r2, #0
	strb	r2, [r3]
	.loc 2 2528 20
	movs	r3, #0
	str	r3, [r7, #20]
	.loc 2 2529 13
	b	.L674
.L670:
.LBB18:
	.loc 2 2539 36
	ldr	r3, .L709+12
	movs	r2, #0
	strh	r2, [r3]	@ movhi
	.loc 2 2540 30
	ldr	r3, .L709+16
	movs	r2, #0
	strh	r2, [r3]	@ movhi
	.loc 2 2543 29
	movs	r3, #0
	str	r3, [r7, #16]
	.loc 2 2543 17
	b	.L675
.L684:
	.loc 2 2546 25
	ldr	r3, [r7, #16]
	cmp	r3, #0
	bne	.L676
	.loc 2 2546 43 discriminator 1
	bl	Cy_SysClk_FllIsEnabled
	mov	r3, r0
	b	.L677
.L676:
	.loc 2 2546 70 discriminator 2
	ldr	r0, [r7, #16]
	bl	Cy_SysClk_PllIsEnabled
	mov	r3, r0
.L677:
	.loc 2 2546 24 discriminator 4
	cmp	r3, #0
	beq	.L678
	.loc 2 2549 29
	ldr	r0, [r7, #16]
	bl	Cy_SysClk_ClkPathGetSource
	mov	r3, r0
	.loc 2 2549 28
	cmp	r3, #2
	bne	.L679
	.loc 2 2552 32
	ldr	r3, [r7, #16]
	cmp	r3, #0
	bne	.L680
	.loc 2 2554 155
	ldr	r3, .L709+20
	ldr	r3, [r3, #1416]
	.loc 2 2554 176
	bic	r3, r3, #805306368
	.loc 2 2554 82
	ldr	r2, .L709+20
	.loc 2 2554 209
	orr	r3, r3, #536870912
	.loc 2 2554 102
	str	r3, [r2, #1416]
	b	.L681
.L680:
	.loc 2 2558 140
	ldr	r2, .L709+20
	.loc 2 2558 165
	ldr	r3, [r7, #16]
	subs	r3, r3, #1
	.loc 2 2558 157
	add	r3, r3, #384
	ldr	r3, [r2, r3, lsl #2]
	.loc 2 2558 189
	lsrs	r3, r3, #28
	and	r3, r3, #3
	.loc 2 2558 36
	cmp	r3, #0
	beq	.L682
	.loc 2 2559 141 discriminator 1
	ldr	r2, .L709+20
	.loc 2 2559 166 discriminator 1
	ldr	r3, [r7, #16]
	subs	r3, r3, #1
	.loc 2 2559 158 discriminator 1
	add	r3, r3, #384
	ldr	r3, [r2, r3, lsl #2]
	.loc 2 2559 190 discriminator 1
	lsrs	r3, r3, #28
	and	r3, r3, #3
	.loc 2 2558 199 discriminator 1
	cmp	r3, #1
	bne	.L683
.L682:
	.loc 2 2561 68
	movs	r2, #1
	ldr	r3, [r7, #16]
	lsl	r3, r2, r3
	.loc 2 2561 53
	uxth	r2, r3
	.loc 2 2561 50
	ldr	r3, .L709+16
	ldrh	r3, [r3]
	orrs	r3, r3, r2
	uxth	r2, r3
	ldr	r3, .L709+16
	strh	r2, [r3]	@ movhi
.L683:
	.loc 2 2564 168
	ldr	r2, .L709+20
	.loc 2 2564 193
	ldr	r3, [r7, #16]
	subs	r3, r3, #1
	.loc 2 2564 185
	add	r3, r3, #384
	ldr	r3, [r2, r3, lsl #2]
	.loc 2 2564 202
	bic	r2, r3, #805306368
	.loc 2 2564 82
	ldr	r1, .L709+20
	.loc 2 2564 107
	ldr	r3, [r7, #16]
	subs	r3, r3, #1
	.loc 2 2564 235
	orr	r2, r2, #536870912
	.loc 2 2564 115
	add	r3, r3, #384
	str	r2, [r1, r3, lsl #2]
.L681:
	.loc 2 2568 35
	movs	r1, #0
	ldr	r0, [r7, #16]
	bl	Cy_SysClk_ClkPathSetSource
	.loc 2 2571 66
	movs	r2, #1
	ldr	r3, [r7, #16]
	lsl	r3, r2, r3
	.loc 2 2571 51
	uxth	r2, r3
	.loc 2 2571 48
	ldr	r3, .L709+12
	ldrh	r3, [r3]
	orrs	r3, r3, r2
	uxth	r2, r3
	ldr	r3, .L709+12
	strh	r2, [r3]	@ movhi
	b	.L678
.L679:
	.loc 2 2573 33
	ldr	r3, [r7, #16]
	cmp	r3, #0
	bne	.L678
	.loc 2 2575 151
	ldr	r3, .L709+20
	ldr	r3, [r3, #1416]
	.loc 2 2575 172
	bic	r3, r3, #805306368
	.loc 2 2575 78
	ldr	r2, .L709+20
	.loc 2 2575 205
	orr	r3, r3, #536870912
	.loc 2 2575 98
	str	r3, [r2, #1416]
.L678:
	.loc 2 2543 89 discriminator 2
	ldr	r3, [r7, #16]
	adds	r3, r3, #1
	str	r3, [r7, #16]
.L675:
	.loc 2 2543 67 discriminator 1
	ldr	r3, .L709+24
	ldr	r3, [r3]
	ldrb	r3, [r3, #63]	@ zero_extendqisi2
	.loc 2 2543 47 discriminator 1
	mov	r2, r3
	.loc 2 2543 17 discriminator 1
	ldr	r3, [r7, #16]
	cmp	r3, r2
	bls	.L684
	.loc 2 2584 24
	movs	r3, #0
	str	r3, [r7, #20]
.LBE18:
	.loc 2 2587 13
	b	.L674
.L668:
.LBB19:
	.loc 2 2597 26
	ldr	r3, .L709+28
	str	r3, [r7, #12]
	.loc 2 2598 24
	ldr	r3, .L709+32
	str	r3, [r7, #20]
	.loc 2 2600 24
	ldr	r3, .L709+12
	ldrh	r3, [r3]
	.loc 2 2600 20
	cmp	r3, #0
	beq	.L685
	.loc 2 2603 27
	b	.L686
.L688:
	.loc 2 2605 32
	ldr	r3, [r7, #12]
	subs	r3, r3, #1
	str	r3, [r7, #12]
.L686:
	.loc 2 2603 36
	bl	Cy_SysClk_EcoGetStatus
	mov	r3, r0
	.loc 2 2603 27
	cmp	r3, #2
	beq	.L687
	.loc 2 2603 62 discriminator 1
	ldr	r3, [r7, #12]
	cmp	r3, #0
	bne	.L688
.L687:
	.loc 2 2608 24
	ldr	r3, [r7, #12]
	cmp	r3, #0
	beq	.L689
.LBB20:
	.loc 2 2612 37
	movs	r3, #0
	str	r3, [r7, #8]
	.loc 2 2612 25
	b	.L690
.L701:
	.loc 2 2615 76
	movs	r2, #1
	ldr	r3, [r7, #8]
	lsl	r3, r2, r3
	.loc 2 2615 61
	uxth	r2, r3
	.loc 2 2615 36
	ldr	r3, .L709+12
	ldrh	r3, [r3]
	ands	r3, r3, r2
	uxth	r3, r3
	.loc 2 2615 32
	cmp	r3, #0
	beq	.L691
	.loc 2 2618 39
	movs	r1, #2
	ldr	r0, [r7, #8]
	bl	Cy_SysClk_ClkPathSetSource
	.loc 2 2623 36
	ldr	r3, [r7, #8]
	cmp	r3, #0
	bne	.L696
	.loc 2 2625 43
	b	.L693
.L695:
	.loc 2 2627 48
	ldr	r3, [r7, #12]
	subs	r3, r3, #1
	str	r3, [r7, #12]
.L693:
	.loc 2 2625 46
	bl	Cy_SysClk_FllLocked
	mov	r3, r0
	.loc 2 2625 45
	eor	r3, r3, #1
	uxtb	r3, r3
	.loc 2 2625 43
	cmp	r3, #0
	beq	.L694
	.loc 2 2625 69 discriminator 1
	ldr	r3, [r7, #12]
	cmp	r3, #0
	bne	.L695
	b	.L694
.L697:
	.loc 2 2634 48
	ldr	r3, [r7, #12]
	subs	r3, r3, #1
	str	r3, [r7, #12]
.L696:
	.loc 2 2632 46
	ldr	r0, [r7, #8]
	bl	Cy_SysClk_PllLocked
	mov	r3, r0
	.loc 2 2632 45
	eor	r3, r3, #1
	uxtb	r3, r3
	.loc 2 2632 43
	cmp	r3, #0
	beq	.L694
	.loc 2 2632 75 discriminator 1
	ldr	r3, [r7, #12]
	cmp	r3, #0
	bne	.L697
.L694:
	.loc 2 2638 36
	ldr	r3, [r7, #12]
	cmp	r3, #0
	beq	.L691
	.loc 2 2641 40
	ldr	r3, [r7, #8]
	cmp	r3, #0
	bne	.L698
	.loc 2 2643 163
	ldr	r3, .L709+20
	ldr	r3, [r3, #1416]
	.loc 2 2643 90
	ldr	r2, .L709+20
	.loc 2 2643 217
	orr	r3, r3, #805306368
	.loc 2 2643 110
	str	r3, [r2, #1416]
	b	.L699
.L698:
	.loc 2 2647 82
	movs	r2, #1
	ldr	r3, [r7, #8]
	lsl	r3, r2, r3
	.loc 2 2647 67
	uxth	r2, r3
	.loc 2 2647 48
	ldr	r3, .L709+16
	ldrh	r3, [r3]
	ands	r3, r3, r2
	uxth	r3, r3
	.loc 2 2647 44
	cmp	r3, #0
	beq	.L700
	.loc 2 2649 180
	ldr	r2, .L709+20
	.loc 2 2649 205
	ldr	r3, [r7, #8]
	subs	r3, r3, #1
	.loc 2 2649 197
	add	r3, r3, #384
	ldr	r2, [r2, r3, lsl #2]
	.loc 2 2649 94
	ldr	r1, .L709+20
	.loc 2 2649 119
	ldr	r3, [r7, #8]
	subs	r3, r3, #1
	.loc 2 2649 247
	bic	r2, r2, #805306368
	.loc 2 2649 127
	add	r3, r3, #384
	str	r2, [r1, r3, lsl #2]
	b	.L699
.L700:
	.loc 2 2653 180
	ldr	r2, .L709+20
	.loc 2 2653 205
	ldr	r3, [r7, #8]
	subs	r3, r3, #1
	.loc 2 2653 197
	add	r3, r3, #384
	ldr	r2, [r2, r3, lsl #2]
	.loc 2 2653 94
	ldr	r1, .L709+20
	.loc 2 2653 119
	ldr	r3, [r7, #8]
	subs	r3, r3, #1
	.loc 2 2653 247
	orr	r2, r2, #805306368
	.loc 2 2653 127
	add	r3, r3, #384
	str	r2, [r1, r3, lsl #2]
.L699:
	.loc 2 2657 44
	movs	r3, #0
	str	r3, [r7, #20]
.L691:
	.loc 2 2612 97 discriminator 2
	ldr	r3, [r7, #8]
	adds	r3, r3, #1
	str	r3, [r7, #8]
.L690:
	.loc 2 2612 75 discriminator 1
	ldr	r3, .L709+24
	ldr	r3, [r3]
	ldrb	r3, [r3, #63]	@ zero_extendqisi2
	.loc 2 2612 55 discriminator 1
	mov	r2, r3
	.loc 2 2612 25 discriminator 1
	ldr	r3, [r7, #8]
	cmp	r3, r2
	bls	.L701
	b	.L689
.L685:
.LBE20:
	.loc 2 2663 26
	bl	Cy_SysClk_FllIsEnabled
	mov	r3, r0
	.loc 2 2663 25
	cmp	r3, #0
	beq	.L702
	.loc 2 2666 27
	b	.L703
.L710:
	.align	2
.L709:
	.word	4325631
	.word	clkCounting
	.word	preventCounting
	.word	changedSourcePaths.1
	.word	pllAutoModes.0
	.word	1076232192
	.word	cy_device
	.word	1000000
	.word	4325378
.L705:
	.loc 2 2668 32
	ldr	r3, [r7, #12]
	subs	r3, r3, #1
	str	r3, [r7, #12]
.L703:
	.loc 2 2666 30
	bl	Cy_SysClk_FllLocked
	mov	r3, r0
	.loc 2 2666 29
	eor	r3, r3, #1
	uxtb	r3, r3
	.loc 2 2666 27
	cmp	r3, #0
	beq	.L704
	.loc 2 2666 53 discriminator 1
	ldr	r3, [r7, #12]
	cmp	r3, #0
	bne	.L705
.L704:
	.loc 2 2671 24
	ldr	r3, [r7, #12]
	cmp	r3, #0
	beq	.L689
	.loc 2 2674 147
	ldr	r3, .L711
	ldr	r3, [r3, #1416]
	.loc 2 2674 74
	ldr	r2, .L711
	.loc 2 2674 201
	orr	r3, r3, #805306368
	.loc 2 2674 94
	str	r3, [r2, #1416]
	.loc 2 2675 32
	movs	r3, #0
	str	r3, [r7, #20]
	b	.L689
.L702:
	.loc 2 2680 28
	movs	r3, #0
	str	r3, [r7, #20]
.L689:
	.loc 2 2683 33
	ldr	r3, .L711+4
	movs	r2, #0
	strb	r2, [r3]
.LBE19:
	.loc 2 2686 13
	b	.L674
.L707:
	.loc 2 2689 13
	nop
	b	.L674
.L708:
	.loc 2 2523 13
	nop
.L674:
	.loc 2 2692 12
	ldr	r3, [r7, #20]
	.loc 2 2694 1
	mov	r0, r3
	adds	r7, r7, #24
.LCFI507:
	.cfi_def_cfa_offset 8
	mov	sp, r7
.LCFI508:
	.cfi_def_cfa_register 13
	@ sp needed
	pop	{r7, pc}
.L712:
	.align	2
.L711:
	.word	1076232192
	.word	preventCounting
	.cfi_endproc
.LFE241:
	.size	Cy_SysClk_DeepSleepCallback, .-Cy_SysClk_DeepSleepCallback
	.section	.text.Cy_SysClk_ClkHfGetFrequency,"ax",%progbits
	.align	1
	.global	Cy_SysClk_ClkHfGetFrequency
	.syntax unified
	.thumb
	.thumb_func
	.type	Cy_SysClk_ClkHfGetFrequency, %function
Cy_SysClk_ClkHfGetFrequency:
.LFB242:
	.loc 2 2703 1
	.cfi_startproc
	@ args = 0, pretend = 0, frame = 24
	@ frame_needed = 1, uses_anonymous_args = 0
	push	{r7, lr}
.LCFI509:
	.cfi_def_cfa_offset 8
	.cfi_offset 7, -8
	.cfi_offset 14, -4
	sub	sp, sp, #24
.LCFI510:
	.cfi_def_cfa_offset 32
	add	r7, sp, #0
.LCFI511:
	.cfi_def_cfa_register 7
	str	r0, [r7, #4]
	.loc 2 2705 38
	ldr	r0, [r7, #4]
	bl	Cy_SysClk_ClkHfGetDivider
	mov	r3, r0
	.loc 2 2705 28
	mov	r2, r3
	.loc 2 2705 14
	movs	r3, #1
	lsls	r3, r3, r2
	str	r3, [r7, #20]
	.loc 2 2706 32
	ldr	r0, [r7, #4]
	bl	Cy_SysClk_ClkHfGetSource
	mov	r3, r0
	.loc 2 2706 14
	str	r3, [r7, #16]
	.loc 2 2707 21
	ldr	r0, [r7, #16]
	bl	Cy_SysClk_ClkPathGetFrequency
	str	r0, [r7, #12]
	.loc 2 2710 32
	ldr	r3, [r7, #20]
	lsrs	r2, r3, #1
	.loc 2 2710 22
	ldr	r3, [r7, #12]
	add	r2, r2, r3
	.loc 2 2710 39
	ldr	r3, [r7, #20]
	udiv	r3, r2, r3
	.loc 2 2711 1
	mov	r0, r3
	adds	r7, r7, #24
.LCFI512:
	.cfi_def_cfa_offset 8
	mov	sp, r7
.LCFI513:
	.cfi_def_cfa_register 13
	@ sp needed
	pop	{r7, pc}
	.cfi_endproc
.LFE242:
	.size	Cy_SysClk_ClkHfGetFrequency, .-Cy_SysClk_ClkHfGetFrequency
	.section	.text.Cy_SysClk_PeriphGetFrequency,"ax",%progbits
	.align	1
	.global	Cy_SysClk_PeriphGetFrequency
	.syntax unified
	.thumb
	.thumb_func
	.type	Cy_SysClk_PeriphGetFrequency, %function
Cy_SysClk_PeriphGetFrequency:
.LFB243:
	.loc 2 2720 1
	.cfi_startproc
	@ args = 0, pretend = 0, frame = 48
	@ frame_needed = 1, uses_anonymous_args = 0
	push	{r4, r5, r7, r8, r9, r10, fp, lr}
.LCFI514:
	.cfi_def_cfa_offset 32
	.cfi_offset 4, -32
	.cfi_offset 5, -28
	.cfi_offset 7, -24
	.cfi_offset 8, -20
	.cfi_offset 9, -16
	.cfi_offset 10, -12
	.cfi_offset 11, -8
	.cfi_offset 14, -4
	sub	sp, sp, #48
.LCFI515:
	.cfi_def_cfa_offset 80
	add	r7, sp, #0
.LCFI516:
	.cfi_def_cfa_register 7
	mov	r3, r0
	str	r1, [r7, #8]
	strb	r3, [r7, #15]
	.loc 2 2721 14
	movs	r3, #0
	str	r3, [r7, #24]
	.loc 2 2722 21
	bl	Cy_SysClk_ClkPeriGetFrequency
	str	r0, [r7, #44]
	.loc 2 2724 12
	ldrb	r3, [r7, #15]	@ zero_extendqisi2
	cmp	r3, #0
	bne	.L716
	.loc 2 2724 53 discriminator 2
	ldr	r3, [r7, #8]
	cmp	r3, #7
	bls	.L717
.L716:
	.loc 2 2724 75 discriminator 3
	ldrb	r3, [r7, #15]	@ zero_extendqisi2
	cmp	r3, #1
	bne	.L718
	.loc 2 2724 117 discriminator 5
	ldr	r3, [r7, #8]
	cmp	r3, #15
	bls	.L717
.L718:
	.loc 2 2724 140 discriminator 6
	ldrb	r3, [r7, #15]	@ zero_extendqisi2
	cmp	r3, #2
	bne	.L719
	.loc 2 2724 184 discriminator 8
	ldr	r3, [r7, #8]
	cmp	r3, #3
	bls	.L717
.L719:
	.loc 2 2724 13 discriminator 9
	ldrb	r3, [r7, #15]	@ zero_extendqisi2
	cmp	r3, #3
	bne	.L720
	.loc 2 2724 250 discriminator 11
	ldr	r3, [r7, #8]
	cmp	r3, #0
	beq	.L717
.L720:
	.loc 2 2724 276 discriminator 12
	bl	CY_HALT
.L717:
	.loc 2 2730 5
	ldrb	r3, [r7, #15]	@ zero_extendqisi2
	cmp	r3, #1
	bgt	.L721
	cmp	r3, #0
	bge	.L722
	.loc 2 2753 13
	b	.L728
.L721:
	subs	r3, r3, #2
	.loc 2 2730 5
	cmp	r3, #1
	bhi	.L728
	b	.L727
.L722:
	.loc 2 2734 29
	ldrb	r3, [r7, #15]	@ zero_extendqisi2
	ldr	r1, [r7, #8]
	mov	r0, r3
	bl	Cy_SysClk_PeriphGetDivider
	mov	r3, r0
	.loc 2 2734 27
	adds	r3, r3, #1
	.loc 2 2734 21
	str	r3, [r7, #24]
	.loc 2 2735 42
	ldr	r3, [r7, #24]
	lsrs	r2, r3, #1
	.loc 2 2735 29
	ldr	r3, [r7, #44]
	add	r2, r2, r3
	.loc 2 2735 49
	ldr	r3, [r7, #24]
	.loc 2 2735 18
	udiv	r3, r2, r3
	str	r3, [r7, #44]
	.loc 2 2736 13
	b	.L725
.L727:
.LBB21:
	.loc 2 2743 41
	ldr	r3, [r7, #44]
	movs	r2, #0
	mov	r4, r3
	mov	r5, r2
	.loc 2 2743 26
	mov	r2, #0
	mov	r3, #0
	lsls	r3, r5, #5
	orr	r3, r3, r4, lsr #27
	lsls	r2, r4, #5
	strd	r2, [r7, #32]
	.loc 2 2744 17
	add	r3, r7, #20
	add	r2, r7, #24
	ldrb	r0, [r7, #15]	@ zero_extendqisi2
	ldr	r1, [r7, #8]
	bl	Cy_SysClk_PeriphGetFracDivider
	.loc 2 2746 32
	ldr	r3, [r7, #24]
	adds	r3, r3, #1
	.loc 2 2746 43
	lsls	r2, r3, #5
	.loc 2 2746 51
	ldr	r3, [r7, #20]
	.loc 2 2746 24
	add	r3, r3, r2
	str	r3, [r7, #28]
	.loc 2 2747 69
	ldr	r3, [r7, #28]
	lsrs	r3, r3, #1
	movs	r2, #0
	mov	r8, r3
	mov	r9, r2
	.loc 2 2747 47
	ldrd	r2, [r7, #32]
	adds	r10, r8, r2
	adc	fp, r9, r3
	.loc 2 2747 79
	ldr	r3, [r7, #28]
	movs	r2, #0
	str	r3, [r7]
	str	r2, [r7, #4]
	.loc 2 2747 76
	ldrd	r2, [r7]
	mov	r0, r10
	mov	r1, fp
	bl	__aeabi_uldivmod
	mov	r2, r0
	mov	r3, r1
	.loc 2 2747 22
	mov	r3, r2
	str	r3, [r7, #44]
.LBE21:
	.loc 2 2749 13
	b	.L725
.L728:
	.loc 2 2753 13
	nop
.L725:
	.loc 2 2756 12
	ldr	r3, [r7, #44]
	.loc 2 2757 1
	mov	r0, r3
	adds	r7, r7, #48
.LCFI517:
	.cfi_def_cfa_offset 32
	mov	sp, r7
.LCFI518:
	.cfi_def_cfa_register 13
	@ sp needed
	pop	{r4, r5, r7, r8, r9, r10, fp, pc}
	.cfi_endproc
.LFE243:
	.size	Cy_SysClk_PeriphGetFrequency, .-Cy_SysClk_PeriphGetFrequency
	.section	.text.Cy_SysClk_ClkTimerGetFrequency,"ax",%progbits
	.align	1
	.global	Cy_SysClk_ClkTimerGetFrequency
	.syntax unified
	.thumb
	.thumb_func
	.type	Cy_SysClk_ClkTimerGetFrequency, %function
Cy_SysClk_ClkTimerGetFrequency:
.LFB244:
	.loc 2 2761 1
	.cfi_startproc
	@ args = 0, pretend = 0, frame = 8
	@ frame_needed = 1, uses_anonymous_args = 0
	push	{r4, r7, lr}
.LCFI519:
	.cfi_def_cfa_offset 12
	.cfi_offset 4, -12
	.cfi_offset 7, -8
	.cfi_offset 14, -4
	sub	sp, sp, #12
.LCFI520:
	.cfi_def_cfa_offset 24
	add	r7, sp, #0
.LCFI521:
	.cfi_def_cfa_register 7
	.loc 2 2762 14
	movs	r3, #0
	str	r3, [r7, #4]
	.loc 2 2764 9
	bl	Cy_SysClk_ClkTimerIsEnabled
	mov	r3, r0
	.loc 2 2764 8
	cmp	r3, #0
	beq	.L738
	.loc 2 2766 16
	movs	r0, #0
	bl	Cy_SysClk_ClkHfGetFrequency
	str	r0, [r7, #4]
	.loc 2 2768 17
	bl	Cy_SysClk_ClkTimerGetSource
	mov	r3, r0
	.loc 2 2768 9
	movw	r2, #769
	cmp	r3, r2
	beq	.L731
	movw	r2, #769
	cmp	r3, r2
	bgt	.L732
	movw	r2, #513
	cmp	r3, r2
	beq	.L733
	movw	r2, #513
	cmp	r3, r2
	bgt	.L732
	movw	r2, #257
	cmp	r3, r2
	beq	.L734
	cmp	r3, #258
	bge	.L732
	cmp	r3, #0
	beq	.L735
	cmp	r3, #1
	beq	.L739
	b	.L732
.L735:
	.loc 2 2771 22
	ldr	r3, .L740
	str	r3, [r7, #4]
	.loc 2 2772 17
	b	.L730
.L734:
	.loc 2 2778 22
	ldr	r3, [r7, #4]
	lsrs	r3, r3, #1
	str	r3, [r7, #4]
	.loc 2 2779 17
	b	.L730
.L733:
	.loc 2 2782 22
	ldr	r3, [r7, #4]
	lsrs	r3, r3, #2
	str	r3, [r7, #4]
	.loc 2 2783 17
	b	.L730
.L731:
	.loc 2 2786 22
	ldr	r3, [r7, #4]
	lsrs	r3, r3, #3
	str	r3, [r7, #4]
	.loc 2 2787 17
	b	.L730
.L732:
	.loc 2 2790 22
	movs	r3, #0
	str	r3, [r7, #4]
	.loc 2 2791 17
	b	.L730
.L738:
	.loc 2 2793 5
	nop
	b	.L730
.L739:
	.loc 2 2775 17
	nop
.L730:
	.loc 2 2796 42
	bl	Cy_SysClk_ClkTimerGetDivider
	mov	r3, r0
	.loc 2 2796 30
	adds	r3, r3, #1
	.loc 2 2796 74
	lsrs	r2, r3, #1
	.loc 2 2796 22
	ldr	r3, [r7, #4]
	adds	r4, r2, r3
	.loc 2 2796 100
	bl	Cy_SysClk_ClkTimerGetDivider
	mov	r3, r0
	.loc 2 2796 88
	adds	r3, r3, #1
	.loc 2 2796 81
	udiv	r3, r4, r3
	.loc 2 2797 1
	mov	r0, r3
	adds	r7, r7, #12
.LCFI522:
	.cfi_def_cfa_offset 12
	mov	sp, r7
.LCFI523:
	.cfi_def_cfa_register 13
	@ sp needed
	pop	{r4, r7, pc}
.L741:
	.align	2
.L740:
	.word	8000000
	.cfi_endproc
.LFE244:
	.size	Cy_SysClk_ClkTimerGetFrequency, .-Cy_SysClk_ClkTimerGetFrequency
	.section	.text.Cy_SysClk_FllGetFrequency,"ax",%progbits
	.align	1
	.global	Cy_SysClk_FllGetFrequency
	.syntax unified
	.thumb
	.thumb_func
	.type	Cy_SysClk_FllGetFrequency, %function
Cy_SysClk_FllGetFrequency:
.LFB245:
	.loc 2 2801 1
	.cfi_startproc
	@ args = 0, pretend = 0, frame = 96
	@ frame_needed = 1, uses_anonymous_args = 0
	push	{r4, r5, r7, r8, r9, r10, fp, lr}
.LCFI524:
	.cfi_def_cfa_offset 32
	.cfi_offset 4, -32
	.cfi_offset 5, -28
	.cfi_offset 7, -24
	.cfi_offset 8, -20
	.cfi_offset 9, -16
	.cfi_offset 10, -12
	.cfi_offset 11, -8
	.cfi_offset 14, -4
	sub	sp, sp, #96
.LCFI525:
	.cfi_def_cfa_offset 128
	add	r7, sp, #0
.LCFI526:
	.cfi_def_cfa_register 7
	.loc 2 2806 14
	movs	r3, #0
	str	r3, [r7, #92]
	.loc 2 2809 5
	add	r3, r7, #56
	mov	r0, r3
	bl	Cy_SysClk_FllGetConfiguration
	.loc 2 2810 16
	bl	Cy_SysClk_FllIsEnabled
	mov	r3, r0
	.loc 2 2810 42
	cmp	r3, #0
	beq	.L743
	.loc 2 2810 85 discriminator 1
	ldrb	r3, [r7, #70]	@ zero_extendqisi2
	.loc 2 2810 42 discriminator 1
	cmp	r3, #2
	beq	.L743
	.loc 2 2810 42 is_stmt 0 discriminator 3
	movs	r3, #1
	b	.L744
.L743:
	.loc 2 2810 42 discriminator 4
	movs	r3, #0
.L744:
	.loc 2 2810 13 is_stmt 1 discriminator 6
	strb	r3, [r7, #91]
	ldrb	r3, [r7, #91]
	and	r3, r3, #1
	strb	r3, [r7, #91]
	.loc 2 2811 10 discriminator 6
	ldr	r3, [r7, #56]
	str	r3, [r7, #84]
	.loc 2 2812 18 discriminator 6
	ldrh	r3, [r7, #60]
	.loc 2 2812 10 discriminator 6
	str	r3, [r7, #80]
	.loc 2 2813 19 discriminator 6
	ldrb	r3, [r7, #63]	@ zero_extendqisi2
	.loc 2 2813 43 discriminator 6
	cmp	r3, #0
	beq	.L745
	.loc 2 2813 43 is_stmt 0 discriminator 1
	movs	r3, #2
	b	.L746
.L745:
	.loc 2 2813 43 discriminator 2
	movs	r3, #1
.L746:
	.loc 2 2813 10 is_stmt 1 discriminator 4
	str	r3, [r7, #76]
	.loc 2 2815 8 discriminator 4
	ldrb	r3, [r7, #91]	@ zero_extendqisi2
	cmp	r3, #0
	beq	.L747
	.loc 2 2815 17 discriminator 1
	ldr	r3, [r7, #80]
	cmp	r3, #0
	beq	.L747
	.loc 2 2818 16
	movs	r0, #0
	bl	Cy_SysClk_ClkPathMuxGetFrequency
	str	r0, [r7, #92]
	.loc 2 2819 30
	ldr	r3, [r7, #92]
	movs	r2, #0
	str	r3, [r7, #48]
	str	r2, [r7, #52]
	.loc 2 2819 47
	ldr	r3, [r7, #84]
	movs	r2, #0
	str	r3, [r7, #40]
	str	r2, [r7, #44]
	.loc 2 2819 45
	ldrd	r0, [r7, #48]
	mov	r3, r1
	ldr	r2, [r7, #40]
	mul	r2, r2, r3
	ldr	r3, [r7, #44]
	strd	r0, [r7, #48]
	mov	r1, r0
	mul	r3, r1, r3
	add	r3, r3, r2
	ldr	r2, [r7, #48]
	ldr	r1, [r7, #40]
	umull	r8, r9, r2, r1
	add	r3, r3, r9
	mov	r9, r3
	.loc 2 2819 69
	ldr	r3, [r7, #80]
	movs	r2, #0
	str	r3, [r7, #32]
	str	r2, [r7, #36]
	.loc 2 2819 86
	ldr	r3, [r7, #76]
	movs	r2, #0
	str	r3, [r7, #24]
	str	r2, [r7, #28]
	.loc 2 2819 84
	ldrd	r0, [r7, #32]
	mov	r3, r1
	ldr	r2, [r7, #24]
	mul	r2, r2, r3
	ldr	r3, [r7, #28]
	strd	r0, [r7, #32]
	mov	r1, r0
	mul	r3, r1, r3
	add	r3, r3, r2
	ldr	r2, [r7, #32]
	ldr	r1, [r7, #24]
	umull	r4, r5, r2, r1
	add	r3, r3, r5
	mov	r5, r3
	.loc 2 2819 103
	mov	r2, #0
	mov	r3, #0
	lsrs	r2, r4, #1
	orr	r2, r2, r5, lsl #31
	lsrs	r3, r5, #1
	.loc 2 2819 64
	adds	r1, r8, r2
	str	r1, [r7, #16]
	adc	r3, r9, r3
	str	r3, [r7, #20]
	.loc 2 2819 114
	ldr	r3, [r7, #80]
	movs	r2, #0
	str	r3, [r7, #8]
	str	r2, [r7, #12]
	.loc 2 2819 131
	ldr	r3, [r7, #76]
	movs	r2, #0
	str	r3, [r7]
	str	r2, [r7, #4]
	.loc 2 2819 129
	ldrd	r4, [r7, #8]
	mov	r3, r5
	ldrd	r8, [r7]
	mov	r2, r8
	mul	r2, r2, r3
	mov	r3, r9
	mov	r1, r4
	mul	r3, r1, r3
	add	r3, r3, r2
	mov	r2, r4
	mov	r1, r8
	umull	r10, fp, r2, r1
	add	r3, r3, fp
	mov	fp, r3
	.loc 2 2819 110
	mov	r2, r10
	mov	r3, fp
	ldrd	r0, [r7, #16]
	bl	__aeabi_uldivmod
	mov	r2, r0
	mov	r3, r1
	.loc 2 2819 14
	mov	r3, r2
	str	r3, [r7, #92]
.L747:
	.loc 2 2823 12
	ldr	r3, [r7, #92]
	.loc 2 2824 1
	mov	r0, r3
	adds	r7, r7, #96
.LCFI527:
	.cfi_def_cfa_offset 32
	mov	sp, r7
.LCFI528:
	.cfi_def_cfa_register 13
	@ sp needed
	pop	{r4, r5, r7, r8, r9, r10, fp, pc}
	.cfi_endproc
.LFE245:
	.size	Cy_SysClk_FllGetFrequency, .-Cy_SysClk_FllGetFrequency
	.section	.text.Cy_SysClk_PllGetFrequency,"ax",%progbits
	.align	1
	.global	Cy_SysClk_PllGetFrequency
	.syntax unified
	.thumb
	.thumb_func
	.type	Cy_SysClk_PllGetFrequency, %function
Cy_SysClk_PllGetFrequency:
.LFB246:
	.loc 2 2827 1
	.cfi_startproc
	@ args = 0, pretend = 0, frame = 96
	@ frame_needed = 1, uses_anonymous_args = 0
	push	{r4, r5, r7, r8, r9, r10, fp, lr}
.LCFI529:
	.cfi_def_cfa_offset 32
	.cfi_offset 4, -32
	.cfi_offset 5, -28
	.cfi_offset 7, -24
	.cfi_offset 8, -20
	.cfi_offset 9, -16
	.cfi_offset 10, -12
	.cfi_offset 11, -8
	.cfi_offset 14, -4
	sub	sp, sp, #96
.LCFI530:
	.cfi_def_cfa_offset 128
	add	r7, sp, #0
.LCFI531:
	.cfi_def_cfa_register 7
	str	r0, [r7, #60]
	.loc 2 2828 14
	movs	r3, #0
	str	r3, [r7, #92]
	.loc 2 2829 14
	movs	r3, #0
	str	r3, [r7, #88]
	.loc 2 2830 14
	movs	r3, #0
	str	r3, [r7, #84]
	.loc 2 2831 10
	movs	r3, #0
	strb	r3, [r7, #83]
	.loc 2 2832 14
	movs	r3, #0
	str	r3, [r7, #76]
	.loc 2 2834 30
	ldr	r3, .L757
	ldr	r3, [r3]
	ldrb	r3, [r3, #63]	@ zero_extendqisi2
	.loc 2 2834 7
	cmp	r3, #0
	beq	.L750
	.loc 2 2834 52 discriminator 1
	ldr	r3, [r7, #60]
	cmp	r3, #0
	beq	.L750
	.loc 2 2836 50
	ldr	r3, .L757
	ldr	r3, [r3]
	ldrb	r3, [r3, #62]	@ zero_extendqisi2
	.loc 2 2836 30
	mov	r2, r3
	.loc 2 2836 16
	ldr	r3, [r7, #60]
	cmp	r3, r2
	bcc	.L751
	.loc 2 2836 73 discriminator 1
	bl	CY_HALT
.L751:
	.loc 2 2838 45
	ldr	r3, .L757
	ldr	r3, [r3]
	ldrb	r3, [r3, #63]	@ zero_extendqisi2
	.loc 2 2838 25
	mov	r2, r3
	.loc 2 2838 12
	ldr	r3, [r7, #60]
	cmp	r3, r2
	bhi	.L750
.LBB22:
	.loc 2 2841 38
	add	r3, r7, #68
	mov	r1, r3
	ldr	r0, [r7, #60]
	bl	Cy_SysClk_PllGetConfiguration
	mov	r3, r0
	.loc 2 2841 16
	cmp	r3, #0
	bne	.L752
	.loc 2 2843 28
	ldr	r0, [r7, #60]
	bl	Cy_SysClk_PllIsEnabled
	mov	r3, r0
	.loc 2 2843 61
	cmp	r3, #0
	beq	.L753
	.loc 2 2843 104 discriminator 1
	ldrb	r3, [r7, #72]	@ zero_extendqisi2
	.loc 2 2843 61 discriminator 1
	cmp	r3, #2
	beq	.L753
	.loc 2 2843 61 is_stmt 0 discriminator 3
	movs	r3, #1
	b	.L754
.L753:
	.loc 2 2843 61 discriminator 4
	movs	r3, #0
.L754:
	.loc 2 2843 25 is_stmt 1 discriminator 6
	strb	r3, [r7, #83]
	ldrb	r3, [r7, #83]
	and	r3, r3, #1
	strb	r3, [r7, #83]
	.loc 2 2844 30 discriminator 6
	ldrb	r3, [r7, #68]	@ zero_extendqisi2
	.loc 2 2844 22 discriminator 6
	str	r3, [r7, #92]
	.loc 2 2845 30 discriminator 6
	ldrb	r3, [r7, #69]	@ zero_extendqisi2
	.loc 2 2845 22 discriminator 6
	str	r3, [r7, #88]
	.loc 2 2846 30 discriminator 6
	ldrb	r3, [r7, #70]	@ zero_extendqisi2
	.loc 2 2846 22 discriminator 6
	str	r3, [r7, #84]
.L752:
	.loc 2 2849 16
	ldrb	r3, [r7, #83]	@ zero_extendqisi2
	cmp	r3, #0
	beq	.L750
	.loc 2 2849 25 discriminator 1
	ldr	r3, [r7, #88]
	cmp	r3, #0
	beq	.L750
	.loc 2 2850 27
	ldr	r3, [r7, #84]
	cmp	r3, #0
	beq	.L750
	.loc 2 2852 24
	ldr	r0, [r7, #60]
	bl	Cy_SysClk_ClkPathMuxGetFrequency
	str	r0, [r7, #76]
	.loc 2 2853 38
	ldr	r3, [r7, #76]
	movs	r2, #0
	str	r3, [r7, #48]
	str	r2, [r7, #52]
	.loc 2 2853 55
	ldr	r3, [r7, #92]
	movs	r2, #0
	str	r3, [r7, #40]
	str	r2, [r7, #44]
	.loc 2 2853 53
	ldrd	r0, [r7, #48]
	mov	r3, r1
	ldr	r2, [r7, #40]
	mul	r2, r2, r3
	ldr	r3, [r7, #44]
	strd	r0, [r7, #48]
	mov	r1, r0
	mul	r3, r1, r3
	add	r3, r3, r2
	ldr	r2, [r7, #48]
	ldr	r1, [r7, #40]
	umull	r8, r9, r2, r1
	add	r3, r3, r9
	mov	r9, r3
	.loc 2 2853 77
	ldr	r3, [r7, #88]
	movs	r2, #0
	str	r3, [r7, #32]
	str	r2, [r7, #36]
	.loc 2 2853 94
	ldr	r3, [r7, #84]
	movs	r2, #0
	str	r3, [r7, #24]
	str	r2, [r7, #28]
	.loc 2 2853 92
	ldrd	r0, [r7, #32]
	mov	r3, r1
	ldr	r2, [r7, #24]
	mul	r2, r2, r3
	ldr	r3, [r7, #28]
	strd	r0, [r7, #32]
	mov	r1, r0
	mul	r3, r1, r3
	add	r3, r3, r2
	ldr	r2, [r7, #32]
	ldr	r1, [r7, #24]
	umull	r4, r5, r2, r1
	add	r3, r3, r5
	mov	r5, r3
	.loc 2 2853 111
	mov	r2, #0
	mov	r3, #0
	lsrs	r2, r4, #1
	orr	r2, r2, r5, lsl #31
	lsrs	r3, r5, #1
	.loc 2 2853 72
	adds	r1, r8, r2
	str	r1, [r7, #16]
	adc	r3, r9, r3
	str	r3, [r7, #20]
	.loc 2 2853 122
	ldr	r3, [r7, #88]
	movs	r2, #0
	str	r3, [r7, #8]
	str	r2, [r7, #12]
	.loc 2 2853 139
	ldr	r3, [r7, #84]
	movs	r2, #0
	str	r3, [r7]
	str	r2, [r7, #4]
	.loc 2 2853 137
	ldrd	r4, [r7, #8]
	mov	r3, r5
	ldrd	r8, [r7]
	mov	r2, r8
	mul	r2, r2, r3
	mov	r3, r9
	mov	r1, r4
	mul	r3, r1, r3
	add	r3, r3, r2
	mov	r2, r4
	mov	r1, r8
	umull	r10, fp, r2, r1
	add	r3, r3, fp
	mov	fp, r3
	.loc 2 2853 118
	mov	r2, r10
	mov	r3, fp
	ldrd	r0, [r7, #16]
	bl	__aeabi_uldivmod
	mov	r2, r0
	mov	r3, r1
	.loc 2 2853 22
	mov	r3, r2
	str	r3, [r7, #76]
.L750:
.LBE22:
	.loc 2 2859 12
	ldr	r3, [r7, #76]
	.loc 2 2860 1
	mov	r0, r3
	adds	r7, r7, #96
.LCFI532:
	.cfi_def_cfa_offset 32
	mov	sp, r7
.LCFI533:
	.cfi_def_cfa_register 13
	@ sp needed
	pop	{r4, r5, r7, r8, r9, r10, fp, pc}
.L758:
	.align	2
.L757:
	.word	cy_device
	.cfi_endproc
.LFE246:
	.size	Cy_SysClk_PllGetFrequency, .-Cy_SysClk_PllGetFrequency
	.section	.bss.changedSourcePaths.1,"aw",%nobits
	.align	1
	.type	changedSourcePaths.1, %object
	.size	changedSourcePaths.1, 2
changedSourcePaths.1:
	.space	2
	.section	.bss.pllAutoModes.0,"aw",%nobits
	.align	1
	.type	pllAutoModes.0, %object
	.size	pllAutoModes.0, 2
pllAutoModes.0:
	.space	2
	.text
.Letext0:
	.file 3 "d:\\llc\\softwares\\env-windows-v1.3.5\\tools\\gnu_gcc\\arm_gcc\\mingw\\arm-none-eabi\\include\\machine\\_default_types.h"
	.file 4 "d:\\llc\\softwares\\env-windows-v1.3.5\\tools\\gnu_gcc\\arm_gcc\\mingw\\arm-none-eabi\\include\\sys\\_stdint.h"
	.file 5 "libraries\\IFX_PSOC6_HAL\\mtb-pdl-cat1\\devices\\COMPONENT_CAT1A\\include/ip/cyip_srss.h"
	.file 6 "libraries\\IFX_PSOC6_HAL\\mtb-pdl-cat1\\devices\\COMPONENT_CAT1A\\include/ip/cyip_backup.h"
	.file 7 "libraries\\IFX_PSOC6_HAL\\mtb-pdl-cat1\\devices\\COMPONENT_CAT1A\\include/ip/cyip_peri.h"
	.file 8 "libraries\\IFX_PSOC6_HAL\\mtb-pdl-cat1\\devices\\COMPONENT_CAT1A\\include/ip/cyip_ipc_v2.h"
	.file 9 "libraries\\IFX_PSOC6_HAL\\mtb-pdl-cat1\\devices\\COMPONENT_CAT1A\\include/psoc6_02_config.h"
	.file 10 "libraries\\IFX_PSOC6_HAL\\mtb-pdl-cat1\\devices\\COMPONENT_CAT1A\\include/cy_device.h"
	.file 11 "libraries\\IFX_PSOC6_HAL\\core-lib\\include/cy_result.h"
	.file 12 "libraries\\IFX_PSOC6_HAL\\mtb-pdl-cat1\\drivers\\include/cy_syspm.h"
	.file 13 "libraries\\IFX_PSOC6_HAL\\mtb-pdl-cat1\\drivers\\include/cy_sysclk.h"