	.cpu cortex-m4
	.arch armv7e-m
	.fpu fpv4-sp-d16
	.eabi_attribute 27, 1
	.eabi_attribute 28, 1
	.eabi_attribute 20, 1
	.eabi_attribute 21, 1
	.eabi_attribute 23, 3
	.eabi_attribute 24, 1
	.eabi_attribute 25, 1
	.eabi_attribute 26, 1
	.eabi_attribute 30, 6
	.eabi_attribute 34, 1
	.eabi_attribute 18, 4
	.file	"cy_scb_common.c"
	.text
.Ltext0:
	.cfi_sections	.debug_frame
	.section	.text.Cy_SCB_GetNumInRxFifo,"ax",%progbits
	.align	1
	.syntax unified
	.thumb
	.thumb_func
	.type	Cy_SCB_GetNumInRxFifo, %function
Cy_SCB_GetNumInRxFifo:
.LFB139:
	.file 1 "libraries\\IFX_PSOC6_HAL\\mtb-pdl-cat1\\drivers\\include/cy_scb_common.h"
	.loc 1 893 1
	.cfi_startproc
	@ args = 0, pretend = 0, frame = 8
	@ frame_needed = 1, uses_anonymous_args = 0
	@ link register save eliminated.
	push	{r7}
.LCFI0:
	.cfi_def_cfa_offset 4
	.cfi_offset 7, -4
	sub	sp, sp, #12
.LCFI1:
	.cfi_def_cfa_offset 16
	add	r7, sp, #0
.LCFI2:
	.cfi_def_cfa_register 7
	str	r0, [r7, #4]
	.loc 1 894 51
	ldr	r3, [r7, #4]
	ldr	r3, [r3, #776]
	.loc 1 894 81
	ubfx	r3, r3, #0, #9
	.loc 1 895 1
	mov	r0, r3
	adds	r7, r7, #12
.LCFI3:
	.cfi_def_cfa_offset 4
	mov	sp, r7
.LCFI4:
	.cfi_def_cfa_register 13
	@ sp needed
	ldr	r7, [sp], #4
.LCFI5:
	.cfi_restore 7
	.cfi_def_cfa_offset 0
	bx	lr
	.cfi_endproc
.LFE139:
	.size	Cy_SCB_GetNumInRxFifo, .-Cy_SCB_GetNumInRxFifo
	.section	.text.Cy_SCB_GetNumInTxFifo,"ax",%progbits
	.align	1
	.syntax unified
	.thumb
	.thumb_func
	.type	Cy_SCB_GetNumInTxFifo, %function
Cy_SCB_GetNumInTxFifo:
.LFB144:
	.loc 1 997 1
	.cfi_startproc
	@ args = 0, pretend = 0, frame = 8
	@ frame_needed = 1, uses_anonymous_args = 0
	@ link register save eliminated.
	push	{r7}
.LCFI6:
	.cfi_def_cfa_offset 4
	.cfi_offset 7, -4
	sub	sp, sp, #12
.LCFI7:
	.cfi_def_cfa_offset 16
	add	r7, sp, #0
.LCFI8:
	.cfi_def_cfa_register 7
	str	r0, [r7, #4]
	.loc 1 998 51
	ldr	r3, [r7, #4]
	ldr	r3, [r3, #520]
	.loc 1 998 81
	ubfx	r3, r3, #0, #9
	.loc 1 999 1
	mov	r0, r3
	adds	r7, r7, #12
.LCFI9:
	.cfi_def_cfa_offset 4
	mov	sp, r7
.LCFI10:
	.cfi_def_cfa_register 13
	@ sp needed
	ldr	r7, [sp], #4
.LCFI11:
	.cfi_restore 7
	.cfi_def_cfa_offset 0
	bx	lr
	.cfi_endproc
.LFE144:
	.size	Cy_SCB_GetNumInTxFifo, .-Cy_SCB_GetNumInTxFifo
	.section	.text.Cy_SCB_GetFifoSize,"ax",%progbits
	.align	1
	.syntax unified
	.thumb
	.thumb_func
	.type	Cy_SCB_GetFifoSize, %function
Cy_SCB_GetFifoSize:
.LFB184:
	.loc 1 1964 1
	.cfi_startproc
	@ args = 0, pretend = 0, frame = 8
	@ frame_needed = 1, uses_anonymous_args = 0
	@ link register save eliminated.
	push	{r7}
.LCFI12:
	.cfi_def_cfa_offset 4
	.cfi_offset 7, -4
	sub	sp, sp, #12
.LCFI13:
	.cfi_def_cfa_offset 16
	add	r7, sp, #0
.LCFI14:
	.cfi_def_cfa_register 7
	str	r0, [r7, #4]
	.loc 1 1968 43
	ldr	r3, [r7, #4]
	ldr	r3, [r3]
	.loc 1 1968 52
	and	r3, r3, #2048
	.loc 1 1968 85
	cmp	r3, #0
	beq	.L6
	.loc 1 1968 85 is_stmt 0 discriminator 1
	movs	r3, #128
	b	.L8
.L6:
	.loc 1 1968 85 discriminator 2
	movs	r3, #64
.L8:
	.loc 1 1973 1 is_stmt 1 discriminator 5
	mov	r0, r3
	adds	r7, r7, #12
.LCFI15:
	.cfi_def_cfa_offset 4
	mov	sp, r7
.LCFI16:
	.cfi_def_cfa_register 13
	@ sp needed
	ldr	r7, [sp], #4
.LCFI17:
	.cfi_restore 7
	.cfi_def_cfa_offset 0
	bx	lr
	.cfi_endproc
.LFE184:
	.size	Cy_SCB_GetFifoSize, .-Cy_SCB_GetFifoSize
	.section	.text.Cy_SCB_IsRxDataWidthByte,"ax",%progbits
	.align	1
	.syntax unified
	.thumb
	.thumb_func
	.type	Cy_SCB_IsRxDataWidthByte, %function
Cy_SCB_IsRxDataWidthByte:
.LFB185:
	.loc 1 1990 1
	.cfi_startproc
	@ args = 0, pretend = 0, frame = 8
	@ frame_needed = 1, uses_anonymous_args = 0
	@ link register save eliminated.
	push	{r7}
.LCFI18:
	.cfi_def_cfa_offset 4
	.cfi_offset 7, -4
	sub	sp, sp, #12
.LCFI19:
	.cfi_def_cfa_offset 16
	add	r7, sp, #0
.LCFI20:
	.cfi_def_cfa_register 7
	str	r0, [r7, #4]
	.loc 1 1991 52
	ldr	r3, [r7, #4]
	ldr	r3, [r3, #768]
	.loc 1 1991 81
	and	r3, r3, #8
	cmp	r3, #0
	ite	eq
	moveq	r3, #1
	movne	r3, #0
	uxtb	r3, r3
	.loc 1 1992 1
	mov	r0, r3
	adds	r7, r7, #12
.LCFI21:
	.cfi_def_cfa_offset 4
	mov	sp, r7
.LCFI22:
	.cfi_def_cfa_register 13
	@ sp needed
	ldr	r7, [sp], #4
.LCFI23:
	.cfi_restore 7
	.cfi_def_cfa_offset 0
	bx	lr
	.cfi_endproc
.LFE185:
	.size	Cy_SCB_IsRxDataWidthByte, .-Cy_SCB_IsRxDataWidthByte
	.section	.text.Cy_SCB_IsTxDataWidthByte,"ax",%progbits
	.align	1
	.syntax unified
	.thumb
	.thumb_func
	.type	Cy_SCB_IsTxDataWidthByte, %function
Cy_SCB_IsTxDataWidthByte:
.LFB186:
	.loc 1 2034 1
	.cfi_startproc
	@ args = 0, pretend = 0, frame = 8
	@ frame_needed = 1, uses_anonymous_args = 0
	@ link register save eliminated.
	push	{r7}
.LCFI24:
	.cfi_def_cfa_offset 4
	.cfi_offset 7, -4
	sub	sp, sp, #12
.LCFI25:
	.cfi_def_cfa_offset 16
	add	r7, sp, #0
.LCFI26:
	.cfi_def_cfa_register 7
	str	r0, [r7, #4]
	.loc 1 2035 52
	ldr	r3, [r7, #4]
	ldr	r3, [r3, #512]
	.loc 1 2035 81
	and	r3, r3, #8
	cmp	r3, #0
	ite	eq
	moveq	r3, #1
	movne	r3, #0
	uxtb	r3, r3
	.loc 1 2036 1
	mov	r0, r3
	adds	r7, r7, #12
.LCFI27:
	.cfi_def_cfa_offset 4
	mov	sp, r7
.LCFI28:
	.cfi_def_cfa_register 13
	@ sp needed
	ldr	r7, [sp], #4
.LCFI29:
	.cfi_restore 7
	.cfi_def_cfa_offset 0
	bx	lr
	.cfi_endproc
.LFE186:
	.size	Cy_SCB_IsTxDataWidthByte, .-Cy_SCB_IsTxDataWidthByte
	.section	.text.Cy_SCB_ReadArrayNoCheck,"ax",%progbits
	.align	1
	.global	Cy_SCB_ReadArrayNoCheck
	.syntax unified
	.thumb
	.thumb_func
	.type	Cy_SCB_ReadArrayNoCheck, %function
Cy_SCB_ReadArrayNoCheck:
.LFB189:
	.file 2 "libraries\\IFX_PSOC6_HAL\\mtb-pdl-cat1\\drivers\\source\\cy_scb_common.c"
	.loc 2 56 1
	.cfi_startproc
	@ args = 0, pretend = 0, frame = 40
	@ frame_needed = 1, uses_anonymous_args = 0
	push	{r7, lr}
.LCFI30:
	.cfi_def_cfa_offset 8
	.cfi_offset 7, -8
	.cfi_offset 14, -4
	sub	sp, sp, #40
.LCFI31:
	.cfi_def_cfa_offset 48
	add	r7, sp, #0
.LCFI32:
	.cfi_def_cfa_register 7
	str	r0, [r7, #12]
	str	r1, [r7, #8]
	str	r2, [r7, #4]
	.loc 2 59 9
	ldr	r0, [r7, #12]
	bl	Cy_SCB_IsRxDataWidthByte
	mov	r3, r0
	.loc 2 59 8
	cmp	r3, #0
	beq	.L14
.LBB20:
	.loc 2 61 18
	ldr	r3, [r7, #8]
	str	r3, [r7, #28]
	.loc 2 64 18
	movs	r3, #0
	str	r3, [r7, #36]
	.loc 2 64 9
	b	.L15
.L17:
	ldr	r3, [r7, #12]
	str	r3, [r7, #24]
.LBB21:
.LBB22:
	.loc 1 853 39 discriminator 3
	ldr	r3, [r7, #24]
	ldr	r1, [r3, #832]
.LBE22:
.LBE21:
	.loc 2 66 16 discriminator 3
	ldr	r2, [r7, #28]
	ldr	r3, [r7, #36]
	add	r3, r3, r2
	.loc 2 66 24 discriminator 3
	uxtb	r2, r1
	.loc 2 66 22 discriminator 3
	strb	r2, [r3]
	.loc 2 64 37 discriminator 3
	ldr	r3, [r7, #36]
	adds	r3, r3, #1
	str	r3, [r7, #36]
.L15:
	.loc 2 64 9 discriminator 1
	ldr	r2, [r7, #36]
	ldr	r3, [r7, #4]
	cmp	r2, r3
	bcc	.L17
.LBE20:
	.loc 2 113 1
	b	.L22
.L14:
.LBB23:
	.loc 2 71 19
	ldr	r3, [r7, #8]
	str	r3, [r7, #32]
	.loc 2 74 18
	movs	r3, #0
	str	r3, [r7, #36]
	.loc 2 74 9
	b	.L19
.L21:
	ldr	r3, [r7, #12]
	str	r3, [r7, #20]
.LBB24:
.LBB25:
	.loc 1 853 39 discriminator 3
	ldr	r3, [r7, #20]
	ldr	r1, [r3, #832]
.LBE25:
.LBE24:
	.loc 2 76 16 discriminator 3
	ldr	r3, [r7, #36]
	lsls	r3, r3, #1
	ldr	r2, [r7, #32]
	add	r3, r3, r2
	.loc 2 76 24 discriminator 3
	uxth	r2, r1
	.loc 2 76 22 discriminator 3
	strh	r2, [r3]	@ movhi
	.loc 2 74 37 discriminator 3
	ldr	r3, [r7, #36]
	adds	r3, r3, #1
	str	r3, [r7, #36]
.L19:
	.loc 2 74 9 discriminator 1
	ldr	r2, [r7, #36]
	ldr	r3, [r7, #4]
	cmp	r2, r3
	bcc	.L21
.L22:
.LBE23:
	.loc 2 113 1
	nop
	adds	r7, r7, #40
.LCFI33:
	.cfi_def_cfa_offset 8
	mov	sp, r7
.LCFI34:
	.cfi_def_cfa_register 13
	@ sp needed
	pop	{r7, pc}
	.cfi_endproc
.LFE189:
	.size	Cy_SCB_ReadArrayNoCheck, .-Cy_SCB_ReadArrayNoCheck
	.section	.text.Cy_SCB_ReadArray,"ax",%progbits
	.align	1
	.global	Cy_SCB_ReadArray
	.syntax unified
	.thumb
	.thumb_func
	.type	Cy_SCB_ReadArray, %function
Cy_SCB_ReadArray:
.LFB190:
	.loc 2 140 1
	.cfi_startproc
	@ args = 0, pretend = 0, frame = 24
	@ frame_needed = 1, uses_anonymous_args = 0
	push	{r7, lr}
.LCFI35:
	.cfi_def_cfa_offset 8
	.cfi_offset 7, -8
	.cfi_offset 14, -4
	sub	sp, sp, #24
.LCFI36:
	.cfi_def_cfa_offset 32
	add	r7, sp, #0
.LCFI37:
	.cfi_def_cfa_register 7
	str	r0, [r7, #12]
	str	r1, [r7, #8]
	str	r2, [r7, #4]
	.loc 2 142 26
	ldr	r0, [r7, #12]
	bl	Cy_SCB_GetNumInRxFifo
	str	r0, [r7, #20]
	.loc 2 145 8
	ldr	r2, [r7, #20]
	ldr	r3, [r7, #4]
	cmp	r2, r3
	bls	.L24
	.loc 2 147 19
	ldr	r3, [r7, #4]
	str	r3, [r7, #20]
.L24:
	.loc 2 151 5
	ldr	r2, [r7, #20]
	ldr	r1, [r7, #8]
	ldr	r0, [r7, #12]
	bl	Cy_SCB_ReadArrayNoCheck
	.loc 2 153 12
	ldr	r3, [r7, #20]
	.loc 2 154 1
	mov	r0, r3
	adds	r7, r7, #24
.LCFI38:
	.cfi_def_cfa_offset 8
	mov	sp, r7
.LCFI39:
	.cfi_def_cfa_register 13
	@ sp needed
	pop	{r7, pc}
	.cfi_endproc
.LFE190:
	.size	Cy_SCB_ReadArray, .-Cy_SCB_ReadArray
	.section	.text.Cy_SCB_ReadArrayBlocking,"ax",%progbits
	.align	1
	.global	Cy_SCB_ReadArrayBlocking
	.syntax unified
	.thumb
	.thumb_func
	.type	Cy_SCB_ReadArrayBlocking, %function
Cy_SCB_ReadArrayBlocking:
.LFB191:
	.loc 2 178 1
	.cfi_startproc
	@ args = 0, pretend = 0, frame = 32
	@ frame_needed = 1, uses_anonymous_args = 0
	push	{r7, lr}
.LCFI40:
	.cfi_def_cfa_offset 8
	.cfi_offset 7, -8
	.cfi_offset 14, -4
	sub	sp, sp, #32
.LCFI41:
	.cfi_def_cfa_offset 40
	add	r7, sp, #0
.LCFI42:
	.cfi_def_cfa_register 7
	str	r0, [r7, #12]
	str	r1, [r7, #8]
	str	r2, [r7, #4]
	.loc 2 180 14
	ldr	r3, [r7, #8]
	str	r3, [r7, #28]
	.loc 2 184 24
	ldr	r0, [r7, #12]
	bl	Cy_SCB_IsRxDataWidthByte
	mov	r3, r0
	strb	r3, [r7, #27]
	.loc 2 187 11
	b	.L27
.L30:
	.loc 2 189 21
	ldr	r2, [r7, #4]
	ldr	r1, [r7, #28]
	ldr	r0, [r7, #12]
	bl	Cy_SCB_ReadArray
	str	r0, [r7, #20]
	.loc 2 193 30
	ldrb	r3, [r7, #27]
	eor	r3, r3, #1
	uxtb	r3, r3
	.loc 2 193 44
	cmp	r3, #0
	beq	.L28
	.loc 2 193 44 is_stmt 0 discriminator 1
	ldr	r3, [r7, #20]
	lsls	r3, r3, #1
	b	.L29
.L28:
	.loc 2 193 44 discriminator 2
	ldr	r3, [r7, #20]
.L29:
	.loc 2 193 13 is_stmt 1 discriminator 4
	ldr	r2, [r7, #28]
	add	r3, r3, r2
	str	r3, [r7, #28]
	.loc 2 195 14 discriminator 4
	ldr	r2, [r7, #4]
	ldr	r3, [r7, #20]
	subs	r3, r2, r3
	str	r3, [r7, #4]
.L27:
	.loc 2 187 11
	ldr	r3, [r7, #4]
	cmp	r3, #0
	bne	.L30
	.loc 2 197 1
	nop
	nop
	adds	r7, r7, #32
.LCFI43:
	.cfi_def_cfa_offset 8
	mov	sp, r7
.LCFI44:
	.cfi_def_cfa_register 13
	@ sp needed
	pop	{r7, pc}
	.cfi_endproc
.LFE191:
	.size	Cy_SCB_ReadArrayBlocking, .-Cy_SCB_ReadArrayBlocking
	.section	.text.Cy_SCB_Write,"ax",%progbits
	.align	1
	.global	Cy_SCB_Write
	.syntax unified
	.thumb
	.thumb_func
	.type	Cy_SCB_Write, %function
Cy_SCB_Write:
.LFB192:
	.loc 2 221 1
	.cfi_startproc
	@ args = 0, pretend = 0, frame = 24
	@ frame_needed = 1, uses_anonymous_args = 0
	push	{r4, r7, lr}
.LCFI45:
	.cfi_def_cfa_offset 12
	.cfi_offset 4, -12
	.cfi_offset 7, -8
	.cfi_offset 14, -4
	sub	sp, sp, #28
.LCFI46:
	.cfi_def_cfa_offset 40
	add	r7, sp, #0
.LCFI47:
	.cfi_def_cfa_register 7
	str	r0, [r7, #4]
	str	r1, [r7]
	.loc 2 222 14
	movs	r3, #0
	str	r3, [r7, #20]
	.loc 2 224 9
	ldr	r0, [r7, #4]
	bl	Cy_SCB_GetFifoSize
	mov	r4, r0
	.loc 2 224 37
	ldr	r0, [r7, #4]
	bl	Cy_SCB_GetNumInTxFifo
	mov	r3, r0
	.loc 2 224 8
	cmp	r4, r3
	beq	.L32
	ldr	r3, [r7, #4]
	str	r3, [r7, #16]
	ldr	r3, [r7]
	str	r3, [r7, #12]
.LBB26:
.LBB27:
	.loc 1 956 45
	ldr	r3, [r7, #16]
	ldr	r2, [r7, #12]
	str	r2, [r3, #576]
	.loc 1 957 1
	nop
.LBE27:
.LBE26:
	.loc 2 228 19
	movs	r3, #1
	str	r3, [r7, #20]
.L32:
	.loc 2 231 12
	ldr	r3, [r7, #20]
	.loc 2 232 1
	mov	r0, r3
	adds	r7, r7, #28
.LCFI48:
	.cfi_def_cfa_offset 12
	mov	sp, r7
.LCFI49:
	.cfi_def_cfa_register 13
	@ sp needed
	pop	{r4, r7, pc}
	.cfi_endproc
.LFE192:
	.size	Cy_SCB_Write, .-Cy_SCB_Write
	.section	.text.Cy_SCB_WriteArrayNoCheck,"ax",%progbits
	.align	1
	.global	Cy_SCB_WriteArrayNoCheck
	.syntax unified
	.thumb
	.thumb_func
	.type	Cy_SCB_WriteArrayNoCheck, %function
Cy_SCB_WriteArrayNoCheck:
.LFB193:
	.loc 2 260 1
	.cfi_startproc
	@ args = 0, pretend = 0, frame = 48
	@ frame_needed = 1, uses_anonymous_args = 0
	push	{r7, lr}
.LCFI50:
	.cfi_def_cfa_offset 8
	.cfi_offset 7, -8
	.cfi_offset 14, -4
	sub	sp, sp, #48
.LCFI51:
	.cfi_def_cfa_offset 56
	add	r7, sp, #0
.LCFI52:
	.cfi_def_cfa_register 7
	str	r0, [r7, #12]
	str	r1, [r7, #8]
	str	r2, [r7, #4]
	.loc 2 263 9
	ldr	r0, [r7, #12]
	bl	Cy_SCB_IsTxDataWidthByte
	mov	r3, r0
	.loc 2 263 8
	cmp	r3, #0
	beq	.L35
.LBB28:
	.loc 2 265 18
	ldr	r3, [r7, #8]
	str	r3, [r7, #36]
	.loc 2 268 18
	movs	r3, #0
	str	r3, [r7, #44]
	.loc 2 268 9
	b	.L36
.L37:
	.loc 2 270 52 discriminator 3
	ldr	r2, [r7, #36]
	ldr	r3, [r7, #44]
	add	r3, r3, r2
	ldrb	r3, [r3]	@ zero_extendqisi2
	.loc 2 270 13 discriminator 3
	mov	r2, r3
	ldr	r3, [r7, #12]
	str	r3, [r7, #32]
	str	r2, [r7, #28]
.LBB29:
.LBB30:
	.loc 1 956 45 discriminator 3
	ldr	r3, [r7, #32]
	ldr	r2, [r7, #28]
	str	r2, [r3, #576]
	.loc 1 957 1 discriminator 3
	nop
.LBE30:
.LBE29:
	.loc 2 268 37 discriminator 3
	ldr	r3, [r7, #44]
	adds	r3, r3, #1
	str	r3, [r7, #44]
.L36:
	.loc 2 268 9 discriminator 1
	ldr	r2, [r7, #44]
	ldr	r3, [r7, #4]
	cmp	r2, r3
	bcc	.L37
.LBE28:
	.loc 2 317 1
	b	.L41
.L35:
.LBB31:
	.loc 2 275 19
	ldr	r3, [r7, #8]
	str	r3, [r7, #40]
	.loc 2 278 18
	movs	r3, #0
	str	r3, [r7, #44]
	.loc 2 278 9
	b	.L39
.L40:
	.loc 2 280 52 discriminator 3
	ldr	r3, [r7, #44]
	lsls	r3, r3, #1
	ldr	r2, [r7, #40]
	add	r3, r3, r2
	ldrh	r3, [r3]
	.loc 2 280 13 discriminator 3
	mov	r2, r3
	ldr	r3, [r7, #12]
	str	r3, [r7, #24]
	str	r2, [r7, #20]
.LBB32:
.LBB33:
	.loc 1 956 45 discriminator 3
	ldr	r3, [r7, #24]
	ldr	r2, [r7, #20]
	str	r2, [r3, #576]
	.loc 1 957 1 discriminator 3
	nop
.LBE33:
.LBE32:
	.loc 2 278 37 discriminator 3
	ldr	r3, [r7, #44]
	adds	r3, r3, #1
	str	r3, [r7, #44]
.L39:
	.loc 2 278 9 discriminator 1
	ldr	r2, [r7, #44]
	ldr	r3, [r7, #4]
	cmp	r2, r3
	bcc	.L40
.L41:
.LBE31:
	.loc 2 317 1
	nop
	adds	r7, r7, #48
.LCFI53:
	.cfi_def_cfa_offset 8
	mov	sp, r7
.LCFI54:
	.cfi_def_cfa_register 13
	@ sp needed
	pop	{r7, pc}
	.cfi_endproc
.LFE193:
	.size	Cy_SCB_WriteArrayNoCheck, .-Cy_SCB_WriteArrayNoCheck
	.section	.text.Cy_SCB_WriteArray,"ax",%progbits
	.align	1
	.global	Cy_SCB_WriteArray
	.syntax unified
	.thumb
	.thumb_func
	.type	Cy_SCB_WriteArray, %function
Cy_SCB_WriteArray:
.LFB194:
	.loc 2 344 1
	.cfi_startproc
	@ args = 0, pretend = 0, frame = 24
	@ frame_needed = 1, uses_anonymous_args = 0
	push	{r4, r7, lr}
.LCFI55:
	.cfi_def_cfa_offset 12
	.cfi_offset 4, -12
	.cfi_offset 7, -8
	.cfi_offset 14, -4
	sub	sp, sp, #28
.LCFI56:
	.cfi_def_cfa_offset 40
	add	r7, sp, #0
.LCFI57:
	.cfi_def_cfa_register 7
	str	r0, [r7, #12]
	str	r1, [r7, #8]
	str	r2, [r7, #4]
	.loc 2 346 26
	ldr	r0, [r7, #12]
	bl	Cy_SCB_GetFifoSize
	mov	r4, r0
	.loc 2 346 53
	ldr	r0, [r7, #12]
	bl	Cy_SCB_GetNumInTxFifo
	mov	r3, r0
	.loc 2 346 14
	subs	r3, r4, r3
	str	r3, [r7, #20]
	.loc 2 349 8
	ldr	r2, [r7, #20]
	ldr	r3, [r7, #4]
	cmp	r2, r3
	bls	.L43
	.loc 2 351 19
	ldr	r3, [r7, #4]
	str	r3, [r7, #20]
.L43:
	.loc 2 354 5
	ldr	r2, [r7, #20]
	ldr	r1, [r7, #8]
	ldr	r0, [r7, #12]
	bl	Cy_SCB_WriteArrayNoCheck
	.loc 2 356 12
	ldr	r3, [r7, #20]
	.loc 2 357 1
	mov	r0, r3
	adds	r7, r7, #28
.LCFI58:
	.cfi_def_cfa_offset 12
	mov	sp, r7
.LCFI59:
	.cfi_def_cfa_register 13
	@ sp needed
	pop	{r4, r7, pc}
	.cfi_endproc
.LFE194:
	.size	Cy_SCB_WriteArray, .-Cy_SCB_WriteArray
	.section	.text.Cy_SCB_WriteArrayBlocking,"ax",%progbits
	.align	1
	.global	Cy_SCB_WriteArrayBlocking
	.syntax unified
	.thumb
	.thumb_func
	.type	Cy_SCB_WriteArrayBlocking, %function
Cy_SCB_WriteArrayBlocking:
.LFB195:
	.loc 2 381 1
	.cfi_startproc
	@ args = 0, pretend = 0, frame = 32
	@ frame_needed = 1, uses_anonymous_args = 0
	push	{r7, lr}
.LCFI60:
	.cfi_def_cfa_offset 8
	.cfi_offset 7, -8
	.cfi_offset 14, -4
	sub	sp, sp, #32
.LCFI61:
	.cfi_def_cfa_offset 40
	add	r7, sp, #0
.LCFI62:
	.cfi_def_cfa_register 7
	str	r0, [r7, #12]
	str	r1, [r7, #8]
	str	r2, [r7, #4]
	.loc 2 383 14
	ldr	r3, [r7, #8]
	str	r3, [r7, #28]
	.loc 2 387 24
	ldr	r0, [r7, #12]
	bl	Cy_SCB_IsTxDataWidthByte
	mov	r3, r0
	strb	r3, [r7, #27]
	.loc 2 390 11
	b	.L46
.L49:
	.loc 2 392 21
	ldr	r2, [r7, #4]
	ldr	r1, [r7, #28]
	ldr	r0, [r7, #12]
	bl	Cy_SCB_WriteArray
	str	r0, [r7, #20]
	.loc 2 396 30
	ldrb	r3, [r7, #27]
	eor	r3, r3, #1
	uxtb	r3, r3
	.loc 2 396 44
	cmp	r3, #0
	beq	.L47
	.loc 2 396 44 is_stmt 0 discriminator 1
	ldr	r3, [r7, #20]
	lsls	r3, r3, #1
	b	.L48
.L47:
	.loc 2 396 44 discriminator 2
	ldr	r3, [r7, #20]
.L48:
	.loc 2 396 13 is_stmt 1 discriminator 4
	ldr	r2, [r7, #28]
	add	r3, r3, r2
	str	r3, [r7, #28]
	.loc 2 398 14 discriminator 4
	ldr	r2, [r7, #4]
	ldr	r3, [r7, #20]
	subs	r3, r2, r3
	str	r3, [r7, #4]
.L46:
	.loc 2 390 11
	ldr	r3, [r7, #4]
	cmp	r3, #0
	bne	.L49
	.loc 2 400 1
	nop
	nop
	adds	r7, r7, #32
.LCFI63:
	.cfi_def_cfa_offset 8
	mov	sp, r7
.LCFI64:
	.cfi_def_cfa_register 13
	@ sp needed
	pop	{r7, pc}
	.cfi_endproc
.LFE195:
	.size	Cy_SCB_WriteArrayBlocking, .-Cy_SCB_WriteArrayBlocking
	.section	.text.Cy_SCB_WriteString,"ax",%progbits
	.align	1
	.global	Cy_SCB_WriteString
	.syntax unified
	.thumb
	.thumb_func
	.type	Cy_SCB_WriteString, %function
Cy_SCB_WriteString:
.LFB196:
	.loc 2 418 1
	.cfi_startproc
	@ args = 0, pretend = 0, frame = 24
	@ frame_needed = 1, uses_anonymous_args = 0
	push	{r7, lr}
.LCFI65:
	.cfi_def_cfa_offset 8
	.cfi_offset 7, -8
	.cfi_offset 14, -4
	sub	sp, sp, #24
.LCFI66:
	.cfi_def_cfa_offset 32
	add	r7, sp, #0
.LCFI67:
	.cfi_def_cfa_register 7
	str	r0, [r7, #4]
	str	r1, [r7]
	.loc 2 419 14
	movs	r3, #0
	str	r3, [r7, #20]
	.loc 2 420 25
	ldr	r0, [r7, #4]
	bl	Cy_SCB_GetFifoSize
	str	r0, [r7, #16]
	.loc 2 423 11
	b	.L51
.L53:
	.loc 2 426 15
	nop
.L52:
	.loc 2 426 28 discriminator 1
	ldr	r0, [r7, #4]
	bl	Cy_SCB_GetNumInTxFifo
	mov	r2, r0
	.loc 2 426 15 discriminator 1
	ldr	r3, [r7, #16]
	cmp	r3, r2
	beq	.L52
	.loc 2 430 51
	ldr	r2, [r7]
	ldr	r3, [r7, #20]
	add	r3, r3, r2
	ldrb	r3, [r3]	@ zero_extendqisi2
	.loc 2 430 9
	mov	r2, r3
	ldr	r3, [r7, #4]
	str	r3, [r7, #12]
	str	r2, [r7, #8]
.LBB34:
.LBB35:
	.loc 1 956 45
	ldr	r3, [r7, #12]
	ldr	r2, [r7, #8]
	str	r2, [r3, #576]
	.loc 1 957 1
	nop
.LBE35:
.LBE34:
	.loc 2 431 9
	ldr	r3, [r7, #20]
	adds	r3, r3, #1
	str	r3, [r7, #20]
.L51:
	.loc 2 423 34
	ldr	r2, [r7]
	ldr	r3, [r7, #20]
	add	r3, r3, r2
	ldrb	r3, [r3]	@ zero_extendqisi2
	.loc 2 423 11
	cmp	r3, #0
	bne	.L53
	.loc 2 433 1
	nop
	nop
	adds	r7, r7, #24
.LCFI68:
	.cfi_def_cfa_offset 8
	mov	sp, r7
.LCFI69:
	.cfi_def_cfa_register 13
	@ sp needed
	pop	{r7, pc}
	.cfi_endproc
.LFE196:
	.size	Cy_SCB_WriteString, .-Cy_SCB_WriteString
	.section	.text.Cy_SCB_WriteDefaultArrayNoCheck,"ax",%progbits
	.align	1
	.global	Cy_SCB_WriteDefaultArrayNoCheck
	.syntax unified
	.thumb
	.thumb_func
	.type	Cy_SCB_WriteDefaultArrayNoCheck, %function
Cy_SCB_WriteDefaultArrayNoCheck:
.LFB197:
	.loc 2 457 1
	.cfi_startproc
	@ args = 0, pretend = 0, frame = 24
	@ frame_needed = 1, uses_anonymous_args = 0
	@ link register save eliminated.
	push	{r7}
.LCFI70:
	.cfi_def_cfa_offset 4
	.cfi_offset 7, -4
	sub	sp, sp, #28
.LCFI71:
	.cfi_def_cfa_offset 32
	add	r7, sp, #0
.LCFI72:
	.cfi_def_cfa_register 7
	str	r0, [r7, #12]
	str	r1, [r7, #8]
	str	r2, [r7, #4]
	.loc 2 458 11
	b	.L55
.L56:
	ldr	r3, [r7, #12]
	str	r3, [r7, #20]
	ldr	r3, [r7, #8]
	str	r3, [r7, #16]
.LBB36:
.LBB37:
	.loc 1 956 45
	ldr	r3, [r7, #20]
	ldr	r2, [r7, #16]
	str	r2, [r3, #576]
	.loc 1 957 1
	nop
.LBE37:
.LBE36:
	.loc 2 461 9
	ldr	r3, [r7, #4]
	subs	r3, r3, #1
	str	r3, [r7, #4]
.L55:
	.loc 2 458 11
	ldr	r3, [r7, #4]
	cmp	r3, #0
	bne	.L56
	.loc 2 463 1
	nop
	nop
	adds	r7, r7, #28
.LCFI73:
	.cfi_def_cfa_offset 4
	mov	sp, r7
.LCFI74:
	.cfi_def_cfa_register 13
	@ sp needed
	ldr	r7, [sp], #4
.LCFI75:
	.cfi_restore 7
	.cfi_def_cfa_offset 0
	bx	lr
	.cfi_endproc
.LFE197:
	.size	Cy_SCB_WriteDefaultArrayNoCheck, .-Cy_SCB_WriteDefaultArrayNoCheck
	.section	.text.Cy_SCB_WriteDefaultArray,"ax",%progbits
	.align	1
	.global	Cy_SCB_WriteDefaultArray
	.syntax unified
	.thumb
	.thumb_func
	.type	Cy_SCB_WriteDefaultArray, %function
Cy_SCB_WriteDefaultArray:
.LFB198:
	.loc 2 487 1
	.cfi_startproc
	@ args = 0, pretend = 0, frame = 24
	@ frame_needed = 1, uses_anonymous_args = 0
	push	{r4, r7, lr}
.LCFI76:
	.cfi_def_cfa_offset 12
	.cfi_offset 4, -12
	.cfi_offset 7, -8
	.cfi_offset 14, -4
	sub	sp, sp, #28
.LCFI77:
	.cfi_def_cfa_offset 40
	add	r7, sp, #0
.LCFI78:
	.cfi_def_cfa_register 7
	str	r0, [r7, #12]
	str	r1, [r7, #8]
	str	r2, [r7, #4]
	.loc 2 489 26
	ldr	r0, [r7, #12]
	bl	Cy_SCB_GetFifoSize
	mov	r4, r0
	.loc 2 489 53
	ldr	r0, [r7, #12]
	bl	Cy_SCB_GetNumInTxFifo
	mov	r3, r0
	.loc 2 489 14
	subs	r3, r4, r3
	str	r3, [r7, #20]
	.loc 2 492 8
	ldr	r2, [r7, #20]
	ldr	r3, [r7, #4]
	cmp	r2, r3
	bls	.L58
	.loc 2 494 19
	ldr	r3, [r7, #4]
	str	r3, [r7, #20]
.L58:
	.loc 2 497 5
	ldr	r2, [r7, #20]
	ldr	r1, [r7, #8]
	ldr	r0, [r7, #12]
	bl	Cy_SCB_WriteDefaultArrayNoCheck
	.loc 2 499 12
	ldr	r3, [r7, #20]
	.loc 2 500 1
	mov	r0, r3
	adds	r7, r7, #28
.LCFI79:
	.cfi_def_cfa_offset 12
	mov	sp, r7
.LCFI80:
	.cfi_def_cfa_register 13
	@ sp needed
	pop	{r4, r7, pc}
	.cfi_endproc
.LFE198:
	.size	Cy_SCB_WriteDefaultArray, .-Cy_SCB_WriteDefaultArray
	.text
.Letext0:
	.file 3 "d:\\llc\\softwares\\env-windows-v1.3.5\\tools\\gnu_gcc\\arm_gcc\\mingw\\arm-none-eabi\\include\\machine\\_default_types.h"
	.file 4 "d:\\llc\\softwares\\env-windows-v1.3.5\\tools\\gnu_gcc\\arm_gcc\\mingw\\arm-none-eabi\\include\\sys\\_stdint.h"
	.file 5 "libraries\\IFX_PSOC6_HAL\\mtb-pdl-cat1\\devices\\COMPONENT_CAT1A\\include/ip/cyip_scb.h"
	.file 6 "libraries\\IFX_PSOC6_HAL\\mtb-pdl-cat1\\devices\\COMPONENT_CAT1A\\include/psoc6_02_config.h"
	.file 7 "libraries\\IFX_PSOC6_HAL\\mtb-pdl-cat1\\drivers\\include/cy_syslib.h"