	.cpu cortex-m4
	.arch armv7e-m
	.fpu fpv4-sp-d16
	.eabi_attribute 27, 1
	.eabi_attribute 28, 1
	.eabi_attribute 20, 1
	.eabi_attribute 21, 1
	.eabi_attribute 23, 3
	.eabi_attribute 24, 1
	.eabi_attribute 25, 1
	.eabi_attribute 26, 1
	.eabi_attribute 30, 6
	.eabi_attribute 34, 1
	.eabi_attribute 18, 4
	.file	"cy_trigmux.c"
	.text
.Ltext0:
	.cfi_sections	.debug_frame
	.section	.text.CY_HALT,"ax",%progbits
	.align	1
	.syntax unified
	.thumb
	.thumb_func
	.type	CY_HALT, %function
CY_HALT:
.LFB133:
	.file 1 "libraries\\IFX_PSOC6_HAL\\core-lib\\include/cy_utils.h"
	.loc 1 49 1
	.cfi_startproc
	@ args = 0, pretend = 0, frame = 0
	@ frame_needed = 1, uses_anonymous_args = 0
	@ link register save eliminated.
	push	{r7}
.LCFI0:
	.cfi_def_cfa_offset 4
	.cfi_offset 7, -4
	add	r7, sp, #0
.LCFI1:
	.cfi_def_cfa_register 7
	.loc 1 50 5
	.syntax unified
@ 50 "libraries\IFX_PSOC6_HAL\core-lib\include/cy_utils.h" 1
	    bkpt    1
@ 0 "" 2
	.loc 1 51 1
	.thumb
	.syntax unified
	nop
	mov	sp, r7
.LCFI2:
	.cfi_def_cfa_register 13
	@ sp needed
	ldr	r7, [sp], #4
.LCFI3:
	.cfi_restore 7
	.cfi_def_cfa_offset 0
	bx	lr
	.cfi_endproc
.LFE133:
	.size	CY_HALT, .-CY_HALT
	.section	.text.Cy_TrigMux_Connect,"ax",%progbits
	.align	1
	.global	Cy_TrigMux_Connect
	.syntax unified
	.thumb
	.thumb_func
	.type	Cy_TrigMux_Connect, %function
Cy_TrigMux_Connect:
.LFB137:
	.file 2 "libraries\\IFX_PSOC6_HAL\\mtb-pdl-cat1\\drivers\\source\\cy_trigmux.c"
	.loc 2 112 1
	.cfi_startproc
	@ args = 0, pretend = 0, frame = 24
	@ frame_needed = 1, uses_anonymous_args = 0
	push	{r4, r5, r7, lr}
.LCFI4:
	.cfi_def_cfa_offset 16
	.cfi_offset 4, -16
	.cfi_offset 5, -12
	.cfi_offset 7, -8
	.cfi_offset 14, -4
	sub	sp, sp, #24
.LCFI5:
	.cfi_def_cfa_offset 40
	add	r7, sp, #0
.LCFI6:
	.cfi_def_cfa_register 7
	str	r0, [r7, #12]
	str	r1, [r7, #8]
	mov	r1, r2
	mov	r2, r3
	mov	r3, r1
	strb	r3, [r7, #7]
	mov	r3, r2
	strb	r3, [r7, #6]
	.loc 2 113 28
	ldr	r3, .L11
	str	r3, [r7, #20]
	.loc 2 114 12
	ldrb	r3, [r7, #6]	@ zero_extendqisi2
	cmp	r3, #1
	beq	.L3
	.loc 2 114 13 discriminator 1
	ldrb	r3, [r7, #6]	@ zero_extendqisi2
	cmp	r3, #0
	beq	.L3
	.loc 2 114 93 discriminator 2
	bl	CY_HALT
.L3:
	.loc 2 115 33
	ldr	r3, [r7, #12]
	bic	r3, r3, #4080
	bic	r3, r3, #15
	.loc 2 115 12
	cmp	r3, #0
	beq	.L4
	.loc 2 115 71 discriminator 1
	bl	CY_HALT
.L4:
	.loc 2 116 105
	ldr	r3, .L11+4
	ldr	r3, [r3]
	ldrh	r3, [r3, #114]
	.loc 2 116 75
	lsrs	r3, r3, #2
	uxth	r3, r3
	.loc 2 116 140
	subs	r3, r3, #1
	.loc 2 116 72
	orr	r3, r3, #1073741824
	orr	r3, r3, #3840
	.loc 2 116 37
	mvns	r2, r3
	.loc 2 116 35
	ldr	r3, [r7, #8]
	ands	r3, r3, r2
	.loc 2 116 12
	cmp	r3, #0
	bne	.L5
	.loc 2 116 172 discriminator 2
	ldr	r3, [r7, #8]
	and	r3, r3, #1073741824
	.loc 2 116 13 discriminator 2
	cmp	r3, #0
	bne	.L6
.L5:
	.loc 2 116 194 discriminator 3
	bl	CY_HALT
.L6:
	.loc 2 119 28
	ldr	r2, [r7, #12]
	ldr	r3, [r7, #8]
	eors	r3, r3, r2
	and	r3, r3, #3840
	.loc 2 119 8
	cmp	r3, #0
	bne	.L7
.LBB2:
	.loc 2 121 35
	bl	Cy_SysLib_EnterCriticalSection
	str	r0, [r7, #16]
	.loc 2 123 411
	ldr	r3, .L11+4
	ldr	r3, [r3]
	ldr	r3, [r3, #8]
	.loc 2 123 443
	ldr	r2, .L11+4
	ldr	r2, [r2]
	ldrh	r2, [r2, #112]
	.loc 2 123 422
	add	r2, r2, r3
	.loc 2 123 637
	ldr	r3, .L11+4
	ldr	r3, [r3]
	ldrh	r3, [r3, #114]
	.loc 2 123 607
	lsrs	r3, r3, #2
	uxth	r3, r3
	.loc 2 123 672
	subs	r1, r3, #1
	.loc 2 123 680
	ldr	r3, [r7, #8]
	ands	r3, r3, r1
	.loc 2 123 691
	lsls	r1, r3, #2
	.loc 2 123 508
	ldr	r3, .L11+4
	ldr	r3, [r3]
	ldrh	r3, [r3, #110]
	.loc 2 123 489
	mov	r0, r3
	.loc 2 123 486
	ldr	r3, [r7, #8]
	ands	r3, r3, r0
	.loc 2 123 530
	lsrs	r3, r3, #8
	.loc 2 123 562
	ldr	r0, .L11+4
	ldr	r0, [r0]
	ldrh	r0, [r0, #114]
	.loc 2 123 541
	mul	r3, r0, r3
	.loc 2 123 578
	add	r3, r3, r1
	add	r3, r3, r2
	.loc 2 123 370
	ldr	r3, [r3]
	.loc 2 123 724
	bic	r3, r3, #1020
	bic	r3, r3, #3
	.loc 2 127 71
	ldr	r2, [r7, #12]
	uxtb	r2, r2
	.loc 2 128 54
	ldrb	r1, [r7, #7]	@ zero_extendqisi2
	cmp	r1, #0
	beq	.L8
	.loc 2 128 54 is_stmt 0 discriminator 1
	mov	r1, #256
	b	.L9
.L8:
	.loc 2 128 54 discriminator 2
	movs	r1, #0
.L9:
	.loc 2 127 81 is_stmt 1
	orrs	r1, r1, r2
	.loc 2 129 44
	ldrb	r2, [r7, #6]	@ zero_extendqisi2
	.loc 2 129 65
	lsls	r2, r2, #9
	.loc 2 129 73
	and	r2, r2, #512
	.loc 2 128 61
	orrs	r2, r2, r1
	.loc 2 123 52
	ldr	r1, .L11+4
	ldr	r1, [r1]
	ldr	r1, [r1, #8]
	.loc 2 123 84
	ldr	r0, .L11+4
	ldr	r0, [r0]
	ldrh	r0, [r0, #112]
	.loc 2 123 63
	add	r0, r0, r1
	.loc 2 123 278
	ldr	r1, .L11+4
	ldr	r1, [r1]
	ldrh	r1, [r1, #114]
	.loc 2 123 248
	lsrs	r1, r1, #2
	uxth	r1, r1
	.loc 2 123 313
	subs	r4, r1, #1
	.loc 2 123 321
	ldr	r1, [r7, #8]
	ands	r1, r1, r4
	.loc 2 123 332
	lsls	r4, r1, #2
	.loc 2 123 149
	ldr	r1, .L11+4
	ldr	r1, [r1]
	ldrh	r1, [r1, #110]
	.loc 2 123 130
	mov	r5, r1
	.loc 2 123 127
	ldr	r1, [r7, #8]
	ands	r1, r1, r5
	.loc 2 123 171
	lsrs	r1, r1, #8
	.loc 2 123 203
	ldr	r5, .L11+4
	ldr	r5, [r5]
	ldrh	r5, [r5, #114]
	.loc 2 123 182
	mul	r1, r5, r1
	.loc 2 123 219
	add	r1, r1, r4
	add	r1, r1, r0
	.loc 2 126 61
	orrs	r3, r3, r2
	.loc 2 123 365
	str	r3, [r1]
	.loc 2 131 9
	ldr	r0, [r7, #16]
	bl	Cy_SysLib_ExitCriticalSection
	.loc 2 133 16
	movs	r3, #0
	str	r3, [r7, #20]
.L7:
.LBE2:
	.loc 2 136 12
	ldr	r3, [r7, #20]
	.loc 2 137 1
	mov	r0, r3
	adds	r7, r7, #24
.LCFI7:
	.cfi_def_cfa_offset 16
	mov	sp, r7
.LCFI8:
	.cfi_def_cfa_register 13
	@ sp needed
	pop	{r4, r5, r7, pc}
.L12:
	.align	2
.L11:
	.word	13500417
	.word	cy_device
	.cfi_endproc
.LFE137:
	.size	Cy_TrigMux_Connect, .-Cy_TrigMux_Connect
	.section	.text.Cy_TrigMux_Select,"ax",%progbits
	.align	1
	.global	Cy_TrigMux_Select
	.syntax unified
	.thumb
	.thumb_func
	.type	Cy_TrigMux_Select, %function
Cy_TrigMux_Select:
.LFB138:
	.loc 2 171 1
	.cfi_startproc
	@ args = 0, pretend = 0, frame = 16
	@ frame_needed = 1, uses_anonymous_args = 0
	push	{r4, r5, r7, lr}
.LCFI9:
	.cfi_def_cfa_offset 16
	.cfi_offset 4, -16
	.cfi_offset 5, -12
	.cfi_offset 7, -8
	.cfi_offset 14, -4
	sub	sp, sp, #16
.LCFI10:
	.cfi_def_cfa_offset 32
	add	r7, sp, #0
.LCFI11:
	.cfi_def_cfa_register 7
	str	r0, [r7, #4]
	mov	r3, r1
	strb	r3, [r7, #3]
	mov	r3, r2
	strb	r3, [r7, #2]
	.loc 2 172 28
	ldr	r3, .L21
	str	r3, [r7, #12]
	.loc 2 174 12
	ldrb	r3, [r7, #2]	@ zero_extendqisi2
	cmp	r3, #1
	beq	.L14
	.loc 2 174 13 discriminator 1
	ldrb	r3, [r7, #2]	@ zero_extendqisi2
	cmp	r3, #0
	beq	.L14
	.loc 2 174 93 discriminator 2
	bl	CY_HALT
.L14:
	.loc 2 175 106
	ldr	r3, .L21+4
	ldr	r3, [r3]
	ldrh	r3, [r3, #114]
	.loc 2 175 76
	lsrs	r3, r3, #2
	uxth	r3, r3
	.loc 2 175 141
	subs	r3, r3, #1
	.loc 2 175 73
	orr	r3, r3, #1073741824
	orr	r3, r3, #7936
	.loc 2 175 37
	mvns	r2, r3
	.loc 2 175 35
	ldr	r3, [r7, #4]
	ands	r3, r3, r2
	.loc 2 175 12
	cmp	r3, #0
	bne	.L15
	.loc 2 175 173 discriminator 2
	ldr	r3, [r7, #4]
	and	r3, r3, #1073741824
	.loc 2 175 151 discriminator 2
	cmp	r3, #0
	beq	.L15
	.loc 2 175 212 discriminator 4
	ldr	r3, [r7, #4]
	and	r3, r3, #4096
	.loc 2 175 13 discriminator 4
	cmp	r3, #0
	bne	.L16
.L15:
	.loc 2 175 253 discriminator 5
	bl	CY_HALT
.L16:
	.loc 2 177 38
	ldr	r3, .L21+4
	ldr	r3, [r3]
	ldrb	r3, [r3, #48]	@ zero_extendqisi2
	.loc 2 177 8
	cmp	r3, #31
	bls	.L17
.LBB3:
	.loc 2 181 26
	bl	Cy_SysLib_EnterCriticalSection
	str	r0, [r7, #8]
	.loc 2 183 411
	ldr	r3, .L21+4
	ldr	r3, [r3]
	ldr	r3, [r3, #8]
	.loc 2 183 443
	ldr	r2, .L21+4
	ldr	r2, [r2]
	ldrh	r2, [r2, #112]
	.loc 2 183 422
	add	r2, r2, r3
	.loc 2 183 637
	ldr	r3, .L21+4
	ldr	r3, [r3]
	ldrh	r3, [r3, #114]
	.loc 2 183 607
	lsrs	r3, r3, #2
	uxth	r3, r3
	.loc 2 183 672
	subs	r1, r3, #1
	.loc 2 183 680
	ldr	r3, [r7, #4]
	ands	r3, r3, r1
	.loc 2 183 691
	lsls	r1, r3, #2
	.loc 2 183 508
	ldr	r3, .L21+4
	ldr	r3, [r3]
	ldrh	r3, [r3, #110]
	.loc 2 183 489
	mov	r0, r3
	.loc 2 183 486
	ldr	r3, [r7, #4]
	ands	r3, r3, r0
	.loc 2 183 530
	lsrs	r3, r3, #8
	.loc 2 183 562
	ldr	r0, .L21+4
	ldr	r0, [r0]
	ldrh	r0, [r0, #114]
	.loc 2 183 541
	mul	r3, r0, r3
	.loc 2 183 578
	add	r3, r3, r1
	add	r3, r3, r2
	.loc 2 183 370
	ldr	r3, [r3]
	.loc 2 183 724
	bic	r2, r3, #768
	.loc 2 186 45
	ldrb	r3, [r7, #3]	@ zero_extendqisi2
	cmp	r3, #0
	beq	.L18
	.loc 2 186 45 is_stmt 0 discriminator 1
	movw	r1, #257
	b	.L19
.L18:
	.loc 2 186 45 discriminator 2
	movs	r1, #1
.L19:
	.loc 2 188 32 is_stmt 1
	ldrb	r3, [r7, #2]	@ zero_extendqisi2
	.loc 2 188 53
	lsls	r3, r3, #9
	.loc 2 188 61
	and	r3, r3, #512
	.loc 2 187 49
	orrs	r3, r3, r1
	.loc 2 183 52
	ldr	r1, .L21+4
	ldr	r1, [r1]
	ldr	r1, [r1, #8]
	.loc 2 183 84
	ldr	r0, .L21+4
	ldr	r0, [r0]
	ldrh	r0, [r0, #112]
	.loc 2 183 63
	add	r0, r0, r1
	.loc 2 183 278
	ldr	r1, .L21+4
	ldr	r1, [r1]
	ldrh	r1, [r1, #114]
	.loc 2 183 248
	lsrs	r1, r1, #2
	uxth	r1, r1
	.loc 2 183 313
	subs	r4, r1, #1
	.loc 2 183 321
	ldr	r1, [r7, #4]
	ands	r1, r1, r4
	.loc 2 183 332
	lsls	r4, r1, #2
	.loc 2 183 149
	ldr	r1, .L21+4
	ldr	r1, [r1]
	ldrh	r1, [r1, #110]
	.loc 2 183 130
	mov	r5, r1
	.loc 2 183 127
	ldr	r1, [r7, #4]
	ands	r1, r1, r5
	.loc 2 183 171
	lsrs	r1, r1, #8
	.loc 2 183 203
	ldr	r5, .L21+4
	ldr	r5, [r5]
	ldrh	r5, [r5, #114]
	.loc 2 183 182
	mul	r1, r5, r1
	.loc 2 183 219
	add	r1, r1, r4
	add	r1, r1, r0
	.loc 2 185 49
	orrs	r3, r3, r2
	.loc 2 183 365
	str	r3, [r1]
	.loc 2 190 9
	ldr	r0, [r7, #8]
	bl	Cy_SysLib_ExitCriticalSection
	.loc 2 192 16
	movs	r3, #0
	str	r3, [r7, #12]
.L17:
.LBE3:
	.loc 2 195 12
	ldr	r3, [r7, #12]
	.loc 2 196 1
	mov	r0, r3
	adds	r7, r7, #16
.LCFI12:
	.cfi_def_cfa_offset 16
	mov	sp, r7
.LCFI13:
	.cfi_def_cfa_register 13
	@ sp needed
	pop	{r4, r5, r7, pc}
.L22:
	.align	2
.L21:
	.word	13500417
	.word	cy_device
	.cfi_endproc
.LFE138:
	.size	Cy_TrigMux_Select, .-Cy_TrigMux_Select
	.section	.text.Cy_TrigMux_Deselect,"ax",%progbits
	.align	1
	.global	Cy_TrigMux_Deselect
	.syntax unified
	.thumb
	.thumb_func
	.type	Cy_TrigMux_Deselect, %function
Cy_TrigMux_Deselect:
.LFB139:
	.loc 2 221 1
	.cfi_startproc
	@ args = 0, pretend = 0, frame = 16
	@ frame_needed = 1, uses_anonymous_args = 0
	push	{r4, r7, lr}
.LCFI14:
	.cfi_def_cfa_offset 12
	.cfi_offset 4, -12
	.cfi_offset 7, -8
	.cfi_offset 14, -4
	sub	sp, sp, #20
.LCFI15:
	.cfi_def_cfa_offset 32
	add	r7, sp, #0
.LCFI16:
	.cfi_def_cfa_register 7
	str	r0, [r7, #4]
	.loc 2 222 28
	ldr	r3, .L28
	str	r3, [r7, #12]
	.loc 2 224 106
	ldr	r3, .L28+4
	ldr	r3, [r3]
	ldrh	r3, [r3, #114]
	.loc 2 224 76
	lsrs	r3, r3, #2
	uxth	r3, r3
	.loc 2 224 141
	subs	r3, r3, #1
	.loc 2 224 73
	orr	r3, r3, #1073741824
	orr	r3, r3, #7936
	.loc 2 224 37
	mvns	r2, r3
	.loc 2 224 35
	ldr	r3, [r7, #4]
	ands	r3, r3, r2
	.loc 2 224 12
	cmp	r3, #0
	bne	.L24
	.loc 2 224 173 discriminator 2
	ldr	r3, [r7, #4]
	and	r3, r3, #1073741824
	.loc 2 224 151 discriminator 2
	cmp	r3, #0
	beq	.L24
	.loc 2 224 212 discriminator 4
	ldr	r3, [r7, #4]
	and	r3, r3, #4096
	.loc 2 224 13 discriminator 4
	cmp	r3, #0
	bne	.L25
.L24:
	.loc 2 224 253 discriminator 5
	bl	CY_HALT
.L25:
	.loc 2 226 38
	ldr	r3, .L28+4
	ldr	r3, [r3]
	ldrb	r3, [r3, #48]	@ zero_extendqisi2
	.loc 2 226 8
	cmp	r3, #31
	bls	.L26
.LBB4:
	.loc 2 230 26
	bl	Cy_SysLib_EnterCriticalSection
	str	r0, [r7, #8]
	.loc 2 232 52
	ldr	r3, .L28+4
	ldr	r3, [r3]
	ldr	r3, [r3, #8]
	.loc 2 232 84
	ldr	r2, .L28+4
	ldr	r2, [r2]
	ldrh	r2, [r2, #112]
	.loc 2 232 63
	add	r2, r2, r3
	.loc 2 232 278
	ldr	r3, .L28+4
	ldr	r3, [r3]
	ldrh	r3, [r3, #114]
	.loc 2 232 248
	lsrs	r3, r3, #2
	uxth	r3, r3
	.loc 2 232 313
	subs	r1, r3, #1
	.loc 2 232 365
	ldr	r3, [r7, #4]
	ands	r3, r3, r1
	lsls	r1, r3, #2
	.loc 2 232 149
	ldr	r3, .L28+4
	ldr	r3, [r3]
	ldrh	r3, [r3, #110]
	.loc 2 232 130
	mov	r0, r3
	.loc 2 232 365
	ldr	r3, [r7, #4]
	ands	r3, r3, r0
	lsrs	r3, r3, #8
	.loc 2 232 203
	ldr	r0, .L28+4
	ldr	r0, [r0]
	ldrh	r0, [r0, #114]
	.loc 2 232 365
	mul	r3, r0, r3
	add	r3, r3, r1
	add	r3, r3, r2
	ldr	r3, [r3]
	.loc 2 232 52
	ldr	r2, .L28+4
	ldr	r2, [r2]
	ldr	r2, [r2, #8]
	.loc 2 232 84
	ldr	r1, .L28+4
	ldr	r1, [r1]
	ldrh	r1, [r1, #112]
	.loc 2 232 63
	add	r1, r1, r2
	.loc 2 232 278
	ldr	r2, .L28+4
	ldr	r2, [r2]
	ldrh	r2, [r2, #114]
	.loc 2 232 248
	lsrs	r2, r2, #2
	uxth	r2, r2
	.loc 2 232 313
	subs	r0, r2, #1
	.loc 2 232 365
	ldr	r2, [r7, #4]
	ands	r2, r2, r0
	lsls	r0, r2, #2
	.loc 2 232 149
	ldr	r2, .L28+4
	ldr	r2, [r2]
	ldrh	r2, [r2, #110]
	.loc 2 232 130
	mov	r4, r2
	.loc 2 232 365
	ldr	r2, [r7, #4]
	ands	r2, r2, r4
	lsrs	r2, r2, #8
	.loc 2 232 203
	ldr	r4, .L28+4
	ldr	r4, [r4]
	ldrh	r4, [r4, #114]
	.loc 2 232 365
	mul	r2, r4, r2
	add	r2, r2, r0
	add	r2, r2, r1
	bic	r3, r3, #768
	bic	r3, r3, #1
	str	r3, [r2]
	.loc 2 236 9
	ldr	r0, [r7, #8]
	bl	Cy_SysLib_ExitCriticalSection
	.loc 2 238 16
	movs	r3, #0
	str	r3, [r7, #12]
.L26:
.LBE4:
	.loc 2 241 12
	ldr	r3, [r7, #12]
	.loc 2 242 1
	mov	r0, r3
	adds	r7, r7, #20
.LCFI17:
	.cfi_def_cfa_offset 12
	mov	sp, r7
.LCFI18:
	.cfi_def_cfa_register 13
	@ sp needed
	pop	{r4, r7, pc}
.L29:
	.align	2
.L28:
	.word	13500417
	.word	cy_device
	.cfi_endproc
.LFE139:
	.size	Cy_TrigMux_Deselect, .-Cy_TrigMux_Deselect
	.section	.text.Cy_TrigMux_SetDebugFreeze,"ax",%progbits
	.align	1
	.global	Cy_TrigMux_SetDebugFreeze
	.syntax unified
	.thumb
	.thumb_func
	.type	Cy_TrigMux_SetDebugFreeze, %function
Cy_TrigMux_SetDebugFreeze:
.LFB140:
	.loc 2 272 1
	.cfi_startproc
	@ args = 0, pretend = 0, frame = 16
	@ frame_needed = 1, uses_anonymous_args = 0
	push	{r4, r7, lr}
.LCFI19:
	.cfi_def_cfa_offset 12
	.cfi_offset 4, -12
	.cfi_offset 7, -8
	.cfi_offset 14, -4
	sub	sp, sp, #20
.LCFI20:
	.cfi_def_cfa_offset 32
	add	r7, sp, #0
.LCFI21:
	.cfi_def_cfa_register 7
	str	r0, [r7, #4]
	mov	r3, r1
	strb	r3, [r7, #3]
	.loc 2 273 28
	ldr	r3, .L35
	str	r3, [r7, #12]
	.loc 2 275 38
	ldr	r3, .L35+4
	ldr	r3, [r3]
	ldrb	r3, [r3, #48]	@ zero_extendqisi2
	.loc 2 275 8
	cmp	r3, #31
	bls	.L31
.LBB5:
	.loc 2 279 26
	bl	Cy_SysLib_EnterCriticalSection
	str	r0, [r7, #8]
	.loc 2 281 12
	ldrb	r3, [r7, #3]	@ zero_extendqisi2
	cmp	r3, #0
	beq	.L32
	.loc 2 283 56
	ldr	r3, .L35+4
	ldr	r3, [r3]
	ldr	r3, [r3, #8]
	.loc 2 283 88
	ldr	r2, .L35+4
	ldr	r2, [r2]
	ldrh	r2, [r2, #112]
	.loc 2 283 67
	add	r2, r2, r3
	.loc 2 283 282
	ldr	r3, .L35+4
	ldr	r3, [r3]
	ldrh	r3, [r3, #114]
	.loc 2 283 252
	lsrs	r3, r3, #2
	uxth	r3, r3
	.loc 2 283 317
	subs	r1, r3, #1
	.loc 2 283 369
	ldr	r3, [r7, #4]
	ands	r3, r3, r1
	lsls	r1, r3, #2
	.loc 2 283 153
	ldr	r3, .L35+4
	ldr	r3, [r3]
	ldrh	r3, [r3, #110]
	.loc 2 283 134
	mov	r0, r3
	.loc 2 283 369
	ldr	r3, [r7, #4]
	ands	r3, r3, r0
	lsrs	r3, r3, #8
	.loc 2 283 207
	ldr	r0, .L35+4
	ldr	r0, [r0]
	ldrh	r0, [r0, #114]
	.loc 2 283 369
	mul	r3, r0, r3
	add	r3, r3, r1
	add	r3, r3, r2
	ldr	r3, [r3]
	.loc 2 283 56
	ldr	r2, .L35+4
	ldr	r2, [r2]
	ldr	r2, [r2, #8]
	.loc 2 283 88
	ldr	r1, .L35+4
	ldr	r1, [r1]
	ldrh	r1, [r1, #112]
	.loc 2 283 67
	add	r1, r1, r2
	.loc 2 283 282
	ldr	r2, .L35+4
	ldr	r2, [r2]
	ldrh	r2, [r2, #114]
	.loc 2 283 252
	lsrs	r2, r2, #2
	uxth	r2, r2
	.loc 2 283 317
	subs	r0, r2, #1
	.loc 2 283 369
	ldr	r2, [r7, #4]
	ands	r2, r2, r0
	lsls	r0, r2, #2
	.loc 2 283 153
	ldr	r2, .L35+4
	ldr	r2, [r2]
	ldrh	r2, [r2, #110]
	.loc 2 283 134
	mov	r4, r2
	.loc 2 283 369
	ldr	r2, [r7, #4]
	ands	r2, r2, r4
	lsrs	r2, r2, #8
	.loc 2 283 207
	ldr	r4, .L35+4
	ldr	r4, [r4]
	ldrh	r4, [r4, #114]
	.loc 2 283 369
	mul	r2, r4, r2
	add	r2, r2, r0
	add	r2, r2, r1
	orr	r3, r3, #4096
	str	r3, [r2]
	b	.L33
.L32:
	.loc 2 287 56
	ldr	r3, .L35+4
	ldr	r3, [r3]
	ldr	r3, [r3, #8]
	.loc 2 287 88
	ldr	r2, .L35+4
	ldr	r2, [r2]
	ldrh	r2, [r2, #112]
	.loc 2 287 67
	add	r2, r2, r3
	.loc 2 287 282
	ldr	r3, .L35+4
	ldr	r3, [r3]
	ldrh	r3, [r3, #114]
	.loc 2 287 252
	lsrs	r3, r3, #2
	uxth	r3, r3
	.loc 2 287 317
	subs	r1, r3, #1
	.loc 2 287 369
	ldr	r3, [r7, #4]
	ands	r3, r3, r1
	lsls	r1, r3, #2
	.loc 2 287 153
	ldr	r3, .L35+4
	ldr	r3, [r3]
	ldrh	r3, [r3, #110]
	.loc 2 287 134
	mov	r0, r3
	.loc 2 287 369
	ldr	r3, [r7, #4]
	ands	r3, r3, r0
	lsrs	r3, r3, #8
	.loc 2 287 207
	ldr	r0, .L35+4
	ldr	r0, [r0]
	ldrh	r0, [r0, #114]
	.loc 2 287 369
	mul	r3, r0, r3
	add	r3, r3, r1
	add	r3, r3, r2
	ldr	r3, [r3]
	.loc 2 287 56
	ldr	r2, .L35+4
	ldr	r2, [r2]
	ldr	r2, [r2, #8]
	.loc 2 287 88
	ldr	r1, .L35+4
	ldr	r1, [r1]
	ldrh	r1, [r1, #112]
	.loc 2 287 67
	add	r1, r1, r2
	.loc 2 287 282
	ldr	r2, .L35+4
	ldr	r2, [r2]
	ldrh	r2, [r2, #114]
	.loc 2 287 252
	lsrs	r2, r2, #2
	uxth	r2, r2
	.loc 2 287 317
	subs	r0, r2, #1
	.loc 2 287 369
	ldr	r2, [r7, #4]
	ands	r2, r2, r0
	lsls	r0, r2, #2
	.loc 2 287 153
	ldr	r2, .L35+4
	ldr	r2, [r2]
	ldrh	r2, [r2, #110]
	.loc 2 287 134
	mov	r4, r2
	.loc 2 287 369
	ldr	r2, [r7, #4]
	ands	r2, r2, r4
	lsrs	r2, r2, #8
	.loc 2 287 207
	ldr	r4, .L35+4
	ldr	r4, [r4]
	ldrh	r4, [r4, #114]
	.loc 2 287 369
	mul	r2, r4, r2
	add	r2, r2, r0
	add	r2, r2, r1
	bic	r3, r3, #4096
	str	r3, [r2]
.L33:
	.loc 2 290 9
	ldr	r0, [r7, #8]
	bl	Cy_SysLib_ExitCriticalSection
	.loc 2 292 16
	movs	r3, #0
	str	r3, [r7, #12]
.L31:
.LBE5:
	.loc 2 295 12
	ldr	r3, [r7, #12]
	.loc 2 296 1
	mov	r0, r3
	adds	r7, r7, #20
.LCFI22:
	.cfi_def_cfa_offset 12
	mov	sp, r7
.LCFI23:
	.cfi_def_cfa_register 13
	@ sp needed
	pop	{r4, r7, pc}
.L36:
	.align	2
.L35:
	.word	13500417
	.word	cy_device
	.cfi_endproc
.LFE140:
	.size	Cy_TrigMux_SetDebugFreeze, .-Cy_TrigMux_SetDebugFreeze
	.section	.text.Cy_TrigMux_SwTrigger,"ax",%progbits
	.align	1
	.global	Cy_TrigMux_SwTrigger
	.syntax unified
	.thumb
	.thumb_func
	.type	Cy_TrigMux_SwTrigger, %function
Cy_TrigMux_SwTrigger:
.LFB141:
	.loc 2 344 1
	.cfi_startproc
	@ args = 0, pretend = 0, frame = 16
	@ frame_needed = 1, uses_anonymous_args = 0
	push	{r7, lr}
.LCFI24:
	.cfi_def_cfa_offset 8
	.cfi_offset 7, -8
	.cfi_offset 14, -4
	sub	sp, sp, #16
.LCFI25:
	.cfi_def_cfa_offset 24
	add	r7, sp, #0
.LCFI26:
	.cfi_def_cfa_register 7
	str	r0, [r7, #4]
	str	r1, [r7]
	.loc 2 345 28
	ldr	r3, .L49
	str	r3, [r7, #12]
	.loc 2 347 83
	ldr	r3, .L49+4
	ldr	r3, [r3]
	ldrh	r3, [r3, #110]
	.loc 2 347 64
	mov	r2, r3
	.loc 2 347 137
	ldr	r3, .L49+4
	ldr	r3, [r3]
	ldrh	r3, [r3, #114]
	.loc 2 347 107
	lsrs	r3, r3, #2
	uxth	r3, r3
	.loc 2 347 172
	subs	r3, r3, #1
	.loc 2 347 104
	orrs	r3, r3, r2
	orr	r3, r3, #1073741824
	.loc 2 347 36
	mvns	r2, r3
	.loc 2 347 34
	ldr	r3, [r7, #4]
	ands	r3, r3, r2
	.loc 2 347 12
	cmp	r3, #0
	beq	.L38
	.loc 2 347 186 discriminator 1
	bl	CY_HALT
.L38:
	.loc 2 348 46
	ldr	r3, .L49+4
	ldr	r3, [r3]
	ldrb	r3, [r3, #48]	@ zero_extendqisi2
	.loc 2 348 12
	cmp	r3, #31
	bhi	.L39
	.loc 2 348 62 discriminator 2
	ldr	r3, [r7]
	cmp	r3, #255
	bls	.L40
.L39:
	.loc 2 348 13 discriminator 3
	ldr	r3, [r7]
	cmp	r3, #0
	beq	.L40
	.loc 2 348 112 discriminator 4
	ldr	r3, [r7]
	cmp	r3, #2
	beq	.L40
	.loc 2 348 135 discriminator 5
	ldr	r3, [r7]
	cmp	r3, #255
	beq	.L40
	.loc 2 348 166 discriminator 6
	bl	CY_HALT
.L40:
	.loc 2 350 8
	ldr	r3, [r7]
	cmp	r3, #0
	beq	.L41
	.loc 2 353 72
	ldr	r3, .L49+4
	ldr	r3, [r3]
	ldr	r3, [r3, #8]
	.loc 2 353 104
	ldr	r2, .L49+4
	ldr	r2, [r2]
	ldrh	r2, [r2, #108]
	.loc 2 353 83
	add	r3, r3, r2
	.loc 2 353 31
	ldr	r3, [r3]
	.loc 2 353 124
	and	r3, r3, #-2147483648
	.loc 2 353 12
	cmp	r3, #-2147483648
	beq	.L42
.LBB6:
	.loc 2 358 60
	ldr	r3, .L49+4
	ldr	r3, [r3]
	ldrh	r3, [r3, #110]
	.loc 2 357 56
	orr	r3, r3, #1073741824
	orr	r3, r3, #255
	.loc 2 356 40
	ldr	r2, [r7, #4]
	ands	r3, r3, r2
	.loc 2 356 22
	orr	r3, r3, #-2147483648
	str	r3, [r7, #8]
	.loc 2 361 20
	movs	r3, #0
	str	r3, [r7, #12]
	.loc 2 363 46
	ldr	r3, .L49+4
	ldr	r3, [r3]
	ldrb	r3, [r3, #48]	@ zero_extendqisi2
	.loc 2 363 62
	cmp	r3, #31
	bhi	.L43
	.loc 2 363 62 is_stmt 0 discriminator 1
	movs	r3, #1
	b	.L44
.L43:
	.loc 2 363 62 discriminator 2
	movs	r3, #0
.L44:
	.loc 2 363 16 is_stmt 1 discriminator 4
	cmp	r3, #0
	beq	.L45
	.loc 2 365 142
	ldr	r3, [r7]
	lsls	r3, r3, #16
	.loc 2 365 151
	and	r2, r3, #16711680
	.loc 2 365 59
	ldr	r3, .L49+4
	ldr	r3, [r3]
	ldr	r3, [r3, #8]
	.loc 2 365 91
	ldr	r1, .L49+4
	ldr	r1, [r1]
	ldrh	r1, [r1, #108]
	.loc 2 365 70
	add	r3, r3, r1
	.loc 2 365 19
	mov	r1, r3
	.loc 2 365 119
	ldr	r3, [r7, #8]
	orrs	r3, r3, r2
	.loc 2 365 111
	str	r3, [r1]
	b	.L42
.L45:
	.loc 2 367 21
	ldr	r3, [r7]
	cmp	r3, #2
	bne	.L46
	.loc 2 369 59
	ldr	r3, .L49+4
	ldr	r3, [r3]
	ldr	r3, [r3, #8]
	.loc 2 369 91
	ldr	r2, .L49+4
	ldr	r2, [r2]
	ldrh	r2, [r2, #108]
	.loc 2 369 70
	add	r3, r3, r2
	.loc 2 369 19
	mov	r2, r3
	.loc 2 369 119
	ldr	r3, [r7, #8]
	orr	r3, r3, #536870912
	.loc 2 369 111
	str	r3, [r2]
	b	.L42
.L46:
	.loc 2 371 21
	ldr	r3, [r7]
	cmp	r3, #255
	bne	.L47
	.loc 2 373 59
	ldr	r3, .L49+4
	ldr	r3, [r3]
	ldr	r3, [r3, #8]
	.loc 2 373 91
	ldr	r2, .L49+4
	ldr	r2, [r2]
	ldrh	r2, [r2, #108]
	.loc 2 373 70
	add	r3, r3, r2
	.loc 2 373 19
	mov	r2, r3
	.loc 2 373 111
	ldr	r3, [r7, #8]
	str	r3, [r2]
	b	.L42
.L47:
	.loc 2 377 24
	ldr	r3, .L49+8
	str	r3, [r7, #12]
	b	.L42
.L41:
.LBE6:
	.loc 2 384 72
	ldr	r3, .L49+4
	ldr	r3, [r3]
	ldr	r3, [r3, #8]
	.loc 2 384 104
	ldr	r2, .L49+4
	ldr	r2, [r2]
	ldrh	r2, [r2, #108]
	.loc 2 384 83
	add	r3, r3, r2
	.loc 2 384 31
	ldr	r3, [r3]
	.loc 2 384 124
	and	r3, r3, #-2147483648
	.loc 2 384 12
	cmp	r3, #-2147483648
	bne	.L42
	.loc 2 386 55
	ldr	r3, .L49+4
	ldr	r3, [r3]
	ldr	r3, [r3, #8]
	.loc 2 386 87
	ldr	r2, .L49+4
	ldr	r2, [r2]
	ldrh	r2, [r2, #108]
	.loc 2 386 66
	add	r3, r3, r2
	.loc 2 386 15
	mov	r2, r3
	.loc 2 386 107
	movs	r3, #0
	str	r3, [r2]
	.loc 2 388 20
	movs	r3, #0
	str	r3, [r7, #12]
.L42:
	.loc 2 392 12
	ldr	r3, [r7, #12]
	.loc 2 393 1
	mov	r0, r3
	adds	r7, r7, #16
.LCFI27:
	.cfi_def_cfa_offset 8
	mov	sp, r7
.LCFI28:
	.cfi_def_cfa_register 13
	@ sp needed
	pop	{r7, pc}
.L50:
	.align	2
.L49:
	.word	13500418
	.word	cy_device
	.word	13500417
	.cfi_endproc
.LFE141:
	.size	Cy_TrigMux_SwTrigger, .-Cy_TrigMux_SwTrigger
	.text
.Letext0:
	.file 3 "d:\\llc\\softwares\\env-windows-v1.3.5\\tools\\gnu_gcc\\arm_gcc\\mingw\\arm-none-eabi\\include\\machine\\_default_types.h"
	.file 4 "d:\\llc\\softwares\\env-windows-v1.3.5\\tools\\gnu_gcc\\arm_gcc\\mingw\\arm-none-eabi\\include\\sys\\_stdint.h"
	.file 5 "libraries\\IFX_PSOC6_HAL\\mtb-pdl-cat1\\devices\\COMPONENT_CAT1A\\include/psoc6_02_config.h"
	.file 6 "libraries\\IFX_PSOC6_HAL\\mtb-pdl-cat1\\devices\\COMPONENT_CAT1A\\include/cy_device.h"
	.file 7 "libraries\\IFX_PSOC6_HAL\\mtb-pdl-cat1\\drivers\\include/cy_trigmux.h"