	.cpu cortex-m4
	.arch armv7e-m
	.fpu fpv4-sp-d16
	.eabi_attribute 27, 1
	.eabi_attribute 28, 1
	.eabi_attribute 20, 1
	.eabi_attribute 21, 1
	.eabi_attribute 23, 3
	.eabi_attribute 24, 1
	.eabi_attribute 25, 1
	.eabi_attribute 26, 1
	.eabi_attribute 30, 6
	.eabi_attribute 34, 1
	.eabi_attribute 18, 4
	.file	"cybsp.c"
	.text
.Ltext0:
	.cfi_sections	.debug_frame
	.section	.text.cybsp_register_sysclk_pm_callback,"ax",%progbits
	.align	1
	.syntax unified
	.thumb
	.thumb_func
	.type	cybsp_register_sysclk_pm_callback, %function
cybsp_register_sysclk_pm_callback:
.LFB976:
	.file 1 "libs\\TARGET_RTT-062S2\\cybsp.c"
	.loc 1 65 1
	.cfi_startproc
	@ args = 0, pretend = 0, frame = 8
	@ frame_needed = 1, uses_anonymous_args = 0
	push	{r7, lr}
.LCFI0:
	.cfi_def_cfa_offset 8
	.cfi_offset 7, -8
	.cfi_offset 14, -4
	sub	sp, sp, #8
.LCFI1:
	.cfi_def_cfa_offset 16
	add	r7, sp, #0
.LCFI2:
	.cfi_def_cfa_register 7
	.loc 1 66 15
	movs	r3, #0
	str	r3, [r7, #4]
	.loc 1 76 10
	ldr	r0, .L4
	bl	Cy_SysPm_RegisterCallback
	mov	r3, r0
	.loc 1 76 9
	eor	r3, r3, #1
	uxtb	r3, r3
	.loc 1 76 8
	cmp	r3, #0
	beq	.L2
	.loc 1 78 16
	ldr	r3, .L4+4
	str	r3, [r7, #4]
.L2:
	.loc 1 80 12
	ldr	r3, [r7, #4]
	.loc 1 81 1
	mov	r0, r3
	adds	r7, r7, #8
.LCFI3:
	.cfi_def_cfa_offset 8
	mov	sp, r7
.LCFI4:
	.cfi_def_cfa_register 13
	@ sp needed
	pop	{r7, pc}
.L5:
	.align	2
.L4:
	.word	cybsp_sysclk_pm_callback.1
	.word	100794368
	.cfi_endproc
.LFE976:
	.size	cybsp_register_sysclk_pm_callback, .-cybsp_register_sysclk_pm_callback
	.section	.text.cybsp_init,"ax",%progbits
	.align	1
	.global	cybsp_init
	.syntax unified
	.thumb
	.thumb_func
	.type	cybsp_init, %function
cybsp_init:
.LFB977:
	.loc 1 91 1
	.cfi_startproc
	@ args = 0, pretend = 0, frame = 8
	@ frame_needed = 1, uses_anonymous_args = 0
	push	{r7, lr}
.LCFI5:
	.cfi_def_cfa_offset 8
	.cfi_offset 7, -8
	.cfi_offset 14, -4
	sub	sp, sp, #8
.LCFI6:
	.cfi_def_cfa_offset 16
	add	r7, sp, #0
.LCFI7:
	.cfi_def_cfa_register 7
	.loc 1 95 24
	bl	cyhal_hwmgr_init
	str	r0, [r7, #4]
	.loc 1 97 8
	ldr	r3, [r7, #4]
	cmp	r3, #0
	bne	.L7
	.loc 1 99 18
	bl	cyhal_syspm_init
	str	r0, [r7, #4]
.L7:
	.loc 1 103 8
	ldr	r3, [r7, #4]
	cmp	r3, #0
	bne	.L8
	.loc 1 105 9
	movw	r1, #3300
	movs	r0, #0
	bl	cyhal_syspm_set_supply_voltage
.L8:
	.loc 1 120 5
	bl	cycfg_config_init
	.loc 1 124 5
	bl	cycfg_config_reservations
	.loc 1 126 8
	ldr	r3, [r7, #4]
	cmp	r3, #0
	bne	.L9
	.loc 1 131 18
	bl	cybsp_register_sysclk_pm_callback
	str	r0, [r7, #4]
.L9:
	.loc 1 151 12
	ldr	r3, [r7, #4]
	.loc 1 152 1
	mov	r0, r3
	adds	r7, r7, #8
.LCFI8:
	.cfi_def_cfa_offset 8
	mov	sp, r7
.LCFI9:
	.cfi_def_cfa_register 13
	@ sp needed
	pop	{r7, pc}
	.cfi_endproc
.LFE977:
	.size	cybsp_init, .-cybsp_init
	.section	.data.cybsp_sysclk_pm_callback.1,"aw"
	.align	2
	.type	cybsp_sysclk_pm_callback.1, %object
	.size	cybsp_sysclk_pm_callback.1, 28
cybsp_sysclk_pm_callback.1:
	.word	Cy_SysClk_DeepSleepCallback
	.byte	1
	.space	7
	.word	cybsp_sysclk_pm_callback_param.0
	.space	8
	.byte	-1
	.space	3
	.section	.bss.cybsp_sysclk_pm_callback_param.0,"aw",%nobits
	.align	2
	.type	cybsp_sysclk_pm_callback_param.0, %object
	.size	cybsp_sysclk_pm_callback_param.0, 8
cybsp_sysclk_pm_callback_param.0:
	.space	8
	.text
.Letext0:
	.file 2 "d:\\llc\\softwares\\env-windows-v1.3.5\\tools\\gnu_gcc\\arm_gcc\\mingw\\arm-none-eabi\\include\\machine\\_default_types.h"
	.file 3 "d:\\llc\\softwares\\env-windows-v1.3.5\\tools\\gnu_gcc\\arm_gcc\\mingw\\arm-none-eabi\\include\\sys\\_stdint.h"
	.file 4 "libraries\\IFX_PSOC6_HAL\\core-lib\\include/cy_result.h"
	.file 5 "libraries\\IFX_PSOC6_HAL\\mtb-pdl-cat1\\drivers\\include/cy_syspm.h"
	.file 6 "libraries\\IFX_PSOC6_HAL\\mtb-hal-cat1\\include/cyhal_syspm.h"