	.cpu cortex-m4
	.arch armv7e-m
	.fpu fpv4-sp-d16
	.eabi_attribute 27, 1
	.eabi_attribute 28, 1
	.eabi_attribute 20, 1
	.eabi_attribute 21, 1
	.eabi_attribute 23, 3
	.eabi_attribute 24, 1
	.eabi_attribute 25, 1
	.eabi_attribute 26, 1
	.eabi_attribute 30, 6
	.eabi_attribute 34, 1
	.eabi_attribute 18, 4
	.file	"cycfg_routing.c"
	.text
.Ltext0:
	.cfi_sections	.debug_frame
	.section	.text.init_cycfg_routing,"ax",%progbits
	.align	1
	.global	init_cycfg_routing
	.syntax unified
	.thumb
	.thumb_func
	.type	init_cycfg_routing, %function
init_cycfg_routing:
.LFB133:
	.file 1 "libs\\TARGET_RTT-062S2\\config\\GeneratedSource\\cycfg_routing.c"
	.loc 1 34 1
	.cfi_startproc
	@ args = 0, pretend = 0, frame = 0
	@ frame_needed = 1, uses_anonymous_args = 0
	@ link register save eliminated.
	push	{r7}
.LCFI0:
	.cfi_def_cfa_offset 4
	.cfi_offset 7, -4
	add	r7, sp, #0
.LCFI1:
	.cfi_def_cfa_register 7
	.loc 1 35 33
	ldr	r3, .L2
	.loc 1 35 53
	add	r3, r3, #8192
	mov	r2, r3
	movs	r3, #51
	str	r3, [r2, #16]
	.loc 1 39 33
	ldr	r3, .L2
	.loc 1 39 53
	add	r3, r3, #8192
	mov	r2, r3
	movs	r3, #51
	str	r3, [r2, #20]
	.loc 1 43 1
	nop
	mov	sp, r7
.LCFI2:
	.cfi_def_cfa_register 13
	@ sp needed
	ldr	r7, [sp], #4
.LCFI3:
	.cfi_restore 7
	.cfi_def_cfa_offset 0
	bx	lr
.L3:
	.align	2
.L2:
	.word	1076887552
	.cfi_endproc
.LFE133:
	.size	init_cycfg_routing, .-init_cycfg_routing
	.text
.Letext0:
	.file 2 "d:\\llc\\softwares\\env-windows-v1.3.5\\tools\\gnu_gcc\\arm_gcc\\mingw\\arm-none-eabi\\include\\machine\\_default_types.h"
	.file 3 "d:\\llc\\softwares\\env-windows-v1.3.5\\tools\\gnu_gcc\\arm_gcc\\mingw\\arm-none-eabi\\include\\sys\\_stdint.h"
	.file 4 "libraries\\IFX_PSOC6_HAL\\mtb-pdl-cat1\\devices\\COMPONENT_CAT1A\\include/ip/cyip_hsiom_v2.h"
	.file 5 "libraries\\IFX_PSOC6_HAL\\mtb-pdl-cat1\\devices\\COMPONENT_CAT1A\\include/psoc6_02_config.h"